ARM GAS  C:\Users\Nathan\AppData\Local\Temp\ccQWWdhB.s 			page 1


   1              		.cpu cortex-m4
   2              		.arch armv7e-m
   3              		.fpu fpv4-sp-d16
   4              		.eabi_attribute 27, 1
   5              		.eabi_attribute 28, 1
   6              		.eabi_attribute 20, 1
   7              		.eabi_attribute 21, 1
   8              		.eabi_attribute 23, 3
   9              		.eabi_attribute 24, 1
  10              		.eabi_attribute 25, 1
  11              		.eabi_attribute 26, 1
  12              		.eabi_attribute 30, 1
  13              		.eabi_attribute 34, 1
  14              		.eabi_attribute 18, 4
  15              		.file	"bmp5.c"
  16              		.text
  17              	.Ltext0:
  18              		.cfi_sections	.debug_frame
  19              		.file 1 "Drivers/BMP580/Src/bmp5.c"
  20              		.section	.text.null_ptr_check,"ax",%progbits
  21              		.align	1
  22              		.syntax unified
  23              		.thumb
  24              		.thumb_func
  26              	null_ptr_check:
  27              	.LVL0:
  28              	.LFB24:
   1:Drivers/BMP580/Src/bmp5.c **** /**
   2:Drivers/BMP580/Src/bmp5.c **** * Copyright (c) 2022 Bosch Sensortec GmbH. All rights reserved.
   3:Drivers/BMP580/Src/bmp5.c **** *
   4:Drivers/BMP580/Src/bmp5.c **** * BSD-3-Clause
   5:Drivers/BMP580/Src/bmp5.c **** *
   6:Drivers/BMP580/Src/bmp5.c **** * Redistribution and use in source and binary forms, with or without
   7:Drivers/BMP580/Src/bmp5.c **** * modification, are permitted provided that the following conditions are met:
   8:Drivers/BMP580/Src/bmp5.c **** *
   9:Drivers/BMP580/Src/bmp5.c **** * 1. Redistributions of source code must retain the above copyright
  10:Drivers/BMP580/Src/bmp5.c **** *    notice, this list of conditions and the following disclaimer.
  11:Drivers/BMP580/Src/bmp5.c **** *
  12:Drivers/BMP580/Src/bmp5.c **** * 2. Redistributions in binary form must reproduce the above copyright
  13:Drivers/BMP580/Src/bmp5.c **** *    notice, this list of conditions and the following disclaimer in the
  14:Drivers/BMP580/Src/bmp5.c **** *    documentation and/or other materials provided with the distribution.
  15:Drivers/BMP580/Src/bmp5.c **** *
  16:Drivers/BMP580/Src/bmp5.c **** * 3. Neither the name of the copyright holder nor the names of its
  17:Drivers/BMP580/Src/bmp5.c **** *    contributors may be used to endorse or promote products derived from
  18:Drivers/BMP580/Src/bmp5.c **** *    this software without specific prior written permission.
  19:Drivers/BMP580/Src/bmp5.c **** *
  20:Drivers/BMP580/Src/bmp5.c **** * THIS SOFTWARE IS PROVIDED BY THE COPYRIGHT HOLDERS AND CONTRIBUTORS
  21:Drivers/BMP580/Src/bmp5.c **** * "AS IS" AND ANY EXPRESS OR IMPLIED WARRANTIES, INCLUDING, BUT NOT
  22:Drivers/BMP580/Src/bmp5.c **** * LIMITED TO, THE IMPLIED WARRANTIES OF MERCHANTABILITY AND FITNESS
  23:Drivers/BMP580/Src/bmp5.c **** * FOR A PARTICULAR PURPOSE ARE DISCLAIMED. IN NO EVENT SHALL THE
  24:Drivers/BMP580/Src/bmp5.c **** * COPYRIGHT HOLDER OR CONTRIBUTORS BE LIABLE FOR ANY DIRECT, INDIRECT,
  25:Drivers/BMP580/Src/bmp5.c **** * INCIDENTAL, SPECIAL, EXEMPLARY, OR CONSEQUENTIAL DAMAGES
  26:Drivers/BMP580/Src/bmp5.c **** * (INCLUDING, BUT NOT LIMITED TO, PROCUREMENT OF SUBSTITUTE GOODS OR
  27:Drivers/BMP580/Src/bmp5.c **** * SERVICES; LOSS OF USE, DATA, OR PROFITS; OR BUSINESS INTERRUPTION)
  28:Drivers/BMP580/Src/bmp5.c **** * HOWEVER CAUSED AND ON ANY THEORY OF LIABILITY, WHETHER IN CONTRACT,
  29:Drivers/BMP580/Src/bmp5.c **** * STRICT LIABILITY, OR TORT (INCLUDING NEGLIGENCE OR OTHERWISE) ARISING
  30:Drivers/BMP580/Src/bmp5.c **** * IN ANY WAY OUT OF THE USE OF THIS SOFTWARE, EVEN IF ADVISED OF THE
ARM GAS  C:\Users\Nathan\AppData\Local\Temp\ccQWWdhB.s 			page 2


  31:Drivers/BMP580/Src/bmp5.c **** * POSSIBILITY OF SUCH DAMAGE.
  32:Drivers/BMP580/Src/bmp5.c **** *
  33:Drivers/BMP580/Src/bmp5.c **** * @file       bmp5.c
  34:Drivers/BMP580/Src/bmp5.c **** * @date       2022-08-11
  35:Drivers/BMP580/Src/bmp5.c **** * @version    v1.1.1
  36:Drivers/BMP580/Src/bmp5.c **** *
  37:Drivers/BMP580/Src/bmp5.c **** */
  38:Drivers/BMP580/Src/bmp5.c **** 
  39:Drivers/BMP580/Src/bmp5.c **** /***************************************************************************/
  40:Drivers/BMP580/Src/bmp5.c **** 
  41:Drivers/BMP580/Src/bmp5.c **** /*!             Header files
  42:Drivers/BMP580/Src/bmp5.c ****  ****************************************************************************/
  43:Drivers/BMP580/Src/bmp5.c **** #include "bmp5.h"
  44:Drivers/BMP580/Src/bmp5.c **** 
  45:Drivers/BMP580/Src/bmp5.c **** /***************************************************************************/
  46:Drivers/BMP580/Src/bmp5.c **** 
  47:Drivers/BMP580/Src/bmp5.c **** /*!              Global Variable
  48:Drivers/BMP580/Src/bmp5.c ****  ****************************************************************************/
  49:Drivers/BMP580/Src/bmp5.c **** 
  50:Drivers/BMP580/Src/bmp5.c **** /******************************************************************************/
  51:Drivers/BMP580/Src/bmp5.c **** 
  52:Drivers/BMP580/Src/bmp5.c **** /*!         Local Function Prototypes
  53:Drivers/BMP580/Src/bmp5.c ****  ******************************************************************************/
  54:Drivers/BMP580/Src/bmp5.c **** 
  55:Drivers/BMP580/Src/bmp5.c **** /*!
  56:Drivers/BMP580/Src/bmp5.c ****  * @brief This internal API is used to validate the device pointer for
  57:Drivers/BMP580/Src/bmp5.c ****  * null conditions.
  58:Drivers/BMP580/Src/bmp5.c ****  *
  59:Drivers/BMP580/Src/bmp5.c ****  * @param[in] dev : Structure instance of bmp5_dev.
  60:Drivers/BMP580/Src/bmp5.c ****  *
  61:Drivers/BMP580/Src/bmp5.c ****  * @return Result of API execution status
  62:Drivers/BMP580/Src/bmp5.c ****  * @retval 0 -> Success
  63:Drivers/BMP580/Src/bmp5.c ****  * @retval <0 -> Fail
  64:Drivers/BMP580/Src/bmp5.c ****  */
  65:Drivers/BMP580/Src/bmp5.c **** static int8_t null_ptr_check(const struct bmp5_dev *dev);
  66:Drivers/BMP580/Src/bmp5.c **** 
  67:Drivers/BMP580/Src/bmp5.c **** /*!
  68:Drivers/BMP580/Src/bmp5.c ****  * @brief This internal API is used to validate the chip id of the sensor.
  69:Drivers/BMP580/Src/bmp5.c ****  *
  70:Drivers/BMP580/Src/bmp5.c ****  * @param[in] chip_id : Variable that hold the chip id from register.
  71:Drivers/BMP580/Src/bmp5.c ****  * @param[in,out] dev : Structure instance of bmp5_dev.
  72:Drivers/BMP580/Src/bmp5.c ****  *
  73:Drivers/BMP580/Src/bmp5.c ****  * @return Result of API execution status
  74:Drivers/BMP580/Src/bmp5.c ****  * @retval 0 -> Success
  75:Drivers/BMP580/Src/bmp5.c ****  * @retval <0 -> Fail
  76:Drivers/BMP580/Src/bmp5.c ****  */
  77:Drivers/BMP580/Src/bmp5.c **** static int8_t validate_chip_id(uint8_t chip_id, struct bmp5_dev *dev);
  78:Drivers/BMP580/Src/bmp5.c **** 
  79:Drivers/BMP580/Src/bmp5.c **** /*!
  80:Drivers/BMP580/Src/bmp5.c ****  * @brief This internal API is used to validate the post power-up procedure.
  81:Drivers/BMP580/Src/bmp5.c ****  *
  82:Drivers/BMP580/Src/bmp5.c ****  * @param[in] dev     : Structure instance of bmp5_dev.
  83:Drivers/BMP580/Src/bmp5.c ****  *
  84:Drivers/BMP580/Src/bmp5.c ****  * @return Result of API execution status
  85:Drivers/BMP580/Src/bmp5.c ****  * @retval 0 -> Success
  86:Drivers/BMP580/Src/bmp5.c ****  * @retval <0 -> Fail
  87:Drivers/BMP580/Src/bmp5.c ****  */
ARM GAS  C:\Users\Nathan\AppData\Local\Temp\ccQWWdhB.s 			page 3


  88:Drivers/BMP580/Src/bmp5.c **** static int8_t power_up_check(struct bmp5_dev *dev);
  89:Drivers/BMP580/Src/bmp5.c **** 
  90:Drivers/BMP580/Src/bmp5.c **** /*!
  91:Drivers/BMP580/Src/bmp5.c ****  * @brief This internal API is used to check if sensor is in deepstandby mode.
  92:Drivers/BMP580/Src/bmp5.c ****  *
  93:Drivers/BMP580/Src/bmp5.c ****  * @param[out] powermode : To store whether sensor is in deepstanby mode.
  94:Drivers/BMP580/Src/bmp5.c ****  * @param[in] dev        : Structure instance of bmp5_dev.
  95:Drivers/BMP580/Src/bmp5.c ****  *
  96:Drivers/BMP580/Src/bmp5.c ****  * @return Result of API execution status
  97:Drivers/BMP580/Src/bmp5.c ****  * @retval 0 -> Success
  98:Drivers/BMP580/Src/bmp5.c ****  * @retval <0 -> Fail
  99:Drivers/BMP580/Src/bmp5.c ****  */
 100:Drivers/BMP580/Src/bmp5.c **** static int8_t check_deepstandby_mode(enum bmp5_powermode *powermode, struct bmp5_dev *dev);
 101:Drivers/BMP580/Src/bmp5.c **** 
 102:Drivers/BMP580/Src/bmp5.c **** /*!
 103:Drivers/BMP580/Src/bmp5.c ****  * @brief This internal API is used to set sensor in deep standby powermode.
 104:Drivers/BMP580/Src/bmp5.c ****  *
 105:Drivers/BMP580/Src/bmp5.c ****  * @param[in] dev     : Structure instance of bmp5_dev.
 106:Drivers/BMP580/Src/bmp5.c ****  *
 107:Drivers/BMP580/Src/bmp5.c ****  * @return Result of API execution status
 108:Drivers/BMP580/Src/bmp5.c ****  * @retval 0 -> Success
 109:Drivers/BMP580/Src/bmp5.c ****  * @retval <0 -> Fail
 110:Drivers/BMP580/Src/bmp5.c ****  */
 111:Drivers/BMP580/Src/bmp5.c **** static int8_t set_deep_standby_mode(struct bmp5_dev *dev);
 112:Drivers/BMP580/Src/bmp5.c **** 
 113:Drivers/BMP580/Src/bmp5.c **** /*!
 114:Drivers/BMP580/Src/bmp5.c ****  * @brief This internal API is used to set sensor in standby or
 115:Drivers/BMP580/Src/bmp5.c ****  * normal or forced or continous powermode.
 116:Drivers/BMP580/Src/bmp5.c ****  *
 117:Drivers/BMP580/Src/bmp5.c ****  * @param[in] powermode : Select desired powermode.
 118:Drivers/BMP580/Src/bmp5.c ****  * @param[in] dev       : Structure instance of bmp5_dev.
 119:Drivers/BMP580/Src/bmp5.c ****  *
 120:Drivers/BMP580/Src/bmp5.c ****  * @return Result of API execution status
 121:Drivers/BMP580/Src/bmp5.c ****  * @retval 0 -> Success
 122:Drivers/BMP580/Src/bmp5.c ****  * @retval <0 -> Fail
 123:Drivers/BMP580/Src/bmp5.c ****  */
 124:Drivers/BMP580/Src/bmp5.c **** static int8_t set_power_mode(enum bmp5_powermode powermode, struct bmp5_dev *dev);
 125:Drivers/BMP580/Src/bmp5.c **** 
 126:Drivers/BMP580/Src/bmp5.c **** /*!
 127:Drivers/BMP580/Src/bmp5.c ****  * @brief This internal API is used to set sensor in standby powermode when powermode is deepstandb
 128:Drivers/BMP580/Src/bmp5.c ****  *
 129:Drivers/BMP580/Src/bmp5.c ****  * @param[in] dev   : Structure instance of bmp5_dev.
 130:Drivers/BMP580/Src/bmp5.c ****  *
 131:Drivers/BMP580/Src/bmp5.c ****  * @return Result of API execution status
 132:Drivers/BMP580/Src/bmp5.c ****  * @retval 0 -> Success
 133:Drivers/BMP580/Src/bmp5.c ****  * @retval <0 -> Fail
 134:Drivers/BMP580/Src/bmp5.c ****  */
 135:Drivers/BMP580/Src/bmp5.c **** static int8_t set_standby_mode(struct bmp5_dev *dev);
 136:Drivers/BMP580/Src/bmp5.c **** 
 137:Drivers/BMP580/Src/bmp5.c **** #ifdef BMP5_USE_FIXED_POINT
 138:Drivers/BMP580/Src/bmp5.c **** 
 139:Drivers/BMP580/Src/bmp5.c **** /*!
 140:Drivers/BMP580/Src/bmp5.c ****  * @brief This internal API is used to calculate the power of a value.
 141:Drivers/BMP580/Src/bmp5.c ****  *
 142:Drivers/BMP580/Src/bmp5.c ****  * @param[in] base          : Base for power calculation.
 143:Drivers/BMP580/Src/bmp5.c ****  * @param[in] resolution    : Exponent for power calculation.
 144:Drivers/BMP580/Src/bmp5.c ****  *
ARM GAS  C:\Users\Nathan\AppData\Local\Temp\ccQWWdhB.s 			page 4


 145:Drivers/BMP580/Src/bmp5.c ****  * @return the calculated power
 146:Drivers/BMP580/Src/bmp5.c ****  * @retval the power value
 147:Drivers/BMP580/Src/bmp5.c ****  */
 148:Drivers/BMP580/Src/bmp5.c **** static uint32_t power(uint8_t base, uint8_t resolution);
 149:Drivers/BMP580/Src/bmp5.c **** 
 150:Drivers/BMP580/Src/bmp5.c **** #endif
 151:Drivers/BMP580/Src/bmp5.c **** 
 152:Drivers/BMP580/Src/bmp5.c **** /*!
 153:Drivers/BMP580/Src/bmp5.c ****  * @brief This internal API is used to set the IIR for temperature and pressure.
 154:Drivers/BMP580/Src/bmp5.c ****  *
 155:Drivers/BMP580/Src/bmp5.c ****  * @param[in] iir_cfg : Structure instance of bmp5_iir_config.
 156:Drivers/BMP580/Src/bmp5.c ****  * @param[in] dev     : Structure instance of bmp5_dev.
 157:Drivers/BMP580/Src/bmp5.c ****  *
 158:Drivers/BMP580/Src/bmp5.c ****  * @return Result of API execution status
 159:Drivers/BMP580/Src/bmp5.c ****  * @retval 0 -> Success
 160:Drivers/BMP580/Src/bmp5.c ****  * @retval <0 -> Fail
 161:Drivers/BMP580/Src/bmp5.c ****  */
 162:Drivers/BMP580/Src/bmp5.c **** static int8_t set_iir_config(const struct bmp5_iir_config *iir_cfg, struct bmp5_dev *dev);
 163:Drivers/BMP580/Src/bmp5.c **** 
 164:Drivers/BMP580/Src/bmp5.c **** /*!
 165:Drivers/BMP580/Src/bmp5.c ****  * @brief This internal API is used to set fifo threshold based on the frame type selected.
 166:Drivers/BMP580/Src/bmp5.c ****  *
 167:Drivers/BMP580/Src/bmp5.c ****  * @param[in,out] reg_data : Stores the register data.
 168:Drivers/BMP580/Src/bmp5.c ****  * @param[in] fifo         : Structure instance of bmp5_fifo.
 169:Drivers/BMP580/Src/bmp5.c ****  *
 170:Drivers/BMP580/Src/bmp5.c ****  * @return Result of API execution status
 171:Drivers/BMP580/Src/bmp5.c ****  * @retval 0 -> Success
 172:Drivers/BMP580/Src/bmp5.c ****  * @retval <0 -> Fail
 173:Drivers/BMP580/Src/bmp5.c ****  */
 174:Drivers/BMP580/Src/bmp5.c **** static int8_t set_fifo_threshold(uint8_t *reg_data, const struct bmp5_fifo *fifo);
 175:Drivers/BMP580/Src/bmp5.c **** 
 176:Drivers/BMP580/Src/bmp5.c **** /*!
 177:Drivers/BMP580/Src/bmp5.c **** * @brief This internal API sets the configuration for IIR of fifo.
 178:Drivers/BMP580/Src/bmp5.c **** *
 179:Drivers/BMP580/Src/bmp5.c **** * @param[in] set_fifo_iir_t : Variable to store the fifo IIR value for temperature.
 180:Drivers/BMP580/Src/bmp5.c **** * @param[in] set_fifo_iir_p : Variable to store the fifo IIR value for pressure.
 181:Drivers/BMP580/Src/bmp5.c **** * @param[in] dev            : Structure instance of bmp5_dev.
 182:Drivers/BMP580/Src/bmp5.c **** *
 183:Drivers/BMP580/Src/bmp5.c **** * @return Result of API execution status
 184:Drivers/BMP580/Src/bmp5.c **** * @retval 0 -> Success
 185:Drivers/BMP580/Src/bmp5.c **** * @retval <0 -> Fail
 186:Drivers/BMP580/Src/bmp5.c **** */
 187:Drivers/BMP580/Src/bmp5.c **** static int8_t set_fifo_iir_config(uint8_t set_fifo_iir_t, uint8_t set_fifo_iir_p, struct bmp5_dev *
 188:Drivers/BMP580/Src/bmp5.c **** 
 189:Drivers/BMP580/Src/bmp5.c **** /*!
 190:Drivers/BMP580/Src/bmp5.c **** * @brief This internal API is used to unpack the fifo data and store it in the bmp5_sensor_data str
 191:Drivers/BMP580/Src/bmp5.c **** *
 192:Drivers/BMP580/Src/bmp5.c **** * @param[out] sensor_data    : Stores the pressure and temperature data in bmp5_sensor_data structu
 193:Drivers/BMP580/Src/bmp5.c **** * @param[in,out] data_index  : Contains the beginning of set of bytes parsed to unpack.
 194:Drivers/BMP580/Src/bmp5.c **** * @param[in] fifo            : Structure instance of bmp5_fifo.
 195:Drivers/BMP580/Src/bmp5.c **** *
 196:Drivers/BMP580/Src/bmp5.c **** * @return Result of API execution status
 197:Drivers/BMP580/Src/bmp5.c **** * @retval 0 -> Success
 198:Drivers/BMP580/Src/bmp5.c **** * @retval <0 -> Fail
 199:Drivers/BMP580/Src/bmp5.c **** */
 200:Drivers/BMP580/Src/bmp5.c **** static int8_t unpack_sensor_data(struct bmp5_sensor_data *sensor_data,
 201:Drivers/BMP580/Src/bmp5.c ****                                  uint16_t *data_index,
ARM GAS  C:\Users\Nathan\AppData\Local\Temp\ccQWWdhB.s 			page 5


 202:Drivers/BMP580/Src/bmp5.c ****                                  const struct bmp5_fifo *fifo);
 203:Drivers/BMP580/Src/bmp5.c **** 
 204:Drivers/BMP580/Src/bmp5.c **** /*!
 205:Drivers/BMP580/Src/bmp5.c ****  * @brief This internal API sets the IIR configuration and count limit of OOR pressure.
 206:Drivers/BMP580/Src/bmp5.c ****  *
 207:Drivers/BMP580/Src/bmp5.c ****  * @param[in] set_oor_iir_p   : Variable to store the OOR IIR value for pressure.
 208:Drivers/BMP580/Src/bmp5.c ****  * @param[in] set_count_limit : Variable to store the OOR count limit value for pressure.
 209:Drivers/BMP580/Src/bmp5.c ****  * @param[in] dev             : Structure instance of bmp5_dev.
 210:Drivers/BMP580/Src/bmp5.c ****  *
 211:Drivers/BMP580/Src/bmp5.c ****  * @return Result of API execution status
 212:Drivers/BMP580/Src/bmp5.c ****  * @retval 0 -> Success
 213:Drivers/BMP580/Src/bmp5.c ****  * @retval <0 -> Fail
 214:Drivers/BMP580/Src/bmp5.c ****  */
 215:Drivers/BMP580/Src/bmp5.c **** static int8_t set_oor_iir_count_limit(uint8_t set_oor_iir_p, uint8_t set_count_limit, struct bmp5_d
 216:Drivers/BMP580/Src/bmp5.c **** 
 217:Drivers/BMP580/Src/bmp5.c **** /*!
 218:Drivers/BMP580/Src/bmp5.c ****  * @brief This internal API is used to read the nvm data.
 219:Drivers/BMP580/Src/bmp5.c ****  *
 220:Drivers/BMP580/Src/bmp5.c ****  * @param[out] nvm_data : Variable to store nvm data.
 221:Drivers/BMP580/Src/bmp5.c ****  * @param[in] dev       : Structure instance of bmp5_dev.
 222:Drivers/BMP580/Src/bmp5.c ****  *
 223:Drivers/BMP580/Src/bmp5.c ****  * @return Result of API execution status
 224:Drivers/BMP580/Src/bmp5.c ****  * @retval 0 -> Success
 225:Drivers/BMP580/Src/bmp5.c ****  * @retval <0 -> Fail
 226:Drivers/BMP580/Src/bmp5.c ****  */
 227:Drivers/BMP580/Src/bmp5.c **** static int8_t get_nvm_data(uint16_t *nvm_data, struct bmp5_dev *dev);
 228:Drivers/BMP580/Src/bmp5.c **** 
 229:Drivers/BMP580/Src/bmp5.c **** /*!
 230:Drivers/BMP580/Src/bmp5.c ****  * @brief This internal API is used to get the nvm status (NVM ready interrupt, NVM error interrupt
 231:Drivers/BMP580/Src/bmp5.c ****  * and NVM command error interrupt).
 232:Drivers/BMP580/Src/bmp5.c ****  *
 233:Drivers/BMP580/Src/bmp5.c ****  * @param[out] nvm_status  : Variable to store nvm status.
 234:Drivers/BMP580/Src/bmp5.c ****  * @param[in] dev          : Structure instance of bmp5_dev.
 235:Drivers/BMP580/Src/bmp5.c ****  *
 236:Drivers/BMP580/Src/bmp5.c ****  * @note : Below are values of nvm_status possible.
 237:Drivers/BMP580/Src/bmp5.c ****  *
 238:Drivers/BMP580/Src/bmp5.c ****  *     nvm_status       |  Functionality
 239:Drivers/BMP580/Src/bmp5.c ****  * ---------------------|----------------------------
 240:Drivers/BMP580/Src/bmp5.c ****  * BMP5_INT_NVM_RDY     |  NVM ready status
 241:Drivers/BMP580/Src/bmp5.c ****  * BMP5_INT_NVM_ERR     |  NVM error status
 242:Drivers/BMP580/Src/bmp5.c ****  * BMP5_NVM_CMD_ERR     |  NVM command error status
 243:Drivers/BMP580/Src/bmp5.c ****  *
 244:Drivers/BMP580/Src/bmp5.c ****  * @return Result of API execution status.
 245:Drivers/BMP580/Src/bmp5.c ****  * @return 0 -> Success
 246:Drivers/BMP580/Src/bmp5.c ****  * @return < 0 -> Fail
 247:Drivers/BMP580/Src/bmp5.c ****  */
 248:Drivers/BMP580/Src/bmp5.c **** static int8_t get_nvm_status(uint8_t *nvm_status, struct bmp5_dev *dev);
 249:Drivers/BMP580/Src/bmp5.c **** 
 250:Drivers/BMP580/Src/bmp5.c **** /*!
 251:Drivers/BMP580/Src/bmp5.c ****  * @brief This internal API is used to write the nvm address and prog_en.
 252:Drivers/BMP580/Src/bmp5.c ****  *
 253:Drivers/BMP580/Src/bmp5.c ****  * @param[out] nvm_addr        : Variable that holds the nvm address.
 254:Drivers/BMP580/Src/bmp5.c ****  * @param[in] prog_en          : Variable that holds the prog_en value.
 255:Drivers/BMP580/Src/bmp5.c ****  * @param[in,out] curr_pwrmode : Stores current powermode.
 256:Drivers/BMP580/Src/bmp5.c ****  * @param[in] dev              : Structure instance of bmp5_dev.
 257:Drivers/BMP580/Src/bmp5.c ****  *
 258:Drivers/BMP580/Src/bmp5.c ****  * @return Result of API execution status
ARM GAS  C:\Users\Nathan\AppData\Local\Temp\ccQWWdhB.s 			page 6


 259:Drivers/BMP580/Src/bmp5.c ****  * @retval 0 -> Success
 260:Drivers/BMP580/Src/bmp5.c ****  * @retval <0 -> Fail
 261:Drivers/BMP580/Src/bmp5.c ****  */
 262:Drivers/BMP580/Src/bmp5.c **** static int8_t nvm_write_addr(uint8_t nvm_addr, uint8_t prog_en, enum bmp5_powermode *curr_pwrmode,
 263:Drivers/BMP580/Src/bmp5.c ****                              struct bmp5_dev *dev);
 264:Drivers/BMP580/Src/bmp5.c **** 
 265:Drivers/BMP580/Src/bmp5.c **** /*!
 266:Drivers/BMP580/Src/bmp5.c ****  * @brief This internal API is used to set the nvm address and prog_enable based on NVM read/write 
 267:Drivers/BMP580/Src/bmp5.c ****  *
 268:Drivers/BMP580/Src/bmp5.c ****  * @param[out] nvm_addr    : Variable that holds the nvm address.
 269:Drivers/BMP580/Src/bmp5.c ****  * @param[in] prog_en      : Variable that holds the prog_en value.
 270:Drivers/BMP580/Src/bmp5.c ****  * @param[in] dev          : Structure instance of bmp5_dev.
 271:Drivers/BMP580/Src/bmp5.c ****  *
 272:Drivers/BMP580/Src/bmp5.c ****  * @return Result of API execution status
 273:Drivers/BMP580/Src/bmp5.c ****  * @retval 0 -> Success
 274:Drivers/BMP580/Src/bmp5.c ****  * @retval <0 -> Fail
 275:Drivers/BMP580/Src/bmp5.c ****  */
 276:Drivers/BMP580/Src/bmp5.c **** static int8_t set_nvm_addr(uint8_t nvm_addr, uint8_t prog_en, struct bmp5_dev *dev);
 277:Drivers/BMP580/Src/bmp5.c **** 
 278:Drivers/BMP580/Src/bmp5.c **** /***************************************************************************/
 279:Drivers/BMP580/Src/bmp5.c **** 
 280:Drivers/BMP580/Src/bmp5.c **** /*!         Local Function Definitions
 281:Drivers/BMP580/Src/bmp5.c ****  ****************************************************************************/
 282:Drivers/BMP580/Src/bmp5.c **** 
 283:Drivers/BMP580/Src/bmp5.c **** /*!
 284:Drivers/BMP580/Src/bmp5.c **** *  @brief This API is the entry point.
 285:Drivers/BMP580/Src/bmp5.c **** *  It performs the selection of I2C/I3C/SPI read mechanism according to the
 286:Drivers/BMP580/Src/bmp5.c **** *  selected interface and reads the chip-id of the sensor.
 287:Drivers/BMP580/Src/bmp5.c **** */
 288:Drivers/BMP580/Src/bmp5.c **** int8_t bmp5_init(struct bmp5_dev *dev)
 289:Drivers/BMP580/Src/bmp5.c **** {
 290:Drivers/BMP580/Src/bmp5.c ****     int8_t rslt;
 291:Drivers/BMP580/Src/bmp5.c ****     uint8_t reg_data;
 292:Drivers/BMP580/Src/bmp5.c ****     uint8_t chip_id;
 293:Drivers/BMP580/Src/bmp5.c **** 
 294:Drivers/BMP580/Src/bmp5.c ****     /* Check for null pointer in the device structure */
 295:Drivers/BMP580/Src/bmp5.c ****     rslt = null_ptr_check(dev);
 296:Drivers/BMP580/Src/bmp5.c **** 
 297:Drivers/BMP580/Src/bmp5.c ****     if (rslt == BMP5_OK)
 298:Drivers/BMP580/Src/bmp5.c ****     {
 299:Drivers/BMP580/Src/bmp5.c ****         dev->chip_id = 0;
 300:Drivers/BMP580/Src/bmp5.c **** 
 301:Drivers/BMP580/Src/bmp5.c ****         if (dev->intf == BMP5_SPI_INTF)
 302:Drivers/BMP580/Src/bmp5.c ****         {
 303:Drivers/BMP580/Src/bmp5.c ****             /* Performing a single read via SPI of registers,
 304:Drivers/BMP580/Src/bmp5.c ****              * e.g. registers CHIP_ID, before the actual
 305:Drivers/BMP580/Src/bmp5.c ****              * SPI communication with the device.
 306:Drivers/BMP580/Src/bmp5.c ****              */
 307:Drivers/BMP580/Src/bmp5.c ****             rslt = bmp5_get_regs(BMP5_REG_CHIP_ID, &reg_data, 1, dev);
 308:Drivers/BMP580/Src/bmp5.c ****         }
 309:Drivers/BMP580/Src/bmp5.c **** 
 310:Drivers/BMP580/Src/bmp5.c ****         if (rslt == BMP5_OK)
 311:Drivers/BMP580/Src/bmp5.c ****         {
 312:Drivers/BMP580/Src/bmp5.c ****             /* Read chip_id */
 313:Drivers/BMP580/Src/bmp5.c ****             rslt = bmp5_get_regs(BMP5_REG_CHIP_ID, &chip_id, 1, dev);
 314:Drivers/BMP580/Src/bmp5.c **** 
 315:Drivers/BMP580/Src/bmp5.c ****             if (rslt == BMP5_OK)
ARM GAS  C:\Users\Nathan\AppData\Local\Temp\ccQWWdhB.s 			page 7


 316:Drivers/BMP580/Src/bmp5.c ****             {
 317:Drivers/BMP580/Src/bmp5.c ****                 if (chip_id != 0)
 318:Drivers/BMP580/Src/bmp5.c ****                 {
 319:Drivers/BMP580/Src/bmp5.c ****                     /* Validate post power-up procedure */
 320:Drivers/BMP580/Src/bmp5.c ****                     rslt = power_up_check(dev);
 321:Drivers/BMP580/Src/bmp5.c ****                 }
 322:Drivers/BMP580/Src/bmp5.c ****                 else
 323:Drivers/BMP580/Src/bmp5.c ****                 {
 324:Drivers/BMP580/Src/bmp5.c ****                     rslt = BMP5_E_INVALID_CHIP_ID;
 325:Drivers/BMP580/Src/bmp5.c ****                 }
 326:Drivers/BMP580/Src/bmp5.c **** 
 327:Drivers/BMP580/Src/bmp5.c ****                 if (rslt == BMP5_OK)
 328:Drivers/BMP580/Src/bmp5.c ****                 {
 329:Drivers/BMP580/Src/bmp5.c ****                     rslt = validate_chip_id(chip_id, dev);
 330:Drivers/BMP580/Src/bmp5.c ****                 }
 331:Drivers/BMP580/Src/bmp5.c ****             }
 332:Drivers/BMP580/Src/bmp5.c ****         }
 333:Drivers/BMP580/Src/bmp5.c ****     }
 334:Drivers/BMP580/Src/bmp5.c **** 
 335:Drivers/BMP580/Src/bmp5.c ****     return rslt;
 336:Drivers/BMP580/Src/bmp5.c **** }
 337:Drivers/BMP580/Src/bmp5.c **** 
 338:Drivers/BMP580/Src/bmp5.c **** /*!
 339:Drivers/BMP580/Src/bmp5.c ****  * @brief This API reads the data from the given register address of the sensor.
 340:Drivers/BMP580/Src/bmp5.c ****  */
 341:Drivers/BMP580/Src/bmp5.c **** int8_t bmp5_get_regs(uint8_t reg_addr, uint8_t *reg_data, uint32_t len, struct bmp5_dev *dev)
 342:Drivers/BMP580/Src/bmp5.c **** {
 343:Drivers/BMP580/Src/bmp5.c ****     int8_t rslt;
 344:Drivers/BMP580/Src/bmp5.c **** 
 345:Drivers/BMP580/Src/bmp5.c ****     /* Check for null pointer in the device structure */
 346:Drivers/BMP580/Src/bmp5.c ****     rslt = null_ptr_check(dev);
 347:Drivers/BMP580/Src/bmp5.c **** 
 348:Drivers/BMP580/Src/bmp5.c ****     /* Proceed if null check is fine */
 349:Drivers/BMP580/Src/bmp5.c ****     if ((rslt == BMP5_OK) && (reg_data != NULL))
 350:Drivers/BMP580/Src/bmp5.c ****     {
 351:Drivers/BMP580/Src/bmp5.c ****         if (dev->intf == BMP5_SPI_INTF)
 352:Drivers/BMP580/Src/bmp5.c ****         {
 353:Drivers/BMP580/Src/bmp5.c ****             /* If interface selected is SPI */
 354:Drivers/BMP580/Src/bmp5.c ****             reg_addr = reg_addr | BMP5_SPI_RD_MASK;
 355:Drivers/BMP580/Src/bmp5.c ****         }
 356:Drivers/BMP580/Src/bmp5.c **** 
 357:Drivers/BMP580/Src/bmp5.c ****         /* Read the data from the reg_addr */
 358:Drivers/BMP580/Src/bmp5.c ****         dev->intf_rslt = dev->read(reg_addr, reg_data, len, dev->intf_ptr);
 359:Drivers/BMP580/Src/bmp5.c **** 
 360:Drivers/BMP580/Src/bmp5.c ****         if (dev->intf_rslt != BMP5_INTF_RET_SUCCESS)
 361:Drivers/BMP580/Src/bmp5.c ****         {
 362:Drivers/BMP580/Src/bmp5.c ****             /* Failure case */
 363:Drivers/BMP580/Src/bmp5.c ****             rslt = BMP5_E_COM_FAIL;
 364:Drivers/BMP580/Src/bmp5.c ****         }
 365:Drivers/BMP580/Src/bmp5.c ****     }
 366:Drivers/BMP580/Src/bmp5.c ****     else
 367:Drivers/BMP580/Src/bmp5.c ****     {
 368:Drivers/BMP580/Src/bmp5.c ****         rslt = BMP5_E_NULL_PTR;
 369:Drivers/BMP580/Src/bmp5.c ****     }
 370:Drivers/BMP580/Src/bmp5.c **** 
 371:Drivers/BMP580/Src/bmp5.c ****     return rslt;
 372:Drivers/BMP580/Src/bmp5.c **** }
ARM GAS  C:\Users\Nathan\AppData\Local\Temp\ccQWWdhB.s 			page 8


 373:Drivers/BMP580/Src/bmp5.c **** 
 374:Drivers/BMP580/Src/bmp5.c **** /*!
 375:Drivers/BMP580/Src/bmp5.c ****  * @brief This API writes the given data to the register address
 376:Drivers/BMP580/Src/bmp5.c ****  * of the sensor.
 377:Drivers/BMP580/Src/bmp5.c ****  */
 378:Drivers/BMP580/Src/bmp5.c **** int8_t bmp5_set_regs(uint8_t reg_addr, const uint8_t *reg_data, uint32_t len, struct bmp5_dev *dev)
 379:Drivers/BMP580/Src/bmp5.c **** {
 380:Drivers/BMP580/Src/bmp5.c ****     int8_t rslt;
 381:Drivers/BMP580/Src/bmp5.c ****     uint8_t idx = 0;
 382:Drivers/BMP580/Src/bmp5.c **** 
 383:Drivers/BMP580/Src/bmp5.c ****     /* Check for null pointer in the device structure */
 384:Drivers/BMP580/Src/bmp5.c ****     rslt = null_ptr_check(dev);
 385:Drivers/BMP580/Src/bmp5.c **** 
 386:Drivers/BMP580/Src/bmp5.c ****     /* Proceed if null check is fine */
 387:Drivers/BMP580/Src/bmp5.c ****     if ((rslt == BMP5_OK) && (reg_data != NULL))
 388:Drivers/BMP580/Src/bmp5.c ****     {
 389:Drivers/BMP580/Src/bmp5.c ****         if (dev->intf == BMP5_SPI_INTF)
 390:Drivers/BMP580/Src/bmp5.c ****         {
 391:Drivers/BMP580/Src/bmp5.c ****             /* Write the data to the reg_addr */
 392:Drivers/BMP580/Src/bmp5.c ****             do
 393:Drivers/BMP580/Src/bmp5.c ****             {
 394:Drivers/BMP580/Src/bmp5.c ****                 dev->intf_rslt = dev->write((reg_addr + idx), &reg_data[idx], 1, dev->intf_ptr);
 395:Drivers/BMP580/Src/bmp5.c ****                 idx++;
 396:Drivers/BMP580/Src/bmp5.c ****             } while ((idx < len) && (dev->intf_rslt == BMP5_INTF_RET_SUCCESS));
 397:Drivers/BMP580/Src/bmp5.c ****         }
 398:Drivers/BMP580/Src/bmp5.c ****         else if ((dev->intf == BMP5_I2C_INTF) || (dev->intf == BMP5_I3C_INTF))
 399:Drivers/BMP580/Src/bmp5.c ****         {
 400:Drivers/BMP580/Src/bmp5.c ****             /* Write the data to the reg_addr */
 401:Drivers/BMP580/Src/bmp5.c ****             dev->intf_rslt = dev->write(reg_addr, reg_data, len, dev->intf_ptr);
 402:Drivers/BMP580/Src/bmp5.c ****         }
 403:Drivers/BMP580/Src/bmp5.c **** 
 404:Drivers/BMP580/Src/bmp5.c ****         if (dev->intf_rslt != BMP5_INTF_RET_SUCCESS)
 405:Drivers/BMP580/Src/bmp5.c ****         {
 406:Drivers/BMP580/Src/bmp5.c ****             /* Failure case */
 407:Drivers/BMP580/Src/bmp5.c ****             rslt = BMP5_E_COM_FAIL;
 408:Drivers/BMP580/Src/bmp5.c ****         }
 409:Drivers/BMP580/Src/bmp5.c ****     }
 410:Drivers/BMP580/Src/bmp5.c ****     else
 411:Drivers/BMP580/Src/bmp5.c ****     {
 412:Drivers/BMP580/Src/bmp5.c ****         rslt = BMP5_E_NULL_PTR;
 413:Drivers/BMP580/Src/bmp5.c ****     }
 414:Drivers/BMP580/Src/bmp5.c **** 
 415:Drivers/BMP580/Src/bmp5.c ****     return rslt;
 416:Drivers/BMP580/Src/bmp5.c **** }
 417:Drivers/BMP580/Src/bmp5.c **** 
 418:Drivers/BMP580/Src/bmp5.c **** /*!
 419:Drivers/BMP580/Src/bmp5.c ****  * @brief This API performs the soft reset of the sensor.
 420:Drivers/BMP580/Src/bmp5.c ****  */
 421:Drivers/BMP580/Src/bmp5.c **** int8_t bmp5_soft_reset(struct bmp5_dev *dev)
 422:Drivers/BMP580/Src/bmp5.c **** {
 423:Drivers/BMP580/Src/bmp5.c ****     int8_t rslt;
 424:Drivers/BMP580/Src/bmp5.c ****     uint8_t reg_data;
 425:Drivers/BMP580/Src/bmp5.c ****     uint8_t por_status;
 426:Drivers/BMP580/Src/bmp5.c ****     uint8_t data = BMP5_SOFT_RESET_CMD;
 427:Drivers/BMP580/Src/bmp5.c **** 
 428:Drivers/BMP580/Src/bmp5.c ****     /* Reset the device */
 429:Drivers/BMP580/Src/bmp5.c ****     rslt = bmp5_set_regs(BMP5_REG_CMD, &data, 1, dev);
ARM GAS  C:\Users\Nathan\AppData\Local\Temp\ccQWWdhB.s 			page 9


 430:Drivers/BMP580/Src/bmp5.c **** 
 431:Drivers/BMP580/Src/bmp5.c ****     if (rslt == BMP5_OK)
 432:Drivers/BMP580/Src/bmp5.c ****     {
 433:Drivers/BMP580/Src/bmp5.c ****         /* Soft-reset execution takes 2 ms */
 434:Drivers/BMP580/Src/bmp5.c ****         dev->delay_us(BMP5_DELAY_US_SOFT_RESET, dev->intf_ptr);
 435:Drivers/BMP580/Src/bmp5.c **** 
 436:Drivers/BMP580/Src/bmp5.c ****         if (dev->intf == BMP5_SPI_INTF)
 437:Drivers/BMP580/Src/bmp5.c ****         {
 438:Drivers/BMP580/Src/bmp5.c ****             /* Performing a single read via SPI of registers,
 439:Drivers/BMP580/Src/bmp5.c ****             * e.g. registers CHIP_ID, before the actual
 440:Drivers/BMP580/Src/bmp5.c ****             * SPI communication with the device.
 441:Drivers/BMP580/Src/bmp5.c ****             */
 442:Drivers/BMP580/Src/bmp5.c ****             rslt = bmp5_get_regs(BMP5_REG_CHIP_ID, &reg_data, 1, dev);
 443:Drivers/BMP580/Src/bmp5.c ****         }
 444:Drivers/BMP580/Src/bmp5.c **** 
 445:Drivers/BMP580/Src/bmp5.c ****         if (rslt == BMP5_OK)
 446:Drivers/BMP580/Src/bmp5.c ****         {
 447:Drivers/BMP580/Src/bmp5.c ****             rslt = bmp5_get_interrupt_status(&por_status, dev);
 448:Drivers/BMP580/Src/bmp5.c **** 
 449:Drivers/BMP580/Src/bmp5.c ****             if (rslt == BMP5_OK)
 450:Drivers/BMP580/Src/bmp5.c ****             {
 451:Drivers/BMP580/Src/bmp5.c ****                 if (por_status & BMP5_INT_ASSERTED_POR_SOFTRESET_COMPLETE)
 452:Drivers/BMP580/Src/bmp5.c ****                 {
 453:Drivers/BMP580/Src/bmp5.c ****                     rslt = BMP5_OK;
 454:Drivers/BMP580/Src/bmp5.c ****                 }
 455:Drivers/BMP580/Src/bmp5.c ****                 else
 456:Drivers/BMP580/Src/bmp5.c ****                 {
 457:Drivers/BMP580/Src/bmp5.c ****                     rslt = BMP5_E_POR_SOFTRESET;
 458:Drivers/BMP580/Src/bmp5.c ****                 }
 459:Drivers/BMP580/Src/bmp5.c ****             }
 460:Drivers/BMP580/Src/bmp5.c ****         }
 461:Drivers/BMP580/Src/bmp5.c ****     }
 462:Drivers/BMP580/Src/bmp5.c **** 
 463:Drivers/BMP580/Src/bmp5.c ****     return rslt;
 464:Drivers/BMP580/Src/bmp5.c **** }
 465:Drivers/BMP580/Src/bmp5.c **** 
 466:Drivers/BMP580/Src/bmp5.c **** /*!
 467:Drivers/BMP580/Src/bmp5.c ****  *  @brief This API is used to get interrupt status.
 468:Drivers/BMP580/Src/bmp5.c ****  */
 469:Drivers/BMP580/Src/bmp5.c **** int8_t bmp5_get_interrupt_status(uint8_t *int_status, struct bmp5_dev *dev)
 470:Drivers/BMP580/Src/bmp5.c **** {
 471:Drivers/BMP580/Src/bmp5.c ****     int8_t rslt;
 472:Drivers/BMP580/Src/bmp5.c **** 
 473:Drivers/BMP580/Src/bmp5.c ****     if (int_status != NULL)
 474:Drivers/BMP580/Src/bmp5.c ****     {
 475:Drivers/BMP580/Src/bmp5.c ****         rslt = bmp5_get_regs(BMP5_REG_INT_STATUS, int_status, 1, dev);
 476:Drivers/BMP580/Src/bmp5.c ****     }
 477:Drivers/BMP580/Src/bmp5.c ****     else
 478:Drivers/BMP580/Src/bmp5.c ****     {
 479:Drivers/BMP580/Src/bmp5.c ****         rslt = BMP5_E_NULL_PTR;
 480:Drivers/BMP580/Src/bmp5.c ****     }
 481:Drivers/BMP580/Src/bmp5.c **** 
 482:Drivers/BMP580/Src/bmp5.c ****     return rslt;
 483:Drivers/BMP580/Src/bmp5.c **** }
 484:Drivers/BMP580/Src/bmp5.c **** 
 485:Drivers/BMP580/Src/bmp5.c **** /*!
 486:Drivers/BMP580/Src/bmp5.c ****  *  @brief This API is used to get powermode of the sensor.
ARM GAS  C:\Users\Nathan\AppData\Local\Temp\ccQWWdhB.s 			page 10


 487:Drivers/BMP580/Src/bmp5.c ****  */
 488:Drivers/BMP580/Src/bmp5.c **** int8_t bmp5_get_power_mode(enum bmp5_powermode *powermode, struct bmp5_dev *dev)
 489:Drivers/BMP580/Src/bmp5.c **** {
 490:Drivers/BMP580/Src/bmp5.c ****     int8_t rslt;
 491:Drivers/BMP580/Src/bmp5.c ****     uint8_t deep_dis;
 492:Drivers/BMP580/Src/bmp5.c ****     uint8_t reg_data;
 493:Drivers/BMP580/Src/bmp5.c ****     uint8_t pwrmode;
 494:Drivers/BMP580/Src/bmp5.c **** 
 495:Drivers/BMP580/Src/bmp5.c ****     if (powermode != NULL)
 496:Drivers/BMP580/Src/bmp5.c ****     {
 497:Drivers/BMP580/Src/bmp5.c ****         /* Read the power mode register */
 498:Drivers/BMP580/Src/bmp5.c ****         rslt = bmp5_get_regs(BMP5_REG_ODR_CONFIG, &reg_data, 1, dev);
 499:Drivers/BMP580/Src/bmp5.c **** 
 500:Drivers/BMP580/Src/bmp5.c ****         if (rslt == BMP5_OK)
 501:Drivers/BMP580/Src/bmp5.c ****         {
 502:Drivers/BMP580/Src/bmp5.c ****             pwrmode = BMP5_GET_BITS_POS_0(reg_data, BMP5_POWERMODE);
 503:Drivers/BMP580/Src/bmp5.c **** 
 504:Drivers/BMP580/Src/bmp5.c ****             switch (pwrmode)
 505:Drivers/BMP580/Src/bmp5.c ****             {
 506:Drivers/BMP580/Src/bmp5.c ****                 case BMP5_POWERMODE_STANDBY:
 507:Drivers/BMP580/Src/bmp5.c **** 
 508:Drivers/BMP580/Src/bmp5.c ****                     /* Getting deep disable status */
 509:Drivers/BMP580/Src/bmp5.c ****                     deep_dis = BMP5_GET_BITSLICE(reg_data, BMP5_DEEP_DISABLE);
 510:Drivers/BMP580/Src/bmp5.c **** 
 511:Drivers/BMP580/Src/bmp5.c ****                     /* Checking deepstandby status only when powermode is in standby mode */
 512:Drivers/BMP580/Src/bmp5.c **** 
 513:Drivers/BMP580/Src/bmp5.c ****                     /* If deep_dis = 0(BMP5_DEEP_ENABLED) then deepstandby mode is enabled.
 514:Drivers/BMP580/Src/bmp5.c ****                      * If deep_dis = 1(BMP5_DEEP_DISABLED) then deepstandby mode is disabled
 515:Drivers/BMP580/Src/bmp5.c ****                      */
 516:Drivers/BMP580/Src/bmp5.c ****                     if (deep_dis == BMP5_DEEP_ENABLED)
 517:Drivers/BMP580/Src/bmp5.c ****                     {
 518:Drivers/BMP580/Src/bmp5.c ****                         rslt = check_deepstandby_mode(powermode, dev);
 519:Drivers/BMP580/Src/bmp5.c ****                     }
 520:Drivers/BMP580/Src/bmp5.c ****                     else
 521:Drivers/BMP580/Src/bmp5.c ****                     {
 522:Drivers/BMP580/Src/bmp5.c ****                         *powermode = BMP5_POWERMODE_STANDBY;
 523:Drivers/BMP580/Src/bmp5.c ****                     }
 524:Drivers/BMP580/Src/bmp5.c **** 
 525:Drivers/BMP580/Src/bmp5.c ****                     break;
 526:Drivers/BMP580/Src/bmp5.c ****                 case BMP5_POWERMODE_NORMAL:
 527:Drivers/BMP580/Src/bmp5.c ****                     *powermode = BMP5_POWERMODE_NORMAL;
 528:Drivers/BMP580/Src/bmp5.c ****                     break;
 529:Drivers/BMP580/Src/bmp5.c ****                 case BMP5_POWERMODE_FORCED:
 530:Drivers/BMP580/Src/bmp5.c ****                     *powermode = BMP5_POWERMODE_FORCED;
 531:Drivers/BMP580/Src/bmp5.c ****                     break;
 532:Drivers/BMP580/Src/bmp5.c ****                 case BMP5_POWERMODE_CONTINOUS:
 533:Drivers/BMP580/Src/bmp5.c ****                     *powermode = BMP5_POWERMODE_CONTINOUS;
 534:Drivers/BMP580/Src/bmp5.c ****                     break;
 535:Drivers/BMP580/Src/bmp5.c ****                 default:
 536:Drivers/BMP580/Src/bmp5.c ****                     rslt = BMP5_E_INVALID_POWERMODE;
 537:Drivers/BMP580/Src/bmp5.c ****                     break;
 538:Drivers/BMP580/Src/bmp5.c ****             }
 539:Drivers/BMP580/Src/bmp5.c ****         }
 540:Drivers/BMP580/Src/bmp5.c ****     }
 541:Drivers/BMP580/Src/bmp5.c ****     else
 542:Drivers/BMP580/Src/bmp5.c ****     {
 543:Drivers/BMP580/Src/bmp5.c ****         rslt = BMP5_E_NULL_PTR;
ARM GAS  C:\Users\Nathan\AppData\Local\Temp\ccQWWdhB.s 			page 11


 544:Drivers/BMP580/Src/bmp5.c ****     }
 545:Drivers/BMP580/Src/bmp5.c **** 
 546:Drivers/BMP580/Src/bmp5.c ****     return rslt;
 547:Drivers/BMP580/Src/bmp5.c **** }
 548:Drivers/BMP580/Src/bmp5.c **** 
 549:Drivers/BMP580/Src/bmp5.c **** /*!
 550:Drivers/BMP580/Src/bmp5.c ****  *  @brief This API is used to set powermode of the sensor.
 551:Drivers/BMP580/Src/bmp5.c ****  */
 552:Drivers/BMP580/Src/bmp5.c **** int8_t bmp5_set_power_mode(enum bmp5_powermode powermode, struct bmp5_dev *dev)
 553:Drivers/BMP580/Src/bmp5.c **** {
 554:Drivers/BMP580/Src/bmp5.c ****     int8_t rslt;
 555:Drivers/BMP580/Src/bmp5.c ****     enum bmp5_powermode lst_pwrmode;
 556:Drivers/BMP580/Src/bmp5.c **** 
 557:Drivers/BMP580/Src/bmp5.c ****     /* Existing power mode of the device is received in lst_pwrmode */
 558:Drivers/BMP580/Src/bmp5.c ****     rslt = bmp5_get_power_mode(&lst_pwrmode, dev);
 559:Drivers/BMP580/Src/bmp5.c **** 
 560:Drivers/BMP580/Src/bmp5.c ****     if (rslt == BMP5_OK)
 561:Drivers/BMP580/Src/bmp5.c ****     {
 562:Drivers/BMP580/Src/bmp5.c ****         /* If the sensor is not in standby mode set the device to
 563:Drivers/BMP580/Src/bmp5.c ****          *  standby mode.
 564:Drivers/BMP580/Src/bmp5.c ****          */
 565:Drivers/BMP580/Src/bmp5.c ****         if (lst_pwrmode != BMP5_POWERMODE_STANDBY)
 566:Drivers/BMP580/Src/bmp5.c ****         {
 567:Drivers/BMP580/Src/bmp5.c ****             /* Device should be set to standby before transiting to
 568:Drivers/BMP580/Src/bmp5.c ****              * forced mode or normal mode or continous mode.
 569:Drivers/BMP580/Src/bmp5.c ****              */
 570:Drivers/BMP580/Src/bmp5.c ****             rslt = set_power_mode(BMP5_POWERMODE_STANDBY, dev);
 571:Drivers/BMP580/Src/bmp5.c **** 
 572:Drivers/BMP580/Src/bmp5.c ****             if (rslt == BMP5_OK)
 573:Drivers/BMP580/Src/bmp5.c ****             {
 574:Drivers/BMP580/Src/bmp5.c ****                 /* Give t_standby(as per data sheet) time for device to go into standby mode */
 575:Drivers/BMP580/Src/bmp5.c ****                 dev->delay_us(BMP5_DELAY_US_STANDBY, dev->intf_ptr);
 576:Drivers/BMP580/Src/bmp5.c ****             }
 577:Drivers/BMP580/Src/bmp5.c ****         }
 578:Drivers/BMP580/Src/bmp5.c **** 
 579:Drivers/BMP580/Src/bmp5.c ****         /* Set the desired power mode */
 580:Drivers/BMP580/Src/bmp5.c ****         if (rslt == BMP5_OK)
 581:Drivers/BMP580/Src/bmp5.c ****         {
 582:Drivers/BMP580/Src/bmp5.c ****             switch (powermode)
 583:Drivers/BMP580/Src/bmp5.c ****             {
 584:Drivers/BMP580/Src/bmp5.c ****                 case BMP5_POWERMODE_DEEP_STANDBY:
 585:Drivers/BMP580/Src/bmp5.c ****                     rslt = set_deep_standby_mode(dev);
 586:Drivers/BMP580/Src/bmp5.c ****                     break;
 587:Drivers/BMP580/Src/bmp5.c ****                 case BMP5_POWERMODE_STANDBY:
 588:Drivers/BMP580/Src/bmp5.c **** 
 589:Drivers/BMP580/Src/bmp5.c ****                     /* Since switching between powermodes require sensor to be in standby mode
 590:Drivers/BMP580/Src/bmp5.c ****                      * it is performed above. So it is not explicitly performed here.
 591:Drivers/BMP580/Src/bmp5.c ****                      */
 592:Drivers/BMP580/Src/bmp5.c ****                     break;
 593:Drivers/BMP580/Src/bmp5.c ****                 case BMP5_POWERMODE_NORMAL:
 594:Drivers/BMP580/Src/bmp5.c ****                 case BMP5_POWERMODE_FORCED:
 595:Drivers/BMP580/Src/bmp5.c ****                 case BMP5_POWERMODE_CONTINOUS:
 596:Drivers/BMP580/Src/bmp5.c ****                     rslt = set_power_mode(powermode, dev);
 597:Drivers/BMP580/Src/bmp5.c ****                     break;
 598:Drivers/BMP580/Src/bmp5.c ****                 default:
 599:Drivers/BMP580/Src/bmp5.c ****                     rslt = BMP5_E_INVALID_POWERMODE;
 600:Drivers/BMP580/Src/bmp5.c ****                     break;
ARM GAS  C:\Users\Nathan\AppData\Local\Temp\ccQWWdhB.s 			page 12


 601:Drivers/BMP580/Src/bmp5.c ****             }
 602:Drivers/BMP580/Src/bmp5.c ****         }
 603:Drivers/BMP580/Src/bmp5.c ****     }
 604:Drivers/BMP580/Src/bmp5.c **** 
 605:Drivers/BMP580/Src/bmp5.c ****     return rslt;
 606:Drivers/BMP580/Src/bmp5.c **** }
 607:Drivers/BMP580/Src/bmp5.c **** 
 608:Drivers/BMP580/Src/bmp5.c **** /*!
 609:Drivers/BMP580/Src/bmp5.c ****  *  @brief This API reads the temperature(deg C) or both pressure(Pa) and temperature(deg C) data f
 610:Drivers/BMP580/Src/bmp5.c ****  * sensor and store it in the bmp5_sensor_data structure instance passed by the user.
 611:Drivers/BMP580/Src/bmp5.c ****  */
 612:Drivers/BMP580/Src/bmp5.c **** int8_t bmp5_get_sensor_data(struct bmp5_sensor_data *sensor_data,
 613:Drivers/BMP580/Src/bmp5.c ****                             const struct bmp5_osr_odr_press_config *osr_odr_press_cfg,
 614:Drivers/BMP580/Src/bmp5.c ****                             struct bmp5_dev *dev)
 615:Drivers/BMP580/Src/bmp5.c **** {
 616:Drivers/BMP580/Src/bmp5.c ****     int8_t rslt;
 617:Drivers/BMP580/Src/bmp5.c ****     uint8_t reg_data[6] = { 0 };
 618:Drivers/BMP580/Src/bmp5.c ****     int32_t raw_data_t;
 619:Drivers/BMP580/Src/bmp5.c ****     uint32_t raw_data_p;
 620:Drivers/BMP580/Src/bmp5.c **** 
 621:Drivers/BMP580/Src/bmp5.c ****     rslt = bmp5_get_regs(BMP5_REG_TEMP_DATA_XLSB, reg_data, 6, dev);
 622:Drivers/BMP580/Src/bmp5.c **** 
 623:Drivers/BMP580/Src/bmp5.c ****     if (rslt == BMP5_OK)
 624:Drivers/BMP580/Src/bmp5.c ****     {
 625:Drivers/BMP580/Src/bmp5.c ****         raw_data_t = (int32_t) ((int32_t) ((uint32_t)(((uint32_t)reg_data[2] << 16) | ((uint16_t)re
 626:Drivers/BMP580/Src/bmp5.c **** 
 627:Drivers/BMP580/Src/bmp5.c **** #ifdef BMP5_USE_FIXED_POINT
 628:Drivers/BMP580/Src/bmp5.c **** 
 629:Drivers/BMP580/Src/bmp5.c ****         /* Division by 2^16(whose equivalent value is 65536) is performed to get temperature data a
 630:Drivers/BMP580/Src/bmp5.c ****          * precision in deg C
 631:Drivers/BMP580/Src/bmp5.c ****          */
 632:Drivers/BMP580/Src/bmp5.c ****         sensor_data->temperature =
 633:Drivers/BMP580/Src/bmp5.c ****             (int64_t)((raw_data_t / (float)65536.0) * (power(10, BMP5_FIXED_POINT_DIGIT_PRECISION))
 634:Drivers/BMP580/Src/bmp5.c **** #else
 635:Drivers/BMP580/Src/bmp5.c **** 
 636:Drivers/BMP580/Src/bmp5.c ****         /* Division by 2^16(whose equivalent value is 65536) is performed to get temperature data i
 637:Drivers/BMP580/Src/bmp5.c ****         sensor_data->temperature = (float)(raw_data_t / 65536.0);
 638:Drivers/BMP580/Src/bmp5.c **** #endif
 639:Drivers/BMP580/Src/bmp5.c **** 
 640:Drivers/BMP580/Src/bmp5.c ****         if (osr_odr_press_cfg->press_en == BMP5_ENABLE)
 641:Drivers/BMP580/Src/bmp5.c ****         {
 642:Drivers/BMP580/Src/bmp5.c ****             raw_data_p = (uint32_t)((uint32_t)(reg_data[5] << 16) | (uint16_t)(reg_data[4] << 8) | 
 643:Drivers/BMP580/Src/bmp5.c **** 
 644:Drivers/BMP580/Src/bmp5.c **** #ifdef BMP5_USE_FIXED_POINT
 645:Drivers/BMP580/Src/bmp5.c **** 
 646:Drivers/BMP580/Src/bmp5.c ****             /* Division by 2^6(whose equivalent value is 64) is performed to get pressure data and 
 647:Drivers/BMP580/Src/bmp5.c ****              * precision in Pa
 648:Drivers/BMP580/Src/bmp5.c ****              */
 649:Drivers/BMP580/Src/bmp5.c ****             sensor_data->pressure =
 650:Drivers/BMP580/Src/bmp5.c ****                 (uint64_t)((raw_data_p / (float)64.0) * (power(10, BMP5_FIXED_POINT_DIGIT_PRECISION
 651:Drivers/BMP580/Src/bmp5.c **** #else
 652:Drivers/BMP580/Src/bmp5.c **** 
 653:Drivers/BMP580/Src/bmp5.c ****             /* Division by 2^6(whose equivalent value is 64) is performed to get pressure data in P
 654:Drivers/BMP580/Src/bmp5.c ****             sensor_data->pressure = (float)(raw_data_p / 64.0);
 655:Drivers/BMP580/Src/bmp5.c **** #endif
 656:Drivers/BMP580/Src/bmp5.c ****         }
 657:Drivers/BMP580/Src/bmp5.c ****         else
ARM GAS  C:\Users\Nathan\AppData\Local\Temp\ccQWWdhB.s 			page 13


 658:Drivers/BMP580/Src/bmp5.c ****         {
 659:Drivers/BMP580/Src/bmp5.c ****             sensor_data->pressure = 0.0;
 660:Drivers/BMP580/Src/bmp5.c ****         }
 661:Drivers/BMP580/Src/bmp5.c ****     }
 662:Drivers/BMP580/Src/bmp5.c **** 
 663:Drivers/BMP580/Src/bmp5.c ****     return rslt;
 664:Drivers/BMP580/Src/bmp5.c **** }
 665:Drivers/BMP580/Src/bmp5.c **** 
 666:Drivers/BMP580/Src/bmp5.c **** /*!
 667:Drivers/BMP580/Src/bmp5.c ****  *  @brief This API is used to enable the interrupts(drdy interrupt, fifo full interrupt,
 668:Drivers/BMP580/Src/bmp5.c ****  *   fifo threshold enable and pressure data out of range interrupt).
 669:Drivers/BMP580/Src/bmp5.c ****  */
 670:Drivers/BMP580/Src/bmp5.c **** int8_t bmp5_int_source_select(const struct bmp5_int_source_select *int_source_select, struct bmp5_d
 671:Drivers/BMP580/Src/bmp5.c **** {
 672:Drivers/BMP580/Src/bmp5.c ****     int8_t rslt;
 673:Drivers/BMP580/Src/bmp5.c ****     uint8_t reg_data;
 674:Drivers/BMP580/Src/bmp5.c **** 
 675:Drivers/BMP580/Src/bmp5.c ****     if (int_source_select != NULL)
 676:Drivers/BMP580/Src/bmp5.c ****     {
 677:Drivers/BMP580/Src/bmp5.c ****         rslt = bmp5_get_regs(BMP5_REG_INT_SOURCE, &reg_data, 1, dev);
 678:Drivers/BMP580/Src/bmp5.c **** 
 679:Drivers/BMP580/Src/bmp5.c ****         if (rslt == BMP5_OK)
 680:Drivers/BMP580/Src/bmp5.c ****         {
 681:Drivers/BMP580/Src/bmp5.c ****             reg_data = BMP5_SET_BITS_POS_0(reg_data, BMP5_INT_DRDY_EN, int_source_select->drdy_en);
 682:Drivers/BMP580/Src/bmp5.c **** 
 683:Drivers/BMP580/Src/bmp5.c ****             reg_data = BMP5_SET_BITSLICE(reg_data, BMP5_INT_FIFO_FULL_EN, int_source_select->fifo_f
 684:Drivers/BMP580/Src/bmp5.c **** 
 685:Drivers/BMP580/Src/bmp5.c ****             reg_data = BMP5_SET_BITSLICE(reg_data, BMP5_INT_FIFO_THRES_EN, int_source_select->fifo_
 686:Drivers/BMP580/Src/bmp5.c **** 
 687:Drivers/BMP580/Src/bmp5.c ****             reg_data = BMP5_SET_BITSLICE(reg_data, BMP5_INT_OOR_PRESS_EN, int_source_select->oor_pr
 688:Drivers/BMP580/Src/bmp5.c **** 
 689:Drivers/BMP580/Src/bmp5.c ****             rslt = bmp5_set_regs(BMP5_REG_INT_SOURCE, &reg_data, 1, dev);
 690:Drivers/BMP580/Src/bmp5.c ****         }
 691:Drivers/BMP580/Src/bmp5.c ****     }
 692:Drivers/BMP580/Src/bmp5.c ****     else
 693:Drivers/BMP580/Src/bmp5.c ****     {
 694:Drivers/BMP580/Src/bmp5.c ****         rslt = BMP5_E_NULL_PTR;
 695:Drivers/BMP580/Src/bmp5.c ****     }
 696:Drivers/BMP580/Src/bmp5.c **** 
 697:Drivers/BMP580/Src/bmp5.c ****     return rslt;
 698:Drivers/BMP580/Src/bmp5.c **** }
 699:Drivers/BMP580/Src/bmp5.c **** 
 700:Drivers/BMP580/Src/bmp5.c **** /*!
 701:Drivers/BMP580/Src/bmp5.c **** * @brief This API is used to configure the interrupt settings.
 702:Drivers/BMP580/Src/bmp5.c **** */
 703:Drivers/BMP580/Src/bmp5.c **** int8_t bmp5_configure_interrupt(enum bmp5_intr_mode int_mode,
 704:Drivers/BMP580/Src/bmp5.c ****                                 enum bmp5_intr_polarity int_pol,
 705:Drivers/BMP580/Src/bmp5.c ****                                 enum bmp5_intr_drive int_od,
 706:Drivers/BMP580/Src/bmp5.c ****                                 enum bmp5_intr_en_dis int_en,
 707:Drivers/BMP580/Src/bmp5.c ****                                 struct bmp5_dev *dev)
 708:Drivers/BMP580/Src/bmp5.c **** {
 709:Drivers/BMP580/Src/bmp5.c ****     /* Variable to store the function result */
 710:Drivers/BMP580/Src/bmp5.c ****     int8_t rslt;
 711:Drivers/BMP580/Src/bmp5.c **** 
 712:Drivers/BMP580/Src/bmp5.c ****     /* Variable to get interrupt configuration */
 713:Drivers/BMP580/Src/bmp5.c ****     uint8_t reg_data = 0;
 714:Drivers/BMP580/Src/bmp5.c **** 
ARM GAS  C:\Users\Nathan\AppData\Local\Temp\ccQWWdhB.s 			page 14


 715:Drivers/BMP580/Src/bmp5.c ****     /* Variable to set interrupt source */
 716:Drivers/BMP580/Src/bmp5.c ****     uint8_t int_source = 0;
 717:Drivers/BMP580/Src/bmp5.c **** 
 718:Drivers/BMP580/Src/bmp5.c ****     /* Variable to get interrupt status */
 719:Drivers/BMP580/Src/bmp5.c ****     uint8_t int_status = 0;
 720:Drivers/BMP580/Src/bmp5.c **** 
 721:Drivers/BMP580/Src/bmp5.c ****     /* Get interrupt configuration */
 722:Drivers/BMP580/Src/bmp5.c ****     rslt = bmp5_get_regs(BMP5_REG_INT_CONFIG, &reg_data, 1, dev);
 723:Drivers/BMP580/Src/bmp5.c **** 
 724:Drivers/BMP580/Src/bmp5.c ****     if (rslt == BMP5_OK)
 725:Drivers/BMP580/Src/bmp5.c ****     {
 726:Drivers/BMP580/Src/bmp5.c ****         /* Any change between latched/pulsed mode has to be applied while interrupt is disabled */
 727:Drivers/BMP580/Src/bmp5.c ****         /* Step 1 : Turn off all INT sources (INT_SOURCE -> 0x00) */
 728:Drivers/BMP580/Src/bmp5.c ****         rslt = bmp5_set_regs(BMP5_REG_INT_SOURCE, &int_source, 1, dev);
 729:Drivers/BMP580/Src/bmp5.c **** 
 730:Drivers/BMP580/Src/bmp5.c ****         if (rslt == BMP5_OK)
 731:Drivers/BMP580/Src/bmp5.c ****         {
 732:Drivers/BMP580/Src/bmp5.c ****             /* Step 2 : Read the INT_STATUS register to clear the status */
 733:Drivers/BMP580/Src/bmp5.c ****             rslt = bmp5_get_regs(BMP5_REG_INT_STATUS, &int_status, 1, dev);
 734:Drivers/BMP580/Src/bmp5.c **** 
 735:Drivers/BMP580/Src/bmp5.c ****             if (rslt == BMP5_OK)
 736:Drivers/BMP580/Src/bmp5.c ****             {
 737:Drivers/BMP580/Src/bmp5.c ****                 /* Step 3 : Set the desired mode in INT_CONFIG.int_mode */
 738:Drivers/BMP580/Src/bmp5.c ****                 reg_data = BMP5_SET_BITS_POS_0(reg_data, BMP5_INT_MODE, int_mode);
 739:Drivers/BMP580/Src/bmp5.c ****                 reg_data = BMP5_SET_BITSLICE(reg_data, BMP5_INT_POL, int_pol);
 740:Drivers/BMP580/Src/bmp5.c ****                 reg_data = BMP5_SET_BITSLICE(reg_data, BMP5_INT_OD, int_od);
 741:Drivers/BMP580/Src/bmp5.c ****                 reg_data = BMP5_SET_BITSLICE(reg_data, BMP5_INT_EN, int_en);
 742:Drivers/BMP580/Src/bmp5.c **** 
 743:Drivers/BMP580/Src/bmp5.c ****                 /* Finally transfer the interrupt configurations */
 744:Drivers/BMP580/Src/bmp5.c ****                 rslt = bmp5_set_regs(BMP5_REG_INT_CONFIG, &reg_data, 1, dev);
 745:Drivers/BMP580/Src/bmp5.c ****             }
 746:Drivers/BMP580/Src/bmp5.c ****         }
 747:Drivers/BMP580/Src/bmp5.c ****     }
 748:Drivers/BMP580/Src/bmp5.c **** 
 749:Drivers/BMP580/Src/bmp5.c ****     return rslt;
 750:Drivers/BMP580/Src/bmp5.c **** }
 751:Drivers/BMP580/Src/bmp5.c **** 
 752:Drivers/BMP580/Src/bmp5.c **** /*!
 753:Drivers/BMP580/Src/bmp5.c ****  *  @brief This API gets the configuration for oversampling of temperature, oversampling of
 754:Drivers/BMP580/Src/bmp5.c ****  *  pressure and ODR configuration along with pressure enable.
 755:Drivers/BMP580/Src/bmp5.c ****  */
 756:Drivers/BMP580/Src/bmp5.c **** int8_t bmp5_get_osr_odr_press_config(struct bmp5_osr_odr_press_config *osr_odr_press_cfg, struct bm
 757:Drivers/BMP580/Src/bmp5.c **** {
 758:Drivers/BMP580/Src/bmp5.c ****     /* Variable to store the function result */
 759:Drivers/BMP580/Src/bmp5.c ****     int8_t rslt;
 760:Drivers/BMP580/Src/bmp5.c **** 
 761:Drivers/BMP580/Src/bmp5.c ****     /* Variable to store OSR and ODR config */
 762:Drivers/BMP580/Src/bmp5.c ****     uint8_t reg_data[2];
 763:Drivers/BMP580/Src/bmp5.c **** 
 764:Drivers/BMP580/Src/bmp5.c ****     if (osr_odr_press_cfg != NULL)
 765:Drivers/BMP580/Src/bmp5.c ****     {
 766:Drivers/BMP580/Src/bmp5.c ****         /* Get OSR and ODR configuration in burst read */
 767:Drivers/BMP580/Src/bmp5.c ****         rslt = bmp5_get_regs(BMP5_REG_OSR_CONFIG, reg_data, 2, dev);
 768:Drivers/BMP580/Src/bmp5.c **** 
 769:Drivers/BMP580/Src/bmp5.c ****         if (rslt == BMP5_OK)
 770:Drivers/BMP580/Src/bmp5.c ****         {
 771:Drivers/BMP580/Src/bmp5.c ****             osr_odr_press_cfg->osr_t = BMP5_GET_BITS_POS_0(reg_data[0], BMP5_TEMP_OS);
ARM GAS  C:\Users\Nathan\AppData\Local\Temp\ccQWWdhB.s 			page 15


 772:Drivers/BMP580/Src/bmp5.c ****             osr_odr_press_cfg->osr_p = BMP5_GET_BITSLICE(reg_data[0], BMP5_PRESS_OS);
 773:Drivers/BMP580/Src/bmp5.c ****             osr_odr_press_cfg->press_en = BMP5_GET_BITSLICE(reg_data[0], BMP5_PRESS_EN);
 774:Drivers/BMP580/Src/bmp5.c ****             osr_odr_press_cfg->odr = BMP5_GET_BITSLICE(reg_data[1], BMP5_ODR);
 775:Drivers/BMP580/Src/bmp5.c ****         }
 776:Drivers/BMP580/Src/bmp5.c ****     }
 777:Drivers/BMP580/Src/bmp5.c ****     else
 778:Drivers/BMP580/Src/bmp5.c ****     {
 779:Drivers/BMP580/Src/bmp5.c ****         rslt = BMP5_E_NULL_PTR;
 780:Drivers/BMP580/Src/bmp5.c ****     }
 781:Drivers/BMP580/Src/bmp5.c **** 
 782:Drivers/BMP580/Src/bmp5.c ****     return rslt;
 783:Drivers/BMP580/Src/bmp5.c **** }
 784:Drivers/BMP580/Src/bmp5.c **** 
 785:Drivers/BMP580/Src/bmp5.c **** /*!
 786:Drivers/BMP580/Src/bmp5.c ****  *  @brief This API sets the configuration for oversampling temperature, oversampling of
 787:Drivers/BMP580/Src/bmp5.c ****  *  pressure and ODR configuration along with pressure enable.
 788:Drivers/BMP580/Src/bmp5.c ****  *
 789:Drivers/BMP580/Src/bmp5.c ****  *  @note If ODR is set to a value higher than 5Hz then powermode is set as standby mode, as ODR va
 790:Drivers/BMP580/Src/bmp5.c ****  *  without disabling deep-standby mode makes powermode invalid.
 791:Drivers/BMP580/Src/bmp5.c ****  */
 792:Drivers/BMP580/Src/bmp5.c **** int8_t bmp5_set_osr_odr_press_config(const struct bmp5_osr_odr_press_config *osr_odr_press_cfg, str
 793:Drivers/BMP580/Src/bmp5.c **** {
 794:Drivers/BMP580/Src/bmp5.c ****     /* Variable to store the function result */
 795:Drivers/BMP580/Src/bmp5.c ****     int8_t rslt = 0;
 796:Drivers/BMP580/Src/bmp5.c **** 
 797:Drivers/BMP580/Src/bmp5.c ****     /* Variable to set ODR and OSR config */
 798:Drivers/BMP580/Src/bmp5.c ****     uint8_t reg_data[2] = { 0 };
 799:Drivers/BMP580/Src/bmp5.c **** 
 800:Drivers/BMP580/Src/bmp5.c ****     if (osr_odr_press_cfg != NULL)
 801:Drivers/BMP580/Src/bmp5.c ****     {
 802:Drivers/BMP580/Src/bmp5.c ****         /* If ODR is set to a value higher than 5Hz then powermode is set as standby mode, as ODR v
 803:Drivers/BMP580/Src/bmp5.c ****          * without disabling deep-standby mode makes powermode invalid.
 804:Drivers/BMP580/Src/bmp5.c ****          * NOTE: Register value for 5Hz is greater compared to ODRs higher than it. Thus in this be
 805:Drivers/BMP580/Src/bmp5.c ****          * is checked whether less than 5Hz macro.
 806:Drivers/BMP580/Src/bmp5.c ****          */
 807:Drivers/BMP580/Src/bmp5.c ****         if (osr_odr_press_cfg->odr < BMP5_ODR_05_HZ)
 808:Drivers/BMP580/Src/bmp5.c ****         {
 809:Drivers/BMP580/Src/bmp5.c ****             rslt = set_standby_mode(dev);
 810:Drivers/BMP580/Src/bmp5.c ****         }
 811:Drivers/BMP580/Src/bmp5.c **** 
 812:Drivers/BMP580/Src/bmp5.c ****         if (rslt == BMP5_OK)
 813:Drivers/BMP580/Src/bmp5.c ****         {
 814:Drivers/BMP580/Src/bmp5.c ****             rslt = bmp5_get_regs(BMP5_REG_OSR_CONFIG, reg_data, 2, dev);
 815:Drivers/BMP580/Src/bmp5.c **** 
 816:Drivers/BMP580/Src/bmp5.c ****             if (rslt == BMP5_OK)
 817:Drivers/BMP580/Src/bmp5.c ****             {
 818:Drivers/BMP580/Src/bmp5.c ****                 reg_data[0] = BMP5_SET_BITS_POS_0(reg_data[0], BMP5_TEMP_OS, osr_odr_press_cfg->osr
 819:Drivers/BMP580/Src/bmp5.c ****                 reg_data[0] = BMP5_SET_BITSLICE(reg_data[0], BMP5_PRESS_OS, osr_odr_press_cfg->osr_
 820:Drivers/BMP580/Src/bmp5.c ****                 reg_data[0] = BMP5_SET_BITSLICE(reg_data[0], BMP5_PRESS_EN, osr_odr_press_cfg->pres
 821:Drivers/BMP580/Src/bmp5.c ****                 reg_data[1] = BMP5_SET_BITSLICE(reg_data[1], BMP5_ODR, osr_odr_press_cfg->odr);
 822:Drivers/BMP580/Src/bmp5.c **** 
 823:Drivers/BMP580/Src/bmp5.c ****                 /* Set ODR and OSR configuration */
 824:Drivers/BMP580/Src/bmp5.c ****                 rslt = bmp5_set_regs(BMP5_REG_OSR_CONFIG, reg_data, 2, dev);
 825:Drivers/BMP580/Src/bmp5.c ****             }
 826:Drivers/BMP580/Src/bmp5.c ****         }
 827:Drivers/BMP580/Src/bmp5.c ****     }
 828:Drivers/BMP580/Src/bmp5.c ****     else
ARM GAS  C:\Users\Nathan\AppData\Local\Temp\ccQWWdhB.s 			page 16


 829:Drivers/BMP580/Src/bmp5.c ****     {
 830:Drivers/BMP580/Src/bmp5.c ****         rslt = BMP5_E_NULL_PTR;
 831:Drivers/BMP580/Src/bmp5.c ****     }
 832:Drivers/BMP580/Src/bmp5.c **** 
 833:Drivers/BMP580/Src/bmp5.c ****     return rslt;
 834:Drivers/BMP580/Src/bmp5.c **** }
 835:Drivers/BMP580/Src/bmp5.c **** 
 836:Drivers/BMP580/Src/bmp5.c **** /*!
 837:Drivers/BMP580/Src/bmp5.c ****  *  @brief This API gets the configuration for IIR of temperature and pressure.
 838:Drivers/BMP580/Src/bmp5.c ****  */
 839:Drivers/BMP580/Src/bmp5.c **** int8_t bmp5_get_iir_config(struct bmp5_iir_config *iir_cfg, struct bmp5_dev *dev)
 840:Drivers/BMP580/Src/bmp5.c **** {
 841:Drivers/BMP580/Src/bmp5.c ****     /* Variable to store the function result */
 842:Drivers/BMP580/Src/bmp5.c ****     int8_t rslt;
 843:Drivers/BMP580/Src/bmp5.c **** 
 844:Drivers/BMP580/Src/bmp5.c ****     /* Variable to get IIR config */
 845:Drivers/BMP580/Src/bmp5.c ****     uint8_t reg_data[2];
 846:Drivers/BMP580/Src/bmp5.c **** 
 847:Drivers/BMP580/Src/bmp5.c ****     if (iir_cfg != NULL)
 848:Drivers/BMP580/Src/bmp5.c ****     {
 849:Drivers/BMP580/Src/bmp5.c ****         /* Get IIR configuration */
 850:Drivers/BMP580/Src/bmp5.c ****         rslt = bmp5_get_regs(BMP5_REG_DSP_CONFIG, reg_data, 2, dev);
 851:Drivers/BMP580/Src/bmp5.c **** 
 852:Drivers/BMP580/Src/bmp5.c ****         iir_cfg->shdw_set_iir_t = BMP5_GET_BITSLICE(reg_data[0], BMP5_SHDW_SET_IIR_TEMP);
 853:Drivers/BMP580/Src/bmp5.c ****         iir_cfg->shdw_set_iir_p = BMP5_GET_BITSLICE(reg_data[0], BMP5_SHDW_SET_IIR_PRESS);
 854:Drivers/BMP580/Src/bmp5.c ****         iir_cfg->iir_flush_forced_en = BMP5_GET_BITSLICE(reg_data[0], BMP5_IIR_FLUSH_FORCED_EN);
 855:Drivers/BMP580/Src/bmp5.c **** 
 856:Drivers/BMP580/Src/bmp5.c ****         iir_cfg->set_iir_t = BMP5_GET_BITS_POS_0(reg_data[1], BMP5_SET_IIR_TEMP);
 857:Drivers/BMP580/Src/bmp5.c ****         iir_cfg->set_iir_p = BMP5_GET_BITSLICE(reg_data[1], BMP5_SET_IIR_PRESS);
 858:Drivers/BMP580/Src/bmp5.c ****     }
 859:Drivers/BMP580/Src/bmp5.c ****     else
 860:Drivers/BMP580/Src/bmp5.c ****     {
 861:Drivers/BMP580/Src/bmp5.c ****         rslt = BMP5_E_NULL_PTR;
 862:Drivers/BMP580/Src/bmp5.c ****     }
 863:Drivers/BMP580/Src/bmp5.c **** 
 864:Drivers/BMP580/Src/bmp5.c ****     return rslt;
 865:Drivers/BMP580/Src/bmp5.c **** }
 866:Drivers/BMP580/Src/bmp5.c **** 
 867:Drivers/BMP580/Src/bmp5.c **** /*!
 868:Drivers/BMP580/Src/bmp5.c ****  *  @brief This API sets the configuration for IIR of temperature and pressure.
 869:Drivers/BMP580/Src/bmp5.c ****  *
 870:Drivers/BMP580/Src/bmp5.c ****  *  @note If IIR value for both temperature and pressure is set a value other than bypass then powe
 871:Drivers/BMP580/Src/bmp5.c ****  *  as standby mode, as IIR with value other than bypass without disabling deep-standby mode makes 
 872:Drivers/BMP580/Src/bmp5.c ****  */
 873:Drivers/BMP580/Src/bmp5.c **** int8_t bmp5_set_iir_config(const struct bmp5_iir_config *iir_cfg, struct bmp5_dev *dev)
 874:Drivers/BMP580/Src/bmp5.c **** {
 875:Drivers/BMP580/Src/bmp5.c ****     /* Variable to store the function result */
 876:Drivers/BMP580/Src/bmp5.c ****     int8_t rslt = 0;
 877:Drivers/BMP580/Src/bmp5.c **** 
 878:Drivers/BMP580/Src/bmp5.c ****     /* Variable to store existing powermode */
 879:Drivers/BMP580/Src/bmp5.c ****     enum bmp5_powermode curr_pwrmode;
 880:Drivers/BMP580/Src/bmp5.c **** 
 881:Drivers/BMP580/Src/bmp5.c ****     if (iir_cfg != NULL)
 882:Drivers/BMP580/Src/bmp5.c ****     {
 883:Drivers/BMP580/Src/bmp5.c ****         /* If IIR value for both temperature and pressure is set a value other than bypass then pow
 884:Drivers/BMP580/Src/bmp5.c ****          * as standby mode, as IIR with value other than bypass without disabling deep-standby mode
 885:Drivers/BMP580/Src/bmp5.c ****          * invalid.
ARM GAS  C:\Users\Nathan\AppData\Local\Temp\ccQWWdhB.s 			page 17


 886:Drivers/BMP580/Src/bmp5.c ****          */
 887:Drivers/BMP580/Src/bmp5.c ****         if ((iir_cfg->set_iir_t != BMP5_IIR_FILTER_BYPASS) || (iir_cfg->set_iir_p != BMP5_IIR_FILTE
 888:Drivers/BMP580/Src/bmp5.c ****         {
 889:Drivers/BMP580/Src/bmp5.c ****             rslt = set_standby_mode(dev);
 890:Drivers/BMP580/Src/bmp5.c ****         }
 891:Drivers/BMP580/Src/bmp5.c **** 
 892:Drivers/BMP580/Src/bmp5.c ****         if (rslt == BMP5_OK)
 893:Drivers/BMP580/Src/bmp5.c ****         {
 894:Drivers/BMP580/Src/bmp5.c ****             rslt = bmp5_get_power_mode(&curr_pwrmode, dev);
 895:Drivers/BMP580/Src/bmp5.c **** 
 896:Drivers/BMP580/Src/bmp5.c ****             if (rslt == BMP5_OK)
 897:Drivers/BMP580/Src/bmp5.c ****             {
 898:Drivers/BMP580/Src/bmp5.c ****                 /* IIR configuration is writable only during STANDBY mode(as per datasheet) */
 899:Drivers/BMP580/Src/bmp5.c ****                 if (curr_pwrmode != BMP5_POWERMODE_STANDBY)
 900:Drivers/BMP580/Src/bmp5.c ****                 {
 901:Drivers/BMP580/Src/bmp5.c ****                     /* If sensor is not in standby mode, set sensor in standby mode */
 902:Drivers/BMP580/Src/bmp5.c ****                     rslt = bmp5_set_power_mode(BMP5_POWERMODE_STANDBY, dev);
 903:Drivers/BMP580/Src/bmp5.c ****                 }
 904:Drivers/BMP580/Src/bmp5.c **** 
 905:Drivers/BMP580/Src/bmp5.c ****                 if (rslt == BMP5_OK)
 906:Drivers/BMP580/Src/bmp5.c ****                 {
 907:Drivers/BMP580/Src/bmp5.c ****                     rslt = set_iir_config(iir_cfg, dev);
 908:Drivers/BMP580/Src/bmp5.c ****                 }
 909:Drivers/BMP580/Src/bmp5.c **** 
 910:Drivers/BMP580/Src/bmp5.c ****                 /* If previous mode is not standbymode return sensor to that previous mode
 911:Drivers/BMP580/Src/bmp5.c ****                 * after setting iir configuration
 912:Drivers/BMP580/Src/bmp5.c ****                 */
 913:Drivers/BMP580/Src/bmp5.c ****                 if (rslt == BMP5_OK)
 914:Drivers/BMP580/Src/bmp5.c ****                 {
 915:Drivers/BMP580/Src/bmp5.c ****                     /* Since IIR works only in standby mode we are not re-writing to deepstandby mo
 916:Drivers/BMP580/Src/bmp5.c ****                     * as deep standby mode resets the IIR settings to default
 917:Drivers/BMP580/Src/bmp5.c ****                     */
 918:Drivers/BMP580/Src/bmp5.c ****                     if ((curr_pwrmode != BMP5_POWERMODE_STANDBY) && (curr_pwrmode != BMP5_POWERMODE
 919:Drivers/BMP580/Src/bmp5.c ****                     {
 920:Drivers/BMP580/Src/bmp5.c ****                         rslt = bmp5_set_power_mode(curr_pwrmode, dev);
 921:Drivers/BMP580/Src/bmp5.c ****                     }
 922:Drivers/BMP580/Src/bmp5.c ****                 }
 923:Drivers/BMP580/Src/bmp5.c ****             }
 924:Drivers/BMP580/Src/bmp5.c ****         }
 925:Drivers/BMP580/Src/bmp5.c ****     }
 926:Drivers/BMP580/Src/bmp5.c ****     else
 927:Drivers/BMP580/Src/bmp5.c ****     {
 928:Drivers/BMP580/Src/bmp5.c ****         rslt = BMP5_E_NULL_PTR;
 929:Drivers/BMP580/Src/bmp5.c ****     }
 930:Drivers/BMP580/Src/bmp5.c **** 
 931:Drivers/BMP580/Src/bmp5.c ****     return rslt;
 932:Drivers/BMP580/Src/bmp5.c **** }
 933:Drivers/BMP580/Src/bmp5.c **** 
 934:Drivers/BMP580/Src/bmp5.c **** /*!
 935:Drivers/BMP580/Src/bmp5.c ****  *  @brief This API gets the configuration for effective OSR of temperature,
 936:Drivers/BMP580/Src/bmp5.c ****  *  effective OSR of pressure and ODR valid status.
 937:Drivers/BMP580/Src/bmp5.c ****  */
 938:Drivers/BMP580/Src/bmp5.c **** int8_t bmp5_get_osr_odr_eff(struct bmp5_osr_odr_eff *osr_odr_eff, struct bmp5_dev *dev)
 939:Drivers/BMP580/Src/bmp5.c **** {
 940:Drivers/BMP580/Src/bmp5.c ****     /* Variable to store the function result */
 941:Drivers/BMP580/Src/bmp5.c ****     int8_t rslt;
 942:Drivers/BMP580/Src/bmp5.c **** 
ARM GAS  C:\Users\Nathan\AppData\Local\Temp\ccQWWdhB.s 			page 18


 943:Drivers/BMP580/Src/bmp5.c ****     /* Variable to store effective OSR */
 944:Drivers/BMP580/Src/bmp5.c ****     uint8_t reg_data;
 945:Drivers/BMP580/Src/bmp5.c **** 
 946:Drivers/BMP580/Src/bmp5.c ****     if (osr_odr_eff != NULL)
 947:Drivers/BMP580/Src/bmp5.c ****     {
 948:Drivers/BMP580/Src/bmp5.c ****         /* Get effective OSR configuration and ODR valid status */
 949:Drivers/BMP580/Src/bmp5.c ****         rslt = bmp5_get_regs(BMP5_REG_OSR_EFF, &reg_data, 1, dev);
 950:Drivers/BMP580/Src/bmp5.c **** 
 951:Drivers/BMP580/Src/bmp5.c ****         if (rslt == BMP5_OK)
 952:Drivers/BMP580/Src/bmp5.c ****         {
 953:Drivers/BMP580/Src/bmp5.c ****             osr_odr_eff->osr_t_eff = BMP5_GET_BITS_POS_0(reg_data, BMP5_OSR_TEMP_EFF);
 954:Drivers/BMP580/Src/bmp5.c ****             osr_odr_eff->osr_p_eff = BMP5_GET_BITSLICE(reg_data, BMP5_OSR_PRESS_EFF);
 955:Drivers/BMP580/Src/bmp5.c ****             osr_odr_eff->odr_is_valid = BMP5_GET_BITSLICE(reg_data, BMP5_ODR_IS_VALID);
 956:Drivers/BMP580/Src/bmp5.c ****         }
 957:Drivers/BMP580/Src/bmp5.c ****     }
 958:Drivers/BMP580/Src/bmp5.c ****     else
 959:Drivers/BMP580/Src/bmp5.c ****     {
 960:Drivers/BMP580/Src/bmp5.c ****         rslt = BMP5_E_NULL_PTR;
 961:Drivers/BMP580/Src/bmp5.c ****     }
 962:Drivers/BMP580/Src/bmp5.c **** 
 963:Drivers/BMP580/Src/bmp5.c ****     return rslt;
 964:Drivers/BMP580/Src/bmp5.c **** }
 965:Drivers/BMP580/Src/bmp5.c **** 
 966:Drivers/BMP580/Src/bmp5.c **** /*!
 967:Drivers/BMP580/Src/bmp5.c ****  *  @brief This API used to get the configurations of fifo from the sensor.
 968:Drivers/BMP580/Src/bmp5.c ****  */
 969:Drivers/BMP580/Src/bmp5.c **** int8_t bmp5_get_fifo_configuration(struct bmp5_fifo *fifo, struct bmp5_dev *dev)
 970:Drivers/BMP580/Src/bmp5.c **** {
 971:Drivers/BMP580/Src/bmp5.c ****     int8_t rslt = 0;
 972:Drivers/BMP580/Src/bmp5.c ****     uint8_t reg_data;
 973:Drivers/BMP580/Src/bmp5.c **** 
 974:Drivers/BMP580/Src/bmp5.c ****     if (fifo != NULL)
 975:Drivers/BMP580/Src/bmp5.c ****     {
 976:Drivers/BMP580/Src/bmp5.c ****         /* Get the fifo congifurations */
 977:Drivers/BMP580/Src/bmp5.c ****         rslt = bmp5_get_regs(BMP5_REG_FIFO_CONFIG, &reg_data, 1, dev);
 978:Drivers/BMP580/Src/bmp5.c **** 
 979:Drivers/BMP580/Src/bmp5.c ****         if (rslt == BMP5_OK)
 980:Drivers/BMP580/Src/bmp5.c ****         {
 981:Drivers/BMP580/Src/bmp5.c ****             fifo->threshold = BMP5_GET_BITS_POS_0(reg_data, BMP5_FIFO_THRESHOLD);
 982:Drivers/BMP580/Src/bmp5.c ****             fifo->mode = BMP5_GET_BITSLICE(reg_data, BMP5_FIFO_MODE);
 983:Drivers/BMP580/Src/bmp5.c **** 
 984:Drivers/BMP580/Src/bmp5.c ****             rslt = bmp5_get_regs(BMP5_REG_FIFO_SEL, &reg_data, 1, dev);
 985:Drivers/BMP580/Src/bmp5.c **** 
 986:Drivers/BMP580/Src/bmp5.c ****             if (rslt == BMP5_OK)
 987:Drivers/BMP580/Src/bmp5.c ****             {
 988:Drivers/BMP580/Src/bmp5.c ****                 fifo->frame_sel = BMP5_GET_BITS_POS_0(reg_data, BMP5_FIFO_FRAME_SEL);
 989:Drivers/BMP580/Src/bmp5.c ****                 fifo->dec_sel = BMP5_GET_BITSLICE(reg_data, BMP5_FIFO_DEC_SEL);
 990:Drivers/BMP580/Src/bmp5.c ****             }
 991:Drivers/BMP580/Src/bmp5.c ****         }
 992:Drivers/BMP580/Src/bmp5.c **** 
 993:Drivers/BMP580/Src/bmp5.c ****         if (rslt == BMP5_OK)
 994:Drivers/BMP580/Src/bmp5.c ****         {
 995:Drivers/BMP580/Src/bmp5.c ****             rslt = bmp5_get_regs(BMP5_REG_DSP_CONFIG, &reg_data, 1, dev);
 996:Drivers/BMP580/Src/bmp5.c **** 
 997:Drivers/BMP580/Src/bmp5.c ****             if (rslt == BMP5_OK)
 998:Drivers/BMP580/Src/bmp5.c ****             {
 999:Drivers/BMP580/Src/bmp5.c ****                 fifo->set_fifo_iir_t = BMP5_GET_BITSLICE(reg_data, BMP5_SET_FIFO_IIR_TEMP);
ARM GAS  C:\Users\Nathan\AppData\Local\Temp\ccQWWdhB.s 			page 19


1000:Drivers/BMP580/Src/bmp5.c ****                 fifo->set_fifo_iir_p = BMP5_GET_BITSLICE(reg_data, BMP5_SET_FIFO_IIR_PRESS);
1001:Drivers/BMP580/Src/bmp5.c ****             }
1002:Drivers/BMP580/Src/bmp5.c ****         }
1003:Drivers/BMP580/Src/bmp5.c ****     }
1004:Drivers/BMP580/Src/bmp5.c ****     else
1005:Drivers/BMP580/Src/bmp5.c ****     {
1006:Drivers/BMP580/Src/bmp5.c ****         rslt = BMP5_E_NULL_PTR;
1007:Drivers/BMP580/Src/bmp5.c ****     }
1008:Drivers/BMP580/Src/bmp5.c **** 
1009:Drivers/BMP580/Src/bmp5.c ****     return rslt;
1010:Drivers/BMP580/Src/bmp5.c **** }
1011:Drivers/BMP580/Src/bmp5.c **** 
1012:Drivers/BMP580/Src/bmp5.c **** /*!
1013:Drivers/BMP580/Src/bmp5.c ****  *  @brief This API used to set the configurations of fifo in the sensor.
1014:Drivers/BMP580/Src/bmp5.c ****  *
1015:Drivers/BMP580/Src/bmp5.c ****  *  @note If Fifo frame selection is enabled then powermode is set as standby mode, as fifo frame s
1016:Drivers/BMP580/Src/bmp5.c ****  *  enabled without disabling deep-standby mode makes powermode invalid.
1017:Drivers/BMP580/Src/bmp5.c ****  */
1018:Drivers/BMP580/Src/bmp5.c **** int8_t bmp5_set_fifo_configuration(const struct bmp5_fifo *fifo, struct bmp5_dev *dev)
1019:Drivers/BMP580/Src/bmp5.c **** {
1020:Drivers/BMP580/Src/bmp5.c ****     int8_t rslt = 0;
1021:Drivers/BMP580/Src/bmp5.c ****     uint8_t reg_data;
1022:Drivers/BMP580/Src/bmp5.c ****     uint8_t set_fifo_iir_t, set_fifo_iit_p;
1023:Drivers/BMP580/Src/bmp5.c **** 
1024:Drivers/BMP580/Src/bmp5.c ****     if (fifo != NULL)
1025:Drivers/BMP580/Src/bmp5.c ****     {
1026:Drivers/BMP580/Src/bmp5.c ****         /* If Fifo frame selection is enabled then powermode is set as standby mode, as fifo frame 
1027:Drivers/BMP580/Src/bmp5.c ****          * enabled without disabling deep-standby mode makes powermode invalid.
1028:Drivers/BMP580/Src/bmp5.c ****          */
1029:Drivers/BMP580/Src/bmp5.c ****         if (fifo->frame_sel != BMP5_DISABLE)
1030:Drivers/BMP580/Src/bmp5.c ****         {
1031:Drivers/BMP580/Src/bmp5.c ****             rslt = set_standby_mode(dev);
1032:Drivers/BMP580/Src/bmp5.c ****         }
1033:Drivers/BMP580/Src/bmp5.c **** 
1034:Drivers/BMP580/Src/bmp5.c ****         if (rslt == BMP5_OK)
1035:Drivers/BMP580/Src/bmp5.c ****         {
1036:Drivers/BMP580/Src/bmp5.c ****             set_fifo_iir_t = fifo->set_fifo_iir_t;
1037:Drivers/BMP580/Src/bmp5.c ****             set_fifo_iit_p = fifo->set_fifo_iir_p;
1038:Drivers/BMP580/Src/bmp5.c **** 
1039:Drivers/BMP580/Src/bmp5.c ****             rslt = set_fifo_iir_config(set_fifo_iir_t, set_fifo_iit_p, dev);
1040:Drivers/BMP580/Src/bmp5.c **** 
1041:Drivers/BMP580/Src/bmp5.c ****             if (rslt == BMP5_OK)
1042:Drivers/BMP580/Src/bmp5.c ****             {
1043:Drivers/BMP580/Src/bmp5.c ****                 /* Get the fifo congifurations */
1044:Drivers/BMP580/Src/bmp5.c ****                 rslt = bmp5_get_regs(BMP5_REG_FIFO_CONFIG, &reg_data, 1, dev);
1045:Drivers/BMP580/Src/bmp5.c **** 
1046:Drivers/BMP580/Src/bmp5.c ****                 if (rslt == BMP5_OK)
1047:Drivers/BMP580/Src/bmp5.c ****                 {
1048:Drivers/BMP580/Src/bmp5.c ****                     reg_data = BMP5_SET_BITSLICE(reg_data, BMP5_FIFO_MODE, fifo->mode);
1049:Drivers/BMP580/Src/bmp5.c **** 
1050:Drivers/BMP580/Src/bmp5.c ****                     rslt = set_fifo_threshold(&reg_data, fifo);
1051:Drivers/BMP580/Src/bmp5.c ****                 }
1052:Drivers/BMP580/Src/bmp5.c **** 
1053:Drivers/BMP580/Src/bmp5.c ****                 if (rslt == BMP5_OK)
1054:Drivers/BMP580/Src/bmp5.c ****                 {
1055:Drivers/BMP580/Src/bmp5.c ****                     /* Set the fifo congifurations */
1056:Drivers/BMP580/Src/bmp5.c ****                     rslt = bmp5_set_regs(BMP5_REG_FIFO_CONFIG, &reg_data, 1, dev);
ARM GAS  C:\Users\Nathan\AppData\Local\Temp\ccQWWdhB.s 			page 20


1057:Drivers/BMP580/Src/bmp5.c ****                 }
1058:Drivers/BMP580/Src/bmp5.c **** 
1059:Drivers/BMP580/Src/bmp5.c ****                 if (rslt == BMP5_OK)
1060:Drivers/BMP580/Src/bmp5.c ****                 {
1061:Drivers/BMP580/Src/bmp5.c ****                     rslt = bmp5_get_regs(BMP5_REG_FIFO_SEL, &reg_data, 1, dev);
1062:Drivers/BMP580/Src/bmp5.c ****                 }
1063:Drivers/BMP580/Src/bmp5.c **** 
1064:Drivers/BMP580/Src/bmp5.c ****                 if (rslt == BMP5_OK)
1065:Drivers/BMP580/Src/bmp5.c ****                 {
1066:Drivers/BMP580/Src/bmp5.c ****                     reg_data = BMP5_SET_BITS_POS_0(reg_data, BMP5_FIFO_FRAME_SEL, fifo->frame_sel);
1067:Drivers/BMP580/Src/bmp5.c ****                     reg_data = BMP5_SET_BITSLICE(reg_data, BMP5_FIFO_DEC_SEL, fifo->dec_sel);
1068:Drivers/BMP580/Src/bmp5.c ****                 }
1069:Drivers/BMP580/Src/bmp5.c **** 
1070:Drivers/BMP580/Src/bmp5.c ****                 if (rslt == BMP5_OK)
1071:Drivers/BMP580/Src/bmp5.c ****                 {
1072:Drivers/BMP580/Src/bmp5.c ****                     /* Set the fifo congifurations */
1073:Drivers/BMP580/Src/bmp5.c ****                     rslt = bmp5_set_regs(BMP5_REG_FIFO_SEL, &reg_data, 1, dev);
1074:Drivers/BMP580/Src/bmp5.c ****                 }
1075:Drivers/BMP580/Src/bmp5.c ****             }
1076:Drivers/BMP580/Src/bmp5.c ****         }
1077:Drivers/BMP580/Src/bmp5.c ****     }
1078:Drivers/BMP580/Src/bmp5.c ****     else
1079:Drivers/BMP580/Src/bmp5.c ****     {
1080:Drivers/BMP580/Src/bmp5.c ****         rslt = BMP5_E_NULL_PTR;
1081:Drivers/BMP580/Src/bmp5.c ****     }
1082:Drivers/BMP580/Src/bmp5.c **** 
1083:Drivers/BMP580/Src/bmp5.c ****     return rslt;
1084:Drivers/BMP580/Src/bmp5.c **** }
1085:Drivers/BMP580/Src/bmp5.c **** 
1086:Drivers/BMP580/Src/bmp5.c **** /*!
1087:Drivers/BMP580/Src/bmp5.c ****  *  @brief This API is used to get the length of fifo from the sensor.
1088:Drivers/BMP580/Src/bmp5.c ****  */
1089:Drivers/BMP580/Src/bmp5.c **** int8_t bmp5_get_fifo_len(uint16_t *fifo_len, struct bmp5_fifo *fifo, struct bmp5_dev *dev)
1090:Drivers/BMP580/Src/bmp5.c **** {
1091:Drivers/BMP580/Src/bmp5.c ****     int8_t rslt;
1092:Drivers/BMP580/Src/bmp5.c ****     uint8_t reg_data;
1093:Drivers/BMP580/Src/bmp5.c **** 
1094:Drivers/BMP580/Src/bmp5.c ****     if ((fifo != NULL) && (fifo_len != NULL))
1095:Drivers/BMP580/Src/bmp5.c ****     {
1096:Drivers/BMP580/Src/bmp5.c ****         /* Get the fifo frame count */
1097:Drivers/BMP580/Src/bmp5.c ****         rslt = bmp5_get_regs(BMP5_REG_FIFO_COUNT, &reg_data, 1, dev);
1098:Drivers/BMP580/Src/bmp5.c **** 
1099:Drivers/BMP580/Src/bmp5.c ****         if (rslt == BMP5_OK)
1100:Drivers/BMP580/Src/bmp5.c ****         {
1101:Drivers/BMP580/Src/bmp5.c ****             fifo->fifo_count = BMP5_GET_BITS_POS_0(reg_data, BMP5_FIFO_COUNT);
1102:Drivers/BMP580/Src/bmp5.c **** 
1103:Drivers/BMP580/Src/bmp5.c ****             if ((fifo->frame_sel == BMP5_FIFO_TEMPERATURE_DATA) || (fifo->frame_sel == BMP5_FIFO_PR
1104:Drivers/BMP580/Src/bmp5.c ****             {
1105:Drivers/BMP580/Src/bmp5.c ****                 /* Maximum of 32 frames if either one of temperature or pressure is selected
1106:Drivers/BMP580/Src/bmp5.c ****                  * and each frame comprises of 3 bytes of data
1107:Drivers/BMP580/Src/bmp5.c ****                  */
1108:Drivers/BMP580/Src/bmp5.c ****                 *fifo_len = fifo->fifo_count * 3;
1109:Drivers/BMP580/Src/bmp5.c ****             }
1110:Drivers/BMP580/Src/bmp5.c ****             else if (fifo->frame_sel == BMP5_FIFO_PRESS_TEMP_DATA)
1111:Drivers/BMP580/Src/bmp5.c ****             {
1112:Drivers/BMP580/Src/bmp5.c ****                 /* Maximum of 16 frames if both temperature and pressure is selected
1113:Drivers/BMP580/Src/bmp5.c ****                  * and each frame comprises of 6 bytes of data
ARM GAS  C:\Users\Nathan\AppData\Local\Temp\ccQWWdhB.s 			page 21


1114:Drivers/BMP580/Src/bmp5.c ****                  */
1115:Drivers/BMP580/Src/bmp5.c ****                 *fifo_len = fifo->fifo_count * 6;
1116:Drivers/BMP580/Src/bmp5.c ****             }
1117:Drivers/BMP580/Src/bmp5.c ****         }
1118:Drivers/BMP580/Src/bmp5.c ****     }
1119:Drivers/BMP580/Src/bmp5.c ****     else
1120:Drivers/BMP580/Src/bmp5.c ****     {
1121:Drivers/BMP580/Src/bmp5.c ****         rslt = BMP5_E_NULL_PTR;
1122:Drivers/BMP580/Src/bmp5.c ****     }
1123:Drivers/BMP580/Src/bmp5.c **** 
1124:Drivers/BMP580/Src/bmp5.c ****     return rslt;
1125:Drivers/BMP580/Src/bmp5.c **** }
1126:Drivers/BMP580/Src/bmp5.c **** 
1127:Drivers/BMP580/Src/bmp5.c **** /*!
1128:Drivers/BMP580/Src/bmp5.c ****  *  @brief This API is used to get the fifo data from the sensor.
1129:Drivers/BMP580/Src/bmp5.c ****  */
1130:Drivers/BMP580/Src/bmp5.c **** int8_t bmp5_get_fifo_data(struct bmp5_fifo *fifo, struct bmp5_dev *dev)
1131:Drivers/BMP580/Src/bmp5.c **** {
1132:Drivers/BMP580/Src/bmp5.c ****     int8_t rslt;
1133:Drivers/BMP580/Src/bmp5.c ****     uint16_t fifo_len;
1134:Drivers/BMP580/Src/bmp5.c **** 
1135:Drivers/BMP580/Src/bmp5.c ****     if (fifo != NULL)
1136:Drivers/BMP580/Src/bmp5.c ****     {
1137:Drivers/BMP580/Src/bmp5.c ****         /* Get the fifo length */
1138:Drivers/BMP580/Src/bmp5.c ****         rslt = bmp5_get_fifo_len(&fifo_len, fifo, dev);
1139:Drivers/BMP580/Src/bmp5.c **** 
1140:Drivers/BMP580/Src/bmp5.c ****         if (rslt == BMP5_OK)
1141:Drivers/BMP580/Src/bmp5.c ****         {
1142:Drivers/BMP580/Src/bmp5.c ****             if (fifo->length > fifo_len)
1143:Drivers/BMP580/Src/bmp5.c ****             {
1144:Drivers/BMP580/Src/bmp5.c ****                 fifo->length = fifo_len;
1145:Drivers/BMP580/Src/bmp5.c ****             }
1146:Drivers/BMP580/Src/bmp5.c **** 
1147:Drivers/BMP580/Src/bmp5.c ****             /* Read the fifo data */
1148:Drivers/BMP580/Src/bmp5.c ****             rslt = bmp5_get_regs(BMP5_REG_FIFO_DATA, fifo->data, fifo->length, dev);
1149:Drivers/BMP580/Src/bmp5.c ****         }
1150:Drivers/BMP580/Src/bmp5.c ****     }
1151:Drivers/BMP580/Src/bmp5.c ****     else
1152:Drivers/BMP580/Src/bmp5.c ****     {
1153:Drivers/BMP580/Src/bmp5.c ****         rslt = BMP5_E_NULL_PTR;
1154:Drivers/BMP580/Src/bmp5.c ****     }
1155:Drivers/BMP580/Src/bmp5.c **** 
1156:Drivers/BMP580/Src/bmp5.c ****     return rslt;
1157:Drivers/BMP580/Src/bmp5.c **** }
1158:Drivers/BMP580/Src/bmp5.c **** 
1159:Drivers/BMP580/Src/bmp5.c **** /*!
1160:Drivers/BMP580/Src/bmp5.c ****  *  @brief This API extract the temperature and/or pressure data from the fifo data which is
1161:Drivers/BMP580/Src/bmp5.c ****  *  already read from the fifo.
1162:Drivers/BMP580/Src/bmp5.c ****  */
1163:Drivers/BMP580/Src/bmp5.c **** int8_t bmp5_extract_fifo_data(const struct bmp5_fifo *fifo, struct bmp5_sensor_data *sensor_data)
1164:Drivers/BMP580/Src/bmp5.c **** {
1165:Drivers/BMP580/Src/bmp5.c ****     int8_t rslt = 0;
1166:Drivers/BMP580/Src/bmp5.c ****     uint8_t idx = 0;
1167:Drivers/BMP580/Src/bmp5.c ****     uint16_t data_indx;
1168:Drivers/BMP580/Src/bmp5.c **** 
1169:Drivers/BMP580/Src/bmp5.c ****     /* Proceed if null check is fine */
1170:Drivers/BMP580/Src/bmp5.c ****     if ((fifo != NULL) && (sensor_data != NULL))
ARM GAS  C:\Users\Nathan\AppData\Local\Temp\ccQWWdhB.s 			page 22


1171:Drivers/BMP580/Src/bmp5.c ****     {
1172:Drivers/BMP580/Src/bmp5.c ****         for (data_indx = 0; (data_indx < fifo->length) && (rslt != BMP5_E_FIFO_FRAME_EMPTY);)
1173:Drivers/BMP580/Src/bmp5.c ****         {
1174:Drivers/BMP580/Src/bmp5.c ****             /* Inside unpack_sensor_data function, data_index is incremented */
1175:Drivers/BMP580/Src/bmp5.c ****             rslt = unpack_sensor_data(&sensor_data[idx], &data_indx, fifo);
1176:Drivers/BMP580/Src/bmp5.c ****             idx++;
1177:Drivers/BMP580/Src/bmp5.c ****         }
1178:Drivers/BMP580/Src/bmp5.c ****     }
1179:Drivers/BMP580/Src/bmp5.c ****     else
1180:Drivers/BMP580/Src/bmp5.c ****     {
1181:Drivers/BMP580/Src/bmp5.c ****         rslt = BMP5_E_NULL_PTR;
1182:Drivers/BMP580/Src/bmp5.c ****     }
1183:Drivers/BMP580/Src/bmp5.c **** 
1184:Drivers/BMP580/Src/bmp5.c ****     return rslt;
1185:Drivers/BMP580/Src/bmp5.c **** }
1186:Drivers/BMP580/Src/bmp5.c **** 
1187:Drivers/BMP580/Src/bmp5.c **** /*!
1188:Drivers/BMP580/Src/bmp5.c ****  *  @brief This API gets the configuration for out-of-range pressure threshold, range
1189:Drivers/BMP580/Src/bmp5.c ****  *  count limit and IIR.
1190:Drivers/BMP580/Src/bmp5.c ****  */
1191:Drivers/BMP580/Src/bmp5.c **** int8_t bmp5_get_oor_configuration(struct bmp5_oor_press_configuration *oor_press_config, struct bmp
1192:Drivers/BMP580/Src/bmp5.c **** {
1193:Drivers/BMP580/Src/bmp5.c ****     int8_t rslt;
1194:Drivers/BMP580/Src/bmp5.c ****     uint8_t reg_data[4];
1195:Drivers/BMP580/Src/bmp5.c **** 
1196:Drivers/BMP580/Src/bmp5.c ****     if (oor_press_config != NULL)
1197:Drivers/BMP580/Src/bmp5.c ****     {
1198:Drivers/BMP580/Src/bmp5.c ****         rslt = bmp5_get_regs(BMP5_REG_DSP_CONFIG, &reg_data[0], 1, dev);
1199:Drivers/BMP580/Src/bmp5.c **** 
1200:Drivers/BMP580/Src/bmp5.c ****         if (rslt == BMP5_OK)
1201:Drivers/BMP580/Src/bmp5.c ****         {
1202:Drivers/BMP580/Src/bmp5.c ****             oor_press_config->oor_sel_iir_p = BMP5_GET_BITSLICE(reg_data[0], BMP5_OOR_SEL_IIR_PRESS
1203:Drivers/BMP580/Src/bmp5.c **** 
1204:Drivers/BMP580/Src/bmp5.c ****             rslt = bmp5_get_regs(BMP5_REG_OOR_THR_P_LSB, reg_data, 4, dev);
1205:Drivers/BMP580/Src/bmp5.c **** 
1206:Drivers/BMP580/Src/bmp5.c ****             if (rslt == BMP5_OK)
1207:Drivers/BMP580/Src/bmp5.c ****             {
1208:Drivers/BMP580/Src/bmp5.c ****                 oor_press_config->oor_thr_p = reg_data[0] | (reg_data[1] << 8) |
1209:Drivers/BMP580/Src/bmp5.c ****                                               ((reg_data[3] & BMP5_OOR_THR_P_XMSB_REG_MSK) << 16);
1210:Drivers/BMP580/Src/bmp5.c ****                 oor_press_config->oor_range_p = reg_data[2];
1211:Drivers/BMP580/Src/bmp5.c ****                 oor_press_config->cnt_lim = BMP5_GET_BITSLICE(reg_data[3], BMP5_OOR_COUNT_LIMIT);
1212:Drivers/BMP580/Src/bmp5.c ****             }
1213:Drivers/BMP580/Src/bmp5.c ****         }
1214:Drivers/BMP580/Src/bmp5.c ****     }
1215:Drivers/BMP580/Src/bmp5.c ****     else
1216:Drivers/BMP580/Src/bmp5.c ****     {
1217:Drivers/BMP580/Src/bmp5.c ****         rslt = BMP5_E_NULL_PTR;
1218:Drivers/BMP580/Src/bmp5.c ****     }
1219:Drivers/BMP580/Src/bmp5.c **** 
1220:Drivers/BMP580/Src/bmp5.c ****     return rslt;
1221:Drivers/BMP580/Src/bmp5.c **** }
1222:Drivers/BMP580/Src/bmp5.c **** 
1223:Drivers/BMP580/Src/bmp5.c **** /*!
1224:Drivers/BMP580/Src/bmp5.c ****  *  @brief This API sets the configuration for out-of-range pressure threshold, range
1225:Drivers/BMP580/Src/bmp5.c ****  *  count limit and IIR.
1226:Drivers/BMP580/Src/bmp5.c ****  */
1227:Drivers/BMP580/Src/bmp5.c **** int8_t bmp5_set_oor_configuration(const struct bmp5_oor_press_configuration *oor_press_config, stru
ARM GAS  C:\Users\Nathan\AppData\Local\Temp\ccQWWdhB.s 			page 23


1228:Drivers/BMP580/Src/bmp5.c **** {
1229:Drivers/BMP580/Src/bmp5.c ****     int8_t rslt;
1230:Drivers/BMP580/Src/bmp5.c ****     uint8_t reg_data[4];
1231:Drivers/BMP580/Src/bmp5.c ****     uint8_t thres_xmsb;
1232:Drivers/BMP580/Src/bmp5.c ****     uint8_t set_oor_iir_p, set_count_limit;
1233:Drivers/BMP580/Src/bmp5.c **** 
1234:Drivers/BMP580/Src/bmp5.c ****     if (oor_press_config != NULL)
1235:Drivers/BMP580/Src/bmp5.c ****     {
1236:Drivers/BMP580/Src/bmp5.c ****         set_oor_iir_p = oor_press_config->oor_sel_iir_p;
1237:Drivers/BMP580/Src/bmp5.c ****         set_count_limit = oor_press_config->cnt_lim;
1238:Drivers/BMP580/Src/bmp5.c **** 
1239:Drivers/BMP580/Src/bmp5.c ****         rslt = set_oor_iir_count_limit(set_oor_iir_p, set_count_limit, dev);
1240:Drivers/BMP580/Src/bmp5.c **** 
1241:Drivers/BMP580/Src/bmp5.c ****         if (rslt == BMP5_OK)
1242:Drivers/BMP580/Src/bmp5.c ****         {
1243:Drivers/BMP580/Src/bmp5.c ****             /* Get the OOR configurations */
1244:Drivers/BMP580/Src/bmp5.c ****             rslt = bmp5_get_regs(BMP5_REG_OOR_THR_P_LSB, reg_data, 4, dev);
1245:Drivers/BMP580/Src/bmp5.c **** 
1246:Drivers/BMP580/Src/bmp5.c ****             if (rslt == BMP5_OK)
1247:Drivers/BMP580/Src/bmp5.c ****             {
1248:Drivers/BMP580/Src/bmp5.c ****                 reg_data[0] = BMP5_SET_BITS_POS_0(reg_data[0], BMP5_OOR_THR_P_LSB, oor_press_config
1249:Drivers/BMP580/Src/bmp5.c ****                 reg_data[1] =
1250:Drivers/BMP580/Src/bmp5.c ****                     (uint8_t)(BMP5_SET_BITS_POS_0(reg_data[1], BMP5_OOR_THR_P_MSB, oor_press_config
1251:Drivers/BMP580/Src/bmp5.c ****                 reg_data[2] = oor_press_config->oor_range_p;
1252:Drivers/BMP580/Src/bmp5.c ****                 thres_xmsb = BMP5_GET_BITSLICE(oor_press_config->oor_thr_p, BMP5_OOR_THR_P_XMSB);
1253:Drivers/BMP580/Src/bmp5.c ****                 reg_data[3] = BMP5_SET_BITS_POS_0(reg_data[3], BMP5_OOR_THR_P_XMSB_REG, thres_xmsb)
1254:Drivers/BMP580/Src/bmp5.c **** 
1255:Drivers/BMP580/Src/bmp5.c ****                 /* Set the OOR congifurations */
1256:Drivers/BMP580/Src/bmp5.c ****                 rslt = bmp5_set_regs(BMP5_REG_OOR_THR_P_LSB, reg_data, 4, dev);
1257:Drivers/BMP580/Src/bmp5.c ****             }
1258:Drivers/BMP580/Src/bmp5.c ****         }
1259:Drivers/BMP580/Src/bmp5.c ****     }
1260:Drivers/BMP580/Src/bmp5.c ****     else
1261:Drivers/BMP580/Src/bmp5.c ****     {
1262:Drivers/BMP580/Src/bmp5.c ****         rslt = BMP5_E_NULL_PTR;
1263:Drivers/BMP580/Src/bmp5.c ****     }
1264:Drivers/BMP580/Src/bmp5.c **** 
1265:Drivers/BMP580/Src/bmp5.c ****     return rslt;
1266:Drivers/BMP580/Src/bmp5.c **** }
1267:Drivers/BMP580/Src/bmp5.c **** 
1268:Drivers/BMP580/Src/bmp5.c **** /*!
1269:Drivers/BMP580/Src/bmp5.c ****  *  @brief This API is used to perform NVM read.
1270:Drivers/BMP580/Src/bmp5.c ****  */
1271:Drivers/BMP580/Src/bmp5.c **** int8_t bmp5_nvm_read(uint8_t nvm_addr, uint16_t *nvm_data, struct bmp5_dev *dev)
1272:Drivers/BMP580/Src/bmp5.c **** {
1273:Drivers/BMP580/Src/bmp5.c ****     int8_t rslt;
1274:Drivers/BMP580/Src/bmp5.c ****     uint8_t reg_data;
1275:Drivers/BMP580/Src/bmp5.c **** 
1276:Drivers/BMP580/Src/bmp5.c ****     /* Variable to store existing powermode */
1277:Drivers/BMP580/Src/bmp5.c ****     enum bmp5_powermode curr_pwrmode;
1278:Drivers/BMP580/Src/bmp5.c **** 
1279:Drivers/BMP580/Src/bmp5.c ****     /* Check for null pointer in the device structure */
1280:Drivers/BMP580/Src/bmp5.c ****     rslt = null_ptr_check(dev);
1281:Drivers/BMP580/Src/bmp5.c **** 
1282:Drivers/BMP580/Src/bmp5.c ****     /* Proceed if null check is fine */
1283:Drivers/BMP580/Src/bmp5.c ****     if ((rslt == BMP5_OK) && (nvm_data != NULL))
1284:Drivers/BMP580/Src/bmp5.c ****     {
ARM GAS  C:\Users\Nathan\AppData\Local\Temp\ccQWWdhB.s 			page 24


1285:Drivers/BMP580/Src/bmp5.c ****         rslt = nvm_write_addr(nvm_addr, BMP5_DISABLE, &curr_pwrmode, dev);
1286:Drivers/BMP580/Src/bmp5.c **** 
1287:Drivers/BMP580/Src/bmp5.c ****         if (rslt == BMP5_OK)
1288:Drivers/BMP580/Src/bmp5.c ****         {
1289:Drivers/BMP580/Src/bmp5.c ****             /* First NVM command for user read sequence */
1290:Drivers/BMP580/Src/bmp5.c ****             reg_data = BMP5_NVM_FIRST_CMND;
1291:Drivers/BMP580/Src/bmp5.c ****             rslt = bmp5_set_regs(BMP5_REG_CMD, &reg_data, 1, dev);
1292:Drivers/BMP580/Src/bmp5.c ****         }
1293:Drivers/BMP580/Src/bmp5.c **** 
1294:Drivers/BMP580/Src/bmp5.c ****         if (rslt == BMP5_OK)
1295:Drivers/BMP580/Src/bmp5.c ****         {
1296:Drivers/BMP580/Src/bmp5.c ****             /* Read enable NVM command for user read sequence */
1297:Drivers/BMP580/Src/bmp5.c ****             reg_data = BMP5_NVM_READ_ENABLE_CMND;
1298:Drivers/BMP580/Src/bmp5.c ****             rslt = bmp5_set_regs(BMP5_REG_CMD, &reg_data, 1, dev);
1299:Drivers/BMP580/Src/bmp5.c **** 
1300:Drivers/BMP580/Src/bmp5.c ****             /* Delay required for NVM ready status to change to 1 before NVM read */
1301:Drivers/BMP580/Src/bmp5.c ****             dev->delay_us(BMP5_DELAY_US_NVM_READY_READ, dev->intf_ptr);
1302:Drivers/BMP580/Src/bmp5.c ****         }
1303:Drivers/BMP580/Src/bmp5.c **** 
1304:Drivers/BMP580/Src/bmp5.c ****         if (rslt == BMP5_OK)
1305:Drivers/BMP580/Src/bmp5.c ****         {
1306:Drivers/BMP580/Src/bmp5.c ****             rslt = get_nvm_data(nvm_data, dev);
1307:Drivers/BMP580/Src/bmp5.c ****         }
1308:Drivers/BMP580/Src/bmp5.c **** 
1309:Drivers/BMP580/Src/bmp5.c ****         if (rslt == BMP5_OK)
1310:Drivers/BMP580/Src/bmp5.c ****         {
1311:Drivers/BMP580/Src/bmp5.c ****             /* If previous mode is not standbymode return sensor to that previous mode
1312:Drivers/BMP580/Src/bmp5.c ****              * after performing NVM
1313:Drivers/BMP580/Src/bmp5.c ****              */
1314:Drivers/BMP580/Src/bmp5.c ****             if (curr_pwrmode != BMP5_POWERMODE_STANDBY)
1315:Drivers/BMP580/Src/bmp5.c ****             {
1316:Drivers/BMP580/Src/bmp5.c ****                 rslt = bmp5_set_power_mode(curr_pwrmode, dev);
1317:Drivers/BMP580/Src/bmp5.c ****             }
1318:Drivers/BMP580/Src/bmp5.c ****         }
1319:Drivers/BMP580/Src/bmp5.c ****     }
1320:Drivers/BMP580/Src/bmp5.c ****     else
1321:Drivers/BMP580/Src/bmp5.c ****     {
1322:Drivers/BMP580/Src/bmp5.c ****         rslt = BMP5_E_NULL_PTR;
1323:Drivers/BMP580/Src/bmp5.c ****     }
1324:Drivers/BMP580/Src/bmp5.c **** 
1325:Drivers/BMP580/Src/bmp5.c ****     return rslt;
1326:Drivers/BMP580/Src/bmp5.c **** }
1327:Drivers/BMP580/Src/bmp5.c **** 
1328:Drivers/BMP580/Src/bmp5.c **** /*!
1329:Drivers/BMP580/Src/bmp5.c ****  *  @brief This API is used to perform NVM write.
1330:Drivers/BMP580/Src/bmp5.c ****  */
1331:Drivers/BMP580/Src/bmp5.c **** int8_t bmp5_nvm_write(uint8_t nvm_addr, const uint16_t *nvm_data, struct bmp5_dev *dev)
1332:Drivers/BMP580/Src/bmp5.c **** {
1333:Drivers/BMP580/Src/bmp5.c ****     int8_t rslt;
1334:Drivers/BMP580/Src/bmp5.c **** 
1335:Drivers/BMP580/Src/bmp5.c ****     uint8_t nvm_status = 0;
1336:Drivers/BMP580/Src/bmp5.c **** 
1337:Drivers/BMP580/Src/bmp5.c ****     uint8_t reg_data = 0;
1338:Drivers/BMP580/Src/bmp5.c **** 
1339:Drivers/BMP580/Src/bmp5.c ****     uint8_t nvmdata[2];
1340:Drivers/BMP580/Src/bmp5.c **** 
1341:Drivers/BMP580/Src/bmp5.c ****     /* Variable to store existing powermode */
ARM GAS  C:\Users\Nathan\AppData\Local\Temp\ccQWWdhB.s 			page 25


1342:Drivers/BMP580/Src/bmp5.c ****     enum bmp5_powermode curr_pwrmode;
1343:Drivers/BMP580/Src/bmp5.c **** 
1344:Drivers/BMP580/Src/bmp5.c ****     /* Check for null pointer in the device structure */
1345:Drivers/BMP580/Src/bmp5.c ****     rslt = null_ptr_check(dev);
1346:Drivers/BMP580/Src/bmp5.c **** 
1347:Drivers/BMP580/Src/bmp5.c ****     /* Proceed if null check is fine */
1348:Drivers/BMP580/Src/bmp5.c ****     if ((rslt == BMP5_OK) && (nvm_data != NULL))
1349:Drivers/BMP580/Src/bmp5.c ****     {
1350:Drivers/BMP580/Src/bmp5.c ****         rslt = nvm_write_addr(nvm_addr, BMP5_ENABLE, &curr_pwrmode, dev);
1351:Drivers/BMP580/Src/bmp5.c **** 
1352:Drivers/BMP580/Src/bmp5.c ****         if (rslt == BMP5_OK)
1353:Drivers/BMP580/Src/bmp5.c ****         {
1354:Drivers/BMP580/Src/bmp5.c ****             /* Write data to be written to NVM address */
1355:Drivers/BMP580/Src/bmp5.c ****             rslt = bmp5_get_regs(BMP5_REG_NVM_DATA_LSB, nvmdata, 2, dev);
1356:Drivers/BMP580/Src/bmp5.c **** 
1357:Drivers/BMP580/Src/bmp5.c ****             if (rslt == BMP5_OK)
1358:Drivers/BMP580/Src/bmp5.c ****             {
1359:Drivers/BMP580/Src/bmp5.c ****                 nvmdata[0] = (uint8_t)(*nvm_data & BMP5_NVM_DATA_LSB_MSK);
1360:Drivers/BMP580/Src/bmp5.c ****                 nvmdata[1] = (uint8_t)((*nvm_data & BMP5_NVM_DATA_MSB_MSK) >> 8);
1361:Drivers/BMP580/Src/bmp5.c **** 
1362:Drivers/BMP580/Src/bmp5.c ****                 rslt = bmp5_set_regs(BMP5_REG_NVM_DATA_LSB, nvmdata, 2, dev);
1363:Drivers/BMP580/Src/bmp5.c ****             }
1364:Drivers/BMP580/Src/bmp5.c ****         }
1365:Drivers/BMP580/Src/bmp5.c **** 
1366:Drivers/BMP580/Src/bmp5.c ****         if (rslt == BMP5_OK)
1367:Drivers/BMP580/Src/bmp5.c ****         {
1368:Drivers/BMP580/Src/bmp5.c ****             /* First NVM command for user write sequence */
1369:Drivers/BMP580/Src/bmp5.c ****             reg_data = BMP5_NVM_FIRST_CMND;
1370:Drivers/BMP580/Src/bmp5.c ****             rslt = bmp5_set_regs(BMP5_REG_CMD, &reg_data, 1, dev);
1371:Drivers/BMP580/Src/bmp5.c ****         }
1372:Drivers/BMP580/Src/bmp5.c **** 
1373:Drivers/BMP580/Src/bmp5.c ****         if (rslt == BMP5_OK)
1374:Drivers/BMP580/Src/bmp5.c ****         {
1375:Drivers/BMP580/Src/bmp5.c ****             /* Write enable NVM command for user write sequence */
1376:Drivers/BMP580/Src/bmp5.c ****             reg_data = BMP5_NVM_WRITE_ENABLE_CMND;
1377:Drivers/BMP580/Src/bmp5.c ****             rslt = bmp5_set_regs(BMP5_REG_CMD, &reg_data, 1, dev);
1378:Drivers/BMP580/Src/bmp5.c **** 
1379:Drivers/BMP580/Src/bmp5.c ****             /* Delay required for NVM ready status to change to 1 */
1380:Drivers/BMP580/Src/bmp5.c ****             dev->delay_us(BMP5_DELAY_US_NVM_READY_WRITE, dev->intf_ptr);
1381:Drivers/BMP580/Src/bmp5.c ****         }
1382:Drivers/BMP580/Src/bmp5.c **** 
1383:Drivers/BMP580/Src/bmp5.c ****         if (rslt == BMP5_OK)
1384:Drivers/BMP580/Src/bmp5.c ****         {
1385:Drivers/BMP580/Src/bmp5.c ****             /* Check if NVM ready status = 1, NVM error status = 0 and NVM command error status = 0
1386:Drivers/BMP580/Src/bmp5.c ****             rslt = get_nvm_status(&nvm_status, dev);
1387:Drivers/BMP580/Src/bmp5.c **** 
1388:Drivers/BMP580/Src/bmp5.c ****             if ((nvm_status & BMP5_INT_NVM_RDY) && (!(nvm_status & BMP5_INT_NVM_ERR)) &&
1389:Drivers/BMP580/Src/bmp5.c ****                 (!(nvm_status & BMP5_INT_NVM_CMD_ERR)))
1390:Drivers/BMP580/Src/bmp5.c ****             {
1391:Drivers/BMP580/Src/bmp5.c ****                 /* Reset NVM prog_en */
1392:Drivers/BMP580/Src/bmp5.c ****                 reg_data = BMP5_SET_BIT_VAL_0(reg_data, BMP5_NVM_PROG_EN);
1393:Drivers/BMP580/Src/bmp5.c **** 
1394:Drivers/BMP580/Src/bmp5.c ****                 rslt = bmp5_set_regs(BMP5_REG_NVM_ADDR, &reg_data, 1, dev);
1395:Drivers/BMP580/Src/bmp5.c ****             }
1396:Drivers/BMP580/Src/bmp5.c ****             else
1397:Drivers/BMP580/Src/bmp5.c ****             {
1398:Drivers/BMP580/Src/bmp5.c ****                 rslt = BMP5_E_NVM_NOT_READY;
ARM GAS  C:\Users\Nathan\AppData\Local\Temp\ccQWWdhB.s 			page 26


1399:Drivers/BMP580/Src/bmp5.c ****             }
1400:Drivers/BMP580/Src/bmp5.c ****         }
1401:Drivers/BMP580/Src/bmp5.c **** 
1402:Drivers/BMP580/Src/bmp5.c ****         if (rslt == BMP5_OK)
1403:Drivers/BMP580/Src/bmp5.c ****         {
1404:Drivers/BMP580/Src/bmp5.c ****             /* If previous mode is not standbymode return sensor to that previous mode
1405:Drivers/BMP580/Src/bmp5.c ****              * after performing NVM
1406:Drivers/BMP580/Src/bmp5.c ****              */
1407:Drivers/BMP580/Src/bmp5.c ****             if (curr_pwrmode != BMP5_POWERMODE_STANDBY)
1408:Drivers/BMP580/Src/bmp5.c ****             {
1409:Drivers/BMP580/Src/bmp5.c ****                 rslt = bmp5_set_power_mode(curr_pwrmode, dev);
1410:Drivers/BMP580/Src/bmp5.c ****             }
1411:Drivers/BMP580/Src/bmp5.c ****         }
1412:Drivers/BMP580/Src/bmp5.c ****     }
1413:Drivers/BMP580/Src/bmp5.c ****     else
1414:Drivers/BMP580/Src/bmp5.c ****     {
1415:Drivers/BMP580/Src/bmp5.c ****         rslt = BMP5_E_NULL_PTR;
1416:Drivers/BMP580/Src/bmp5.c ****     }
1417:Drivers/BMP580/Src/bmp5.c **** 
1418:Drivers/BMP580/Src/bmp5.c ****     return rslt;
1419:Drivers/BMP580/Src/bmp5.c **** }
1420:Drivers/BMP580/Src/bmp5.c **** 
1421:Drivers/BMP580/Src/bmp5.c **** /****************** Static Function Definitions *******************************/
1422:Drivers/BMP580/Src/bmp5.c **** 
1423:Drivers/BMP580/Src/bmp5.c **** /*!
1424:Drivers/BMP580/Src/bmp5.c ****  * @brief This internal API is used to validate the device structure pointer for
1425:Drivers/BMP580/Src/bmp5.c ****  * null conditions.
1426:Drivers/BMP580/Src/bmp5.c ****  */
1427:Drivers/BMP580/Src/bmp5.c **** static int8_t null_ptr_check(const struct bmp5_dev *dev)
1428:Drivers/BMP580/Src/bmp5.c **** {
  29              		.loc 1 1428 1 view -0
  30              		.cfi_startproc
  31              		@ args = 0, pretend = 0, frame = 0
  32              		@ frame_needed = 0, uses_anonymous_args = 0
  33              		@ link register save eliminated.
1429:Drivers/BMP580/Src/bmp5.c ****     int8_t rslt;
  34              		.loc 1 1429 5 view .LVU1
1430:Drivers/BMP580/Src/bmp5.c **** 
1431:Drivers/BMP580/Src/bmp5.c ****     if ((dev == NULL) || (dev->read == NULL) || (dev->write == NULL) || (dev->delay_us == NULL))
  35              		.loc 1 1431 5 view .LVU2
  36              		.loc 1 1431 8 is_stmt 0 view .LVU3
  37 0000 50B1     		cbz	r0, .L3
  38              		.loc 1 1431 30 discriminator 1 view .LVU4
  39 0002 8268     		ldr	r2, [r0, #8]
  40              		.loc 1 1431 23 discriminator 1 view .LVU5
  41 0004 5AB1     		cbz	r2, .L4
  42              		.loc 1 1431 53 discriminator 2 view .LVU6
  43 0006 C268     		ldr	r2, [r0, #12]
  44              		.loc 1 1431 46 discriminator 2 view .LVU7
  45 0008 62B1     		cbz	r2, .L5
  46              		.loc 1 1431 77 discriminator 3 view .LVU8
  47 000a 0369     		ldr	r3, [r0, #16]
  48              		.loc 1 1431 70 discriminator 3 view .LVU9
  49 000c 0BB1     		cbz	r3, .L7
1432:Drivers/BMP580/Src/bmp5.c ****     {
1433:Drivers/BMP580/Src/bmp5.c ****         /* Device structure pointer is not valid */
1434:Drivers/BMP580/Src/bmp5.c ****         rslt = BMP5_E_NULL_PTR;
ARM GAS  C:\Users\Nathan\AppData\Local\Temp\ccQWWdhB.s 			page 27


1435:Drivers/BMP580/Src/bmp5.c ****     }
1436:Drivers/BMP580/Src/bmp5.c ****     else
1437:Drivers/BMP580/Src/bmp5.c ****     {
1438:Drivers/BMP580/Src/bmp5.c ****         /* Device structure is fine */
1439:Drivers/BMP580/Src/bmp5.c ****         rslt = BMP5_OK;
  50              		.loc 1 1439 14 view .LVU10
  51 000e 0020     		movs	r0, #0
  52              	.LVL1:
1440:Drivers/BMP580/Src/bmp5.c ****     }
1441:Drivers/BMP580/Src/bmp5.c **** 
1442:Drivers/BMP580/Src/bmp5.c ****     return rslt;
  53              		.loc 1 1442 5 is_stmt 1 view .LVU11
1443:Drivers/BMP580/Src/bmp5.c **** }
  54              		.loc 1 1443 1 is_stmt 0 view .LVU12
  55 0010 7047     		bx	lr
  56              	.LVL2:
  57              	.L7:
1434:Drivers/BMP580/Src/bmp5.c ****     }
  58              		.loc 1 1434 14 view .LVU13
  59 0012 4FF0FF30 		mov	r0, #-1
  60              	.LVL3:
1434:Drivers/BMP580/Src/bmp5.c ****     }
  61              		.loc 1 1434 14 view .LVU14
  62 0016 7047     		bx	lr
  63              	.LVL4:
  64              	.L3:
1434:Drivers/BMP580/Src/bmp5.c ****     }
  65              		.loc 1 1434 14 view .LVU15
  66 0018 4FF0FF30 		mov	r0, #-1
  67              	.LVL5:
1434:Drivers/BMP580/Src/bmp5.c ****     }
  68              		.loc 1 1434 14 view .LVU16
  69 001c 7047     		bx	lr
  70              	.LVL6:
  71              	.L4:
1434:Drivers/BMP580/Src/bmp5.c ****     }
  72              		.loc 1 1434 14 view .LVU17
  73 001e 4FF0FF30 		mov	r0, #-1
  74              	.LVL7:
1434:Drivers/BMP580/Src/bmp5.c ****     }
  75              		.loc 1 1434 14 view .LVU18
  76 0022 7047     		bx	lr
  77              	.LVL8:
  78              	.L5:
1434:Drivers/BMP580/Src/bmp5.c ****     }
  79              		.loc 1 1434 14 view .LVU19
  80 0024 4FF0FF30 		mov	r0, #-1
  81              	.LVL9:
1434:Drivers/BMP580/Src/bmp5.c ****     }
  82              		.loc 1 1434 14 view .LVU20
  83 0028 7047     		bx	lr
  84              		.cfi_endproc
  85              	.LFE24:
  87              		.section	.text.validate_chip_id,"ax",%progbits
  88              		.align	1
  89              		.syntax unified
  90              		.thumb
ARM GAS  C:\Users\Nathan\AppData\Local\Temp\ccQWWdhB.s 			page 28


  91              		.thumb_func
  93              	validate_chip_id:
  94              	.LVL10:
  95              	.LFB25:
1444:Drivers/BMP580/Src/bmp5.c **** 
1445:Drivers/BMP580/Src/bmp5.c **** /*!
1446:Drivers/BMP580/Src/bmp5.c ****  * @brief This internal API is used to validate the chip id of the sensor.
1447:Drivers/BMP580/Src/bmp5.c ****  */
1448:Drivers/BMP580/Src/bmp5.c **** static int8_t validate_chip_id(uint8_t chip_id, struct bmp5_dev *dev)
1449:Drivers/BMP580/Src/bmp5.c **** {
  96              		.loc 1 1449 1 is_stmt 1 view -0
  97              		.cfi_startproc
  98              		@ args = 0, pretend = 0, frame = 0
  99              		@ frame_needed = 0, uses_anonymous_args = 0
 100              		@ link register save eliminated.
1450:Drivers/BMP580/Src/bmp5.c ****     int8_t rslt;
 101              		.loc 1 1450 5 view .LVU22
1451:Drivers/BMP580/Src/bmp5.c **** 
1452:Drivers/BMP580/Src/bmp5.c ****     if ((chip_id == BMP5_CHIP_ID_PRIM) || (chip_id == BMP5_CHIP_ID_SEC))
 102              		.loc 1 1452 5 view .LVU23
 103              		.loc 1 1452 40 is_stmt 0 view .LVU24
 104 0000 A0F15003 		sub	r3, r0, #80
 105 0004 DBB2     		uxtb	r3, r3
 106              		.loc 1 1452 8 view .LVU25
 107 0006 012B     		cmp	r3, #1
 108 0008 02D8     		bhi	.L10
1453:Drivers/BMP580/Src/bmp5.c ****     {
1454:Drivers/BMP580/Src/bmp5.c ****         /* Updating chip_id in device structure */
1455:Drivers/BMP580/Src/bmp5.c ****         dev->chip_id = chip_id;
 109              		.loc 1 1455 9 is_stmt 1 view .LVU26
 110              		.loc 1 1455 22 is_stmt 0 view .LVU27
 111 000a 0870     		strb	r0, [r1]
1456:Drivers/BMP580/Src/bmp5.c ****         rslt = BMP5_OK;
 112              		.loc 1 1456 9 is_stmt 1 view .LVU28
 113              	.LVL11:
 114              		.loc 1 1456 14 is_stmt 0 view .LVU29
 115 000c 0020     		movs	r0, #0
 116              	.LVL12:
 117              		.loc 1 1456 14 view .LVU30
 118 000e 7047     		bx	lr
 119              	.LVL13:
 120              	.L10:
1457:Drivers/BMP580/Src/bmp5.c ****     }
1458:Drivers/BMP580/Src/bmp5.c ****     else
1459:Drivers/BMP580/Src/bmp5.c ****     {
1460:Drivers/BMP580/Src/bmp5.c ****         rslt = BMP5_E_DEV_NOT_FOUND;
 121              		.loc 1 1460 14 view .LVU31
 122 0010 6FF00200 		mvn	r0, #2
 123              	.LVL14:
1461:Drivers/BMP580/Src/bmp5.c ****     }
1462:Drivers/BMP580/Src/bmp5.c **** 
1463:Drivers/BMP580/Src/bmp5.c ****     return rslt;
 124              		.loc 1 1463 5 is_stmt 1 view .LVU32
1464:Drivers/BMP580/Src/bmp5.c **** }
 125              		.loc 1 1464 1 is_stmt 0 view .LVU33
 126 0014 7047     		bx	lr
 127              		.cfi_endproc
ARM GAS  C:\Users\Nathan\AppData\Local\Temp\ccQWWdhB.s 			page 29


 128              	.LFE25:
 130              		.section	.text.set_fifo_threshold,"ax",%progbits
 131              		.align	1
 132              		.syntax unified
 133              		.thumb
 134              		.thumb_func
 136              	set_fifo_threshold:
 137              	.LVL15:
 138              	.LFB33:
1465:Drivers/BMP580/Src/bmp5.c **** 
1466:Drivers/BMP580/Src/bmp5.c **** /*!
1467:Drivers/BMP580/Src/bmp5.c ****  * @brief This internal API is used to validate the post power-up procedure.
1468:Drivers/BMP580/Src/bmp5.c ****  */
1469:Drivers/BMP580/Src/bmp5.c **** static int8_t power_up_check(struct bmp5_dev *dev)
1470:Drivers/BMP580/Src/bmp5.c **** {
1471:Drivers/BMP580/Src/bmp5.c ****     int8_t rslt;
1472:Drivers/BMP580/Src/bmp5.c ****     uint8_t nvm_status;
1473:Drivers/BMP580/Src/bmp5.c ****     uint8_t por_status;
1474:Drivers/BMP580/Src/bmp5.c **** 
1475:Drivers/BMP580/Src/bmp5.c ****     rslt = get_nvm_status(&nvm_status, dev);
1476:Drivers/BMP580/Src/bmp5.c **** 
1477:Drivers/BMP580/Src/bmp5.c ****     if (rslt == BMP5_OK)
1478:Drivers/BMP580/Src/bmp5.c ****     {
1479:Drivers/BMP580/Src/bmp5.c ****         /* Check if nvm_rdy status = 1 and nvm_err status = 0 to proceed */
1480:Drivers/BMP580/Src/bmp5.c ****         if ((nvm_status & BMP5_INT_NVM_RDY) && (!(nvm_status & BMP5_INT_NVM_ERR)))
1481:Drivers/BMP580/Src/bmp5.c ****         {
1482:Drivers/BMP580/Src/bmp5.c ****             rslt = bmp5_get_interrupt_status(&por_status, dev);
1483:Drivers/BMP580/Src/bmp5.c **** 
1484:Drivers/BMP580/Src/bmp5.c ****             if (rslt == BMP5_OK)
1485:Drivers/BMP580/Src/bmp5.c ****             {
1486:Drivers/BMP580/Src/bmp5.c ****                 /* Check if por/soft-reset complete status = 1 to proceed */
1487:Drivers/BMP580/Src/bmp5.c ****                 if (por_status & BMP5_INT_ASSERTED_POR_SOFTRESET_COMPLETE)
1488:Drivers/BMP580/Src/bmp5.c ****                 {
1489:Drivers/BMP580/Src/bmp5.c ****                     rslt = BMP5_OK;
1490:Drivers/BMP580/Src/bmp5.c ****                 }
1491:Drivers/BMP580/Src/bmp5.c ****                 else
1492:Drivers/BMP580/Src/bmp5.c ****                 {
1493:Drivers/BMP580/Src/bmp5.c ****                     rslt = BMP5_E_POWER_UP;
1494:Drivers/BMP580/Src/bmp5.c ****                 }
1495:Drivers/BMP580/Src/bmp5.c ****             }
1496:Drivers/BMP580/Src/bmp5.c ****         }
1497:Drivers/BMP580/Src/bmp5.c ****         else
1498:Drivers/BMP580/Src/bmp5.c ****         {
1499:Drivers/BMP580/Src/bmp5.c ****             rslt = BMP5_E_POWER_UP;
1500:Drivers/BMP580/Src/bmp5.c ****         }
1501:Drivers/BMP580/Src/bmp5.c ****     }
1502:Drivers/BMP580/Src/bmp5.c **** 
1503:Drivers/BMP580/Src/bmp5.c ****     return rslt;
1504:Drivers/BMP580/Src/bmp5.c **** }
1505:Drivers/BMP580/Src/bmp5.c **** 
1506:Drivers/BMP580/Src/bmp5.c **** /*!
1507:Drivers/BMP580/Src/bmp5.c ****  * @brief This internal API is used to check if sensor is in deepstandby mode.
1508:Drivers/BMP580/Src/bmp5.c ****  */
1509:Drivers/BMP580/Src/bmp5.c **** static int8_t check_deepstandby_mode(enum bmp5_powermode *powermode, struct bmp5_dev *dev)
1510:Drivers/BMP580/Src/bmp5.c **** {
1511:Drivers/BMP580/Src/bmp5.c ****     int8_t rslt;
1512:Drivers/BMP580/Src/bmp5.c ****     uint8_t fifo_frame_sel;
ARM GAS  C:\Users\Nathan\AppData\Local\Temp\ccQWWdhB.s 			page 30


1513:Drivers/BMP580/Src/bmp5.c ****     struct bmp5_iir_config iir_cfg = { 0 };
1514:Drivers/BMP580/Src/bmp5.c ****     struct bmp5_osr_odr_press_config osr_odr_press_cfg = { 0 };
1515:Drivers/BMP580/Src/bmp5.c **** 
1516:Drivers/BMP580/Src/bmp5.c ****     rslt = bmp5_get_regs(BMP5_REG_FIFO_SEL, &fifo_frame_sel, 1, dev);
1517:Drivers/BMP580/Src/bmp5.c ****     fifo_frame_sel = BMP5_GET_BITS_POS_0(fifo_frame_sel, BMP5_FIFO_FRAME_SEL);
1518:Drivers/BMP580/Src/bmp5.c **** 
1519:Drivers/BMP580/Src/bmp5.c ****     if (rslt == BMP5_OK)
1520:Drivers/BMP580/Src/bmp5.c ****     {
1521:Drivers/BMP580/Src/bmp5.c ****         rslt = bmp5_get_osr_odr_press_config(&osr_odr_press_cfg, dev);
1522:Drivers/BMP580/Src/bmp5.c **** 
1523:Drivers/BMP580/Src/bmp5.c ****         if (rslt == BMP5_OK)
1524:Drivers/BMP580/Src/bmp5.c ****         {
1525:Drivers/BMP580/Src/bmp5.c ****             rslt = bmp5_get_iir_config(&iir_cfg, dev);
1526:Drivers/BMP580/Src/bmp5.c ****         }
1527:Drivers/BMP580/Src/bmp5.c ****     }
1528:Drivers/BMP580/Src/bmp5.c **** 
1529:Drivers/BMP580/Src/bmp5.c ****     /* As per datasheet odr should be less than 5Hz. But register value for 5Hz is less than 4Hz an
1530:Drivers/BMP580/Src/bmp5.c ****      * thus in this below condition odr is checked whether greater than 5Hz macro.
1531:Drivers/BMP580/Src/bmp5.c ****      */
1532:Drivers/BMP580/Src/bmp5.c ****     if ((osr_odr_press_cfg.odr > BMP5_ODR_05_HZ) && (fifo_frame_sel == BMP5_DISABLE) &&
1533:Drivers/BMP580/Src/bmp5.c ****         (iir_cfg.set_iir_t == BMP5_IIR_FILTER_BYPASS) && (iir_cfg.set_iir_p == BMP5_IIR_FILTER_BYPA
1534:Drivers/BMP580/Src/bmp5.c ****     {
1535:Drivers/BMP580/Src/bmp5.c ****         *powermode = BMP5_POWERMODE_DEEP_STANDBY;
1536:Drivers/BMP580/Src/bmp5.c ****     }
1537:Drivers/BMP580/Src/bmp5.c **** 
1538:Drivers/BMP580/Src/bmp5.c ****     return rslt;
1539:Drivers/BMP580/Src/bmp5.c **** }
1540:Drivers/BMP580/Src/bmp5.c **** 
1541:Drivers/BMP580/Src/bmp5.c **** /*!
1542:Drivers/BMP580/Src/bmp5.c ****  * @brief This internal API is used to set sensor in deep standby mode.
1543:Drivers/BMP580/Src/bmp5.c ****  */
1544:Drivers/BMP580/Src/bmp5.c **** static int8_t set_deep_standby_mode(struct bmp5_dev *dev)
1545:Drivers/BMP580/Src/bmp5.c **** {
1546:Drivers/BMP580/Src/bmp5.c ****     int8_t rslt;
1547:Drivers/BMP580/Src/bmp5.c ****     uint8_t reg_data;
1548:Drivers/BMP580/Src/bmp5.c **** 
1549:Drivers/BMP580/Src/bmp5.c ****     rslt = bmp5_get_regs(BMP5_REG_ODR_CONFIG, &reg_data, 1, dev);
1550:Drivers/BMP580/Src/bmp5.c **** 
1551:Drivers/BMP580/Src/bmp5.c ****     if (rslt == BMP5_OK)
1552:Drivers/BMP580/Src/bmp5.c ****     {
1553:Drivers/BMP580/Src/bmp5.c ****         /* Setting deep_dis = 0(BMP5_DEEP_ENABLED) enables the deep standby mode */
1554:Drivers/BMP580/Src/bmp5.c ****         reg_data = BMP5_SET_BIT_VAL_0(reg_data, BMP5_DEEP_DISABLE);
1555:Drivers/BMP580/Src/bmp5.c **** 
1556:Drivers/BMP580/Src/bmp5.c ****         /* Set ODR less then 5Hz - ODR used is 1Hz */
1557:Drivers/BMP580/Src/bmp5.c ****         reg_data = BMP5_SET_BITSLICE(reg_data, BMP5_ODR, BMP5_ODR_01_HZ);
1558:Drivers/BMP580/Src/bmp5.c **** 
1559:Drivers/BMP580/Src/bmp5.c ****         /* Write the value to the odr config register(0x37) */
1560:Drivers/BMP580/Src/bmp5.c ****         rslt = bmp5_set_regs(BMP5_REG_ODR_CONFIG, &reg_data, 1, dev);
1561:Drivers/BMP580/Src/bmp5.c **** 
1562:Drivers/BMP580/Src/bmp5.c ****         if (rslt == BMP5_OK)
1563:Drivers/BMP580/Src/bmp5.c ****         {
1564:Drivers/BMP580/Src/bmp5.c ****             rslt = bmp5_get_regs(BMP5_REG_DSP_IIR, &reg_data, 1, dev);
1565:Drivers/BMP580/Src/bmp5.c **** 
1566:Drivers/BMP580/Src/bmp5.c ****             if (rslt == BMP5_OK)
1567:Drivers/BMP580/Src/bmp5.c ****             {
1568:Drivers/BMP580/Src/bmp5.c ****                 /* Set iir_t and iir_p as Bypass(0x00) */
1569:Drivers/BMP580/Src/bmp5.c **** 
ARM GAS  C:\Users\Nathan\AppData\Local\Temp\ccQWWdhB.s 			page 31


1570:Drivers/BMP580/Src/bmp5.c ****                 /* The register holds only iir_t and iir_p and the last 2 bits are reserved.
1571:Drivers/BMP580/Src/bmp5.c ****                  * Thus using the macro BMP5_IIR_BYPASS(0xC0) the register value is set as zero.
1572:Drivers/BMP580/Src/bmp5.c ****                  */
1573:Drivers/BMP580/Src/bmp5.c ****                 reg_data = reg_data & BMP5_IIR_BYPASS;
1574:Drivers/BMP580/Src/bmp5.c **** 
1575:Drivers/BMP580/Src/bmp5.c ****                 /* Write the value to the IIR register(0x31) */
1576:Drivers/BMP580/Src/bmp5.c ****                 rslt = bmp5_set_regs(BMP5_REG_DSP_IIR, &reg_data, 1, dev);
1577:Drivers/BMP580/Src/bmp5.c ****             }
1578:Drivers/BMP580/Src/bmp5.c ****         }
1579:Drivers/BMP580/Src/bmp5.c **** 
1580:Drivers/BMP580/Src/bmp5.c ****         if (rslt == BMP5_OK)
1581:Drivers/BMP580/Src/bmp5.c ****         {
1582:Drivers/BMP580/Src/bmp5.c ****             rslt = bmp5_get_regs(BMP5_REG_FIFO_SEL, &reg_data, 1, dev);
1583:Drivers/BMP580/Src/bmp5.c **** 
1584:Drivers/BMP580/Src/bmp5.c ****             if (rslt == BMP5_OK)
1585:Drivers/BMP580/Src/bmp5.c ****             {
1586:Drivers/BMP580/Src/bmp5.c ****                 /* Disable fifo frame selct */
1587:Drivers/BMP580/Src/bmp5.c ****                 reg_data = BMP5_SET_BIT_VAL_0(reg_data, BMP5_FIFO_FRAME_SEL);
1588:Drivers/BMP580/Src/bmp5.c **** 
1589:Drivers/BMP580/Src/bmp5.c ****                 /* Write the value to the fifo select register(0x18) */
1590:Drivers/BMP580/Src/bmp5.c ****                 rslt = bmp5_set_regs(BMP5_REG_FIFO_SEL, &reg_data, 1, dev);
1591:Drivers/BMP580/Src/bmp5.c ****             }
1592:Drivers/BMP580/Src/bmp5.c ****         }
1593:Drivers/BMP580/Src/bmp5.c ****     }
1594:Drivers/BMP580/Src/bmp5.c **** 
1595:Drivers/BMP580/Src/bmp5.c ****     return rslt;
1596:Drivers/BMP580/Src/bmp5.c **** }
1597:Drivers/BMP580/Src/bmp5.c **** 
1598:Drivers/BMP580/Src/bmp5.c **** /*!
1599:Drivers/BMP580/Src/bmp5.c ****  * @brief This internal API is used to set sensor in standby or normal or forced or continous power
1600:Drivers/BMP580/Src/bmp5.c ****  */
1601:Drivers/BMP580/Src/bmp5.c **** static int8_t set_power_mode(enum bmp5_powermode powermode, struct bmp5_dev *dev)
1602:Drivers/BMP580/Src/bmp5.c **** {
1603:Drivers/BMP580/Src/bmp5.c ****     int8_t rslt;
1604:Drivers/BMP580/Src/bmp5.c ****     uint8_t reg_data;
1605:Drivers/BMP580/Src/bmp5.c **** 
1606:Drivers/BMP580/Src/bmp5.c ****     rslt = bmp5_get_regs(BMP5_REG_ODR_CONFIG, &reg_data, 1, dev);
1607:Drivers/BMP580/Src/bmp5.c **** 
1608:Drivers/BMP580/Src/bmp5.c ****     if (rslt == BMP5_OK)
1609:Drivers/BMP580/Src/bmp5.c ****     {
1610:Drivers/BMP580/Src/bmp5.c ****         /* Setting deep_dis = 1(BMP5_DEEP_DISABLED) disables the deep standby mode */
1611:Drivers/BMP580/Src/bmp5.c ****         reg_data = BMP5_SET_BITSLICE(reg_data, BMP5_DEEP_DISABLE, BMP5_DEEP_DISABLED);
1612:Drivers/BMP580/Src/bmp5.c **** 
1613:Drivers/BMP580/Src/bmp5.c ****         reg_data = BMP5_SET_BITS_POS_0(reg_data, BMP5_POWERMODE, powermode);
1614:Drivers/BMP580/Src/bmp5.c **** 
1615:Drivers/BMP580/Src/bmp5.c ****         rslt = bmp5_set_regs(BMP5_REG_ODR_CONFIG, &reg_data, 1, dev);
1616:Drivers/BMP580/Src/bmp5.c ****     }
1617:Drivers/BMP580/Src/bmp5.c **** 
1618:Drivers/BMP580/Src/bmp5.c ****     return rslt;
1619:Drivers/BMP580/Src/bmp5.c **** }
1620:Drivers/BMP580/Src/bmp5.c **** 
1621:Drivers/BMP580/Src/bmp5.c **** /*!
1622:Drivers/BMP580/Src/bmp5.c ****  * @brief This internal API is used to set sensor in standby powermode when powermode is deepstandb
1623:Drivers/BMP580/Src/bmp5.c ****  */
1624:Drivers/BMP580/Src/bmp5.c **** static int8_t set_standby_mode(struct bmp5_dev *dev)
1625:Drivers/BMP580/Src/bmp5.c **** {
1626:Drivers/BMP580/Src/bmp5.c ****     int8_t rslt;
ARM GAS  C:\Users\Nathan\AppData\Local\Temp\ccQWWdhB.s 			page 32


1627:Drivers/BMP580/Src/bmp5.c ****     enum bmp5_powermode pwrmode;
1628:Drivers/BMP580/Src/bmp5.c **** 
1629:Drivers/BMP580/Src/bmp5.c ****     rslt = bmp5_get_power_mode(&pwrmode, dev);
1630:Drivers/BMP580/Src/bmp5.c **** 
1631:Drivers/BMP580/Src/bmp5.c ****     if (rslt == BMP5_OK)
1632:Drivers/BMP580/Src/bmp5.c ****     {
1633:Drivers/BMP580/Src/bmp5.c ****         if (pwrmode == BMP5_POWERMODE_DEEP_STANDBY)
1634:Drivers/BMP580/Src/bmp5.c ****         {
1635:Drivers/BMP580/Src/bmp5.c ****             rslt = bmp5_set_power_mode(BMP5_POWERMODE_STANDBY, dev);
1636:Drivers/BMP580/Src/bmp5.c ****         }
1637:Drivers/BMP580/Src/bmp5.c ****     }
1638:Drivers/BMP580/Src/bmp5.c **** 
1639:Drivers/BMP580/Src/bmp5.c ****     return rslt;
1640:Drivers/BMP580/Src/bmp5.c **** }
1641:Drivers/BMP580/Src/bmp5.c **** 
1642:Drivers/BMP580/Src/bmp5.c **** #ifdef BMP5_USE_FIXED_POINT
1643:Drivers/BMP580/Src/bmp5.c **** 
1644:Drivers/BMP580/Src/bmp5.c **** /*!
1645:Drivers/BMP580/Src/bmp5.c ****  * @brief This internal API is used to calculate the power of a value.
1646:Drivers/BMP580/Src/bmp5.c ****  */
1647:Drivers/BMP580/Src/bmp5.c **** static uint32_t power(uint8_t base, uint8_t resolution)
1648:Drivers/BMP580/Src/bmp5.c **** {
1649:Drivers/BMP580/Src/bmp5.c ****     /* Initialize loop */
1650:Drivers/BMP580/Src/bmp5.c ****     uint8_t loop = 1;
1651:Drivers/BMP580/Src/bmp5.c **** 
1652:Drivers/BMP580/Src/bmp5.c ****     /* Initialize variable to store the power of 2 value */
1653:Drivers/BMP580/Src/bmp5.c ****     uint32_t value = 1;
1654:Drivers/BMP580/Src/bmp5.c **** 
1655:Drivers/BMP580/Src/bmp5.c ****     for (; loop <= resolution; loop++)
1656:Drivers/BMP580/Src/bmp5.c ****     {
1657:Drivers/BMP580/Src/bmp5.c ****         value = (uint32_t)(value * base);
1658:Drivers/BMP580/Src/bmp5.c ****     }
1659:Drivers/BMP580/Src/bmp5.c **** 
1660:Drivers/BMP580/Src/bmp5.c ****     return value;
1661:Drivers/BMP580/Src/bmp5.c **** }
1662:Drivers/BMP580/Src/bmp5.c **** 
1663:Drivers/BMP580/Src/bmp5.c **** #endif
1664:Drivers/BMP580/Src/bmp5.c **** 
1665:Drivers/BMP580/Src/bmp5.c **** /*!
1666:Drivers/BMP580/Src/bmp5.c ****  * @brief This internal API is used to set the IIR for temperature and pressure.
1667:Drivers/BMP580/Src/bmp5.c ****  */
1668:Drivers/BMP580/Src/bmp5.c **** static int8_t set_iir_config(const struct bmp5_iir_config *iir_cfg, struct bmp5_dev *dev)
1669:Drivers/BMP580/Src/bmp5.c **** {
1670:Drivers/BMP580/Src/bmp5.c ****     int8_t rslt;
1671:Drivers/BMP580/Src/bmp5.c **** 
1672:Drivers/BMP580/Src/bmp5.c ****     /* Variable to set IIR config */
1673:Drivers/BMP580/Src/bmp5.c ****     uint8_t reg_data[2];
1674:Drivers/BMP580/Src/bmp5.c **** 
1675:Drivers/BMP580/Src/bmp5.c ****     rslt = bmp5_get_regs(BMP5_REG_DSP_CONFIG, reg_data, 2, dev);
1676:Drivers/BMP580/Src/bmp5.c **** 
1677:Drivers/BMP580/Src/bmp5.c ****     if (rslt == BMP5_OK)
1678:Drivers/BMP580/Src/bmp5.c ****     {
1679:Drivers/BMP580/Src/bmp5.c ****         reg_data[0] = BMP5_SET_BITSLICE(reg_data[0], BMP5_SHDW_SET_IIR_TEMP, iir_cfg->shdw_set_iir_
1680:Drivers/BMP580/Src/bmp5.c ****         reg_data[0] = BMP5_SET_BITSLICE(reg_data[0], BMP5_SHDW_SET_IIR_PRESS, iir_cfg->shdw_set_iir
1681:Drivers/BMP580/Src/bmp5.c ****         reg_data[0] = BMP5_SET_BITSLICE(reg_data[0], BMP5_IIR_FLUSH_FORCED_EN, iir_cfg->iir_flush_f
1682:Drivers/BMP580/Src/bmp5.c **** 
1683:Drivers/BMP580/Src/bmp5.c ****         reg_data[1] = iir_cfg->set_iir_t;
ARM GAS  C:\Users\Nathan\AppData\Local\Temp\ccQWWdhB.s 			page 33


1684:Drivers/BMP580/Src/bmp5.c ****         reg_data[1] = BMP5_SET_BITSLICE(reg_data[1], BMP5_SET_IIR_PRESS, iir_cfg->set_iir_p);
1685:Drivers/BMP580/Src/bmp5.c **** 
1686:Drivers/BMP580/Src/bmp5.c ****         /* Set IIR configuration */
1687:Drivers/BMP580/Src/bmp5.c ****         rslt = bmp5_set_regs(BMP5_REG_DSP_CONFIG, reg_data, 2, dev);
1688:Drivers/BMP580/Src/bmp5.c ****     }
1689:Drivers/BMP580/Src/bmp5.c **** 
1690:Drivers/BMP580/Src/bmp5.c ****     return rslt;
1691:Drivers/BMP580/Src/bmp5.c **** }
1692:Drivers/BMP580/Src/bmp5.c **** 
1693:Drivers/BMP580/Src/bmp5.c **** /*!
1694:Drivers/BMP580/Src/bmp5.c ****  *  @brief This internal API sets the configuration for IIR of fifo.
1695:Drivers/BMP580/Src/bmp5.c ****  */
1696:Drivers/BMP580/Src/bmp5.c **** static int8_t set_fifo_iir_config(uint8_t set_fifo_iir_t, uint8_t set_fifo_iir_p, struct bmp5_dev *
1697:Drivers/BMP580/Src/bmp5.c **** {
1698:Drivers/BMP580/Src/bmp5.c ****     /* Variable to store the function result */
1699:Drivers/BMP580/Src/bmp5.c ****     int8_t rslt;
1700:Drivers/BMP580/Src/bmp5.c **** 
1701:Drivers/BMP580/Src/bmp5.c ****     /* Variable to set fifo IIR config */
1702:Drivers/BMP580/Src/bmp5.c ****     uint8_t reg_data = 0;
1703:Drivers/BMP580/Src/bmp5.c **** 
1704:Drivers/BMP580/Src/bmp5.c ****     /* Variable to store existing powermode */
1705:Drivers/BMP580/Src/bmp5.c ****     enum bmp5_powermode curr_pwrmode;
1706:Drivers/BMP580/Src/bmp5.c **** 
1707:Drivers/BMP580/Src/bmp5.c ****     rslt = bmp5_get_power_mode(&curr_pwrmode, dev);
1708:Drivers/BMP580/Src/bmp5.c **** 
1709:Drivers/BMP580/Src/bmp5.c ****     if (rslt == BMP5_OK)
1710:Drivers/BMP580/Src/bmp5.c ****     {
1711:Drivers/BMP580/Src/bmp5.c ****         /* Fifo IIR configuration is writable only during STANDBY mode(as per datasheet) */
1712:Drivers/BMP580/Src/bmp5.c ****         if (curr_pwrmode != BMP5_POWERMODE_STANDBY)
1713:Drivers/BMP580/Src/bmp5.c ****         {
1714:Drivers/BMP580/Src/bmp5.c ****             /* If sensor is not in standby mode, set sensor in standby mode */
1715:Drivers/BMP580/Src/bmp5.c ****             rslt = bmp5_set_power_mode(BMP5_POWERMODE_STANDBY, dev);
1716:Drivers/BMP580/Src/bmp5.c ****         }
1717:Drivers/BMP580/Src/bmp5.c **** 
1718:Drivers/BMP580/Src/bmp5.c ****         if (rslt == BMP5_OK)
1719:Drivers/BMP580/Src/bmp5.c ****         {
1720:Drivers/BMP580/Src/bmp5.c ****             /* Get fifo IIR configuration */
1721:Drivers/BMP580/Src/bmp5.c ****             rslt = bmp5_get_regs(BMP5_REG_DSP_CONFIG, &reg_data, 1, dev);
1722:Drivers/BMP580/Src/bmp5.c **** 
1723:Drivers/BMP580/Src/bmp5.c ****             if (rslt == BMP5_OK)
1724:Drivers/BMP580/Src/bmp5.c ****             {
1725:Drivers/BMP580/Src/bmp5.c ****                 reg_data = BMP5_SET_BITSLICE(reg_data, BMP5_SET_FIFO_IIR_TEMP, set_fifo_iir_t);
1726:Drivers/BMP580/Src/bmp5.c ****                 reg_data = BMP5_SET_BITSLICE(reg_data, BMP5_SET_FIFO_IIR_PRESS, set_fifo_iir_p);
1727:Drivers/BMP580/Src/bmp5.c **** 
1728:Drivers/BMP580/Src/bmp5.c ****                 /* Set fifo IIR configuration */
1729:Drivers/BMP580/Src/bmp5.c ****                 rslt = bmp5_set_regs(BMP5_REG_DSP_CONFIG, &reg_data, 1, dev);
1730:Drivers/BMP580/Src/bmp5.c ****             }
1731:Drivers/BMP580/Src/bmp5.c ****         }
1732:Drivers/BMP580/Src/bmp5.c **** 
1733:Drivers/BMP580/Src/bmp5.c ****         /* If previous mode is not standbymode return sensor to that previous mode
1734:Drivers/BMP580/Src/bmp5.c ****          * after setting fifo iir configuration
1735:Drivers/BMP580/Src/bmp5.c ****          */
1736:Drivers/BMP580/Src/bmp5.c ****         if (rslt == BMP5_OK)
1737:Drivers/BMP580/Src/bmp5.c ****         {
1738:Drivers/BMP580/Src/bmp5.c ****             /* Since fifo IIR works only in standby mode we are not re-writing to deepstandby mode
1739:Drivers/BMP580/Src/bmp5.c ****              * as deep standby mode resets the fifo IIR settings to default
1740:Drivers/BMP580/Src/bmp5.c ****              */
ARM GAS  C:\Users\Nathan\AppData\Local\Temp\ccQWWdhB.s 			page 34


1741:Drivers/BMP580/Src/bmp5.c ****             if ((curr_pwrmode != BMP5_POWERMODE_STANDBY) && (curr_pwrmode != BMP5_POWERMODE_DEEP_ST
1742:Drivers/BMP580/Src/bmp5.c ****             {
1743:Drivers/BMP580/Src/bmp5.c ****                 rslt = bmp5_set_power_mode(curr_pwrmode, dev);
1744:Drivers/BMP580/Src/bmp5.c ****             }
1745:Drivers/BMP580/Src/bmp5.c ****         }
1746:Drivers/BMP580/Src/bmp5.c ****     }
1747:Drivers/BMP580/Src/bmp5.c **** 
1748:Drivers/BMP580/Src/bmp5.c ****     return rslt;
1749:Drivers/BMP580/Src/bmp5.c **** }
1750:Drivers/BMP580/Src/bmp5.c **** 
1751:Drivers/BMP580/Src/bmp5.c **** /*!
1752:Drivers/BMP580/Src/bmp5.c **** * @brief This internal API is used to set fifo threshold based on the frame type selected.
1753:Drivers/BMP580/Src/bmp5.c ****  */
1754:Drivers/BMP580/Src/bmp5.c **** static int8_t set_fifo_threshold(uint8_t *reg_data, const struct bmp5_fifo *fifo)
1755:Drivers/BMP580/Src/bmp5.c **** {
 139              		.loc 1 1755 1 is_stmt 1 view -0
 140              		.cfi_startproc
 141              		@ args = 0, pretend = 0, frame = 0
 142              		@ frame_needed = 0, uses_anonymous_args = 0
 143              		@ link register save eliminated.
1756:Drivers/BMP580/Src/bmp5.c ****     int8_t rslt = 0;
 144              		.loc 1 1756 5 view .LVU35
1757:Drivers/BMP580/Src/bmp5.c **** 
1758:Drivers/BMP580/Src/bmp5.c ****     if ((fifo->frame_sel == BMP5_FIFO_TEMPERATURE_DATA) || (fifo->frame_sel == BMP5_FIFO_PRESSURE_D
 145              		.loc 1 1758 5 view .LVU36
 146              		.loc 1 1758 14 is_stmt 0 view .LVU37
 147 0000 8A79     		ldrb	r2, [r1, #6]	@ zero_extendqisi2
 148              		.loc 1 1758 57 view .LVU38
 149 0002 531E     		subs	r3, r2, #1
 150 0004 DBB2     		uxtb	r3, r3
 151              		.loc 1 1758 8 view .LVU39
 152 0006 012B     		cmp	r3, #1
 153 0008 03D9     		bls	.L17
1759:Drivers/BMP580/Src/bmp5.c ****     {
1760:Drivers/BMP580/Src/bmp5.c ****         /* If Pressure or Temperature is selected, maximum 31 frames can be set as threshold */
1761:Drivers/BMP580/Src/bmp5.c ****         if (fifo->threshold <= BMP5_FIFO_MAX_THRESHOLD_P_MODE)
1762:Drivers/BMP580/Src/bmp5.c ****         {
1763:Drivers/BMP580/Src/bmp5.c ****             reg_data[0] = BMP5_SET_BITS_POS_0(reg_data[0], BMP5_FIFO_THRESHOLD, fifo->threshold);
1764:Drivers/BMP580/Src/bmp5.c ****         }
1765:Drivers/BMP580/Src/bmp5.c ****         else
1766:Drivers/BMP580/Src/bmp5.c ****         {
1767:Drivers/BMP580/Src/bmp5.c ****             rslt = BMP5_E_INVALID_THRESHOLD;
1768:Drivers/BMP580/Src/bmp5.c ****         }
1769:Drivers/BMP580/Src/bmp5.c ****     }
1770:Drivers/BMP580/Src/bmp5.c ****     else if (fifo->frame_sel == BMP5_FIFO_PRESS_TEMP_DATA)
 154              		.loc 1 1770 10 is_stmt 1 view .LVU40
 155              		.loc 1 1770 13 is_stmt 0 view .LVU41
 156 000a 032A     		cmp	r2, #3
 157 000c 0DD0     		beq	.L18
1756:Drivers/BMP580/Src/bmp5.c **** 
 158              		.loc 1 1756 12 view .LVU42
 159 000e 0020     		movs	r0, #0
 160              	.LVL16:
1756:Drivers/BMP580/Src/bmp5.c **** 
 161              		.loc 1 1756 12 view .LVU43
 162 0010 7047     		bx	lr
 163              	.LVL17:
ARM GAS  C:\Users\Nathan\AppData\Local\Temp\ccQWWdhB.s 			page 35


 164              	.L17:
1761:Drivers/BMP580/Src/bmp5.c ****         {
 165              		.loc 1 1761 9 is_stmt 1 view .LVU44
1761:Drivers/BMP580/Src/bmp5.c ****         {
 166              		.loc 1 1761 17 is_stmt 0 view .LVU45
 167 0012 8A7A     		ldrb	r2, [r1, #10]	@ zero_extendqisi2
1761:Drivers/BMP580/Src/bmp5.c ****         {
 168              		.loc 1 1761 12 view .LVU46
 169 0014 1F2A     		cmp	r2, #31
 170 0016 14D8     		bhi	.L14
1763:Drivers/BMP580/Src/bmp5.c ****         }
 171              		.loc 1 1763 13 is_stmt 1 view .LVU47
1763:Drivers/BMP580/Src/bmp5.c ****         }
 172              		.loc 1 1763 27 is_stmt 0 view .LVU48
 173 0018 0378     		ldrb	r3, [r0]	@ zero_extendqisi2
1763:Drivers/BMP580/Src/bmp5.c ****         }
 174              		.loc 1 1763 25 view .LVU49
 175 001a 23F01F03 		bic	r3, r3, #31
 176 001e 02F01F02 		and	r2, r2, #31
 177 0022 1343     		orrs	r3, r3, r2
 178 0024 0370     		strb	r3, [r0]
1756:Drivers/BMP580/Src/bmp5.c **** 
 179              		.loc 1 1756 12 view .LVU50
 180 0026 0020     		movs	r0, #0
 181              	.LVL18:
1756:Drivers/BMP580/Src/bmp5.c **** 
 182              		.loc 1 1756 12 view .LVU51
 183 0028 7047     		bx	lr
 184              	.LVL19:
 185              	.L18:
1771:Drivers/BMP580/Src/bmp5.c ****     {
1772:Drivers/BMP580/Src/bmp5.c ****         /* If both pressure and temperature is selected, maximum 15 frames can be set as threshold 
1773:Drivers/BMP580/Src/bmp5.c ****         if (fifo->threshold <= BMP5_FIFO_MAX_THRESHOLD_P_T_MODE)
 186              		.loc 1 1773 9 is_stmt 1 view .LVU52
 187              		.loc 1 1773 17 is_stmt 0 view .LVU53
 188 002a 8A7A     		ldrb	r2, [r1, #10]	@ zero_extendqisi2
 189              		.loc 1 1773 12 view .LVU54
 190 002c 0F2A     		cmp	r2, #15
 191 002e 0BD8     		bhi	.L16
1774:Drivers/BMP580/Src/bmp5.c ****         {
1775:Drivers/BMP580/Src/bmp5.c ****             reg_data[0] = BMP5_SET_BITS_POS_0(reg_data[0], BMP5_FIFO_THRESHOLD, fifo->threshold);
 192              		.loc 1 1775 13 is_stmt 1 view .LVU55
 193              		.loc 1 1775 27 is_stmt 0 view .LVU56
 194 0030 0378     		ldrb	r3, [r0]	@ zero_extendqisi2
 195              		.loc 1 1775 25 view .LVU57
 196 0032 23F01F03 		bic	r3, r3, #31
 197 0036 02F01F02 		and	r2, r2, #31
 198 003a 1343     		orrs	r3, r3, r2
 199 003c 0370     		strb	r3, [r0]
1756:Drivers/BMP580/Src/bmp5.c **** 
 200              		.loc 1 1756 12 view .LVU58
 201 003e 0020     		movs	r0, #0
 202              	.LVL20:
1756:Drivers/BMP580/Src/bmp5.c **** 
 203              		.loc 1 1756 12 view .LVU59
 204 0040 7047     		bx	lr
 205              	.LVL21:
ARM GAS  C:\Users\Nathan\AppData\Local\Temp\ccQWWdhB.s 			page 36


 206              	.L14:
1767:Drivers/BMP580/Src/bmp5.c ****         }
 207              		.loc 1 1767 18 view .LVU60
 208 0042 6FF00700 		mvn	r0, #7
 209              	.LVL22:
1767:Drivers/BMP580/Src/bmp5.c ****         }
 210              		.loc 1 1767 18 view .LVU61
 211 0046 7047     		bx	lr
 212              	.LVL23:
 213              	.L16:
1776:Drivers/BMP580/Src/bmp5.c ****         }
1777:Drivers/BMP580/Src/bmp5.c ****         else
1778:Drivers/BMP580/Src/bmp5.c ****         {
1779:Drivers/BMP580/Src/bmp5.c ****             rslt = BMP5_E_INVALID_THRESHOLD;
 214              		.loc 1 1779 18 view .LVU62
 215 0048 6FF00700 		mvn	r0, #7
 216              	.LVL24:
1780:Drivers/BMP580/Src/bmp5.c ****         }
1781:Drivers/BMP580/Src/bmp5.c ****     }
1782:Drivers/BMP580/Src/bmp5.c **** 
1783:Drivers/BMP580/Src/bmp5.c ****     return rslt;
 217              		.loc 1 1783 5 is_stmt 1 view .LVU63
1784:Drivers/BMP580/Src/bmp5.c **** }
 218              		.loc 1 1784 1 is_stmt 0 view .LVU64
 219 004c 7047     		bx	lr
 220              		.cfi_endproc
 221              	.LFE33:
 223              		.global	__aeabi_i2d
 224              		.global	__aeabi_dmul
 225              		.global	__aeabi_d2f
 226              		.global	__aeabi_ui2d
 227              		.section	.text.unpack_sensor_data,"ax",%progbits
 228              		.align	1
 229              		.syntax unified
 230              		.thumb
 231              		.thumb_func
 233              	unpack_sensor_data:
 234              	.LVL25:
 235              	.LFB34:
1785:Drivers/BMP580/Src/bmp5.c **** 
1786:Drivers/BMP580/Src/bmp5.c **** /*!
1787:Drivers/BMP580/Src/bmp5.c **** * @brief This internal API is used to unpack the fifo data and store it in the bmp5_sensor_data str
1788:Drivers/BMP580/Src/bmp5.c ****  */
1789:Drivers/BMP580/Src/bmp5.c **** static int8_t unpack_sensor_data(struct bmp5_sensor_data *sensor_data,
1790:Drivers/BMP580/Src/bmp5.c ****                                  uint16_t *data_index,
1791:Drivers/BMP580/Src/bmp5.c ****                                  const struct bmp5_fifo *fifo)
1792:Drivers/BMP580/Src/bmp5.c **** {
 236              		.loc 1 1792 1 is_stmt 1 view -0
 237              		.cfi_startproc
 238              		@ args = 0, pretend = 0, frame = 0
 239              		@ frame_needed = 0, uses_anonymous_args = 0
 240              		.loc 1 1792 1 is_stmt 0 view .LVU66
 241 0000 70B5     		push	{r4, r5, r6, lr}
 242              		.cfi_def_cfa_offset 16
 243              		.cfi_offset 4, -16
 244              		.cfi_offset 5, -12
 245              		.cfi_offset 6, -8
ARM GAS  C:\Users\Nathan\AppData\Local\Temp\ccQWWdhB.s 			page 37


 246              		.cfi_offset 14, -4
 247 0002 0546     		mov	r5, r0
 248 0004 0C46     		mov	r4, r1
1793:Drivers/BMP580/Src/bmp5.c ****     int8_t rslt = 0;
 249              		.loc 1 1793 5 is_stmt 1 view .LVU67
 250              	.LVL26:
1794:Drivers/BMP580/Src/bmp5.c ****     int32_t raw_data_t;
 251              		.loc 1 1794 5 view .LVU68
1795:Drivers/BMP580/Src/bmp5.c ****     uint32_t raw_data_p;
 252              		.loc 1 1795 5 view .LVU69
1796:Drivers/BMP580/Src/bmp5.c **** 
1797:Drivers/BMP580/Src/bmp5.c ****     switch (fifo->frame_sel)
 253              		.loc 1 1797 5 view .LVU70
 254              		.loc 1 1797 17 is_stmt 0 view .LVU71
 255 0006 9379     		ldrb	r3, [r2, #6]	@ zero_extendqisi2
 256              		.loc 1 1797 5 view .LVU72
 257 0008 022B     		cmp	r3, #2
 258 000a 2DD0     		beq	.L20
 259 000c 032B     		cmp	r3, #3
 260 000e 54D0     		beq	.L21
 261 0010 012B     		cmp	r3, #1
 262 0012 40F09680 		bne	.L22
1798:Drivers/BMP580/Src/bmp5.c ****     {
1799:Drivers/BMP580/Src/bmp5.c ****         case BMP5_FIFO_TEMPERATURE_DATA:
1800:Drivers/BMP580/Src/bmp5.c **** 
1801:Drivers/BMP580/Src/bmp5.c ****             /* Check if fifo frame is empty */
1802:Drivers/BMP580/Src/bmp5.c ****             if (!((fifo->data[*data_index] == BMP5_FIFO_EMPTY) && (fifo->data[*data_index + 1] == B
 263              		.loc 1 1802 13 is_stmt 1 view .LVU73
 264              		.loc 1 1802 24 is_stmt 0 view .LVU74
 265 0016 1368     		ldr	r3, [r2]
 266              		.loc 1 1802 31 view .LVU75
 267 0018 0988     		ldrh	r1, [r1]
 268              	.LVL27:
 269              		.loc 1 1802 30 view .LVU76
 270 001a 585C     		ldrb	r0, [r3, r1]	@ zero_extendqisi2
 271              	.LVL28:
 272              		.loc 1 1802 16 view .LVU77
 273 001c 7F28     		cmp	r0, #127
 274 001e 16D0     		beq	.L31
 275              	.L23:
1803:Drivers/BMP580/Src/bmp5.c ****                   (fifo->data[*data_index + 2] == BMP5_FIFO_EMPTY)))
1804:Drivers/BMP580/Src/bmp5.c ****             {
1805:Drivers/BMP580/Src/bmp5.c ****                 raw_data_t =
 276              		.loc 1 1805 17 is_stmt 1 view .LVU78
1806:Drivers/BMP580/Src/bmp5.c ****                     (int32_t)((uint32_t)fifo->data[*data_index + 2] << 16 | (uint16_t)fifo->data[*d
 277              		.loc 1 1806 51 is_stmt 0 view .LVU79
 278 0020 0B44     		add	r3, r3, r1
 279 0022 9A78     		ldrb	r2, [r3, #2]	@ zero_extendqisi2
 280              	.LVL29:
 281              		.loc 1 1806 97 view .LVU80
 282 0024 5B78     		ldrb	r3, [r3, #1]	@ zero_extendqisi2
 283              		.loc 1 1806 115 view .LVU81
 284 0026 1B02     		lsls	r3, r3, #8
 285              		.loc 1 1806 75 view .LVU82
 286 0028 43EA0243 		orr	r3, r3, r2, lsl #16
 287              	.LVL30:
1807:Drivers/BMP580/Src/bmp5.c ****                         fifo->data[*data_index]);
ARM GAS  C:\Users\Nathan\AppData\Local\Temp\ccQWWdhB.s 			page 38


1808:Drivers/BMP580/Src/bmp5.c **** 
1809:Drivers/BMP580/Src/bmp5.c **** #ifdef BMP5_USE_FIXED_POINT
1810:Drivers/BMP580/Src/bmp5.c **** 
1811:Drivers/BMP580/Src/bmp5.c ****                 /* Division by 2^16(whose equivalent value is 65536) is performed to get temperatur
1812:Drivers/BMP580/Src/bmp5.c ****                  * precision in deg C
1813:Drivers/BMP580/Src/bmp5.c ****                  */
1814:Drivers/BMP580/Src/bmp5.c ****                 sensor_data->temperature =
1815:Drivers/BMP580/Src/bmp5.c ****                     (int64_t)((raw_data_t / (float)65536.0) * (power(10, BMP5_FIXED_POINT_DIGIT_PRE
1816:Drivers/BMP580/Src/bmp5.c **** #else
1817:Drivers/BMP580/Src/bmp5.c **** 
1818:Drivers/BMP580/Src/bmp5.c ****                 /* Division by 2^16(whose equivalent value is 65536) is performed to get temperatur
1819:Drivers/BMP580/Src/bmp5.c ****                 sensor_data->temperature = (float)(raw_data_t / 65536.0);
 288              		.loc 1 1819 17 is_stmt 1 view .LVU83
 289              		.loc 1 1819 63 is_stmt 0 view .LVU84
 290 002c 1843     		orrs	r0, r0, r3
 291              	.LVL31:
 292              		.loc 1 1819 63 view .LVU85
 293 002e FFF7FEFF 		bl	__aeabi_i2d
 294              	.LVL32:
 295              		.loc 1 1819 63 view .LVU86
 296 0032 0022     		movs	r2, #0
 297 0034 454B     		ldr	r3, .L34
 298 0036 FFF7FEFF 		bl	__aeabi_dmul
 299              	.LVL33:
 300              		.loc 1 1819 44 view .LVU87
 301 003a FFF7FEFF 		bl	__aeabi_d2f
 302              	.LVL34:
 303              		.loc 1 1819 42 view .LVU88
 304 003e 6860     		str	r0, [r5, #4]	@ float
1820:Drivers/BMP580/Src/bmp5.c **** #endif
1821:Drivers/BMP580/Src/bmp5.c **** 
1822:Drivers/BMP580/Src/bmp5.c ****                 sensor_data->pressure = 0.0;
 305              		.loc 1 1822 17 is_stmt 1 view .LVU89
 306              		.loc 1 1822 39 is_stmt 0 view .LVU90
 307 0040 0023     		movs	r3, #0
 308 0042 2B60     		str	r3, [r5]	@ float
1823:Drivers/BMP580/Src/bmp5.c ****                 *data_index += 3;
 309              		.loc 1 1823 17 is_stmt 1 view .LVU91
 310 0044 2388     		ldrh	r3, [r4]
 311              		.loc 1 1823 29 is_stmt 0 view .LVU92
 312 0046 0333     		adds	r3, r3, #3
 313 0048 2380     		strh	r3, [r4]	@ movhi
1793:Drivers/BMP580/Src/bmp5.c ****     int32_t raw_data_t;
 314              		.loc 1 1793 12 view .LVU93
 315 004a 0020     		movs	r0, #0
 316              		.loc 1 1823 29 view .LVU94
 317 004c 7DE0     		b	.L25
 318              	.LVL35:
 319              	.L31:
1802:Drivers/BMP580/Src/bmp5.c ****                   (fifo->data[*data_index + 2] == BMP5_FIFO_EMPTY)))
 320              		.loc 1 1802 78 discriminator 1 view .LVU95
 321 004e 5E18     		adds	r6, r3, r1
 322 0050 7678     		ldrb	r6, [r6, #1]	@ zero_extendqisi2
1802:Drivers/BMP580/Src/bmp5.c ****                   (fifo->data[*data_index + 2] == BMP5_FIFO_EMPTY)))
 323              		.loc 1 1802 64 discriminator 1 view .LVU96
 324 0052 7F2E     		cmp	r6, #127
 325 0054 E4D1     		bne	.L23
ARM GAS  C:\Users\Nathan\AppData\Local\Temp\ccQWWdhB.s 			page 39


1803:Drivers/BMP580/Src/bmp5.c ****             {
 326              		.loc 1 1803 30 view .LVU97
 327 0056 5E18     		adds	r6, r3, r1
 328 0058 B678     		ldrb	r6, [r6, #2]	@ zero_extendqisi2
1802:Drivers/BMP580/Src/bmp5.c ****                   (fifo->data[*data_index + 2] == BMP5_FIFO_EMPTY)))
 329              		.loc 1 1802 17 discriminator 2 view .LVU98
 330 005a 7F2E     		cmp	r6, #127
 331 005c E0D1     		bne	.L23
1824:Drivers/BMP580/Src/bmp5.c ****             }
1825:Drivers/BMP580/Src/bmp5.c ****             else
1826:Drivers/BMP580/Src/bmp5.c ****             {
1827:Drivers/BMP580/Src/bmp5.c ****                 rslt = BMP5_E_FIFO_FRAME_EMPTY;
 332              		.loc 1 1827 17 is_stmt 1 view .LVU99
 333              	.LVL36:
1828:Drivers/BMP580/Src/bmp5.c **** 
1829:Drivers/BMP580/Src/bmp5.c ****                 /* Move the data index to the last byte to mark completion */
1830:Drivers/BMP580/Src/bmp5.c ****                 *data_index = fifo->length;
 334              		.loc 1 1830 17 view .LVU100
 335              		.loc 1 1830 35 is_stmt 0 view .LVU101
 336 005e 9388     		ldrh	r3, [r2, #4]
 337              		.loc 1 1830 29 view .LVU102
 338 0060 2380     		strh	r3, [r4]	@ movhi
1827:Drivers/BMP580/Src/bmp5.c **** 
 339              		.loc 1 1827 22 view .LVU103
 340 0062 6FF00800 		mvn	r0, #8
 341 0066 70E0     		b	.L25
 342              	.LVL37:
 343              	.L20:
1831:Drivers/BMP580/Src/bmp5.c ****             }
1832:Drivers/BMP580/Src/bmp5.c **** 
1833:Drivers/BMP580/Src/bmp5.c ****             break;
1834:Drivers/BMP580/Src/bmp5.c ****         case BMP5_FIFO_PRESSURE_DATA:
1835:Drivers/BMP580/Src/bmp5.c **** 
1836:Drivers/BMP580/Src/bmp5.c ****             /* Check if fifo frame is empty */
1837:Drivers/BMP580/Src/bmp5.c ****             if (!((fifo->data[*data_index] == BMP5_FIFO_EMPTY) && (fifo->data[*data_index + 1] == B
 344              		.loc 1 1837 13 is_stmt 1 view .LVU104
 345              		.loc 1 1837 24 is_stmt 0 view .LVU105
 346 0068 1368     		ldr	r3, [r2]
 347              		.loc 1 1837 31 view .LVU106
 348 006a 0988     		ldrh	r1, [r1]
 349              	.LVL38:
 350              		.loc 1 1837 30 view .LVU107
 351 006c 585C     		ldrb	r0, [r3, r1]	@ zero_extendqisi2
 352              	.LVL39:
 353              		.loc 1 1837 16 view .LVU108
 354 006e 7F28     		cmp	r0, #127
 355 0070 16D0     		beq	.L32
 356              	.L26:
1838:Drivers/BMP580/Src/bmp5.c ****                   (fifo->data[*data_index + 2] == BMP5_FIFO_EMPTY)))
1839:Drivers/BMP580/Src/bmp5.c ****             {
1840:Drivers/BMP580/Src/bmp5.c ****                 raw_data_p =
 357              		.loc 1 1840 17 is_stmt 1 view .LVU109
1841:Drivers/BMP580/Src/bmp5.c ****                     (uint32_t)((uint32_t)fifo->data[(*data_index) + 2] << 16 |
 358              		.loc 1 1841 52 is_stmt 0 view .LVU110
 359 0072 0B44     		add	r3, r3, r1
 360 0074 9A78     		ldrb	r2, [r3, #2]	@ zero_extendqisi2
 361              	.LVL40:
ARM GAS  C:\Users\Nathan\AppData\Local\Temp\ccQWWdhB.s 			page 40


1842:Drivers/BMP580/Src/bmp5.c ****                                (uint16_t)fifo->data[(*data_index) + 1] << 8 |
 362              		.loc 1 1842 52 view .LVU111
 363 0076 5B78     		ldrb	r3, [r3, #1]	@ zero_extendqisi2
 364              		.loc 1 1842 72 view .LVU112
 365 0078 1B02     		lsls	r3, r3, #8
1841:Drivers/BMP580/Src/bmp5.c ****                     (uint32_t)((uint32_t)fifo->data[(*data_index) + 2] << 16 |
 366              		.loc 1 1841 78 view .LVU113
 367 007a 43EA0243 		orr	r3, r3, r2, lsl #16
 368              	.LVL41:
1843:Drivers/BMP580/Src/bmp5.c ****                         fifo->data[*data_index]);
1844:Drivers/BMP580/Src/bmp5.c **** 
1845:Drivers/BMP580/Src/bmp5.c **** #ifdef BMP5_USE_FIXED_POINT
1846:Drivers/BMP580/Src/bmp5.c **** 
1847:Drivers/BMP580/Src/bmp5.c ****                 /* Division by 2^6(whose equivalent value is 64) is performed to get pressure data 
1848:Drivers/BMP580/Src/bmp5.c ****                  * precision in Pa
1849:Drivers/BMP580/Src/bmp5.c ****                  */
1850:Drivers/BMP580/Src/bmp5.c ****                 sensor_data->pressure =
1851:Drivers/BMP580/Src/bmp5.c ****                     (uint64_t)((raw_data_p / (float)64.0) * (power(10, BMP5_FIXED_POINT_DIGIT_PRECI
1852:Drivers/BMP580/Src/bmp5.c **** #else
1853:Drivers/BMP580/Src/bmp5.c **** 
1854:Drivers/BMP580/Src/bmp5.c ****                 /* Division by 2^6(whose equivalent value is 64) is performed to get pressure data 
1855:Drivers/BMP580/Src/bmp5.c ****                 sensor_data->pressure = (float)(raw_data_p / 64.0);
 369              		.loc 1 1855 17 is_stmt 1 view .LVU114
 370              		.loc 1 1855 60 is_stmt 0 view .LVU115
 371 007e 1843     		orrs	r0, r0, r3
 372              	.LVL42:
 373              		.loc 1 1855 60 view .LVU116
 374 0080 FFF7FEFF 		bl	__aeabi_ui2d
 375              	.LVL43:
 376              		.loc 1 1855 60 view .LVU117
 377 0084 0022     		movs	r2, #0
 378 0086 324B     		ldr	r3, .L34+4
 379 0088 FFF7FEFF 		bl	__aeabi_dmul
 380              	.LVL44:
 381              		.loc 1 1855 41 view .LVU118
 382 008c FFF7FEFF 		bl	__aeabi_d2f
 383              	.LVL45:
 384              		.loc 1 1855 39 view .LVU119
 385 0090 2860     		str	r0, [r5]	@ float
1856:Drivers/BMP580/Src/bmp5.c **** #endif
1857:Drivers/BMP580/Src/bmp5.c **** 
1858:Drivers/BMP580/Src/bmp5.c ****                 sensor_data->temperature = 0.0;
 386              		.loc 1 1858 17 is_stmt 1 view .LVU120
 387              		.loc 1 1858 42 is_stmt 0 view .LVU121
 388 0092 0023     		movs	r3, #0
 389 0094 6B60     		str	r3, [r5, #4]	@ float
1859:Drivers/BMP580/Src/bmp5.c ****                 *data_index += 3;
 390              		.loc 1 1859 17 is_stmt 1 view .LVU122
 391 0096 2388     		ldrh	r3, [r4]
 392              		.loc 1 1859 29 is_stmt 0 view .LVU123
 393 0098 0333     		adds	r3, r3, #3
 394 009a 2380     		strh	r3, [r4]	@ movhi
1793:Drivers/BMP580/Src/bmp5.c ****     int32_t raw_data_t;
 395              		.loc 1 1793 12 view .LVU124
 396 009c 0020     		movs	r0, #0
 397              		.loc 1 1859 29 view .LVU125
 398 009e 54E0     		b	.L25
ARM GAS  C:\Users\Nathan\AppData\Local\Temp\ccQWWdhB.s 			page 41


 399              	.LVL46:
 400              	.L32:
1837:Drivers/BMP580/Src/bmp5.c ****                   (fifo->data[*data_index + 2] == BMP5_FIFO_EMPTY)))
 401              		.loc 1 1837 78 discriminator 1 view .LVU126
 402 00a0 5E18     		adds	r6, r3, r1
 403 00a2 7678     		ldrb	r6, [r6, #1]	@ zero_extendqisi2
1837:Drivers/BMP580/Src/bmp5.c ****                   (fifo->data[*data_index + 2] == BMP5_FIFO_EMPTY)))
 404              		.loc 1 1837 64 discriminator 1 view .LVU127
 405 00a4 7F2E     		cmp	r6, #127
 406 00a6 E4D1     		bne	.L26
1838:Drivers/BMP580/Src/bmp5.c ****             {
 407              		.loc 1 1838 30 view .LVU128
 408 00a8 5E18     		adds	r6, r3, r1
 409 00aa B678     		ldrb	r6, [r6, #2]	@ zero_extendqisi2
1837:Drivers/BMP580/Src/bmp5.c ****                   (fifo->data[*data_index + 2] == BMP5_FIFO_EMPTY)))
 410              		.loc 1 1837 17 discriminator 2 view .LVU129
 411 00ac 7F2E     		cmp	r6, #127
 412 00ae E0D1     		bne	.L26
1860:Drivers/BMP580/Src/bmp5.c ****             }
1861:Drivers/BMP580/Src/bmp5.c ****             else
1862:Drivers/BMP580/Src/bmp5.c ****             {
1863:Drivers/BMP580/Src/bmp5.c ****                 rslt = BMP5_E_FIFO_FRAME_EMPTY;
 413              		.loc 1 1863 17 is_stmt 1 view .LVU130
 414              	.LVL47:
1864:Drivers/BMP580/Src/bmp5.c **** 
1865:Drivers/BMP580/Src/bmp5.c ****                 /* Move the data index to the last byte to mark completion */
1866:Drivers/BMP580/Src/bmp5.c ****                 *data_index = fifo->length;
 415              		.loc 1 1866 17 view .LVU131
 416              		.loc 1 1866 35 is_stmt 0 view .LVU132
 417 00b0 9388     		ldrh	r3, [r2, #4]
 418              		.loc 1 1866 29 view .LVU133
 419 00b2 2380     		strh	r3, [r4]	@ movhi
1863:Drivers/BMP580/Src/bmp5.c **** 
 420              		.loc 1 1863 22 view .LVU134
 421 00b4 6FF00800 		mvn	r0, #8
 422 00b8 47E0     		b	.L25
 423              	.LVL48:
 424              	.L21:
1867:Drivers/BMP580/Src/bmp5.c ****             }
1868:Drivers/BMP580/Src/bmp5.c **** 
1869:Drivers/BMP580/Src/bmp5.c ****             break;
1870:Drivers/BMP580/Src/bmp5.c ****         case BMP5_FIFO_PRESS_TEMP_DATA:
1871:Drivers/BMP580/Src/bmp5.c ****             if (!((fifo->data[*data_index] == BMP5_FIFO_EMPTY) && (fifo->data[*data_index + 1] == B
 425              		.loc 1 1871 13 is_stmt 1 view .LVU135
 426              		.loc 1 1871 24 is_stmt 0 view .LVU136
 427 00ba 1368     		ldr	r3, [r2]
 428              		.loc 1 1871 31 view .LVU137
 429 00bc 0988     		ldrh	r1, [r1]
 430              	.LVL49:
 431              		.loc 1 1871 30 view .LVU138
 432 00be 585C     		ldrb	r0, [r3, r1]	@ zero_extendqisi2
 433              	.LVL50:
 434              		.loc 1 1871 16 view .LVU139
 435 00c0 7F28     		cmp	r0, #127
 436 00c2 25D0     		beq	.L33
 437              	.L28:
1872:Drivers/BMP580/Src/bmp5.c ****                   (fifo->data[*data_index + 2] == BMP5_FIFO_EMPTY) &&
ARM GAS  C:\Users\Nathan\AppData\Local\Temp\ccQWWdhB.s 			page 42


1873:Drivers/BMP580/Src/bmp5.c ****                   (fifo->data[*data_index + 3] == BMP5_FIFO_EMPTY) &&
1874:Drivers/BMP580/Src/bmp5.c ****                   (fifo->data[*data_index + 4] == BMP5_FIFO_EMPTY) && (fifo->data[*data_index + 5] 
1875:Drivers/BMP580/Src/bmp5.c ****             {
1876:Drivers/BMP580/Src/bmp5.c ****                 raw_data_t =
 438              		.loc 1 1876 17 is_stmt 1 view .LVU140
1877:Drivers/BMP580/Src/bmp5.c ****                     (int32_t)((uint32_t)fifo->data[*data_index + 2] << 16 | (uint16_t)fifo->data[*d
 439              		.loc 1 1877 51 is_stmt 0 view .LVU141
 440 00c4 0B44     		add	r3, r3, r1
 441 00c6 9978     		ldrb	r1, [r3, #2]	@ zero_extendqisi2
 442              		.loc 1 1877 97 view .LVU142
 443 00c8 5A78     		ldrb	r2, [r3, #1]	@ zero_extendqisi2
 444              	.LVL51:
 445              		.loc 1 1877 115 view .LVU143
 446 00ca 1202     		lsls	r2, r2, #8
 447              		.loc 1 1877 75 view .LVU144
 448 00cc 42EA0142 		orr	r2, r2, r1, lsl #16
 449              	.LVL52:
1878:Drivers/BMP580/Src/bmp5.c ****                         fifo->data[*data_index]);
1879:Drivers/BMP580/Src/bmp5.c **** 
1880:Drivers/BMP580/Src/bmp5.c ****                 raw_data_p =
 450              		.loc 1 1880 17 is_stmt 1 view .LVU145
1881:Drivers/BMP580/Src/bmp5.c ****                     (uint32_t)((uint32_t)fifo->data[(*data_index) + 5] << 16 |
 451              		.loc 1 1881 52 is_stmt 0 view .LVU146
 452 00d0 5979     		ldrb	r1, [r3, #5]	@ zero_extendqisi2
1882:Drivers/BMP580/Src/bmp5.c ****                                (uint16_t)fifo->data[(*data_index) + 4] << 8 |
 453              		.loc 1 1882 52 view .LVU147
 454 00d2 1E79     		ldrb	r6, [r3, #4]	@ zero_extendqisi2
 455              		.loc 1 1882 72 view .LVU148
 456 00d4 3602     		lsls	r6, r6, #8
1881:Drivers/BMP580/Src/bmp5.c ****                     (uint32_t)((uint32_t)fifo->data[(*data_index) + 5] << 16 |
 457              		.loc 1 1881 78 view .LVU149
 458 00d6 46EA0146 		orr	r6, r6, r1, lsl #16
1883:Drivers/BMP580/Src/bmp5.c ****                         fifo->data[*data_index + 3]);
 459              		.loc 1 1883 35 view .LVU150
 460 00da DB78     		ldrb	r3, [r3, #3]	@ zero_extendqisi2
1880:Drivers/BMP580/Src/bmp5.c ****                     (uint32_t)((uint32_t)fifo->data[(*data_index) + 5] << 16 |
 461              		.loc 1 1880 28 view .LVU151
 462 00dc 1E43     		orrs	r6, r6, r3
 463              	.LVL53:
1884:Drivers/BMP580/Src/bmp5.c **** 
1885:Drivers/BMP580/Src/bmp5.c **** #ifdef BMP5_USE_FIXED_POINT
1886:Drivers/BMP580/Src/bmp5.c **** 
1887:Drivers/BMP580/Src/bmp5.c ****                 /* Division by 2^16(whose equivalent value is 65536) is performed to get temperatur
1888:Drivers/BMP580/Src/bmp5.c ****                  * precision in deg C
1889:Drivers/BMP580/Src/bmp5.c ****                  */
1890:Drivers/BMP580/Src/bmp5.c ****                 sensor_data->temperature =
1891:Drivers/BMP580/Src/bmp5.c ****                     (int64_t)((raw_data_t / (float)(float)64.0) * (power(10, BMP5_FIXED_POINT_DIGIT
1892:Drivers/BMP580/Src/bmp5.c **** 
1893:Drivers/BMP580/Src/bmp5.c ****                 /* Division by 2^6(whose equivalent value is 64) is performed to get pressure data 
1894:Drivers/BMP580/Src/bmp5.c ****                  * precision in Pa
1895:Drivers/BMP580/Src/bmp5.c ****                  */
1896:Drivers/BMP580/Src/bmp5.c ****                 sensor_data->pressure =
1897:Drivers/BMP580/Src/bmp5.c ****                     (uint64_t)((raw_data_p / (float)64.0) * (power(10, BMP5_FIXED_POINT_DIGIT_PRECI
1898:Drivers/BMP580/Src/bmp5.c **** #else
1899:Drivers/BMP580/Src/bmp5.c **** 
1900:Drivers/BMP580/Src/bmp5.c ****                 /* Division by 2^16(whose equivalent value is 65536) is performed to get temperatur
1901:Drivers/BMP580/Src/bmp5.c ****                 sensor_data->temperature = (float)(raw_data_t / 65536.0);
ARM GAS  C:\Users\Nathan\AppData\Local\Temp\ccQWWdhB.s 			page 43


 464              		.loc 1 1901 17 is_stmt 1 view .LVU152
 465              		.loc 1 1901 63 is_stmt 0 view .LVU153
 466 00de 1043     		orrs	r0, r0, r2
 467              	.LVL54:
 468              		.loc 1 1901 63 view .LVU154
 469 00e0 FFF7FEFF 		bl	__aeabi_i2d
 470              	.LVL55:
 471              		.loc 1 1901 63 view .LVU155
 472 00e4 0022     		movs	r2, #0
 473 00e6 194B     		ldr	r3, .L34
 474 00e8 FFF7FEFF 		bl	__aeabi_dmul
 475              	.LVL56:
 476              		.loc 1 1901 44 view .LVU156
 477 00ec FFF7FEFF 		bl	__aeabi_d2f
 478              	.LVL57:
 479              		.loc 1 1901 42 view .LVU157
 480 00f0 6860     		str	r0, [r5, #4]	@ float
1902:Drivers/BMP580/Src/bmp5.c **** 
1903:Drivers/BMP580/Src/bmp5.c ****                 /* Division by 2^6(whose equivalent value is 64) is performed to get pressure data 
1904:Drivers/BMP580/Src/bmp5.c ****                 sensor_data->pressure = (float)(raw_data_p / 64.0);
 481              		.loc 1 1904 17 is_stmt 1 view .LVU158
 482              		.loc 1 1904 60 is_stmt 0 view .LVU159
 483 00f2 3046     		mov	r0, r6
 484 00f4 FFF7FEFF 		bl	__aeabi_ui2d
 485              	.LVL58:
 486 00f8 0022     		movs	r2, #0
 487 00fa 154B     		ldr	r3, .L34+4
 488 00fc FFF7FEFF 		bl	__aeabi_dmul
 489              	.LVL59:
 490              		.loc 1 1904 41 view .LVU160
 491 0100 FFF7FEFF 		bl	__aeabi_d2f
 492              	.LVL60:
 493              		.loc 1 1904 39 view .LVU161
 494 0104 2860     		str	r0, [r5]	@ float
1905:Drivers/BMP580/Src/bmp5.c **** #endif
1906:Drivers/BMP580/Src/bmp5.c **** 
1907:Drivers/BMP580/Src/bmp5.c ****                 *data_index += 6;
 495              		.loc 1 1907 17 is_stmt 1 view .LVU162
 496 0106 2388     		ldrh	r3, [r4]
 497              		.loc 1 1907 29 is_stmt 0 view .LVU163
 498 0108 0633     		adds	r3, r3, #6
 499 010a 2380     		strh	r3, [r4]	@ movhi
1793:Drivers/BMP580/Src/bmp5.c ****     int32_t raw_data_t;
 500              		.loc 1 1793 12 view .LVU164
 501 010c 0020     		movs	r0, #0
 502              		.loc 1 1907 29 view .LVU165
 503 010e 1CE0     		b	.L25
 504              	.LVL61:
 505              	.L33:
1871:Drivers/BMP580/Src/bmp5.c ****                   (fifo->data[*data_index + 2] == BMP5_FIFO_EMPTY) &&
 506              		.loc 1 1871 78 discriminator 1 view .LVU166
 507 0110 5E18     		adds	r6, r3, r1
 508 0112 7678     		ldrb	r6, [r6, #1]	@ zero_extendqisi2
1871:Drivers/BMP580/Src/bmp5.c ****                   (fifo->data[*data_index + 2] == BMP5_FIFO_EMPTY) &&
 509              		.loc 1 1871 64 discriminator 1 view .LVU167
 510 0114 7F2E     		cmp	r6, #127
 511 0116 D5D1     		bne	.L28
ARM GAS  C:\Users\Nathan\AppData\Local\Temp\ccQWWdhB.s 			page 44


1872:Drivers/BMP580/Src/bmp5.c ****                   (fifo->data[*data_index + 3] == BMP5_FIFO_EMPTY) &&
 512              		.loc 1 1872 30 view .LVU168
 513 0118 5E18     		adds	r6, r3, r1
 514 011a B678     		ldrb	r6, [r6, #2]	@ zero_extendqisi2
1871:Drivers/BMP580/Src/bmp5.c ****                   (fifo->data[*data_index + 2] == BMP5_FIFO_EMPTY) &&
 515              		.loc 1 1871 116 discriminator 2 view .LVU169
 516 011c 7F2E     		cmp	r6, #127
 517 011e D1D1     		bne	.L28
1873:Drivers/BMP580/Src/bmp5.c ****                   (fifo->data[*data_index + 4] == BMP5_FIFO_EMPTY) && (fifo->data[*data_index + 5] 
 518              		.loc 1 1873 30 view .LVU170
 519 0120 5E18     		adds	r6, r3, r1
 520 0122 F678     		ldrb	r6, [r6, #3]	@ zero_extendqisi2
1872:Drivers/BMP580/Src/bmp5.c ****                   (fifo->data[*data_index + 3] == BMP5_FIFO_EMPTY) &&
 521              		.loc 1 1872 68 view .LVU171
 522 0124 7F2E     		cmp	r6, #127
 523 0126 CDD1     		bne	.L28
1874:Drivers/BMP580/Src/bmp5.c ****             {
 524              		.loc 1 1874 30 view .LVU172
 525 0128 5E18     		adds	r6, r3, r1
 526 012a 3679     		ldrb	r6, [r6, #4]	@ zero_extendqisi2
1873:Drivers/BMP580/Src/bmp5.c ****                   (fifo->data[*data_index + 4] == BMP5_FIFO_EMPTY) && (fifo->data[*data_index + 5] 
 527              		.loc 1 1873 68 view .LVU173
 528 012c 7F2E     		cmp	r6, #127
 529 012e C9D1     		bne	.L28
1874:Drivers/BMP580/Src/bmp5.c ****             {
 530              		.loc 1 1874 82 view .LVU174
 531 0130 5E18     		adds	r6, r3, r1
 532 0132 7679     		ldrb	r6, [r6, #5]	@ zero_extendqisi2
1871:Drivers/BMP580/Src/bmp5.c ****                   (fifo->data[*data_index + 2] == BMP5_FIFO_EMPTY) &&
 533              		.loc 1 1871 17 view .LVU175
 534 0134 7F2E     		cmp	r6, #127
 535 0136 C5D1     		bne	.L28
1908:Drivers/BMP580/Src/bmp5.c ****             }
1909:Drivers/BMP580/Src/bmp5.c ****             else
1910:Drivers/BMP580/Src/bmp5.c ****             {
1911:Drivers/BMP580/Src/bmp5.c ****                 rslt = BMP5_E_FIFO_FRAME_EMPTY;
 536              		.loc 1 1911 17 is_stmt 1 view .LVU176
 537              	.LVL62:
1912:Drivers/BMP580/Src/bmp5.c **** 
1913:Drivers/BMP580/Src/bmp5.c ****                 /* Move the data index to the last byte to mark completion */
1914:Drivers/BMP580/Src/bmp5.c ****                 *data_index = fifo->length;
 538              		.loc 1 1914 17 view .LVU177
 539              		.loc 1 1914 35 is_stmt 0 view .LVU178
 540 0138 9388     		ldrh	r3, [r2, #4]
 541              		.loc 1 1914 29 view .LVU179
 542 013a 2380     		strh	r3, [r4]	@ movhi
1911:Drivers/BMP580/Src/bmp5.c **** 
 543              		.loc 1 1911 22 view .LVU180
 544 013c 6FF00800 		mvn	r0, #8
 545 0140 03E0     		b	.L25
 546              	.LVL63:
 547              	.L22:
1915:Drivers/BMP580/Src/bmp5.c ****             }
1916:Drivers/BMP580/Src/bmp5.c **** 
1917:Drivers/BMP580/Src/bmp5.c ****             break;
1918:Drivers/BMP580/Src/bmp5.c ****         default:
1919:Drivers/BMP580/Src/bmp5.c ****             sensor_data->pressure = 0.0;
ARM GAS  C:\Users\Nathan\AppData\Local\Temp\ccQWWdhB.s 			page 45


 548              		.loc 1 1919 13 is_stmt 1 view .LVU181
 549              		.loc 1 1919 35 is_stmt 0 view .LVU182
 550 0142 0023     		movs	r3, #0
 551 0144 0360     		str	r3, [r0]	@ float
1920:Drivers/BMP580/Src/bmp5.c ****             sensor_data->temperature = 0.0;
 552              		.loc 1 1920 13 is_stmt 1 view .LVU183
 553              		.loc 1 1920 38 is_stmt 0 view .LVU184
 554 0146 4360     		str	r3, [r0, #4]	@ float
1921:Drivers/BMP580/Src/bmp5.c ****             break;
 555              		.loc 1 1921 13 is_stmt 1 view .LVU185
1793:Drivers/BMP580/Src/bmp5.c ****     int32_t raw_data_t;
 556              		.loc 1 1793 12 is_stmt 0 view .LVU186
 557 0148 0020     		movs	r0, #0
 558              	.LVL64:
 559              	.L25:
1922:Drivers/BMP580/Src/bmp5.c ****     }
1923:Drivers/BMP580/Src/bmp5.c **** 
1924:Drivers/BMP580/Src/bmp5.c ****     return rslt;
 560              		.loc 1 1924 5 is_stmt 1 view .LVU187
1925:Drivers/BMP580/Src/bmp5.c **** }
 561              		.loc 1 1925 1 is_stmt 0 view .LVU188
 562 014a 70BD     		pop	{r4, r5, r6, pc}
 563              	.LVL65:
 564              	.L35:
 565              		.loc 1 1925 1 view .LVU189
 566              		.align	2
 567              	.L34:
 568 014c 0000F03E 		.word	1055916032
 569 0150 0000903F 		.word	1066401792
 570              		.cfi_endproc
 571              	.LFE34:
 573              		.section	.text.bmp5_get_regs,"ax",%progbits
 574              		.align	1
 575              		.global	bmp5_get_regs
 576              		.syntax unified
 577              		.thumb
 578              		.thumb_func
 580              	bmp5_get_regs:
 581              	.LVL66:
 582              	.LFB1:
 342:Drivers/BMP580/Src/bmp5.c ****     int8_t rslt;
 583              		.loc 1 342 1 is_stmt 1 view -0
 584              		.cfi_startproc
 585              		@ args = 0, pretend = 0, frame = 0
 586              		@ frame_needed = 0, uses_anonymous_args = 0
 342:Drivers/BMP580/Src/bmp5.c ****     int8_t rslt;
 587              		.loc 1 342 1 is_stmt 0 view .LVU191
 588 0000 2DE9F041 		push	{r4, r5, r6, r7, r8, lr}
 589              		.cfi_def_cfa_offset 24
 590              		.cfi_offset 4, -24
 591              		.cfi_offset 5, -20
 592              		.cfi_offset 6, -16
 593              		.cfi_offset 7, -12
 594              		.cfi_offset 8, -8
 595              		.cfi_offset 14, -4
 596 0004 0646     		mov	r6, r0
 597 0006 0D46     		mov	r5, r1
ARM GAS  C:\Users\Nathan\AppData\Local\Temp\ccQWWdhB.s 			page 46


 598 0008 9046     		mov	r8, r2
 599 000a 1C46     		mov	r4, r3
 343:Drivers/BMP580/Src/bmp5.c **** 
 600              		.loc 1 343 5 is_stmt 1 view .LVU192
 346:Drivers/BMP580/Src/bmp5.c **** 
 601              		.loc 1 346 5 view .LVU193
 346:Drivers/BMP580/Src/bmp5.c **** 
 602              		.loc 1 346 12 is_stmt 0 view .LVU194
 603 000c 1846     		mov	r0, r3
 604              	.LVL67:
 346:Drivers/BMP580/Src/bmp5.c **** 
 605              		.loc 1 346 12 view .LVU195
 606 000e FFF7FEFF 		bl	null_ptr_check
 607              	.LVL68:
 349:Drivers/BMP580/Src/bmp5.c ****     {
 608              		.loc 1 349 5 is_stmt 1 view .LVU196
 349:Drivers/BMP580/Src/bmp5.c ****     {
 609              		.loc 1 349 8 is_stmt 0 view .LVU197
 610 0012 80B9     		cbnz	r0, .L39
 611 0014 0746     		mov	r7, r0
 349:Drivers/BMP580/Src/bmp5.c ****     {
 612              		.loc 1 349 27 discriminator 1 view .LVU198
 613 0016 8DB1     		cbz	r5, .L40
 351:Drivers/BMP580/Src/bmp5.c ****         {
 614              		.loc 1 351 9 is_stmt 1 view .LVU199
 351:Drivers/BMP580/Src/bmp5.c ****         {
 615              		.loc 1 351 16 is_stmt 0 view .LVU200
 616 0018 637D     		ldrb	r3, [r4, #21]	@ zero_extendqisi2
 351:Drivers/BMP580/Src/bmp5.c ****         {
 617              		.loc 1 351 12 view .LVU201
 618 001a 0BB9     		cbnz	r3, .L38
 354:Drivers/BMP580/Src/bmp5.c ****         }
 619              		.loc 1 354 13 is_stmt 1 view .LVU202
 354:Drivers/BMP580/Src/bmp5.c ****         }
 620              		.loc 1 354 22 is_stmt 0 view .LVU203
 621 001c 46F08006 		orr	r6, r6, #128
 622              	.LVL69:
 623              	.L38:
 358:Drivers/BMP580/Src/bmp5.c **** 
 624              		.loc 1 358 9 is_stmt 1 view .LVU204
 358:Drivers/BMP580/Src/bmp5.c **** 
 625              		.loc 1 358 26 is_stmt 0 view .LVU205
 626 0020 6368     		ldr	r3, [r4, #4]
 627 0022 4246     		mov	r2, r8
 628 0024 2946     		mov	r1, r5
 629 0026 3046     		mov	r0, r6
 630              	.LVL70:
 358:Drivers/BMP580/Src/bmp5.c **** 
 631              		.loc 1 358 26 view .LVU206
 632 0028 A568     		ldr	r5, [r4, #8]
 633              	.LVL71:
 358:Drivers/BMP580/Src/bmp5.c **** 
 634              		.loc 1 358 26 view .LVU207
 635 002a A847     		blx	r5
 636              	.LVL72:
 358:Drivers/BMP580/Src/bmp5.c **** 
 637              		.loc 1 358 24 discriminator 1 view .LVU208
ARM GAS  C:\Users\Nathan\AppData\Local\Temp\ccQWWdhB.s 			page 47


 638 002c 2075     		strb	r0, [r4, #20]
 360:Drivers/BMP580/Src/bmp5.c ****         {
 639              		.loc 1 360 9 is_stmt 1 view .LVU209
 360:Drivers/BMP580/Src/bmp5.c ****         {
 640              		.loc 1 360 12 is_stmt 0 view .LVU210
 641 002e 40B9     		cbnz	r0, .L43
 642              	.LVL73:
 643              	.L37:
 371:Drivers/BMP580/Src/bmp5.c **** }
 644              		.loc 1 371 5 is_stmt 1 view .LVU211
 372:Drivers/BMP580/Src/bmp5.c **** 
 645              		.loc 1 372 1 is_stmt 0 view .LVU212
 646 0030 3846     		mov	r0, r7
 647 0032 BDE8F081 		pop	{r4, r5, r6, r7, r8, pc}
 648              	.LVL74:
 649              	.L39:
 368:Drivers/BMP580/Src/bmp5.c ****     }
 650              		.loc 1 368 14 view .LVU213
 651 0036 4FF0FF37 		mov	r7, #-1
 652 003a F9E7     		b	.L37
 653              	.L40:
 654 003c 4FF0FF37 		mov	r7, #-1
 655 0040 F6E7     		b	.L37
 656              	.LVL75:
 657              	.L43:
 363:Drivers/BMP580/Src/bmp5.c ****         }
 658              		.loc 1 363 18 view .LVU214
 659 0042 6FF00107 		mvn	r7, #1
 660              	.LVL76:
 363:Drivers/BMP580/Src/bmp5.c ****         }
 661              		.loc 1 363 18 view .LVU215
 662 0046 F3E7     		b	.L37
 663              		.cfi_endproc
 664              	.LFE1:
 666              		.section	.text.get_nvm_status,"ax",%progbits
 667              		.align	1
 668              		.syntax unified
 669              		.thumb
 670              		.thumb_func
 672              	get_nvm_status:
 673              	.LVL77:
 674              	.LFB39:
1926:Drivers/BMP580/Src/bmp5.c **** 
1927:Drivers/BMP580/Src/bmp5.c **** /*!
1928:Drivers/BMP580/Src/bmp5.c ****  *  @brief This internal API sets the IIR configuration and count limit of OOR pressure.
1929:Drivers/BMP580/Src/bmp5.c ****  */
1930:Drivers/BMP580/Src/bmp5.c **** static int8_t set_oor_iir_count_limit(uint8_t set_oor_iir_p, uint8_t set_count_limit, struct bmp5_d
1931:Drivers/BMP580/Src/bmp5.c **** {
1932:Drivers/BMP580/Src/bmp5.c ****     int8_t rslt;
1933:Drivers/BMP580/Src/bmp5.c ****     uint8_t reg_data = 0;
1934:Drivers/BMP580/Src/bmp5.c **** 
1935:Drivers/BMP580/Src/bmp5.c ****     /* Variable to store existing powermode */
1936:Drivers/BMP580/Src/bmp5.c ****     enum bmp5_powermode curr_pwrmode;
1937:Drivers/BMP580/Src/bmp5.c **** 
1938:Drivers/BMP580/Src/bmp5.c ****     rslt = bmp5_get_power_mode(&curr_pwrmode, dev);
1939:Drivers/BMP580/Src/bmp5.c **** 
1940:Drivers/BMP580/Src/bmp5.c ****     if (rslt == BMP5_OK)
ARM GAS  C:\Users\Nathan\AppData\Local\Temp\ccQWWdhB.s 			page 48


1941:Drivers/BMP580/Src/bmp5.c ****     {
1942:Drivers/BMP580/Src/bmp5.c ****         /* OOR IIR configuration and count limit is writable only during STANDBY mode(as per datash
1943:Drivers/BMP580/Src/bmp5.c ****         if (curr_pwrmode != BMP5_POWERMODE_STANDBY)
1944:Drivers/BMP580/Src/bmp5.c ****         {
1945:Drivers/BMP580/Src/bmp5.c ****             /* If sensor is not in standby mode, set sensor in standby mode */
1946:Drivers/BMP580/Src/bmp5.c ****             rslt = bmp5_set_power_mode(BMP5_POWERMODE_STANDBY, dev);
1947:Drivers/BMP580/Src/bmp5.c ****         }
1948:Drivers/BMP580/Src/bmp5.c **** 
1949:Drivers/BMP580/Src/bmp5.c ****         if (rslt == BMP5_OK)
1950:Drivers/BMP580/Src/bmp5.c ****         {
1951:Drivers/BMP580/Src/bmp5.c ****             /* Get OOR pressure IIR configuration */
1952:Drivers/BMP580/Src/bmp5.c ****             rslt = bmp5_get_regs(BMP5_REG_DSP_CONFIG, &reg_data, 1, dev);
1953:Drivers/BMP580/Src/bmp5.c **** 
1954:Drivers/BMP580/Src/bmp5.c ****             if (rslt == BMP5_OK)
1955:Drivers/BMP580/Src/bmp5.c ****             {
1956:Drivers/BMP580/Src/bmp5.c ****                 reg_data = BMP5_SET_BITSLICE(reg_data, BMP5_OOR_SEL_IIR_PRESS, set_oor_iir_p);
1957:Drivers/BMP580/Src/bmp5.c **** 
1958:Drivers/BMP580/Src/bmp5.c ****                 /* Set OOR pressure IIR configuration */
1959:Drivers/BMP580/Src/bmp5.c ****                 rslt = bmp5_set_regs(BMP5_REG_DSP_CONFIG, &reg_data, 1, dev);
1960:Drivers/BMP580/Src/bmp5.c ****             }
1961:Drivers/BMP580/Src/bmp5.c **** 
1962:Drivers/BMP580/Src/bmp5.c ****             if (rslt == BMP5_OK)
1963:Drivers/BMP580/Src/bmp5.c ****             {
1964:Drivers/BMP580/Src/bmp5.c ****                 /* Get OOR pressure count limit */
1965:Drivers/BMP580/Src/bmp5.c ****                 rslt = bmp5_get_regs(BMP5_REG_OOR_CONFIG, &reg_data, 1, dev);
1966:Drivers/BMP580/Src/bmp5.c ****             }
1967:Drivers/BMP580/Src/bmp5.c **** 
1968:Drivers/BMP580/Src/bmp5.c ****             if (rslt == BMP5_OK)
1969:Drivers/BMP580/Src/bmp5.c ****             {
1970:Drivers/BMP580/Src/bmp5.c ****                 reg_data = BMP5_SET_BITSLICE(reg_data, BMP5_OOR_COUNT_LIMIT, set_count_limit);
1971:Drivers/BMP580/Src/bmp5.c ****             }
1972:Drivers/BMP580/Src/bmp5.c **** 
1973:Drivers/BMP580/Src/bmp5.c ****             if (rslt == BMP5_OK)
1974:Drivers/BMP580/Src/bmp5.c ****             {
1975:Drivers/BMP580/Src/bmp5.c ****                 /* Set OOR pressure count limit */
1976:Drivers/BMP580/Src/bmp5.c ****                 rslt = bmp5_set_regs(BMP5_REG_OOR_CONFIG, &reg_data, 1, dev);
1977:Drivers/BMP580/Src/bmp5.c ****             }
1978:Drivers/BMP580/Src/bmp5.c ****         }
1979:Drivers/BMP580/Src/bmp5.c **** 
1980:Drivers/BMP580/Src/bmp5.c ****         /* If previous mode is not standbymode return sensor to that previous mode
1981:Drivers/BMP580/Src/bmp5.c ****          * after setting oor iir configuration and count limit
1982:Drivers/BMP580/Src/bmp5.c ****          */
1983:Drivers/BMP580/Src/bmp5.c ****         if (rslt == BMP5_OK)
1984:Drivers/BMP580/Src/bmp5.c ****         {
1985:Drivers/BMP580/Src/bmp5.c ****             /* Since oor IIR and count limit works only in standby mode we are not re-writing to de
1986:Drivers/BMP580/Src/bmp5.c ****              * as deep standby mode resets the oor iir configuration and count limit to default
1987:Drivers/BMP580/Src/bmp5.c ****              */
1988:Drivers/BMP580/Src/bmp5.c ****             if ((curr_pwrmode != BMP5_POWERMODE_STANDBY) && (curr_pwrmode != BMP5_POWERMODE_DEEP_ST
1989:Drivers/BMP580/Src/bmp5.c ****             {
1990:Drivers/BMP580/Src/bmp5.c ****                 rslt = bmp5_set_power_mode(curr_pwrmode, dev);
1991:Drivers/BMP580/Src/bmp5.c ****             }
1992:Drivers/BMP580/Src/bmp5.c ****         }
1993:Drivers/BMP580/Src/bmp5.c ****     }
1994:Drivers/BMP580/Src/bmp5.c **** 
1995:Drivers/BMP580/Src/bmp5.c ****     return rslt;
1996:Drivers/BMP580/Src/bmp5.c **** }
1997:Drivers/BMP580/Src/bmp5.c **** 
ARM GAS  C:\Users\Nathan\AppData\Local\Temp\ccQWWdhB.s 			page 49


1998:Drivers/BMP580/Src/bmp5.c **** /*!
1999:Drivers/BMP580/Src/bmp5.c ****  * @brief This internal API is used to write the nvm address and prog_en.
2000:Drivers/BMP580/Src/bmp5.c ****  */
2001:Drivers/BMP580/Src/bmp5.c **** static int8_t nvm_write_addr(uint8_t nvm_addr, uint8_t prog_en, enum bmp5_powermode *curr_pwrmode, 
2002:Drivers/BMP580/Src/bmp5.c **** {
2003:Drivers/BMP580/Src/bmp5.c ****     int8_t rslt;
2004:Drivers/BMP580/Src/bmp5.c **** 
2005:Drivers/BMP580/Src/bmp5.c ****     if ((nvm_addr >= BMP5_NVM_START_ADDR) && (nvm_addr <= BMP5_NVM_END_ADDR))
2006:Drivers/BMP580/Src/bmp5.c ****     {
2007:Drivers/BMP580/Src/bmp5.c ****         /* Get current powermode */
2008:Drivers/BMP580/Src/bmp5.c ****         rslt = bmp5_get_power_mode(curr_pwrmode, dev);
2009:Drivers/BMP580/Src/bmp5.c **** 
2010:Drivers/BMP580/Src/bmp5.c ****         if (rslt == BMP5_OK)
2011:Drivers/BMP580/Src/bmp5.c ****         {
2012:Drivers/BMP580/Src/bmp5.c ****             /* NVM write can be performed only during STANDBY mode */
2013:Drivers/BMP580/Src/bmp5.c ****             if (*curr_pwrmode != BMP5_POWERMODE_STANDBY)
2014:Drivers/BMP580/Src/bmp5.c ****             {
2015:Drivers/BMP580/Src/bmp5.c ****                 /* If sensor is not in standby mode, set sensor in standby mode */
2016:Drivers/BMP580/Src/bmp5.c ****                 rslt = bmp5_set_power_mode(BMP5_POWERMODE_STANDBY, dev);
2017:Drivers/BMP580/Src/bmp5.c ****             }
2018:Drivers/BMP580/Src/bmp5.c **** 
2019:Drivers/BMP580/Src/bmp5.c ****             if (rslt == BMP5_OK)
2020:Drivers/BMP580/Src/bmp5.c ****             {
2021:Drivers/BMP580/Src/bmp5.c ****                 /* Write the NVM address and set NVM prog_en with respect to NVM read/write selecte
2022:Drivers/BMP580/Src/bmp5.c ****                 rslt = set_nvm_addr(nvm_addr, prog_en, dev);
2023:Drivers/BMP580/Src/bmp5.c ****             }
2024:Drivers/BMP580/Src/bmp5.c ****         }
2025:Drivers/BMP580/Src/bmp5.c ****     }
2026:Drivers/BMP580/Src/bmp5.c ****     else
2027:Drivers/BMP580/Src/bmp5.c ****     {
2028:Drivers/BMP580/Src/bmp5.c ****         rslt = BMP5_E_NVM_INVALID_ADDR;
2029:Drivers/BMP580/Src/bmp5.c ****     }
2030:Drivers/BMP580/Src/bmp5.c **** 
2031:Drivers/BMP580/Src/bmp5.c ****     return rslt;
2032:Drivers/BMP580/Src/bmp5.c **** }
2033:Drivers/BMP580/Src/bmp5.c **** 
2034:Drivers/BMP580/Src/bmp5.c **** /*!
2035:Drivers/BMP580/Src/bmp5.c ****  * @brief This internal API is used to set the nvm address and prog_enable based on NVM read/write 
2036:Drivers/BMP580/Src/bmp5.c ****  */
2037:Drivers/BMP580/Src/bmp5.c **** static int8_t set_nvm_addr(uint8_t nvm_addr, uint8_t prog_en, struct bmp5_dev *dev)
2038:Drivers/BMP580/Src/bmp5.c **** {
2039:Drivers/BMP580/Src/bmp5.c ****     int8_t rslt;
2040:Drivers/BMP580/Src/bmp5.c ****     uint8_t nvm_status;
2041:Drivers/BMP580/Src/bmp5.c ****     uint8_t reg_data;
2042:Drivers/BMP580/Src/bmp5.c **** 
2043:Drivers/BMP580/Src/bmp5.c ****     /* Check if NVM ready status = 1 */
2044:Drivers/BMP580/Src/bmp5.c ****     rslt = get_nvm_status(&nvm_status, dev);
2045:Drivers/BMP580/Src/bmp5.c **** 
2046:Drivers/BMP580/Src/bmp5.c ****     if (nvm_status & BMP5_INT_NVM_RDY)
2047:Drivers/BMP580/Src/bmp5.c ****     {
2048:Drivers/BMP580/Src/bmp5.c ****         rslt = bmp5_get_regs(BMP5_REG_NVM_ADDR, &reg_data, 1, dev);
2049:Drivers/BMP580/Src/bmp5.c **** 
2050:Drivers/BMP580/Src/bmp5.c ****         if (rslt == BMP5_OK)
2051:Drivers/BMP580/Src/bmp5.c ****         {
2052:Drivers/BMP580/Src/bmp5.c ****             /* Write the NVM address */
2053:Drivers/BMP580/Src/bmp5.c ****             reg_data = BMP5_SET_BITS_POS_0(reg_data, BMP5_NVM_ADDR, nvm_addr);
2054:Drivers/BMP580/Src/bmp5.c **** 
ARM GAS  C:\Users\Nathan\AppData\Local\Temp\ccQWWdhB.s 			page 50


2055:Drivers/BMP580/Src/bmp5.c ****             if (prog_en == BMP5_ENABLE)
2056:Drivers/BMP580/Src/bmp5.c ****             {
2057:Drivers/BMP580/Src/bmp5.c ****                 /* Set bit nvm_prog_en as 1 if NVM write is selected */
2058:Drivers/BMP580/Src/bmp5.c ****                 reg_data = BMP5_SET_BITSLICE(reg_data, BMP5_NVM_PROG_EN, prog_en);
2059:Drivers/BMP580/Src/bmp5.c ****             }
2060:Drivers/BMP580/Src/bmp5.c ****             else
2061:Drivers/BMP580/Src/bmp5.c ****             {
2062:Drivers/BMP580/Src/bmp5.c ****                 /* Set bit nvm_prog_en as 0 if NVM read is selected */
2063:Drivers/BMP580/Src/bmp5.c ****                 reg_data = BMP5_SET_BIT_VAL_0(reg_data, BMP5_NVM_PROG_EN);
2064:Drivers/BMP580/Src/bmp5.c ****             }
2065:Drivers/BMP580/Src/bmp5.c **** 
2066:Drivers/BMP580/Src/bmp5.c ****             rslt = bmp5_set_regs(BMP5_REG_NVM_ADDR, &reg_data, 1, dev);
2067:Drivers/BMP580/Src/bmp5.c ****         }
2068:Drivers/BMP580/Src/bmp5.c ****     }
2069:Drivers/BMP580/Src/bmp5.c ****     else
2070:Drivers/BMP580/Src/bmp5.c ****     {
2071:Drivers/BMP580/Src/bmp5.c ****         rslt = BMP5_E_NVM_NOT_READY;
2072:Drivers/BMP580/Src/bmp5.c ****     }
2073:Drivers/BMP580/Src/bmp5.c **** 
2074:Drivers/BMP580/Src/bmp5.c ****     return rslt;
2075:Drivers/BMP580/Src/bmp5.c **** }
2076:Drivers/BMP580/Src/bmp5.c **** 
2077:Drivers/BMP580/Src/bmp5.c **** /*!
2078:Drivers/BMP580/Src/bmp5.c ****  * @brief This internal API is used to read the nvm data.
2079:Drivers/BMP580/Src/bmp5.c ****  */
2080:Drivers/BMP580/Src/bmp5.c **** static int8_t get_nvm_data(uint16_t *nvm_data, struct bmp5_dev *dev)
2081:Drivers/BMP580/Src/bmp5.c **** {
2082:Drivers/BMP580/Src/bmp5.c ****     int8_t rslt;
2083:Drivers/BMP580/Src/bmp5.c ****     uint8_t nvm_status;
2084:Drivers/BMP580/Src/bmp5.c ****     uint8_t nvmdata[2];
2085:Drivers/BMP580/Src/bmp5.c **** 
2086:Drivers/BMP580/Src/bmp5.c ****     if (nvm_data != NULL)
2087:Drivers/BMP580/Src/bmp5.c ****     {
2088:Drivers/BMP580/Src/bmp5.c ****         rslt = get_nvm_status(&nvm_status, dev);
2089:Drivers/BMP580/Src/bmp5.c **** 
2090:Drivers/BMP580/Src/bmp5.c ****         /* Check if NVM ready status = 1, NVM error status = 0 and NVM command error status = 0 */
2091:Drivers/BMP580/Src/bmp5.c ****         if ((nvm_status & BMP5_INT_NVM_RDY) && (!(nvm_status & BMP5_INT_NVM_ERR)) &&
2092:Drivers/BMP580/Src/bmp5.c ****             (!(nvm_status & BMP5_INT_NVM_CMD_ERR)))
2093:Drivers/BMP580/Src/bmp5.c ****         {
2094:Drivers/BMP580/Src/bmp5.c ****             /* Read the NVM data from the register address */
2095:Drivers/BMP580/Src/bmp5.c ****             rslt = bmp5_get_regs(BMP5_REG_NVM_DATA_LSB, nvmdata, 2, dev);
2096:Drivers/BMP580/Src/bmp5.c **** 
2097:Drivers/BMP580/Src/bmp5.c ****             (*nvm_data) = (uint16_t)((nvmdata[1] << 8) | nvmdata[0]);
2098:Drivers/BMP580/Src/bmp5.c ****         }
2099:Drivers/BMP580/Src/bmp5.c ****         else
2100:Drivers/BMP580/Src/bmp5.c ****         {
2101:Drivers/BMP580/Src/bmp5.c ****             rslt = BMP5_E_NVM_NOT_READY;
2102:Drivers/BMP580/Src/bmp5.c ****         }
2103:Drivers/BMP580/Src/bmp5.c ****     }
2104:Drivers/BMP580/Src/bmp5.c ****     else
2105:Drivers/BMP580/Src/bmp5.c ****     {
2106:Drivers/BMP580/Src/bmp5.c ****         rslt = BMP5_E_NULL_PTR;
2107:Drivers/BMP580/Src/bmp5.c ****     }
2108:Drivers/BMP580/Src/bmp5.c **** 
2109:Drivers/BMP580/Src/bmp5.c ****     return rslt;
2110:Drivers/BMP580/Src/bmp5.c **** }
2111:Drivers/BMP580/Src/bmp5.c **** 
ARM GAS  C:\Users\Nathan\AppData\Local\Temp\ccQWWdhB.s 			page 51


2112:Drivers/BMP580/Src/bmp5.c **** /*!
2113:Drivers/BMP580/Src/bmp5.c ****  *  @brief This API is used to get nvm status.
2114:Drivers/BMP580/Src/bmp5.c ****  */
2115:Drivers/BMP580/Src/bmp5.c **** static int8_t get_nvm_status(uint8_t *nvm_status, struct bmp5_dev *dev)
2116:Drivers/BMP580/Src/bmp5.c **** {
 675              		.loc 1 2116 1 is_stmt 1 view -0
 676              		.cfi_startproc
 677              		@ args = 0, pretend = 0, frame = 0
 678              		@ frame_needed = 0, uses_anonymous_args = 0
2117:Drivers/BMP580/Src/bmp5.c ****     int8_t rslt;
 679              		.loc 1 2117 5 view .LVU217
2118:Drivers/BMP580/Src/bmp5.c **** 
2119:Drivers/BMP580/Src/bmp5.c ****     if (nvm_status != NULL)
 680              		.loc 1 2119 5 view .LVU218
 681              		.loc 1 2119 8 is_stmt 0 view .LVU219
 682 0000 38B1     		cbz	r0, .L46
2116:Drivers/BMP580/Src/bmp5.c ****     int8_t rslt;
 683              		.loc 1 2116 1 view .LVU220
 684 0002 08B5     		push	{r3, lr}
 685              		.cfi_def_cfa_offset 8
 686              		.cfi_offset 3, -8
 687              		.cfi_offset 14, -4
 688 0004 0B46     		mov	r3, r1
 689 0006 0146     		mov	r1, r0
 690              	.LVL78:
2120:Drivers/BMP580/Src/bmp5.c ****     {
2121:Drivers/BMP580/Src/bmp5.c ****         rslt = bmp5_get_regs(BMP5_REG_STATUS, nvm_status, 1, dev);
 691              		.loc 1 2121 9 is_stmt 1 view .LVU221
 692              		.loc 1 2121 16 is_stmt 0 view .LVU222
 693 0008 0122     		movs	r2, #1
 694 000a 2820     		movs	r0, #40
 695              	.LVL79:
 696              		.loc 1 2121 16 view .LVU223
 697 000c FFF7FEFF 		bl	bmp5_get_regs
 698              	.LVL80:
2122:Drivers/BMP580/Src/bmp5.c ****     }
2123:Drivers/BMP580/Src/bmp5.c ****     else
2124:Drivers/BMP580/Src/bmp5.c ****     {
2125:Drivers/BMP580/Src/bmp5.c ****         rslt = BMP5_E_NULL_PTR;
2126:Drivers/BMP580/Src/bmp5.c ****     }
2127:Drivers/BMP580/Src/bmp5.c **** 
2128:Drivers/BMP580/Src/bmp5.c ****     return rslt;
 699              		.loc 1 2128 5 is_stmt 1 view .LVU224
2129:Drivers/BMP580/Src/bmp5.c **** }
 700              		.loc 1 2129 1 is_stmt 0 view .LVU225
 701 0010 08BD     		pop	{r3, pc}
 702              	.LVL81:
 703              	.L46:
 704              		.cfi_def_cfa_offset 0
 705              		.cfi_restore 3
 706              		.cfi_restore 14
2125:Drivers/BMP580/Src/bmp5.c ****     }
 707              		.loc 1 2125 14 view .LVU226
 708 0012 4FF0FF30 		mov	r0, #-1
 709              	.LVL82:
2128:Drivers/BMP580/Src/bmp5.c **** }
 710              		.loc 1 2128 5 is_stmt 1 view .LVU227
ARM GAS  C:\Users\Nathan\AppData\Local\Temp\ccQWWdhB.s 			page 52


 711              		.loc 1 2129 1 is_stmt 0 view .LVU228
 712 0016 7047     		bx	lr
 713              		.cfi_endproc
 714              	.LFE39:
 716              		.section	.text.get_nvm_data,"ax",%progbits
 717              		.align	1
 718              		.syntax unified
 719              		.thumb
 720              		.thumb_func
 722              	get_nvm_data:
 723              	.LVL83:
 724              	.LFB38:
2081:Drivers/BMP580/Src/bmp5.c ****     int8_t rslt;
 725              		.loc 1 2081 1 is_stmt 1 view -0
 726              		.cfi_startproc
 727              		@ args = 0, pretend = 0, frame = 8
 728              		@ frame_needed = 0, uses_anonymous_args = 0
2082:Drivers/BMP580/Src/bmp5.c ****     uint8_t nvm_status;
 729              		.loc 1 2082 5 view .LVU230
2083:Drivers/BMP580/Src/bmp5.c ****     uint8_t nvmdata[2];
 730              		.loc 1 2083 5 view .LVU231
2084:Drivers/BMP580/Src/bmp5.c **** 
 731              		.loc 1 2084 5 view .LVU232
2086:Drivers/BMP580/Src/bmp5.c ****     {
 732              		.loc 1 2086 5 view .LVU233
2086:Drivers/BMP580/Src/bmp5.c ****     {
 733              		.loc 1 2086 8 is_stmt 0 view .LVU234
 734 0000 F0B1     		cbz	r0, .L53
2081:Drivers/BMP580/Src/bmp5.c ****     int8_t rslt;
 735              		.loc 1 2081 1 view .LVU235
 736 0002 30B5     		push	{r4, r5, lr}
 737              		.cfi_def_cfa_offset 12
 738              		.cfi_offset 4, -12
 739              		.cfi_offset 5, -8
 740              		.cfi_offset 14, -4
 741 0004 83B0     		sub	sp, sp, #12
 742              		.cfi_def_cfa_offset 24
 743 0006 0C46     		mov	r4, r1
 744 0008 0546     		mov	r5, r0
2088:Drivers/BMP580/Src/bmp5.c **** 
 745              		.loc 1 2088 9 is_stmt 1 view .LVU236
2088:Drivers/BMP580/Src/bmp5.c **** 
 746              		.loc 1 2088 16 is_stmt 0 view .LVU237
 747 000a 0DF10700 		add	r0, sp, #7
 748              	.LVL84:
2088:Drivers/BMP580/Src/bmp5.c **** 
 749              		.loc 1 2088 16 view .LVU238
 750 000e FFF7FEFF 		bl	get_nvm_status
 751              	.LVL85:
2091:Drivers/BMP580/Src/bmp5.c ****             (!(nvm_status & BMP5_INT_NVM_CMD_ERR)))
 752              		.loc 1 2091 9 is_stmt 1 view .LVU239
2091:Drivers/BMP580/Src/bmp5.c ****             (!(nvm_status & BMP5_INT_NVM_CMD_ERR)))
 753              		.loc 1 2091 45 is_stmt 0 view .LVU240
 754 0012 9DF80730 		ldrb	r3, [sp, #7]	@ zero_extendqisi2
2091:Drivers/BMP580/Src/bmp5.c ****             (!(nvm_status & BMP5_INT_NVM_CMD_ERR)))
 755              		.loc 1 2091 12 view .LVU241
 756 0016 03F00602 		and	r2, r3, #6
ARM GAS  C:\Users\Nathan\AppData\Local\Temp\ccQWWdhB.s 			page 53


 757 001a 022A     		cmp	r2, #2
 758 001c 13D1     		bne	.L54
2091:Drivers/BMP580/Src/bmp5.c ****             (!(nvm_status & BMP5_INT_NVM_CMD_ERR)))
 759              		.loc 1 2091 83 discriminator 1 view .LVU242
 760 001e 13F0080F 		tst	r3, #8
 761 0022 13D1     		bne	.L55
2095:Drivers/BMP580/Src/bmp5.c **** 
 762              		.loc 1 2095 13 is_stmt 1 view .LVU243
2095:Drivers/BMP580/Src/bmp5.c **** 
 763              		.loc 1 2095 20 is_stmt 0 view .LVU244
 764 0024 2346     		mov	r3, r4
 765 0026 01A9     		add	r1, sp, #4
 766 0028 2C20     		movs	r0, #44
 767 002a FFF7FEFF 		bl	bmp5_get_regs
 768              	.LVL86:
2097:Drivers/BMP580/Src/bmp5.c ****         }
 769              		.loc 1 2097 13 is_stmt 1 view .LVU245
2097:Drivers/BMP580/Src/bmp5.c ****         }
 770              		.loc 1 2097 46 is_stmt 0 view .LVU246
 771 002e 9DF80520 		ldrb	r2, [sp, #5]	@ zero_extendqisi2
2097:Drivers/BMP580/Src/bmp5.c ****         }
 772              		.loc 1 2097 65 view .LVU247
 773 0032 9DF80430 		ldrb	r3, [sp, #4]	@ zero_extendqisi2
2097:Drivers/BMP580/Src/bmp5.c ****         }
 774              		.loc 1 2097 27 view .LVU248
 775 0036 43EA0223 		orr	r3, r3, r2, lsl #8
2097:Drivers/BMP580/Src/bmp5.c ****         }
 776              		.loc 1 2097 25 view .LVU249
 777 003a 2B80     		strh	r3, [r5]	@ movhi
 778              	.LVL87:
 779              	.L52:
2109:Drivers/BMP580/Src/bmp5.c **** }
 780              		.loc 1 2109 5 is_stmt 1 view .LVU250
2110:Drivers/BMP580/Src/bmp5.c **** 
 781              		.loc 1 2110 1 is_stmt 0 view .LVU251
 782 003c 03B0     		add	sp, sp, #12
 783              		.cfi_def_cfa_offset 12
 784              		@ sp needed
 785 003e 30BD     		pop	{r4, r5, pc}
 786              	.LVL88:
 787              	.L53:
 788              		.cfi_def_cfa_offset 0
 789              		.cfi_restore 4
 790              		.cfi_restore 5
 791              		.cfi_restore 14
2106:Drivers/BMP580/Src/bmp5.c ****     }
 792              		.loc 1 2106 14 view .LVU252
 793 0040 4FF0FF30 		mov	r0, #-1
 794              	.LVL89:
2109:Drivers/BMP580/Src/bmp5.c **** }
 795              		.loc 1 2109 5 is_stmt 1 view .LVU253
2110:Drivers/BMP580/Src/bmp5.c **** 
 796              		.loc 1 2110 1 is_stmt 0 view .LVU254
 797 0044 7047     		bx	lr
 798              	.LVL90:
 799              	.L54:
 800              		.cfi_def_cfa_offset 24
ARM GAS  C:\Users\Nathan\AppData\Local\Temp\ccQWWdhB.s 			page 54


 801              		.cfi_offset 4, -12
 802              		.cfi_offset 5, -8
 803              		.cfi_offset 14, -4
2101:Drivers/BMP580/Src/bmp5.c ****         }
 804              		.loc 1 2101 18 view .LVU255
 805 0046 6FF00A00 		mvn	r0, #10
 806 004a F7E7     		b	.L52
 807              	.L55:
 808 004c 6FF00A00 		mvn	r0, #10
 809 0050 F4E7     		b	.L52
 810              		.cfi_endproc
 811              	.LFE38:
 813              		.section	.text.bmp5_set_regs,"ax",%progbits
 814              		.align	1
 815              		.global	bmp5_set_regs
 816              		.syntax unified
 817              		.thumb
 818              		.thumb_func
 820              	bmp5_set_regs:
 821              	.LVL91:
 822              	.LFB2:
 379:Drivers/BMP580/Src/bmp5.c ****     int8_t rslt;
 823              		.loc 1 379 1 is_stmt 1 view -0
 824              		.cfi_startproc
 825              		@ args = 0, pretend = 0, frame = 0
 826              		@ frame_needed = 0, uses_anonymous_args = 0
 379:Drivers/BMP580/Src/bmp5.c ****     int8_t rslt;
 827              		.loc 1 379 1 is_stmt 0 view .LVU257
 828 0000 2DE9F047 		push	{r4, r5, r6, r7, r8, r9, r10, lr}
 829              		.cfi_def_cfa_offset 32
 830              		.cfi_offset 4, -32
 831              		.cfi_offset 5, -28
 832              		.cfi_offset 6, -24
 833              		.cfi_offset 7, -20
 834              		.cfi_offset 8, -16
 835              		.cfi_offset 9, -12
 836              		.cfi_offset 10, -8
 837              		.cfi_offset 14, -4
 838 0004 8246     		mov	r10, r0
 839 0006 0E46     		mov	r6, r1
 840 0008 9046     		mov	r8, r2
 841 000a 1D46     		mov	r5, r3
 380:Drivers/BMP580/Src/bmp5.c ****     uint8_t idx = 0;
 842              		.loc 1 380 5 is_stmt 1 view .LVU258
 381:Drivers/BMP580/Src/bmp5.c **** 
 843              		.loc 1 381 5 view .LVU259
 844              	.LVL92:
 384:Drivers/BMP580/Src/bmp5.c **** 
 845              		.loc 1 384 5 view .LVU260
 384:Drivers/BMP580/Src/bmp5.c **** 
 846              		.loc 1 384 12 is_stmt 0 view .LVU261
 847 000c 1846     		mov	r0, r3
 848              	.LVL93:
 384:Drivers/BMP580/Src/bmp5.c **** 
 849              		.loc 1 384 12 view .LVU262
 850 000e FFF7FEFF 		bl	null_ptr_check
 851              	.LVL94:
ARM GAS  C:\Users\Nathan\AppData\Local\Temp\ccQWWdhB.s 			page 55


 387:Drivers/BMP580/Src/bmp5.c ****     {
 852              		.loc 1 387 5 is_stmt 1 view .LVU263
 387:Drivers/BMP580/Src/bmp5.c ****     {
 853              		.loc 1 387 8 is_stmt 0 view .LVU264
 854 0012 28BB     		cbnz	r0, .L65
 855 0014 8146     		mov	r9, r0
 387:Drivers/BMP580/Src/bmp5.c ****     {
 856              		.loc 1 387 27 discriminator 1 view .LVU265
 857 0016 36B3     		cbz	r6, .L66
 389:Drivers/BMP580/Src/bmp5.c ****         {
 858              		.loc 1 389 9 is_stmt 1 view .LVU266
 389:Drivers/BMP580/Src/bmp5.c ****         {
 859              		.loc 1 389 16 is_stmt 0 view .LVU267
 860 0018 6C7D     		ldrb	r4, [r5, #21]	@ zero_extendqisi2
 389:Drivers/BMP580/Src/bmp5.c ****         {
 861              		.loc 1 389 12 view .LVU268
 862 001a 7CB9     		cbnz	r4, .L62
 863              	.LVL95:
 864              	.L64:
 392:Drivers/BMP580/Src/bmp5.c ****             {
 865              		.loc 1 392 13 is_stmt 1 view .LVU269
 394:Drivers/BMP580/Src/bmp5.c ****                 idx++;
 866              		.loc 1 394 17 view .LVU270
 394:Drivers/BMP580/Src/bmp5.c ****                 idx++;
 867              		.loc 1 394 34 is_stmt 0 view .LVU271
 868 001c 04EB0A00 		add	r0, r4, r10
 869 0020 6B68     		ldr	r3, [r5, #4]
 870 0022 0122     		movs	r2, #1
 871 0024 3119     		adds	r1, r6, r4
 872 0026 C0B2     		uxtb	r0, r0
 873 0028 EF68     		ldr	r7, [r5, #12]
 874 002a B847     		blx	r7
 875              	.LVL96:
 394:Drivers/BMP580/Src/bmp5.c ****                 idx++;
 876              		.loc 1 394 32 discriminator 1 view .LVU272
 877 002c 2875     		strb	r0, [r5, #20]
 395:Drivers/BMP580/Src/bmp5.c ****             } while ((idx < len) && (dev->intf_rslt == BMP5_INTF_RET_SUCCESS));
 878              		.loc 1 395 17 is_stmt 1 view .LVU273
 395:Drivers/BMP580/Src/bmp5.c ****             } while ((idx < len) && (dev->intf_rslt == BMP5_INTF_RET_SUCCESS));
 879              		.loc 1 395 20 is_stmt 0 view .LVU274
 880 002e 0134     		adds	r4, r4, #1
 881              	.LVL97:
 395:Drivers/BMP580/Src/bmp5.c ****             } while ((idx < len) && (dev->intf_rslt == BMP5_INTF_RET_SUCCESS));
 882              		.loc 1 395 20 view .LVU275
 883 0030 E4B2     		uxtb	r4, r4
 884              	.LVL98:
 396:Drivers/BMP580/Src/bmp5.c ****         }
 885              		.loc 1 396 34 is_stmt 1 discriminator 2 view .LVU276
 886 0032 4445     		cmp	r4, r8
 887 0034 06D2     		bcs	.L63
 396:Drivers/BMP580/Src/bmp5.c ****         }
 888              		.loc 1 396 34 is_stmt 0 discriminator 1 view .LVU277
 889 0036 0028     		cmp	r0, #0
 890 0038 F0D0     		beq	.L64
 891 003a 03E0     		b	.L63
 892              	.LVL99:
 893              	.L62:
ARM GAS  C:\Users\Nathan\AppData\Local\Temp\ccQWWdhB.s 			page 56


 398:Drivers/BMP580/Src/bmp5.c ****         {
 894              		.loc 1 398 14 is_stmt 1 view .LVU278
 398:Drivers/BMP580/Src/bmp5.c ****         {
 895              		.loc 1 398 47 is_stmt 0 view .LVU279
 896 003c 013C     		subs	r4, r4, #1
 897 003e E4B2     		uxtb	r4, r4
 398:Drivers/BMP580/Src/bmp5.c ****         {
 898              		.loc 1 398 17 view .LVU280
 899 0040 012C     		cmp	r4, #1
 900 0042 05D9     		bls	.L69
 901              	.LVL100:
 902              	.L63:
 404:Drivers/BMP580/Src/bmp5.c ****         {
 903              		.loc 1 404 9 is_stmt 1 view .LVU281
 404:Drivers/BMP580/Src/bmp5.c ****         {
 904              		.loc 1 404 16 is_stmt 0 view .LVU282
 905 0044 95F91430 		ldrsb	r3, [r5, #20]
 404:Drivers/BMP580/Src/bmp5.c ****         {
 906              		.loc 1 404 12 view .LVU283
 907 0048 83B9     		cbnz	r3, .L70
 908              	.LVL101:
 909              	.L61:
 415:Drivers/BMP580/Src/bmp5.c **** }
 910              		.loc 1 415 5 is_stmt 1 view .LVU284
 416:Drivers/BMP580/Src/bmp5.c **** 
 911              		.loc 1 416 1 is_stmt 0 view .LVU285
 912 004a 4846     		mov	r0, r9
 913 004c BDE8F087 		pop	{r4, r5, r6, r7, r8, r9, r10, pc}
 914              	.LVL102:
 915              	.L69:
 401:Drivers/BMP580/Src/bmp5.c ****         }
 916              		.loc 1 401 13 is_stmt 1 view .LVU286
 401:Drivers/BMP580/Src/bmp5.c ****         }
 917              		.loc 1 401 33 is_stmt 0 view .LVU287
 918 0050 EC68     		ldr	r4, [r5, #12]
 401:Drivers/BMP580/Src/bmp5.c ****         }
 919              		.loc 1 401 30 view .LVU288
 920 0052 6B68     		ldr	r3, [r5, #4]
 921 0054 4246     		mov	r2, r8
 922 0056 3146     		mov	r1, r6
 923 0058 5046     		mov	r0, r10
 924              	.LVL103:
 401:Drivers/BMP580/Src/bmp5.c ****         }
 925              		.loc 1 401 30 view .LVU289
 926 005a A047     		blx	r4
 927              	.LVL104:
 401:Drivers/BMP580/Src/bmp5.c ****         }
 928              		.loc 1 401 28 discriminator 1 view .LVU290
 929 005c 2875     		strb	r0, [r5, #20]
 930 005e F1E7     		b	.L63
 931              	.LVL105:
 932              	.L65:
 412:Drivers/BMP580/Src/bmp5.c ****     }
 933              		.loc 1 412 14 view .LVU291
 934 0060 4FF0FF39 		mov	r9, #-1
 935 0064 F1E7     		b	.L61
 936              	.L66:
ARM GAS  C:\Users\Nathan\AppData\Local\Temp\ccQWWdhB.s 			page 57


 937 0066 4FF0FF39 		mov	r9, #-1
 938 006a EEE7     		b	.L61
 939              	.LVL106:
 940              	.L70:
 407:Drivers/BMP580/Src/bmp5.c ****         }
 941              		.loc 1 407 18 view .LVU292
 942 006c 6FF00109 		mvn	r9, #1
 943              	.LVL107:
 407:Drivers/BMP580/Src/bmp5.c ****         }
 944              		.loc 1 407 18 view .LVU293
 945 0070 EBE7     		b	.L61
 946              		.cfi_endproc
 947              	.LFE2:
 949              		.section	.text.set_deep_standby_mode,"ax",%progbits
 950              		.align	1
 951              		.syntax unified
 952              		.thumb
 953              		.thumb_func
 955              	set_deep_standby_mode:
 956              	.LVL108:
 957              	.LFB28:
1545:Drivers/BMP580/Src/bmp5.c ****     int8_t rslt;
 958              		.loc 1 1545 1 is_stmt 1 view -0
 959              		.cfi_startproc
 960              		@ args = 0, pretend = 0, frame = 8
 961              		@ frame_needed = 0, uses_anonymous_args = 0
1545:Drivers/BMP580/Src/bmp5.c ****     int8_t rslt;
 962              		.loc 1 1545 1 is_stmt 0 view .LVU295
 963 0000 10B5     		push	{r4, lr}
 964              		.cfi_def_cfa_offset 8
 965              		.cfi_offset 4, -8
 966              		.cfi_offset 14, -4
 967 0002 82B0     		sub	sp, sp, #8
 968              		.cfi_def_cfa_offset 16
 969 0004 0446     		mov	r4, r0
1546:Drivers/BMP580/Src/bmp5.c ****     uint8_t reg_data;
 970              		.loc 1 1546 5 is_stmt 1 view .LVU296
1547:Drivers/BMP580/Src/bmp5.c **** 
 971              		.loc 1 1547 5 view .LVU297
1549:Drivers/BMP580/Src/bmp5.c **** 
 972              		.loc 1 1549 5 view .LVU298
1549:Drivers/BMP580/Src/bmp5.c **** 
 973              		.loc 1 1549 12 is_stmt 0 view .LVU299
 974 0006 0346     		mov	r3, r0
 975 0008 0122     		movs	r2, #1
 976 000a 0DF10701 		add	r1, sp, #7
 977 000e 3720     		movs	r0, #55
 978              	.LVL109:
1549:Drivers/BMP580/Src/bmp5.c **** 
 979              		.loc 1 1549 12 view .LVU300
 980 0010 FFF7FEFF 		bl	bmp5_get_regs
 981              	.LVL110:
1551:Drivers/BMP580/Src/bmp5.c ****     {
 982              		.loc 1 1551 5 is_stmt 1 view .LVU301
1551:Drivers/BMP580/Src/bmp5.c ****     {
 983              		.loc 1 1551 8 is_stmt 0 view .LVU302
 984 0014 08B1     		cbz	r0, .L74
ARM GAS  C:\Users\Nathan\AppData\Local\Temp\ccQWWdhB.s 			page 58


 985              	.LVL111:
 986              	.L72:
1595:Drivers/BMP580/Src/bmp5.c **** }
 987              		.loc 1 1595 5 is_stmt 1 view .LVU303
1596:Drivers/BMP580/Src/bmp5.c **** 
 988              		.loc 1 1596 1 is_stmt 0 view .LVU304
 989 0016 02B0     		add	sp, sp, #8
 990              		.cfi_remember_state
 991              		.cfi_def_cfa_offset 8
 992              		@ sp needed
 993 0018 10BD     		pop	{r4, pc}
 994              	.LVL112:
 995              	.L74:
 996              		.cfi_restore_state
1554:Drivers/BMP580/Src/bmp5.c **** 
 997              		.loc 1 1554 9 is_stmt 1 view .LVU305
1554:Drivers/BMP580/Src/bmp5.c **** 
 998              		.loc 1 1554 20 is_stmt 0 view .LVU306
 999 001a 9DF80730 		ldrb	r3, [sp, #7]	@ zero_extendqisi2
 1000 001e 03F07F02 		and	r2, r3, #127
1554:Drivers/BMP580/Src/bmp5.c **** 
 1001              		.loc 1 1554 18 view .LVU307
 1002 0022 8DF80720 		strb	r2, [sp, #7]
1557:Drivers/BMP580/Src/bmp5.c **** 
 1003              		.loc 1 1557 9 is_stmt 1 view .LVU308
1557:Drivers/BMP580/Src/bmp5.c **** 
 1004              		.loc 1 1557 18 is_stmt 0 view .LVU309
 1005 0026 03F00303 		and	r3, r3, #3
 1006 002a 43F07003 		orr	r3, r3, #112
 1007 002e 8DF80730 		strb	r3, [sp, #7]
1560:Drivers/BMP580/Src/bmp5.c **** 
 1008              		.loc 1 1560 9 is_stmt 1 view .LVU310
1560:Drivers/BMP580/Src/bmp5.c **** 
 1009              		.loc 1 1560 16 is_stmt 0 view .LVU311
 1010 0032 2346     		mov	r3, r4
 1011 0034 0122     		movs	r2, #1
 1012 0036 0DF10701 		add	r1, sp, #7
 1013 003a 3720     		movs	r0, #55
 1014 003c FFF7FEFF 		bl	bmp5_set_regs
 1015              	.LVL113:
1562:Drivers/BMP580/Src/bmp5.c ****         {
 1016              		.loc 1 1562 9 is_stmt 1 view .LVU312
1562:Drivers/BMP580/Src/bmp5.c ****         {
 1017              		.loc 1 1562 12 is_stmt 0 view .LVU313
 1018 0040 0028     		cmp	r0, #0
 1019 0042 E8D1     		bne	.L72
1564:Drivers/BMP580/Src/bmp5.c **** 
 1020              		.loc 1 1564 13 is_stmt 1 view .LVU314
1564:Drivers/BMP580/Src/bmp5.c **** 
 1021              		.loc 1 1564 20 is_stmt 0 view .LVU315
 1022 0044 2346     		mov	r3, r4
 1023 0046 0122     		movs	r2, #1
 1024 0048 0DF10701 		add	r1, sp, #7
 1025 004c 3120     		movs	r0, #49
 1026              	.LVL114:
1564:Drivers/BMP580/Src/bmp5.c **** 
 1027              		.loc 1 1564 20 view .LVU316
ARM GAS  C:\Users\Nathan\AppData\Local\Temp\ccQWWdhB.s 			page 59


 1028 004e FFF7FEFF 		bl	bmp5_get_regs
 1029              	.LVL115:
1566:Drivers/BMP580/Src/bmp5.c ****             {
 1030              		.loc 1 1566 13 is_stmt 1 view .LVU317
1566:Drivers/BMP580/Src/bmp5.c ****             {
 1031              		.loc 1 1566 16 is_stmt 0 view .LVU318
 1032 0052 0028     		cmp	r0, #0
 1033 0054 DFD1     		bne	.L72
1573:Drivers/BMP580/Src/bmp5.c **** 
 1034              		.loc 1 1573 17 is_stmt 1 view .LVU319
1573:Drivers/BMP580/Src/bmp5.c **** 
 1035              		.loc 1 1573 37 is_stmt 0 view .LVU320
 1036 0056 9DF80730 		ldrb	r3, [sp, #7]	@ zero_extendqisi2
 1037 005a 03F0C003 		and	r3, r3, #192
1573:Drivers/BMP580/Src/bmp5.c **** 
 1038              		.loc 1 1573 26 view .LVU321
 1039 005e 8DF80730 		strb	r3, [sp, #7]
1576:Drivers/BMP580/Src/bmp5.c ****             }
 1040              		.loc 1 1576 17 is_stmt 1 view .LVU322
1576:Drivers/BMP580/Src/bmp5.c ****             }
 1041              		.loc 1 1576 24 is_stmt 0 view .LVU323
 1042 0062 2346     		mov	r3, r4
 1043 0064 0122     		movs	r2, #1
 1044 0066 0DF10701 		add	r1, sp, #7
 1045 006a 3120     		movs	r0, #49
 1046              	.LVL116:
1576:Drivers/BMP580/Src/bmp5.c ****             }
 1047              		.loc 1 1576 24 view .LVU324
 1048 006c FFF7FEFF 		bl	bmp5_set_regs
 1049              	.LVL117:
1580:Drivers/BMP580/Src/bmp5.c ****         {
 1050              		.loc 1 1580 9 is_stmt 1 view .LVU325
1580:Drivers/BMP580/Src/bmp5.c ****         {
 1051              		.loc 1 1580 12 is_stmt 0 view .LVU326
 1052 0070 0028     		cmp	r0, #0
 1053 0072 D0D1     		bne	.L72
1582:Drivers/BMP580/Src/bmp5.c **** 
 1054              		.loc 1 1582 13 is_stmt 1 view .LVU327
1582:Drivers/BMP580/Src/bmp5.c **** 
 1055              		.loc 1 1582 20 is_stmt 0 view .LVU328
 1056 0074 2346     		mov	r3, r4
 1057 0076 0122     		movs	r2, #1
 1058 0078 0DF10701 		add	r1, sp, #7
 1059 007c 1820     		movs	r0, #24
 1060              	.LVL118:
1582:Drivers/BMP580/Src/bmp5.c **** 
 1061              		.loc 1 1582 20 view .LVU329
 1062 007e FFF7FEFF 		bl	bmp5_get_regs
 1063              	.LVL119:
1584:Drivers/BMP580/Src/bmp5.c ****             {
 1064              		.loc 1 1584 13 is_stmt 1 view .LVU330
1584:Drivers/BMP580/Src/bmp5.c ****             {
 1065              		.loc 1 1584 16 is_stmt 0 view .LVU331
 1066 0082 0028     		cmp	r0, #0
 1067 0084 C7D1     		bne	.L72
1587:Drivers/BMP580/Src/bmp5.c **** 
 1068              		.loc 1 1587 17 is_stmt 1 view .LVU332
ARM GAS  C:\Users\Nathan\AppData\Local\Temp\ccQWWdhB.s 			page 60


1587:Drivers/BMP580/Src/bmp5.c **** 
 1069              		.loc 1 1587 28 is_stmt 0 view .LVU333
 1070 0086 9DF80730 		ldrb	r3, [sp, #7]	@ zero_extendqisi2
 1071 008a 03F0FC03 		and	r3, r3, #252
1587:Drivers/BMP580/Src/bmp5.c **** 
 1072              		.loc 1 1587 26 view .LVU334
 1073 008e 8DF80730 		strb	r3, [sp, #7]
1590:Drivers/BMP580/Src/bmp5.c ****             }
 1074              		.loc 1 1590 17 is_stmt 1 view .LVU335
1590:Drivers/BMP580/Src/bmp5.c ****             }
 1075              		.loc 1 1590 24 is_stmt 0 view .LVU336
 1076 0092 2346     		mov	r3, r4
 1077 0094 0122     		movs	r2, #1
 1078 0096 0DF10701 		add	r1, sp, #7
 1079 009a 1820     		movs	r0, #24
 1080              	.LVL120:
1590:Drivers/BMP580/Src/bmp5.c ****             }
 1081              		.loc 1 1590 24 view .LVU337
 1082 009c FFF7FEFF 		bl	bmp5_set_regs
 1083              	.LVL121:
1590:Drivers/BMP580/Src/bmp5.c ****             }
 1084              		.loc 1 1590 24 view .LVU338
 1085 00a0 B9E7     		b	.L72
 1086              		.cfi_endproc
 1087              	.LFE28:
 1089              		.section	.text.set_power_mode,"ax",%progbits
 1090              		.align	1
 1091              		.syntax unified
 1092              		.thumb
 1093              		.thumb_func
 1095              	set_power_mode:
 1096              	.LVL122:
 1097              	.LFB29:
1602:Drivers/BMP580/Src/bmp5.c ****     int8_t rslt;
 1098              		.loc 1 1602 1 is_stmt 1 view -0
 1099              		.cfi_startproc
 1100              		@ args = 0, pretend = 0, frame = 8
 1101              		@ frame_needed = 0, uses_anonymous_args = 0
1602:Drivers/BMP580/Src/bmp5.c ****     int8_t rslt;
 1102              		.loc 1 1602 1 is_stmt 0 view .LVU340
 1103 0000 30B5     		push	{r4, r5, lr}
 1104              		.cfi_def_cfa_offset 12
 1105              		.cfi_offset 4, -12
 1106              		.cfi_offset 5, -8
 1107              		.cfi_offset 14, -4
 1108 0002 83B0     		sub	sp, sp, #12
 1109              		.cfi_def_cfa_offset 24
 1110 0004 0546     		mov	r5, r0
 1111 0006 0C46     		mov	r4, r1
1603:Drivers/BMP580/Src/bmp5.c ****     uint8_t reg_data;
 1112              		.loc 1 1603 5 is_stmt 1 view .LVU341
1604:Drivers/BMP580/Src/bmp5.c **** 
 1113              		.loc 1 1604 5 view .LVU342
1606:Drivers/BMP580/Src/bmp5.c **** 
 1114              		.loc 1 1606 5 view .LVU343
1606:Drivers/BMP580/Src/bmp5.c **** 
 1115              		.loc 1 1606 12 is_stmt 0 view .LVU344
ARM GAS  C:\Users\Nathan\AppData\Local\Temp\ccQWWdhB.s 			page 61


 1116 0008 0B46     		mov	r3, r1
 1117 000a 0122     		movs	r2, #1
 1118 000c 0DF10701 		add	r1, sp, #7
 1119              	.LVL123:
1606:Drivers/BMP580/Src/bmp5.c **** 
 1120              		.loc 1 1606 12 view .LVU345
 1121 0010 3720     		movs	r0, #55
 1122              	.LVL124:
1606:Drivers/BMP580/Src/bmp5.c **** 
 1123              		.loc 1 1606 12 view .LVU346
 1124 0012 FFF7FEFF 		bl	bmp5_get_regs
 1125              	.LVL125:
1608:Drivers/BMP580/Src/bmp5.c ****     {
 1126              		.loc 1 1608 5 is_stmt 1 view .LVU347
1608:Drivers/BMP580/Src/bmp5.c ****     {
 1127              		.loc 1 1608 8 is_stmt 0 view .LVU348
 1128 0016 08B1     		cbz	r0, .L78
 1129              	.LVL126:
 1130              	.L76:
1618:Drivers/BMP580/Src/bmp5.c **** }
 1131              		.loc 1 1618 5 is_stmt 1 view .LVU349
1619:Drivers/BMP580/Src/bmp5.c **** 
 1132              		.loc 1 1619 1 is_stmt 0 view .LVU350
 1133 0018 03B0     		add	sp, sp, #12
 1134              		.cfi_remember_state
 1135              		.cfi_def_cfa_offset 12
 1136              		@ sp needed
 1137 001a 30BD     		pop	{r4, r5, pc}
 1138              	.LVL127:
 1139              	.L78:
 1140              		.cfi_restore_state
1611:Drivers/BMP580/Src/bmp5.c **** 
 1141              		.loc 1 1611 9 is_stmt 1 view .LVU351
1611:Drivers/BMP580/Src/bmp5.c **** 
 1142              		.loc 1 1611 20 is_stmt 0 view .LVU352
 1143 001c 9DF80730 		ldrb	r3, [sp, #7]	@ zero_extendqisi2
 1144 0020 43F08002 		orr	r2, r3, #128
1611:Drivers/BMP580/Src/bmp5.c **** 
 1145              		.loc 1 1611 18 view .LVU353
 1146 0024 8DF80720 		strb	r2, [sp, #7]
1613:Drivers/BMP580/Src/bmp5.c **** 
 1147              		.loc 1 1613 9 is_stmt 1 view .LVU354
1613:Drivers/BMP580/Src/bmp5.c **** 
 1148              		.loc 1 1613 18 is_stmt 0 view .LVU355
 1149 0028 23F00303 		bic	r3, r3, #3
 1150 002c 63F07F03 		orn	r3, r3, #127
 1151 0030 05F00300 		and	r0, r5, #3
 1152 0034 1843     		orrs	r0, r0, r3
 1153 0036 8DF80700 		strb	r0, [sp, #7]
1615:Drivers/BMP580/Src/bmp5.c ****     }
 1154              		.loc 1 1615 9 is_stmt 1 view .LVU356
1615:Drivers/BMP580/Src/bmp5.c ****     }
 1155              		.loc 1 1615 16 is_stmt 0 view .LVU357
 1156 003a 2346     		mov	r3, r4
 1157 003c 0122     		movs	r2, #1
 1158 003e 0DF10701 		add	r1, sp, #7
 1159 0042 3720     		movs	r0, #55
ARM GAS  C:\Users\Nathan\AppData\Local\Temp\ccQWWdhB.s 			page 62


 1160 0044 FFF7FEFF 		bl	bmp5_set_regs
 1161              	.LVL128:
1615:Drivers/BMP580/Src/bmp5.c ****     }
 1162              		.loc 1 1615 16 view .LVU358
 1163 0048 E6E7     		b	.L76
 1164              		.cfi_endproc
 1165              	.LFE29:
 1167              		.section	.text.set_iir_config,"ax",%progbits
 1168              		.align	1
 1169              		.syntax unified
 1170              		.thumb
 1171              		.thumb_func
 1173              	set_iir_config:
 1174              	.LVL129:
 1175              	.LFB31:
1669:Drivers/BMP580/Src/bmp5.c ****     int8_t rslt;
 1176              		.loc 1 1669 1 is_stmt 1 view -0
 1177              		.cfi_startproc
 1178              		@ args = 0, pretend = 0, frame = 8
 1179              		@ frame_needed = 0, uses_anonymous_args = 0
1669:Drivers/BMP580/Src/bmp5.c ****     int8_t rslt;
 1180              		.loc 1 1669 1 is_stmt 0 view .LVU360
 1181 0000 30B5     		push	{r4, r5, lr}
 1182              		.cfi_def_cfa_offset 12
 1183              		.cfi_offset 4, -12
 1184              		.cfi_offset 5, -8
 1185              		.cfi_offset 14, -4
 1186 0002 83B0     		sub	sp, sp, #12
 1187              		.cfi_def_cfa_offset 24
 1188 0004 0446     		mov	r4, r0
 1189 0006 0D46     		mov	r5, r1
1670:Drivers/BMP580/Src/bmp5.c **** 
 1190              		.loc 1 1670 5 is_stmt 1 view .LVU361
1673:Drivers/BMP580/Src/bmp5.c **** 
 1191              		.loc 1 1673 5 view .LVU362
1675:Drivers/BMP580/Src/bmp5.c **** 
 1192              		.loc 1 1675 5 view .LVU363
1675:Drivers/BMP580/Src/bmp5.c **** 
 1193              		.loc 1 1675 12 is_stmt 0 view .LVU364
 1194 0008 0B46     		mov	r3, r1
 1195 000a 0222     		movs	r2, #2
 1196 000c 01A9     		add	r1, sp, #4
 1197              	.LVL130:
1675:Drivers/BMP580/Src/bmp5.c **** 
 1198              		.loc 1 1675 12 view .LVU365
 1199 000e 3020     		movs	r0, #48
 1200              	.LVL131:
1675:Drivers/BMP580/Src/bmp5.c **** 
 1201              		.loc 1 1675 12 view .LVU366
 1202 0010 FFF7FEFF 		bl	bmp5_get_regs
 1203              	.LVL132:
1677:Drivers/BMP580/Src/bmp5.c ****     {
 1204              		.loc 1 1677 5 is_stmt 1 view .LVU367
1677:Drivers/BMP580/Src/bmp5.c ****     {
 1205              		.loc 1 1677 8 is_stmt 0 view .LVU368
 1206 0014 08B1     		cbz	r0, .L82
 1207              	.LVL133:
ARM GAS  C:\Users\Nathan\AppData\Local\Temp\ccQWWdhB.s 			page 63


 1208              	.L80:
1690:Drivers/BMP580/Src/bmp5.c **** }
 1209              		.loc 1 1690 5 is_stmt 1 view .LVU369
1691:Drivers/BMP580/Src/bmp5.c **** 
 1210              		.loc 1 1691 1 is_stmt 0 view .LVU370
 1211 0016 03B0     		add	sp, sp, #12
 1212              		.cfi_remember_state
 1213              		.cfi_def_cfa_offset 12
 1214              		@ sp needed
 1215 0018 30BD     		pop	{r4, r5, pc}
 1216              	.LVL134:
 1217              	.L82:
 1218              		.cfi_restore_state
1679:Drivers/BMP580/Src/bmp5.c ****         reg_data[0] = BMP5_SET_BITSLICE(reg_data[0], BMP5_SHDW_SET_IIR_PRESS, iir_cfg->shdw_set_iir
 1219              		.loc 1 1679 9 is_stmt 1 view .LVU371
1679:Drivers/BMP580/Src/bmp5.c ****         reg_data[0] = BMP5_SET_BITSLICE(reg_data[0], BMP5_SHDW_SET_IIR_PRESS, iir_cfg->shdw_set_iir
 1220              		.loc 1 1679 23 is_stmt 0 view .LVU372
 1221 001a 9DF80420 		ldrb	r2, [sp, #4]	@ zero_extendqisi2
 1222 001e A378     		ldrb	r3, [r4, #2]	@ zero_extendqisi2
 1223 0020 DB00     		lsls	r3, r3, #3
 1224 0022 03F00803 		and	r3, r3, #8
 1225 0026 22F00802 		bic	r2, r2, #8
 1226 002a 1A43     		orrs	r2, r2, r3
1679:Drivers/BMP580/Src/bmp5.c ****         reg_data[0] = BMP5_SET_BITSLICE(reg_data[0], BMP5_SHDW_SET_IIR_PRESS, iir_cfg->shdw_set_iir
 1227              		.loc 1 1679 21 view .LVU373
 1228 002c 8DF80420 		strb	r2, [sp, #4]
1680:Drivers/BMP580/Src/bmp5.c ****         reg_data[0] = BMP5_SET_BITSLICE(reg_data[0], BMP5_IIR_FLUSH_FORCED_EN, iir_cfg->iir_flush_f
 1229              		.loc 1 1680 9 is_stmt 1 view .LVU374
1680:Drivers/BMP580/Src/bmp5.c ****         reg_data[0] = BMP5_SET_BITSLICE(reg_data[0], BMP5_IIR_FLUSH_FORCED_EN, iir_cfg->iir_flush_f
 1230              		.loc 1 1680 23 is_stmt 0 view .LVU375
 1231 0030 E378     		ldrb	r3, [r4, #3]	@ zero_extendqisi2
 1232 0032 5B01     		lsls	r3, r3, #5
 1233 0034 03F02003 		and	r3, r3, #32
 1234 0038 22F02002 		bic	r2, r2, #32
 1235 003c 1A43     		orrs	r2, r2, r3
1680:Drivers/BMP580/Src/bmp5.c ****         reg_data[0] = BMP5_SET_BITSLICE(reg_data[0], BMP5_IIR_FLUSH_FORCED_EN, iir_cfg->iir_flush_f
 1236              		.loc 1 1680 21 view .LVU376
 1237 003e 8DF80420 		strb	r2, [sp, #4]
1681:Drivers/BMP580/Src/bmp5.c **** 
 1238              		.loc 1 1681 9 is_stmt 1 view .LVU377
1681:Drivers/BMP580/Src/bmp5.c **** 
 1239              		.loc 1 1681 23 is_stmt 0 view .LVU378
 1240 0042 2379     		ldrb	r3, [r4, #4]	@ zero_extendqisi2
 1241 0044 9B00     		lsls	r3, r3, #2
 1242 0046 03F00403 		and	r3, r3, #4
 1243 004a 22F00402 		bic	r2, r2, #4
 1244 004e 1A43     		orrs	r2, r2, r3
1681:Drivers/BMP580/Src/bmp5.c **** 
 1245              		.loc 1 1681 21 view .LVU379
 1246 0050 8DF80420 		strb	r2, [sp, #4]
1683:Drivers/BMP580/Src/bmp5.c ****         reg_data[1] = BMP5_SET_BITSLICE(reg_data[1], BMP5_SET_IIR_PRESS, iir_cfg->set_iir_p);
 1247              		.loc 1 1683 9 is_stmt 1 view .LVU380
1683:Drivers/BMP580/Src/bmp5.c ****         reg_data[1] = BMP5_SET_BITSLICE(reg_data[1], BMP5_SET_IIR_PRESS, iir_cfg->set_iir_p);
 1248              		.loc 1 1683 30 is_stmt 0 view .LVU381
 1249 0054 2378     		ldrb	r3, [r4]	@ zero_extendqisi2
1683:Drivers/BMP580/Src/bmp5.c ****         reg_data[1] = BMP5_SET_BITSLICE(reg_data[1], BMP5_SET_IIR_PRESS, iir_cfg->set_iir_p);
 1250              		.loc 1 1683 21 view .LVU382
ARM GAS  C:\Users\Nathan\AppData\Local\Temp\ccQWWdhB.s 			page 64


 1251 0056 8DF80530 		strb	r3, [sp, #5]
1684:Drivers/BMP580/Src/bmp5.c **** 
 1252              		.loc 1 1684 9 is_stmt 1 view .LVU383
1684:Drivers/BMP580/Src/bmp5.c **** 
 1253              		.loc 1 1684 23 is_stmt 0 view .LVU384
 1254 005a 6278     		ldrb	r2, [r4, #1]	@ zero_extendqisi2
 1255 005c D200     		lsls	r2, r2, #3
 1256 005e 02F03802 		and	r2, r2, #56
 1257 0062 23F03803 		bic	r3, r3, #56
 1258 0066 1343     		orrs	r3, r3, r2
1684:Drivers/BMP580/Src/bmp5.c **** 
 1259              		.loc 1 1684 21 view .LVU385
 1260 0068 8DF80530 		strb	r3, [sp, #5]
1687:Drivers/BMP580/Src/bmp5.c ****     }
 1261              		.loc 1 1687 9 is_stmt 1 view .LVU386
1687:Drivers/BMP580/Src/bmp5.c ****     }
 1262              		.loc 1 1687 16 is_stmt 0 view .LVU387
 1263 006c 2B46     		mov	r3, r5
 1264 006e 0222     		movs	r2, #2
 1265 0070 01A9     		add	r1, sp, #4
 1266 0072 3020     		movs	r0, #48
 1267 0074 FFF7FEFF 		bl	bmp5_set_regs
 1268              	.LVL135:
1687:Drivers/BMP580/Src/bmp5.c ****     }
 1269              		.loc 1 1687 16 view .LVU388
 1270 0078 CDE7     		b	.L80
 1271              		.cfi_endproc
 1272              	.LFE31:
 1274              		.section	.text.set_nvm_addr,"ax",%progbits
 1275              		.align	1
 1276              		.syntax unified
 1277              		.thumb
 1278              		.thumb_func
 1280              	set_nvm_addr:
 1281              	.LVL136:
 1282              	.LFB37:
2038:Drivers/BMP580/Src/bmp5.c ****     int8_t rslt;
 1283              		.loc 1 2038 1 is_stmt 1 view -0
 1284              		.cfi_startproc
 1285              		@ args = 0, pretend = 0, frame = 8
 1286              		@ frame_needed = 0, uses_anonymous_args = 0
2038:Drivers/BMP580/Src/bmp5.c ****     int8_t rslt;
 1287              		.loc 1 2038 1 is_stmt 0 view .LVU390
 1288 0000 70B5     		push	{r4, r5, r6, lr}
 1289              		.cfi_def_cfa_offset 16
 1290              		.cfi_offset 4, -16
 1291              		.cfi_offset 5, -12
 1292              		.cfi_offset 6, -8
 1293              		.cfi_offset 14, -4
 1294 0002 82B0     		sub	sp, sp, #8
 1295              		.cfi_def_cfa_offset 24
 1296 0004 0546     		mov	r5, r0
 1297 0006 0E46     		mov	r6, r1
 1298 0008 1446     		mov	r4, r2
2039:Drivers/BMP580/Src/bmp5.c ****     uint8_t nvm_status;
 1299              		.loc 1 2039 5 is_stmt 1 view .LVU391
2040:Drivers/BMP580/Src/bmp5.c ****     uint8_t reg_data;
ARM GAS  C:\Users\Nathan\AppData\Local\Temp\ccQWWdhB.s 			page 65


 1300              		.loc 1 2040 5 view .LVU392
2041:Drivers/BMP580/Src/bmp5.c **** 
 1301              		.loc 1 2041 5 view .LVU393
2044:Drivers/BMP580/Src/bmp5.c **** 
 1302              		.loc 1 2044 5 view .LVU394
2044:Drivers/BMP580/Src/bmp5.c **** 
 1303              		.loc 1 2044 12 is_stmt 0 view .LVU395
 1304 000a 1146     		mov	r1, r2
 1305              	.LVL137:
2044:Drivers/BMP580/Src/bmp5.c **** 
 1306              		.loc 1 2044 12 view .LVU396
 1307 000c 0DF10700 		add	r0, sp, #7
 1308              	.LVL138:
2044:Drivers/BMP580/Src/bmp5.c **** 
 1309              		.loc 1 2044 12 view .LVU397
 1310 0010 FFF7FEFF 		bl	get_nvm_status
 1311              	.LVL139:
2046:Drivers/BMP580/Src/bmp5.c ****     {
 1312              		.loc 1 2046 5 is_stmt 1 view .LVU398
2046:Drivers/BMP580/Src/bmp5.c ****     {
 1313              		.loc 1 2046 20 is_stmt 0 view .LVU399
 1314 0014 9DF80730 		ldrb	r3, [sp, #7]	@ zero_extendqisi2
2046:Drivers/BMP580/Src/bmp5.c ****     {
 1315              		.loc 1 2046 8 view .LVU400
 1316 0018 13F0020F 		tst	r3, #2
 1317 001c 29D0     		beq	.L87
2048:Drivers/BMP580/Src/bmp5.c **** 
 1318              		.loc 1 2048 9 is_stmt 1 view .LVU401
2048:Drivers/BMP580/Src/bmp5.c **** 
 1319              		.loc 1 2048 16 is_stmt 0 view .LVU402
 1320 001e 2346     		mov	r3, r4
 1321 0020 0122     		movs	r2, #1
 1322 0022 0DF10601 		add	r1, sp, #6
 1323 0026 2B20     		movs	r0, #43
 1324 0028 FFF7FEFF 		bl	bmp5_get_regs
 1325              	.LVL140:
2050:Drivers/BMP580/Src/bmp5.c ****         {
 1326              		.loc 1 2050 9 is_stmt 1 view .LVU403
2050:Drivers/BMP580/Src/bmp5.c ****         {
 1327              		.loc 1 2050 12 is_stmt 0 view .LVU404
 1328 002c B0B9     		cbnz	r0, .L84
2053:Drivers/BMP580/Src/bmp5.c **** 
 1329              		.loc 1 2053 13 is_stmt 1 view .LVU405
2053:Drivers/BMP580/Src/bmp5.c **** 
 1330              		.loc 1 2053 24 is_stmt 0 view .LVU406
 1331 002e 9DF80630 		ldrb	r3, [sp, #6]	@ zero_extendqisi2
 1332 0032 23F03F03 		bic	r3, r3, #63
 1333 0036 05F03F05 		and	r5, r5, #63
 1334              	.LVL141:
2053:Drivers/BMP580/Src/bmp5.c **** 
 1335              		.loc 1 2053 24 view .LVU407
 1336 003a 43EA0500 		orr	r0, r3, r5
 1337              	.LVL142:
2053:Drivers/BMP580/Src/bmp5.c **** 
 1338              		.loc 1 2053 22 view .LVU408
 1339 003e 8DF80600 		strb	r0, [sp, #6]
2055:Drivers/BMP580/Src/bmp5.c ****             {
ARM GAS  C:\Users\Nathan\AppData\Local\Temp\ccQWWdhB.s 			page 66


 1340              		.loc 1 2055 13 is_stmt 1 view .LVU409
2055:Drivers/BMP580/Src/bmp5.c ****             {
 1341              		.loc 1 2055 16 is_stmt 0 view .LVU410
 1342 0042 012E     		cmp	r6, #1
 1343 0044 0CD0     		beq	.L89
2063:Drivers/BMP580/Src/bmp5.c ****             }
 1344              		.loc 1 2063 17 is_stmt 1 view .LVU411
2063:Drivers/BMP580/Src/bmp5.c ****             }
 1345              		.loc 1 2063 28 is_stmt 0 view .LVU412
 1346 0046 00F0BF00 		and	r0, r0, #191
2063:Drivers/BMP580/Src/bmp5.c ****             }
 1347              		.loc 1 2063 26 view .LVU413
 1348 004a 8DF80600 		strb	r0, [sp, #6]
 1349              	.LVL143:
 1350              	.L86:
2066:Drivers/BMP580/Src/bmp5.c ****         }
 1351              		.loc 1 2066 13 is_stmt 1 view .LVU414
2066:Drivers/BMP580/Src/bmp5.c ****         }
 1352              		.loc 1 2066 20 is_stmt 0 view .LVU415
 1353 004e 2346     		mov	r3, r4
 1354 0050 0122     		movs	r2, #1
 1355 0052 0DF10601 		add	r1, sp, #6
 1356 0056 2B20     		movs	r0, #43
 1357 0058 FFF7FEFF 		bl	bmp5_set_regs
 1358              	.LVL144:
 1359              	.L84:
2074:Drivers/BMP580/Src/bmp5.c **** }
 1360              		.loc 1 2074 5 is_stmt 1 view .LVU416
2075:Drivers/BMP580/Src/bmp5.c **** 
 1361              		.loc 1 2075 1 is_stmt 0 view .LVU417
 1362 005c 02B0     		add	sp, sp, #8
 1363              		.cfi_remember_state
 1364              		.cfi_def_cfa_offset 16
 1365              		@ sp needed
 1366 005e 70BD     		pop	{r4, r5, r6, pc}
 1367              	.LVL145:
 1368              	.L89:
 1369              		.cfi_restore_state
2058:Drivers/BMP580/Src/bmp5.c ****             }
 1370              		.loc 1 2058 17 is_stmt 1 view .LVU418
2058:Drivers/BMP580/Src/bmp5.c ****             }
 1371              		.loc 1 2058 28 is_stmt 0 view .LVU419
 1372 0060 B601     		lsls	r6, r6, #6
 1373 0062 06F04006 		and	r6, r6, #64
 1374 0066 20F04000 		bic	r0, r0, #64
 1375 006a 3043     		orrs	r0, r0, r6
2058:Drivers/BMP580/Src/bmp5.c ****             }
 1376              		.loc 1 2058 26 view .LVU420
 1377 006c 8DF80600 		strb	r0, [sp, #6]
 1378 0070 EDE7     		b	.L86
 1379              	.LVL146:
 1380              	.L87:
2071:Drivers/BMP580/Src/bmp5.c ****     }
 1381              		.loc 1 2071 14 view .LVU421
 1382 0072 6FF00A00 		mvn	r0, #10
 1383 0076 F1E7     		b	.L84
 1384              		.cfi_endproc
ARM GAS  C:\Users\Nathan\AppData\Local\Temp\ccQWWdhB.s 			page 67


 1385              	.LFE37:
 1387              		.section	.text.bmp5_get_interrupt_status,"ax",%progbits
 1388              		.align	1
 1389              		.global	bmp5_get_interrupt_status
 1390              		.syntax unified
 1391              		.thumb
 1392              		.thumb_func
 1394              	bmp5_get_interrupt_status:
 1395              	.LVL147:
 1396              	.LFB4:
 470:Drivers/BMP580/Src/bmp5.c ****     int8_t rslt;
 1397              		.loc 1 470 1 is_stmt 1 view -0
 1398              		.cfi_startproc
 1399              		@ args = 0, pretend = 0, frame = 0
 1400              		@ frame_needed = 0, uses_anonymous_args = 0
 471:Drivers/BMP580/Src/bmp5.c **** 
 1401              		.loc 1 471 5 view .LVU423
 473:Drivers/BMP580/Src/bmp5.c ****     {
 1402              		.loc 1 473 5 view .LVU424
 473:Drivers/BMP580/Src/bmp5.c ****     {
 1403              		.loc 1 473 8 is_stmt 0 view .LVU425
 1404 0000 38B1     		cbz	r0, .L92
 470:Drivers/BMP580/Src/bmp5.c ****     int8_t rslt;
 1405              		.loc 1 470 1 view .LVU426
 1406 0002 08B5     		push	{r3, lr}
 1407              		.cfi_def_cfa_offset 8
 1408              		.cfi_offset 3, -8
 1409              		.cfi_offset 14, -4
 1410 0004 0B46     		mov	r3, r1
 1411 0006 0146     		mov	r1, r0
 1412              	.LVL148:
 475:Drivers/BMP580/Src/bmp5.c ****     }
 1413              		.loc 1 475 9 is_stmt 1 view .LVU427
 475:Drivers/BMP580/Src/bmp5.c ****     }
 1414              		.loc 1 475 16 is_stmt 0 view .LVU428
 1415 0008 0122     		movs	r2, #1
 1416 000a 2720     		movs	r0, #39
 1417              	.LVL149:
 475:Drivers/BMP580/Src/bmp5.c ****     }
 1418              		.loc 1 475 16 view .LVU429
 1419 000c FFF7FEFF 		bl	bmp5_get_regs
 1420              	.LVL150:
 482:Drivers/BMP580/Src/bmp5.c **** }
 1421              		.loc 1 482 5 is_stmt 1 view .LVU430
 483:Drivers/BMP580/Src/bmp5.c **** 
 1422              		.loc 1 483 1 is_stmt 0 view .LVU431
 1423 0010 08BD     		pop	{r3, pc}
 1424              	.LVL151:
 1425              	.L92:
 1426              		.cfi_def_cfa_offset 0
 1427              		.cfi_restore 3
 1428              		.cfi_restore 14
 479:Drivers/BMP580/Src/bmp5.c ****     }
 1429              		.loc 1 479 14 view .LVU432
 1430 0012 4FF0FF30 		mov	r0, #-1
 1431              	.LVL152:
 482:Drivers/BMP580/Src/bmp5.c **** }
ARM GAS  C:\Users\Nathan\AppData\Local\Temp\ccQWWdhB.s 			page 68


 1432              		.loc 1 482 5 is_stmt 1 view .LVU433
 483:Drivers/BMP580/Src/bmp5.c **** 
 1433              		.loc 1 483 1 is_stmt 0 view .LVU434
 1434 0016 7047     		bx	lr
 1435              		.cfi_endproc
 1436              	.LFE4:
 1438              		.section	.text.power_up_check,"ax",%progbits
 1439              		.align	1
 1440              		.syntax unified
 1441              		.thumb
 1442              		.thumb_func
 1444              	power_up_check:
 1445              	.LVL153:
 1446              	.LFB26:
1470:Drivers/BMP580/Src/bmp5.c ****     int8_t rslt;
 1447              		.loc 1 1470 1 is_stmt 1 view -0
 1448              		.cfi_startproc
 1449              		@ args = 0, pretend = 0, frame = 8
 1450              		@ frame_needed = 0, uses_anonymous_args = 0
1470:Drivers/BMP580/Src/bmp5.c ****     int8_t rslt;
 1451              		.loc 1 1470 1 is_stmt 0 view .LVU436
 1452 0000 10B5     		push	{r4, lr}
 1453              		.cfi_def_cfa_offset 8
 1454              		.cfi_offset 4, -8
 1455              		.cfi_offset 14, -4
 1456 0002 82B0     		sub	sp, sp, #8
 1457              		.cfi_def_cfa_offset 16
 1458 0004 0446     		mov	r4, r0
1471:Drivers/BMP580/Src/bmp5.c ****     uint8_t nvm_status;
 1459              		.loc 1 1471 5 is_stmt 1 view .LVU437
1472:Drivers/BMP580/Src/bmp5.c ****     uint8_t por_status;
 1460              		.loc 1 1472 5 view .LVU438
1473:Drivers/BMP580/Src/bmp5.c **** 
 1461              		.loc 1 1473 5 view .LVU439
1475:Drivers/BMP580/Src/bmp5.c **** 
 1462              		.loc 1 1475 5 view .LVU440
1475:Drivers/BMP580/Src/bmp5.c **** 
 1463              		.loc 1 1475 12 is_stmt 0 view .LVU441
 1464 0006 0146     		mov	r1, r0
 1465 0008 0DF10700 		add	r0, sp, #7
 1466              	.LVL154:
1475:Drivers/BMP580/Src/bmp5.c **** 
 1467              		.loc 1 1475 12 view .LVU442
 1468 000c FFF7FEFF 		bl	get_nvm_status
 1469              	.LVL155:
1477:Drivers/BMP580/Src/bmp5.c ****     {
 1470              		.loc 1 1477 5 is_stmt 1 view .LVU443
1477:Drivers/BMP580/Src/bmp5.c ****     {
 1471              		.loc 1 1477 8 is_stmt 0 view .LVU444
 1472 0010 80B9     		cbnz	r0, .L98
1480:Drivers/BMP580/Src/bmp5.c ****         {
 1473              		.loc 1 1480 9 is_stmt 1 view .LVU445
1480:Drivers/BMP580/Src/bmp5.c ****         {
 1474              		.loc 1 1480 45 is_stmt 0 view .LVU446
 1475 0012 9DF80730 		ldrb	r3, [sp, #7]	@ zero_extendqisi2
1480:Drivers/BMP580/Src/bmp5.c ****         {
 1476              		.loc 1 1480 12 view .LVU447
ARM GAS  C:\Users\Nathan\AppData\Local\Temp\ccQWWdhB.s 			page 69


 1477 0016 03F00603 		and	r3, r3, #6
 1478 001a 022B     		cmp	r3, #2
 1479 001c 0CD1     		bne	.L99
1482:Drivers/BMP580/Src/bmp5.c **** 
 1480              		.loc 1 1482 13 is_stmt 1 view .LVU448
1482:Drivers/BMP580/Src/bmp5.c **** 
 1481              		.loc 1 1482 20 is_stmt 0 view .LVU449
 1482 001e 2146     		mov	r1, r4
 1483 0020 0DF10600 		add	r0, sp, #6
 1484 0024 FFF7FEFF 		bl	bmp5_get_interrupt_status
 1485              	.LVL156:
1484:Drivers/BMP580/Src/bmp5.c ****             {
 1486              		.loc 1 1484 13 is_stmt 1 view .LVU450
1484:Drivers/BMP580/Src/bmp5.c ****             {
 1487              		.loc 1 1484 16 is_stmt 0 view .LVU451
 1488 0028 20B9     		cbnz	r0, .L98
1487:Drivers/BMP580/Src/bmp5.c ****                 {
 1489              		.loc 1 1487 17 is_stmt 1 view .LVU452
1487:Drivers/BMP580/Src/bmp5.c ****                 {
 1490              		.loc 1 1487 32 is_stmt 0 view .LVU453
 1491 002a 9DF80630 		ldrb	r3, [sp, #6]	@ zero_extendqisi2
1487:Drivers/BMP580/Src/bmp5.c ****                 {
 1492              		.loc 1 1487 20 view .LVU454
 1493 002e 13F0100F 		tst	r3, #16
 1494 0032 04D0     		beq	.L102
 1495              	.LVL157:
 1496              	.L98:
1503:Drivers/BMP580/Src/bmp5.c **** }
 1497              		.loc 1 1503 5 is_stmt 1 view .LVU455
1504:Drivers/BMP580/Src/bmp5.c **** 
 1498              		.loc 1 1504 1 is_stmt 0 view .LVU456
 1499 0034 02B0     		add	sp, sp, #8
 1500              		.cfi_remember_state
 1501              		.cfi_def_cfa_offset 8
 1502              		@ sp needed
 1503 0036 10BD     		pop	{r4, pc}
 1504              	.LVL158:
 1505              	.L99:
 1506              		.cfi_restore_state
1499:Drivers/BMP580/Src/bmp5.c ****         }
 1507              		.loc 1 1499 18 view .LVU457
 1508 0038 6FF00400 		mvn	r0, #4
 1509 003c FAE7     		b	.L98
 1510              	.LVL159:
 1511              	.L102:
1493:Drivers/BMP580/Src/bmp5.c ****                 }
 1512              		.loc 1 1493 26 view .LVU458
 1513 003e 6FF00400 		mvn	r0, #4
 1514              	.LVL160:
1493:Drivers/BMP580/Src/bmp5.c ****                 }
 1515              		.loc 1 1493 26 view .LVU459
 1516 0042 F7E7     		b	.L98
 1517              		.cfi_endproc
 1518              	.LFE26:
 1520              		.section	.text.bmp5_init,"ax",%progbits
 1521              		.align	1
 1522              		.global	bmp5_init
ARM GAS  C:\Users\Nathan\AppData\Local\Temp\ccQWWdhB.s 			page 70


 1523              		.syntax unified
 1524              		.thumb
 1525              		.thumb_func
 1527              	bmp5_init:
 1528              	.LVL161:
 1529              	.LFB0:
 289:Drivers/BMP580/Src/bmp5.c ****     int8_t rslt;
 1530              		.loc 1 289 1 is_stmt 1 view -0
 1531              		.cfi_startproc
 1532              		@ args = 0, pretend = 0, frame = 8
 1533              		@ frame_needed = 0, uses_anonymous_args = 0
 289:Drivers/BMP580/Src/bmp5.c ****     int8_t rslt;
 1534              		.loc 1 289 1 is_stmt 0 view .LVU461
 1535 0000 10B5     		push	{r4, lr}
 1536              		.cfi_def_cfa_offset 8
 1537              		.cfi_offset 4, -8
 1538              		.cfi_offset 14, -4
 1539 0002 82B0     		sub	sp, sp, #8
 1540              		.cfi_def_cfa_offset 16
 1541 0004 0446     		mov	r4, r0
 290:Drivers/BMP580/Src/bmp5.c ****     uint8_t reg_data;
 1542              		.loc 1 290 5 is_stmt 1 view .LVU462
 291:Drivers/BMP580/Src/bmp5.c ****     uint8_t chip_id;
 1543              		.loc 1 291 5 view .LVU463
 292:Drivers/BMP580/Src/bmp5.c **** 
 1544              		.loc 1 292 5 view .LVU464
 295:Drivers/BMP580/Src/bmp5.c **** 
 1545              		.loc 1 295 5 view .LVU465
 295:Drivers/BMP580/Src/bmp5.c **** 
 1546              		.loc 1 295 12 is_stmt 0 view .LVU466
 1547 0006 FFF7FEFF 		bl	null_ptr_check
 1548              	.LVL162:
 297:Drivers/BMP580/Src/bmp5.c ****     {
 1549              		.loc 1 297 5 is_stmt 1 view .LVU467
 297:Drivers/BMP580/Src/bmp5.c ****     {
 1550              		.loc 1 297 8 is_stmt 0 view .LVU468
 1551 000a 0346     		mov	r3, r0
 1552 000c 20B9     		cbnz	r0, .L104
 299:Drivers/BMP580/Src/bmp5.c **** 
 1553              		.loc 1 299 9 is_stmt 1 view .LVU469
 299:Drivers/BMP580/Src/bmp5.c **** 
 1554              		.loc 1 299 22 is_stmt 0 view .LVU470
 1555 000e 0022     		movs	r2, #0
 1556 0010 2270     		strb	r2, [r4]
 301:Drivers/BMP580/Src/bmp5.c ****         {
 1557              		.loc 1 301 9 is_stmt 1 view .LVU471
 301:Drivers/BMP580/Src/bmp5.c ****         {
 1558              		.loc 1 301 16 is_stmt 0 view .LVU472
 1559 0012 627D     		ldrb	r2, [r4, #21]	@ zero_extendqisi2
 301:Drivers/BMP580/Src/bmp5.c ****         {
 1560              		.loc 1 301 12 view .LVU473
 1561 0014 1AB1     		cbz	r2, .L108
 1562              	.LVL163:
 1563              	.L105:
 310:Drivers/BMP580/Src/bmp5.c ****         {
 1564              		.loc 1 310 9 is_stmt 1 view .LVU474
 310:Drivers/BMP580/Src/bmp5.c ****         {
ARM GAS  C:\Users\Nathan\AppData\Local\Temp\ccQWWdhB.s 			page 71


 1565              		.loc 1 310 12 is_stmt 0 view .LVU475
 1566 0016 5BB1     		cbz	r3, .L109
 1567              	.LVL164:
 1568              	.L104:
 335:Drivers/BMP580/Src/bmp5.c **** }
 1569              		.loc 1 335 5 is_stmt 1 view .LVU476
 336:Drivers/BMP580/Src/bmp5.c **** 
 1570              		.loc 1 336 1 is_stmt 0 view .LVU477
 1571 0018 1846     		mov	r0, r3
 1572 001a 02B0     		add	sp, sp, #8
 1573              		.cfi_remember_state
 1574              		.cfi_def_cfa_offset 8
 1575              		@ sp needed
 1576 001c 10BD     		pop	{r4, pc}
 1577              	.LVL165:
 1578              	.L108:
 1579              		.cfi_restore_state
 307:Drivers/BMP580/Src/bmp5.c ****         }
 1580              		.loc 1 307 13 is_stmt 1 view .LVU478
 307:Drivers/BMP580/Src/bmp5.c ****         }
 1581              		.loc 1 307 20 is_stmt 0 view .LVU479
 1582 001e 2346     		mov	r3, r4
 1583 0020 0122     		movs	r2, #1
 1584 0022 0DF10701 		add	r1, sp, #7
 1585 0026 1046     		mov	r0, r2
 1586              	.LVL166:
 307:Drivers/BMP580/Src/bmp5.c ****         }
 1587              		.loc 1 307 20 view .LVU480
 1588 0028 FFF7FEFF 		bl	bmp5_get_regs
 1589              	.LVL167:
 1590 002c 0346     		mov	r3, r0
 1591              	.LVL168:
 307:Drivers/BMP580/Src/bmp5.c ****         }
 1592              		.loc 1 307 20 view .LVU481
 1593 002e F2E7     		b	.L105
 1594              	.L109:
 313:Drivers/BMP580/Src/bmp5.c **** 
 1595              		.loc 1 313 13 is_stmt 1 view .LVU482
 313:Drivers/BMP580/Src/bmp5.c **** 
 1596              		.loc 1 313 20 is_stmt 0 view .LVU483
 1597 0030 2346     		mov	r3, r4
 1598              	.LVL169:
 313:Drivers/BMP580/Src/bmp5.c **** 
 1599              		.loc 1 313 20 view .LVU484
 1600 0032 0122     		movs	r2, #1
 1601 0034 0DF10601 		add	r1, sp, #6
 1602 0038 1046     		mov	r0, r2
 1603 003a FFF7FEFF 		bl	bmp5_get_regs
 1604              	.LVL170:
 315:Drivers/BMP580/Src/bmp5.c ****             {
 1605              		.loc 1 315 13 is_stmt 1 view .LVU485
 315:Drivers/BMP580/Src/bmp5.c ****             {
 1606              		.loc 1 315 16 is_stmt 0 view .LVU486
 1607 003e 0346     		mov	r3, r0
 1608 0040 0028     		cmp	r0, #0
 1609 0042 E9D1     		bne	.L104
 317:Drivers/BMP580/Src/bmp5.c ****                 {
ARM GAS  C:\Users\Nathan\AppData\Local\Temp\ccQWWdhB.s 			page 72


 1610              		.loc 1 317 17 is_stmt 1 view .LVU487
 317:Drivers/BMP580/Src/bmp5.c ****                 {
 1611              		.loc 1 317 29 is_stmt 0 view .LVU488
 1612 0044 9DF80630 		ldrb	r3, [sp, #6]	@ zero_extendqisi2
 317:Drivers/BMP580/Src/bmp5.c ****                 {
 1613              		.loc 1 317 20 view .LVU489
 1614 0048 63B1     		cbz	r3, .L106
 320:Drivers/BMP580/Src/bmp5.c ****                 }
 1615              		.loc 1 320 21 is_stmt 1 view .LVU490
 320:Drivers/BMP580/Src/bmp5.c ****                 }
 1616              		.loc 1 320 28 is_stmt 0 view .LVU491
 1617 004a 2046     		mov	r0, r4
 1618              	.LVL171:
 320:Drivers/BMP580/Src/bmp5.c ****                 }
 1619              		.loc 1 320 28 view .LVU492
 1620 004c FFF7FEFF 		bl	power_up_check
 1621              	.LVL172:
 327:Drivers/BMP580/Src/bmp5.c ****                 {
 1622              		.loc 1 327 17 is_stmt 1 view .LVU493
 327:Drivers/BMP580/Src/bmp5.c ****                 {
 1623              		.loc 1 327 20 is_stmt 0 view .LVU494
 1624 0050 0346     		mov	r3, r0
 1625 0052 0028     		cmp	r0, #0
 1626 0054 E0D1     		bne	.L104
 329:Drivers/BMP580/Src/bmp5.c ****                 }
 1627              		.loc 1 329 21 is_stmt 1 view .LVU495
 329:Drivers/BMP580/Src/bmp5.c ****                 }
 1628              		.loc 1 329 28 is_stmt 0 view .LVU496
 1629 0056 2146     		mov	r1, r4
 1630 0058 9DF80600 		ldrb	r0, [sp, #6]	@ zero_extendqisi2
 1631              	.LVL173:
 329:Drivers/BMP580/Src/bmp5.c ****                 }
 1632              		.loc 1 329 28 view .LVU497
 1633 005c FFF7FEFF 		bl	validate_chip_id
 1634              	.LVL174:
 329:Drivers/BMP580/Src/bmp5.c ****                 }
 1635              		.loc 1 329 28 view .LVU498
 1636 0060 0346     		mov	r3, r0
 1637              	.LVL175:
 329:Drivers/BMP580/Src/bmp5.c ****                 }
 1638              		.loc 1 329 28 view .LVU499
 1639 0062 D9E7     		b	.L104
 1640              	.LVL176:
 1641              	.L106:
 324:Drivers/BMP580/Src/bmp5.c ****                 }
 1642              		.loc 1 324 26 view .LVU500
 1643 0064 6FF00303 		mvn	r3, #3
 1644 0068 D6E7     		b	.L104
 1645              		.cfi_endproc
 1646              	.LFE0:
 1648              		.section	.text.bmp5_soft_reset,"ax",%progbits
 1649              		.align	1
 1650              		.global	bmp5_soft_reset
 1651              		.syntax unified
 1652              		.thumb
 1653              		.thumb_func
 1655              	bmp5_soft_reset:
ARM GAS  C:\Users\Nathan\AppData\Local\Temp\ccQWWdhB.s 			page 73


 1656              	.LVL177:
 1657              	.LFB3:
 422:Drivers/BMP580/Src/bmp5.c ****     int8_t rslt;
 1658              		.loc 1 422 1 is_stmt 1 view -0
 1659              		.cfi_startproc
 1660              		@ args = 0, pretend = 0, frame = 8
 1661              		@ frame_needed = 0, uses_anonymous_args = 0
 422:Drivers/BMP580/Src/bmp5.c ****     int8_t rslt;
 1662              		.loc 1 422 1 is_stmt 0 view .LVU502
 1663 0000 30B5     		push	{r4, r5, lr}
 1664              		.cfi_def_cfa_offset 12
 1665              		.cfi_offset 4, -12
 1666              		.cfi_offset 5, -8
 1667              		.cfi_offset 14, -4
 1668 0002 83B0     		sub	sp, sp, #12
 1669              		.cfi_def_cfa_offset 24
 1670 0004 0446     		mov	r4, r0
 423:Drivers/BMP580/Src/bmp5.c ****     uint8_t reg_data;
 1671              		.loc 1 423 5 is_stmt 1 view .LVU503
 424:Drivers/BMP580/Src/bmp5.c ****     uint8_t por_status;
 1672              		.loc 1 424 5 view .LVU504
 425:Drivers/BMP580/Src/bmp5.c ****     uint8_t data = BMP5_SOFT_RESET_CMD;
 1673              		.loc 1 425 5 view .LVU505
 426:Drivers/BMP580/Src/bmp5.c **** 
 1674              		.loc 1 426 5 view .LVU506
 426:Drivers/BMP580/Src/bmp5.c **** 
 1675              		.loc 1 426 13 is_stmt 0 view .LVU507
 1676 0006 B623     		movs	r3, #182
 1677 0008 8DF80530 		strb	r3, [sp, #5]
 429:Drivers/BMP580/Src/bmp5.c **** 
 1678              		.loc 1 429 5 is_stmt 1 view .LVU508
 429:Drivers/BMP580/Src/bmp5.c **** 
 1679              		.loc 1 429 12 is_stmt 0 view .LVU509
 1680 000c 0346     		mov	r3, r0
 1681 000e 0122     		movs	r2, #1
 1682 0010 0DF10501 		add	r1, sp, #5
 1683 0014 7E20     		movs	r0, #126
 1684              	.LVL178:
 429:Drivers/BMP580/Src/bmp5.c **** 
 1685              		.loc 1 429 12 view .LVU510
 1686 0016 FFF7FEFF 		bl	bmp5_set_regs
 1687              	.LVL179:
 431:Drivers/BMP580/Src/bmp5.c ****     {
 1688              		.loc 1 431 5 is_stmt 1 view .LVU511
 431:Drivers/BMP580/Src/bmp5.c ****     {
 1689              		.loc 1 431 8 is_stmt 0 view .LVU512
 1690 001a 0546     		mov	r5, r0
 1691 001c 38B9     		cbnz	r0, .L111
 434:Drivers/BMP580/Src/bmp5.c **** 
 1692              		.loc 1 434 9 is_stmt 1 view .LVU513
 434:Drivers/BMP580/Src/bmp5.c **** 
 1693              		.loc 1 434 12 is_stmt 0 view .LVU514
 1694 001e 2369     		ldr	r3, [r4, #16]
 434:Drivers/BMP580/Src/bmp5.c **** 
 1695              		.loc 1 434 9 view .LVU515
 1696 0020 6168     		ldr	r1, [r4, #4]
 1697 0022 4FF4FA60 		mov	r0, #2000
ARM GAS  C:\Users\Nathan\AppData\Local\Temp\ccQWWdhB.s 			page 74


 1698              	.LVL180:
 434:Drivers/BMP580/Src/bmp5.c **** 
 1699              		.loc 1 434 9 view .LVU516
 1700 0026 9847     		blx	r3
 1701              	.LVL181:
 436:Drivers/BMP580/Src/bmp5.c ****         {
 1702              		.loc 1 436 9 is_stmt 1 view .LVU517
 436:Drivers/BMP580/Src/bmp5.c ****         {
 1703              		.loc 1 436 16 is_stmt 0 view .LVU518
 1704 0028 637D     		ldrb	r3, [r4, #21]	@ zero_extendqisi2
 436:Drivers/BMP580/Src/bmp5.c ****         {
 1705              		.loc 1 436 12 view .LVU519
 1706 002a 1BB1     		cbz	r3, .L115
 1707              	.LVL182:
 1708              	.L112:
 445:Drivers/BMP580/Src/bmp5.c ****         {
 1709              		.loc 1 445 9 is_stmt 1 view .LVU520
 445:Drivers/BMP580/Src/bmp5.c ****         {
 1710              		.loc 1 445 12 is_stmt 0 view .LVU521
 1711 002c 5DB1     		cbz	r5, .L116
 1712              	.LVL183:
 1713              	.L111:
 463:Drivers/BMP580/Src/bmp5.c **** }
 1714              		.loc 1 463 5 is_stmt 1 view .LVU522
 464:Drivers/BMP580/Src/bmp5.c **** 
 1715              		.loc 1 464 1 is_stmt 0 view .LVU523
 1716 002e 2846     		mov	r0, r5
 1717 0030 03B0     		add	sp, sp, #12
 1718              		.cfi_remember_state
 1719              		.cfi_def_cfa_offset 12
 1720              		@ sp needed
 1721 0032 30BD     		pop	{r4, r5, pc}
 1722              	.LVL184:
 1723              	.L115:
 1724              		.cfi_restore_state
 442:Drivers/BMP580/Src/bmp5.c ****         }
 1725              		.loc 1 442 13 is_stmt 1 view .LVU524
 442:Drivers/BMP580/Src/bmp5.c ****         }
 1726              		.loc 1 442 20 is_stmt 0 view .LVU525
 1727 0034 2346     		mov	r3, r4
 1728 0036 0122     		movs	r2, #1
 1729 0038 0DF10701 		add	r1, sp, #7
 1730 003c 1046     		mov	r0, r2
 1731 003e FFF7FEFF 		bl	bmp5_get_regs
 1732              	.LVL185:
 1733 0042 0546     		mov	r5, r0
 1734              	.LVL186:
 442:Drivers/BMP580/Src/bmp5.c ****         }
 1735              		.loc 1 442 20 view .LVU526
 1736 0044 F2E7     		b	.L112
 1737              	.L116:
 447:Drivers/BMP580/Src/bmp5.c **** 
 1738              		.loc 1 447 13 is_stmt 1 view .LVU527
 447:Drivers/BMP580/Src/bmp5.c **** 
 1739              		.loc 1 447 20 is_stmt 0 view .LVU528
 1740 0046 2146     		mov	r1, r4
 1741 0048 0DF10600 		add	r0, sp, #6
ARM GAS  C:\Users\Nathan\AppData\Local\Temp\ccQWWdhB.s 			page 75


 1742 004c FFF7FEFF 		bl	bmp5_get_interrupt_status
 1743              	.LVL187:
 449:Drivers/BMP580/Src/bmp5.c ****             {
 1744              		.loc 1 449 13 is_stmt 1 view .LVU529
 449:Drivers/BMP580/Src/bmp5.c ****             {
 1745              		.loc 1 449 16 is_stmt 0 view .LVU530
 1746 0050 0546     		mov	r5, r0
 1747 0052 0028     		cmp	r0, #0
 1748 0054 EBD1     		bne	.L111
 451:Drivers/BMP580/Src/bmp5.c ****                 {
 1749              		.loc 1 451 17 is_stmt 1 view .LVU531
 451:Drivers/BMP580/Src/bmp5.c ****                 {
 1750              		.loc 1 451 32 is_stmt 0 view .LVU532
 1751 0056 9DF80630 		ldrb	r3, [sp, #6]	@ zero_extendqisi2
 451:Drivers/BMP580/Src/bmp5.c ****                 {
 1752              		.loc 1 451 20 view .LVU533
 1753 005a 13F0100F 		tst	r3, #16
 1754 005e E6D1     		bne	.L111
 457:Drivers/BMP580/Src/bmp5.c ****                 }
 1755              		.loc 1 457 26 view .LVU534
 1756 0060 6FF00505 		mvn	r5, #5
 1757 0064 E3E7     		b	.L111
 1758              		.cfi_endproc
 1759              	.LFE3:
 1761              		.section	.text.bmp5_get_sensor_data,"ax",%progbits
 1762              		.align	1
 1763              		.global	bmp5_get_sensor_data
 1764              		.syntax unified
 1765              		.thumb
 1766              		.thumb_func
 1768              	bmp5_get_sensor_data:
 1769              	.LVL188:
 1770              	.LFB7:
 615:Drivers/BMP580/Src/bmp5.c ****     int8_t rslt;
 1771              		.loc 1 615 1 is_stmt 1 view -0
 1772              		.cfi_startproc
 1773              		@ args = 0, pretend = 0, frame = 8
 1774              		@ frame_needed = 0, uses_anonymous_args = 0
 615:Drivers/BMP580/Src/bmp5.c ****     int8_t rslt;
 1775              		.loc 1 615 1 is_stmt 0 view .LVU536
 1776 0000 70B5     		push	{r4, r5, r6, lr}
 1777              		.cfi_def_cfa_offset 16
 1778              		.cfi_offset 4, -16
 1779              		.cfi_offset 5, -12
 1780              		.cfi_offset 6, -8
 1781              		.cfi_offset 14, -4
 1782 0002 82B0     		sub	sp, sp, #8
 1783              		.cfi_def_cfa_offset 24
 1784 0004 0446     		mov	r4, r0
 1785 0006 0D46     		mov	r5, r1
 1786 0008 1346     		mov	r3, r2
 616:Drivers/BMP580/Src/bmp5.c ****     uint8_t reg_data[6] = { 0 };
 1787              		.loc 1 616 5 is_stmt 1 view .LVU537
 617:Drivers/BMP580/Src/bmp5.c ****     int32_t raw_data_t;
 1788              		.loc 1 617 5 view .LVU538
 617:Drivers/BMP580/Src/bmp5.c ****     int32_t raw_data_t;
 1789              		.loc 1 617 13 is_stmt 0 view .LVU539
ARM GAS  C:\Users\Nathan\AppData\Local\Temp\ccQWWdhB.s 			page 76


 1790 000a 0021     		movs	r1, #0
 1791              	.LVL189:
 617:Drivers/BMP580/Src/bmp5.c ****     int32_t raw_data_t;
 1792              		.loc 1 617 13 view .LVU540
 1793 000c 0091     		str	r1, [sp]
 1794 000e ADF80410 		strh	r1, [sp, #4]	@ movhi
 618:Drivers/BMP580/Src/bmp5.c ****     uint32_t raw_data_p;
 1795              		.loc 1 618 5 is_stmt 1 view .LVU541
 619:Drivers/BMP580/Src/bmp5.c **** 
 1796              		.loc 1 619 5 view .LVU542
 621:Drivers/BMP580/Src/bmp5.c **** 
 1797              		.loc 1 621 5 view .LVU543
 621:Drivers/BMP580/Src/bmp5.c **** 
 1798              		.loc 1 621 12 is_stmt 0 view .LVU544
 1799 0012 0622     		movs	r2, #6
 1800              	.LVL190:
 621:Drivers/BMP580/Src/bmp5.c **** 
 1801              		.loc 1 621 12 view .LVU545
 1802 0014 6946     		mov	r1, sp
 1803 0016 1D20     		movs	r0, #29
 1804              	.LVL191:
 621:Drivers/BMP580/Src/bmp5.c **** 
 1805              		.loc 1 621 12 view .LVU546
 1806 0018 FFF7FEFF 		bl	bmp5_get_regs
 1807              	.LVL192:
 623:Drivers/BMP580/Src/bmp5.c ****     {
 1808              		.loc 1 623 5 is_stmt 1 view .LVU547
 623:Drivers/BMP580/Src/bmp5.c ****     {
 1809              		.loc 1 623 8 is_stmt 0 view .LVU548
 1810 001c 0646     		mov	r6, r0
 1811 001e C8B9     		cbnz	r0, .L118
 625:Drivers/BMP580/Src/bmp5.c **** 
 1812              		.loc 1 625 9 is_stmt 1 view .LVU549
 625:Drivers/BMP580/Src/bmp5.c **** 
 1813              		.loc 1 625 74 is_stmt 0 view .LVU550
 1814 0020 9DF80230 		ldrb	r3, [sp, #2]	@ zero_extendqisi2
 625:Drivers/BMP580/Src/bmp5.c **** 
 1815              		.loc 1 625 106 view .LVU551
 1816 0024 9DF80100 		ldrb	r0, [sp, #1]	@ zero_extendqisi2
 1817              	.LVL193:
 625:Drivers/BMP580/Src/bmp5.c **** 
 1818              		.loc 1 625 110 view .LVU552
 1819 0028 0002     		lsls	r0, r0, #8
 625:Drivers/BMP580/Src/bmp5.c **** 
 1820              		.loc 1 625 85 view .LVU553
 1821 002a 40EA0340 		orr	r0, r0, r3, lsl #16
 625:Drivers/BMP580/Src/bmp5.c **** 
 1822              		.loc 1 625 126 view .LVU554
 1823 002e 9DF80030 		ldrb	r3, [sp]	@ zero_extendqisi2
 625:Drivers/BMP580/Src/bmp5.c **** 
 1824              		.loc 1 625 44 view .LVU555
 1825 0032 1843     		orrs	r0, r0, r3
 1826              	.LVL194:
 637:Drivers/BMP580/Src/bmp5.c **** #endif
 1827              		.loc 1 637 9 is_stmt 1 view .LVU556
 637:Drivers/BMP580/Src/bmp5.c **** #endif
 1828              		.loc 1 637 55 is_stmt 0 view .LVU557
ARM GAS  C:\Users\Nathan\AppData\Local\Temp\ccQWWdhB.s 			page 77


 1829 0034 40F31700 		sbfx	r0, r0, #0, #24
 1830              	.LVL195:
 637:Drivers/BMP580/Src/bmp5.c **** #endif
 1831              		.loc 1 637 55 view .LVU558
 1832 0038 FFF7FEFF 		bl	__aeabi_i2d
 1833              	.LVL196:
 637:Drivers/BMP580/Src/bmp5.c **** #endif
 1834              		.loc 1 637 55 view .LVU559
 1835 003c 0022     		movs	r2, #0
 1836 003e 114B     		ldr	r3, .L122
 1837 0040 FFF7FEFF 		bl	__aeabi_dmul
 1838              	.LVL197:
 637:Drivers/BMP580/Src/bmp5.c **** #endif
 1839              		.loc 1 637 36 view .LVU560
 1840 0044 FFF7FEFF 		bl	__aeabi_d2f
 1841              	.LVL198:
 637:Drivers/BMP580/Src/bmp5.c **** #endif
 1842              		.loc 1 637 34 view .LVU561
 1843 0048 6060     		str	r0, [r4, #4]	@ float
 640:Drivers/BMP580/Src/bmp5.c ****         {
 1844              		.loc 1 640 9 is_stmt 1 view .LVU562
 640:Drivers/BMP580/Src/bmp5.c ****         {
 1845              		.loc 1 640 30 is_stmt 0 view .LVU563
 1846 004a AB78     		ldrb	r3, [r5, #2]	@ zero_extendqisi2
 640:Drivers/BMP580/Src/bmp5.c ****         {
 1847              		.loc 1 640 12 view .LVU564
 1848 004c 012B     		cmp	r3, #1
 1849 004e 04D0     		beq	.L121
 659:Drivers/BMP580/Src/bmp5.c ****         }
 1850              		.loc 1 659 13 is_stmt 1 view .LVU565
 659:Drivers/BMP580/Src/bmp5.c ****         }
 1851              		.loc 1 659 35 is_stmt 0 view .LVU566
 1852 0050 0023     		movs	r3, #0
 1853 0052 2360     		str	r3, [r4]	@ float
 1854              	.LVL199:
 1855              	.L118:
 663:Drivers/BMP580/Src/bmp5.c **** }
 1856              		.loc 1 663 5 is_stmt 1 view .LVU567
 664:Drivers/BMP580/Src/bmp5.c **** 
 1857              		.loc 1 664 1 is_stmt 0 view .LVU568
 1858 0054 3046     		mov	r0, r6
 1859 0056 02B0     		add	sp, sp, #8
 1860              		.cfi_remember_state
 1861              		.cfi_def_cfa_offset 16
 1862              		@ sp needed
 1863 0058 70BD     		pop	{r4, r5, r6, pc}
 1864              	.LVL200:
 1865              	.L121:
 1866              		.cfi_restore_state
 642:Drivers/BMP580/Src/bmp5.c **** 
 1867              		.loc 1 642 13 is_stmt 1 view .LVU569
 642:Drivers/BMP580/Src/bmp5.c **** 
 1868              		.loc 1 642 56 is_stmt 0 view .LVU570
 1869 005a 9DF80520 		ldrb	r2, [sp, #5]	@ zero_extendqisi2
 642:Drivers/BMP580/Src/bmp5.c **** 
 1870              		.loc 1 642 88 view .LVU571
 1871 005e 9DF80430 		ldrb	r3, [sp, #4]	@ zero_extendqisi2
ARM GAS  C:\Users\Nathan\AppData\Local\Temp\ccQWWdhB.s 			page 78


 642:Drivers/BMP580/Src/bmp5.c **** 
 1872              		.loc 1 642 69 view .LVU572
 1873 0062 1B02     		lsls	r3, r3, #8
 642:Drivers/BMP580/Src/bmp5.c **** 
 1874              		.loc 1 642 67 view .LVU573
 1875 0064 43EA0243 		orr	r3, r3, r2, lsl #16
 642:Drivers/BMP580/Src/bmp5.c **** 
 1876              		.loc 1 642 108 view .LVU574
 1877 0068 9DF80300 		ldrb	r0, [sp, #3]	@ zero_extendqisi2
 1878              	.LVL201:
 654:Drivers/BMP580/Src/bmp5.c **** #endif
 1879              		.loc 1 654 13 is_stmt 1 view .LVU575
 654:Drivers/BMP580/Src/bmp5.c **** #endif
 1880              		.loc 1 654 56 is_stmt 0 view .LVU576
 1881 006c 1843     		orrs	r0, r0, r3
 1882              	.LVL202:
 654:Drivers/BMP580/Src/bmp5.c **** #endif
 1883              		.loc 1 654 56 view .LVU577
 1884 006e FFF7FEFF 		bl	__aeabi_ui2d
 1885              	.LVL203:
 654:Drivers/BMP580/Src/bmp5.c **** #endif
 1886              		.loc 1 654 56 view .LVU578
 1887 0072 0022     		movs	r2, #0
 1888 0074 044B     		ldr	r3, .L122+4
 1889 0076 FFF7FEFF 		bl	__aeabi_dmul
 1890              	.LVL204:
 654:Drivers/BMP580/Src/bmp5.c **** #endif
 1891              		.loc 1 654 37 view .LVU579
 1892 007a FFF7FEFF 		bl	__aeabi_d2f
 1893              	.LVL205:
 654:Drivers/BMP580/Src/bmp5.c **** #endif
 1894              		.loc 1 654 35 view .LVU580
 1895 007e 2060     		str	r0, [r4]	@ float
 1896 0080 E8E7     		b	.L118
 1897              	.L123:
 1898 0082 00BF     		.align	2
 1899              	.L122:
 1900 0084 0000F03E 		.word	1055916032
 1901 0088 0000903F 		.word	1066401792
 1902              		.cfi_endproc
 1903              	.LFE7:
 1905              		.section	.text.bmp5_int_source_select,"ax",%progbits
 1906              		.align	1
 1907              		.global	bmp5_int_source_select
 1908              		.syntax unified
 1909              		.thumb
 1910              		.thumb_func
 1912              	bmp5_int_source_select:
 1913              	.LVL206:
 1914              	.LFB8:
 671:Drivers/BMP580/Src/bmp5.c ****     int8_t rslt;
 1915              		.loc 1 671 1 is_stmt 1 view -0
 1916              		.cfi_startproc
 1917              		@ args = 0, pretend = 0, frame = 8
 1918              		@ frame_needed = 0, uses_anonymous_args = 0
 672:Drivers/BMP580/Src/bmp5.c ****     uint8_t reg_data;
 1919              		.loc 1 672 5 view .LVU582
ARM GAS  C:\Users\Nathan\AppData\Local\Temp\ccQWWdhB.s 			page 79


 673:Drivers/BMP580/Src/bmp5.c **** 
 1920              		.loc 1 673 5 view .LVU583
 675:Drivers/BMP580/Src/bmp5.c ****     {
 1921              		.loc 1 675 5 view .LVU584
 675:Drivers/BMP580/Src/bmp5.c ****     {
 1922              		.loc 1 675 8 is_stmt 0 view .LVU585
 1923 0000 0028     		cmp	r0, #0
 1924 0002 3AD0     		beq	.L126
 671:Drivers/BMP580/Src/bmp5.c ****     int8_t rslt;
 1925              		.loc 1 671 1 view .LVU586
 1926 0004 30B5     		push	{r4, r5, lr}
 1927              		.cfi_def_cfa_offset 12
 1928              		.cfi_offset 4, -12
 1929              		.cfi_offset 5, -8
 1930              		.cfi_offset 14, -4
 1931 0006 83B0     		sub	sp, sp, #12
 1932              		.cfi_def_cfa_offset 24
 1933 0008 0C46     		mov	r4, r1
 1934 000a 0546     		mov	r5, r0
 677:Drivers/BMP580/Src/bmp5.c **** 
 1935              		.loc 1 677 9 is_stmt 1 view .LVU587
 677:Drivers/BMP580/Src/bmp5.c **** 
 1936              		.loc 1 677 16 is_stmt 0 view .LVU588
 1937 000c 0B46     		mov	r3, r1
 1938 000e 0122     		movs	r2, #1
 1939 0010 0DF10701 		add	r1, sp, #7
 1940              	.LVL207:
 677:Drivers/BMP580/Src/bmp5.c **** 
 1941              		.loc 1 677 16 view .LVU589
 1942 0014 1520     		movs	r0, #21
 1943              	.LVL208:
 677:Drivers/BMP580/Src/bmp5.c **** 
 1944              		.loc 1 677 16 view .LVU590
 1945 0016 FFF7FEFF 		bl	bmp5_get_regs
 1946              	.LVL209:
 679:Drivers/BMP580/Src/bmp5.c ****         {
 1947              		.loc 1 679 9 is_stmt 1 view .LVU591
 679:Drivers/BMP580/Src/bmp5.c ****         {
 1948              		.loc 1 679 12 is_stmt 0 view .LVU592
 1949 001a 08B1     		cbz	r0, .L131
 1950              	.L125:
 697:Drivers/BMP580/Src/bmp5.c **** }
 1951              		.loc 1 697 5 is_stmt 1 view .LVU593
 698:Drivers/BMP580/Src/bmp5.c **** 
 1952              		.loc 1 698 1 is_stmt 0 view .LVU594
 1953 001c 03B0     		add	sp, sp, #12
 1954              		.cfi_remember_state
 1955              		.cfi_def_cfa_offset 12
 1956              		@ sp needed
 1957 001e 30BD     		pop	{r4, r5, pc}
 1958              	.LVL210:
 1959              	.L131:
 1960              		.cfi_restore_state
 681:Drivers/BMP580/Src/bmp5.c **** 
 1961              		.loc 1 681 13 is_stmt 1 view .LVU595
 681:Drivers/BMP580/Src/bmp5.c **** 
 1962              		.loc 1 681 24 is_stmt 0 view .LVU596
ARM GAS  C:\Users\Nathan\AppData\Local\Temp\ccQWWdhB.s 			page 80


 1963 0020 9DF80720 		ldrb	r2, [sp, #7]	@ zero_extendqisi2
 1964 0024 2B78     		ldrb	r3, [r5]	@ zero_extendqisi2
 1965 0026 22F00102 		bic	r2, r2, #1
 1966 002a 03F00103 		and	r3, r3, #1
 1967 002e 1A43     		orrs	r2, r2, r3
 681:Drivers/BMP580/Src/bmp5.c **** 
 1968              		.loc 1 681 22 view .LVU597
 1969 0030 8DF80720 		strb	r2, [sp, #7]
 683:Drivers/BMP580/Src/bmp5.c **** 
 1970              		.loc 1 683 13 is_stmt 1 view .LVU598
 683:Drivers/BMP580/Src/bmp5.c **** 
 1971              		.loc 1 683 24 is_stmt 0 view .LVU599
 1972 0034 6B78     		ldrb	r3, [r5, #1]	@ zero_extendqisi2
 1973 0036 5B00     		lsls	r3, r3, #1
 1974 0038 03F00203 		and	r3, r3, #2
 1975 003c 22F00202 		bic	r2, r2, #2
 1976 0040 1A43     		orrs	r2, r2, r3
 683:Drivers/BMP580/Src/bmp5.c **** 
 1977              		.loc 1 683 22 view .LVU600
 1978 0042 8DF80720 		strb	r2, [sp, #7]
 685:Drivers/BMP580/Src/bmp5.c **** 
 1979              		.loc 1 685 13 is_stmt 1 view .LVU601
 685:Drivers/BMP580/Src/bmp5.c **** 
 1980              		.loc 1 685 24 is_stmt 0 view .LVU602
 1981 0046 AB78     		ldrb	r3, [r5, #2]	@ zero_extendqisi2
 1982 0048 9B00     		lsls	r3, r3, #2
 1983 004a 03F00403 		and	r3, r3, #4
 1984 004e 22F00402 		bic	r2, r2, #4
 1985 0052 1A43     		orrs	r2, r2, r3
 685:Drivers/BMP580/Src/bmp5.c **** 
 1986              		.loc 1 685 22 view .LVU603
 1987 0054 8DF80720 		strb	r2, [sp, #7]
 687:Drivers/BMP580/Src/bmp5.c **** 
 1988              		.loc 1 687 13 is_stmt 1 view .LVU604
 687:Drivers/BMP580/Src/bmp5.c **** 
 1989              		.loc 1 687 24 is_stmt 0 view .LVU605
 1990 0058 EB78     		ldrb	r3, [r5, #3]	@ zero_extendqisi2
 1991 005a DB00     		lsls	r3, r3, #3
 1992 005c 03F00803 		and	r3, r3, #8
 1993 0060 22F00802 		bic	r2, r2, #8
 1994 0064 1A43     		orrs	r2, r2, r3
 687:Drivers/BMP580/Src/bmp5.c **** 
 1995              		.loc 1 687 22 view .LVU606
 1996 0066 8DF80720 		strb	r2, [sp, #7]
 689:Drivers/BMP580/Src/bmp5.c ****         }
 1997              		.loc 1 689 13 is_stmt 1 view .LVU607
 689:Drivers/BMP580/Src/bmp5.c ****         }
 1998              		.loc 1 689 20 is_stmt 0 view .LVU608
 1999 006a 2346     		mov	r3, r4
 2000 006c 0122     		movs	r2, #1
 2001 006e 0DF10701 		add	r1, sp, #7
 2002 0072 1520     		movs	r0, #21
 2003              	.LVL211:
 689:Drivers/BMP580/Src/bmp5.c ****         }
 2004              		.loc 1 689 20 view .LVU609
 2005 0074 FFF7FEFF 		bl	bmp5_set_regs
 2006              	.LVL212:
ARM GAS  C:\Users\Nathan\AppData\Local\Temp\ccQWWdhB.s 			page 81


 689:Drivers/BMP580/Src/bmp5.c ****         }
 2007              		.loc 1 689 20 view .LVU610
 2008 0078 D0E7     		b	.L125
 2009              	.LVL213:
 2010              	.L126:
 2011              		.cfi_def_cfa_offset 0
 2012              		.cfi_restore 4
 2013              		.cfi_restore 5
 2014              		.cfi_restore 14
 694:Drivers/BMP580/Src/bmp5.c ****     }
 2015              		.loc 1 694 14 view .LVU611
 2016 007a 4FF0FF30 		mov	r0, #-1
 2017              	.LVL214:
 697:Drivers/BMP580/Src/bmp5.c **** }
 2018              		.loc 1 697 5 is_stmt 1 view .LVU612
 698:Drivers/BMP580/Src/bmp5.c **** 
 2019              		.loc 1 698 1 is_stmt 0 view .LVU613
 2020 007e 7047     		bx	lr
 2021              		.cfi_endproc
 2022              	.LFE8:
 2024              		.section	.text.bmp5_configure_interrupt,"ax",%progbits
 2025              		.align	1
 2026              		.global	bmp5_configure_interrupt
 2027              		.syntax unified
 2028              		.thumb
 2029              		.thumb_func
 2031              	bmp5_configure_interrupt:
 2032              	.LVL215:
 2033              	.LFB9:
 708:Drivers/BMP580/Src/bmp5.c ****     /* Variable to store the function result */
 2034              		.loc 1 708 1 is_stmt 1 view -0
 2035              		.cfi_startproc
 2036              		@ args = 4, pretend = 0, frame = 8
 2037              		@ frame_needed = 0, uses_anonymous_args = 0
 708:Drivers/BMP580/Src/bmp5.c ****     /* Variable to store the function result */
 2038              		.loc 1 708 1 is_stmt 0 view .LVU615
 2039 0000 2DE9F043 		push	{r4, r5, r6, r7, r8, r9, lr}
 2040              		.cfi_def_cfa_offset 28
 2041              		.cfi_offset 4, -28
 2042              		.cfi_offset 5, -24
 2043              		.cfi_offset 6, -20
 2044              		.cfi_offset 7, -16
 2045              		.cfi_offset 8, -12
 2046              		.cfi_offset 9, -8
 2047              		.cfi_offset 14, -4
 2048 0004 83B0     		sub	sp, sp, #12
 2049              		.cfi_def_cfa_offset 40
 2050 0006 8046     		mov	r8, r0
 2051 0008 0F46     		mov	r7, r1
 2052 000a 1646     		mov	r6, r2
 2053 000c 9946     		mov	r9, r3
 2054 000e 0A9D     		ldr	r5, [sp, #40]
 710:Drivers/BMP580/Src/bmp5.c **** 
 2055              		.loc 1 710 5 is_stmt 1 view .LVU616
 713:Drivers/BMP580/Src/bmp5.c **** 
 2056              		.loc 1 713 5 view .LVU617
 713:Drivers/BMP580/Src/bmp5.c **** 
ARM GAS  C:\Users\Nathan\AppData\Local\Temp\ccQWWdhB.s 			page 82


 2057              		.loc 1 713 13 is_stmt 0 view .LVU618
 2058 0010 4FF0000C 		mov	ip, #0
 2059 0014 8DF807C0 		strb	ip, [sp, #7]
 716:Drivers/BMP580/Src/bmp5.c **** 
 2060              		.loc 1 716 5 is_stmt 1 view .LVU619
 716:Drivers/BMP580/Src/bmp5.c **** 
 2061              		.loc 1 716 13 is_stmt 0 view .LVU620
 2062 0018 8DF806C0 		strb	ip, [sp, #6]
 719:Drivers/BMP580/Src/bmp5.c **** 
 2063              		.loc 1 719 5 is_stmt 1 view .LVU621
 719:Drivers/BMP580/Src/bmp5.c **** 
 2064              		.loc 1 719 13 is_stmt 0 view .LVU622
 2065 001c 8DF805C0 		strb	ip, [sp, #5]
 722:Drivers/BMP580/Src/bmp5.c **** 
 2066              		.loc 1 722 5 is_stmt 1 view .LVU623
 722:Drivers/BMP580/Src/bmp5.c **** 
 2067              		.loc 1 722 12 is_stmt 0 view .LVU624
 2068 0020 2B46     		mov	r3, r5
 2069              	.LVL216:
 722:Drivers/BMP580/Src/bmp5.c **** 
 2070              		.loc 1 722 12 view .LVU625
 2071 0022 0122     		movs	r2, #1
 2072              	.LVL217:
 722:Drivers/BMP580/Src/bmp5.c **** 
 2073              		.loc 1 722 12 view .LVU626
 2074 0024 0DF10701 		add	r1, sp, #7
 2075              	.LVL218:
 722:Drivers/BMP580/Src/bmp5.c **** 
 2076              		.loc 1 722 12 view .LVU627
 2077 0028 1420     		movs	r0, #20
 2078              	.LVL219:
 722:Drivers/BMP580/Src/bmp5.c **** 
 2079              		.loc 1 722 12 view .LVU628
 2080 002a FFF7FEFF 		bl	bmp5_get_regs
 2081              	.LVL220:
 724:Drivers/BMP580/Src/bmp5.c ****     {
 2082              		.loc 1 724 5 is_stmt 1 view .LVU629
 724:Drivers/BMP580/Src/bmp5.c ****     {
 2083              		.loc 1 724 8 is_stmt 0 view .LVU630
 2084 002e 10B1     		cbz	r0, .L135
 2085              	.LVL221:
 2086              	.L133:
 749:Drivers/BMP580/Src/bmp5.c **** }
 2087              		.loc 1 749 5 is_stmt 1 view .LVU631
 750:Drivers/BMP580/Src/bmp5.c **** 
 2088              		.loc 1 750 1 is_stmt 0 view .LVU632
 2089 0030 03B0     		add	sp, sp, #12
 2090              		.cfi_remember_state
 2091              		.cfi_def_cfa_offset 28
 2092              		@ sp needed
 2093 0032 BDE8F083 		pop	{r4, r5, r6, r7, r8, r9, pc}
 2094              	.LVL222:
 2095              	.L135:
 2096              		.cfi_restore_state
 728:Drivers/BMP580/Src/bmp5.c **** 
 2097              		.loc 1 728 9 is_stmt 1 view .LVU633
 728:Drivers/BMP580/Src/bmp5.c **** 
ARM GAS  C:\Users\Nathan\AppData\Local\Temp\ccQWWdhB.s 			page 83


 2098              		.loc 1 728 16 is_stmt 0 view .LVU634
 2099 0036 2B46     		mov	r3, r5
 2100 0038 0122     		movs	r2, #1
 2101 003a 0DF10601 		add	r1, sp, #6
 2102 003e 1520     		movs	r0, #21
 2103 0040 FFF7FEFF 		bl	bmp5_set_regs
 2104              	.LVL223:
 730:Drivers/BMP580/Src/bmp5.c ****         {
 2105              		.loc 1 730 9 is_stmt 1 view .LVU635
 730:Drivers/BMP580/Src/bmp5.c ****         {
 2106              		.loc 1 730 12 is_stmt 0 view .LVU636
 2107 0044 0028     		cmp	r0, #0
 2108 0046 F3D1     		bne	.L133
 733:Drivers/BMP580/Src/bmp5.c **** 
 2109              		.loc 1 733 13 is_stmt 1 view .LVU637
 733:Drivers/BMP580/Src/bmp5.c **** 
 2110              		.loc 1 733 20 is_stmt 0 view .LVU638
 2111 0048 2B46     		mov	r3, r5
 2112 004a 0122     		movs	r2, #1
 2113 004c 0DF10501 		add	r1, sp, #5
 2114 0050 2720     		movs	r0, #39
 2115              	.LVL224:
 733:Drivers/BMP580/Src/bmp5.c **** 
 2116              		.loc 1 733 20 view .LVU639
 2117 0052 FFF7FEFF 		bl	bmp5_get_regs
 2118              	.LVL225:
 735:Drivers/BMP580/Src/bmp5.c ****             {
 2119              		.loc 1 735 13 is_stmt 1 view .LVU640
 735:Drivers/BMP580/Src/bmp5.c ****             {
 2120              		.loc 1 735 16 is_stmt 0 view .LVU641
 2121 0056 0028     		cmp	r0, #0
 2122 0058 EAD1     		bne	.L133
 738:Drivers/BMP580/Src/bmp5.c ****                 reg_data = BMP5_SET_BITSLICE(reg_data, BMP5_INT_POL, int_pol);
 2123              		.loc 1 738 17 is_stmt 1 view .LVU642
 738:Drivers/BMP580/Src/bmp5.c ****                 reg_data = BMP5_SET_BITSLICE(reg_data, BMP5_INT_POL, int_pol);
 2124              		.loc 1 738 28 is_stmt 0 view .LVU643
 2125 005a 9DF80720 		ldrb	r2, [sp, #7]	@ zero_extendqisi2
 2126 005e 22F00102 		bic	r2, r2, #1
 2127 0062 08F00108 		and	r8, r8, #1
 2128 0066 42EA0802 		orr	r2, r2, r8
 738:Drivers/BMP580/Src/bmp5.c ****                 reg_data = BMP5_SET_BITSLICE(reg_data, BMP5_INT_POL, int_pol);
 2129              		.loc 1 738 26 view .LVU644
 2130 006a 8DF80720 		strb	r2, [sp, #7]
 739:Drivers/BMP580/Src/bmp5.c ****                 reg_data = BMP5_SET_BITSLICE(reg_data, BMP5_INT_OD, int_od);
 2131              		.loc 1 739 17 is_stmt 1 view .LVU645
 739:Drivers/BMP580/Src/bmp5.c ****                 reg_data = BMP5_SET_BITSLICE(reg_data, BMP5_INT_OD, int_od);
 2132              		.loc 1 739 28 is_stmt 0 view .LVU646
 2133 006e 7F00     		lsls	r7, r7, #1
 2134 0070 07F00207 		and	r7, r7, #2
 2135 0074 22F00202 		bic	r2, r2, #2
 2136 0078 3A43     		orrs	r2, r2, r7
 739:Drivers/BMP580/Src/bmp5.c ****                 reg_data = BMP5_SET_BITSLICE(reg_data, BMP5_INT_OD, int_od);
 2137              		.loc 1 739 26 view .LVU647
 2138 007a 8DF80720 		strb	r2, [sp, #7]
 740:Drivers/BMP580/Src/bmp5.c ****                 reg_data = BMP5_SET_BITSLICE(reg_data, BMP5_INT_EN, int_en);
 2139              		.loc 1 740 17 is_stmt 1 view .LVU648
 740:Drivers/BMP580/Src/bmp5.c ****                 reg_data = BMP5_SET_BITSLICE(reg_data, BMP5_INT_EN, int_en);
ARM GAS  C:\Users\Nathan\AppData\Local\Temp\ccQWWdhB.s 			page 84


 2140              		.loc 1 740 28 is_stmt 0 view .LVU649
 2141 007e B600     		lsls	r6, r6, #2
 2142 0080 06F00406 		and	r6, r6, #4
 2143 0084 22F00402 		bic	r2, r2, #4
 2144 0088 3243     		orrs	r2, r2, r6
 740:Drivers/BMP580/Src/bmp5.c ****                 reg_data = BMP5_SET_BITSLICE(reg_data, BMP5_INT_EN, int_en);
 2145              		.loc 1 740 26 view .LVU650
 2146 008a 8DF80720 		strb	r2, [sp, #7]
 741:Drivers/BMP580/Src/bmp5.c **** 
 2147              		.loc 1 741 17 is_stmt 1 view .LVU651
 741:Drivers/BMP580/Src/bmp5.c **** 
 2148              		.loc 1 741 28 is_stmt 0 view .LVU652
 2149 008e 4FEAC903 		lsl	r3, r9, #3
 2150 0092 03F00803 		and	r3, r3, #8
 2151 0096 22F00802 		bic	r2, r2, #8
 2152 009a 1A43     		orrs	r2, r2, r3
 741:Drivers/BMP580/Src/bmp5.c **** 
 2153              		.loc 1 741 26 view .LVU653
 2154 009c 8DF80720 		strb	r2, [sp, #7]
 744:Drivers/BMP580/Src/bmp5.c ****             }
 2155              		.loc 1 744 17 is_stmt 1 view .LVU654
 744:Drivers/BMP580/Src/bmp5.c ****             }
 2156              		.loc 1 744 24 is_stmt 0 view .LVU655
 2157 00a0 2B46     		mov	r3, r5
 2158 00a2 0122     		movs	r2, #1
 2159 00a4 0DF10701 		add	r1, sp, #7
 2160 00a8 1420     		movs	r0, #20
 2161              	.LVL226:
 744:Drivers/BMP580/Src/bmp5.c ****             }
 2162              		.loc 1 744 24 view .LVU656
 2163 00aa FFF7FEFF 		bl	bmp5_set_regs
 2164              	.LVL227:
 744:Drivers/BMP580/Src/bmp5.c ****             }
 2165              		.loc 1 744 24 view .LVU657
 2166 00ae BFE7     		b	.L133
 2167              		.cfi_endproc
 2168              	.LFE9:
 2170              		.section	.text.bmp5_get_osr_odr_press_config,"ax",%progbits
 2171              		.align	1
 2172              		.global	bmp5_get_osr_odr_press_config
 2173              		.syntax unified
 2174              		.thumb
 2175              		.thumb_func
 2177              	bmp5_get_osr_odr_press_config:
 2178              	.LVL228:
 2179              	.LFB10:
 757:Drivers/BMP580/Src/bmp5.c ****     /* Variable to store the function result */
 2180              		.loc 1 757 1 is_stmt 1 view -0
 2181              		.cfi_startproc
 2182              		@ args = 0, pretend = 0, frame = 8
 2183              		@ frame_needed = 0, uses_anonymous_args = 0
 759:Drivers/BMP580/Src/bmp5.c **** 
 2184              		.loc 1 759 5 view .LVU659
 762:Drivers/BMP580/Src/bmp5.c **** 
 2185              		.loc 1 762 5 view .LVU660
 764:Drivers/BMP580/Src/bmp5.c ****     {
 2186              		.loc 1 764 5 view .LVU661
ARM GAS  C:\Users\Nathan\AppData\Local\Temp\ccQWWdhB.s 			page 85


 764:Drivers/BMP580/Src/bmp5.c ****     {
 2187              		.loc 1 764 8 is_stmt 0 view .LVU662
 2188 0000 D8B1     		cbz	r0, .L138
 757:Drivers/BMP580/Src/bmp5.c ****     /* Variable to store the function result */
 2189              		.loc 1 757 1 view .LVU663
 2190 0002 10B5     		push	{r4, lr}
 2191              		.cfi_def_cfa_offset 8
 2192              		.cfi_offset 4, -8
 2193              		.cfi_offset 14, -4
 2194 0004 82B0     		sub	sp, sp, #8
 2195              		.cfi_def_cfa_offset 16
 2196 0006 0B46     		mov	r3, r1
 2197 0008 0446     		mov	r4, r0
 767:Drivers/BMP580/Src/bmp5.c **** 
 2198              		.loc 1 767 9 is_stmt 1 view .LVU664
 767:Drivers/BMP580/Src/bmp5.c **** 
 2199              		.loc 1 767 16 is_stmt 0 view .LVU665
 2200 000a 0222     		movs	r2, #2
 2201 000c 01A9     		add	r1, sp, #4
 2202              	.LVL229:
 767:Drivers/BMP580/Src/bmp5.c **** 
 2203              		.loc 1 767 16 view .LVU666
 2204 000e 3620     		movs	r0, #54
 2205              	.LVL230:
 767:Drivers/BMP580/Src/bmp5.c **** 
 2206              		.loc 1 767 16 view .LVU667
 2207 0010 FFF7FEFF 		bl	bmp5_get_regs
 2208              	.LVL231:
 769:Drivers/BMP580/Src/bmp5.c ****         {
 2209              		.loc 1 769 9 is_stmt 1 view .LVU668
 769:Drivers/BMP580/Src/bmp5.c ****         {
 2210              		.loc 1 769 12 is_stmt 0 view .LVU669
 2211 0014 78B9     		cbnz	r0, .L137
 771:Drivers/BMP580/Src/bmp5.c ****             osr_odr_press_cfg->osr_p = BMP5_GET_BITSLICE(reg_data[0], BMP5_PRESS_OS);
 2212              		.loc 1 771 13 is_stmt 1 view .LVU670
 771:Drivers/BMP580/Src/bmp5.c ****             osr_odr_press_cfg->osr_p = BMP5_GET_BITSLICE(reg_data[0], BMP5_PRESS_OS);
 2213              		.loc 1 771 40 is_stmt 0 view .LVU671
 2214 0016 9DF80430 		ldrb	r3, [sp, #4]	@ zero_extendqisi2
 2215 001a 03F00702 		and	r2, r3, #7
 771:Drivers/BMP580/Src/bmp5.c ****             osr_odr_press_cfg->osr_p = BMP5_GET_BITSLICE(reg_data[0], BMP5_PRESS_OS);
 2216              		.loc 1 771 38 view .LVU672
 2217 001e 2270     		strb	r2, [r4]
 772:Drivers/BMP580/Src/bmp5.c ****             osr_odr_press_cfg->press_en = BMP5_GET_BITSLICE(reg_data[0], BMP5_PRESS_EN);
 2218              		.loc 1 772 13 is_stmt 1 view .LVU673
 772:Drivers/BMP580/Src/bmp5.c ****             osr_odr_press_cfg->press_en = BMP5_GET_BITSLICE(reg_data[0], BMP5_PRESS_EN);
 2219              		.loc 1 772 40 is_stmt 0 view .LVU674
 2220 0020 C3F3C202 		ubfx	r2, r3, #3, #3
 772:Drivers/BMP580/Src/bmp5.c ****             osr_odr_press_cfg->press_en = BMP5_GET_BITSLICE(reg_data[0], BMP5_PRESS_EN);
 2221              		.loc 1 772 38 view .LVU675
 2222 0024 6270     		strb	r2, [r4, #1]
 773:Drivers/BMP580/Src/bmp5.c ****             osr_odr_press_cfg->odr = BMP5_GET_BITSLICE(reg_data[1], BMP5_ODR);
 2223              		.loc 1 773 13 is_stmt 1 view .LVU676
 773:Drivers/BMP580/Src/bmp5.c ****             osr_odr_press_cfg->odr = BMP5_GET_BITSLICE(reg_data[1], BMP5_ODR);
 2224              		.loc 1 773 43 is_stmt 0 view .LVU677
 2225 0026 C3F38013 		ubfx	r3, r3, #6, #1
 773:Drivers/BMP580/Src/bmp5.c ****             osr_odr_press_cfg->odr = BMP5_GET_BITSLICE(reg_data[1], BMP5_ODR);
 2226              		.loc 1 773 41 view .LVU678
ARM GAS  C:\Users\Nathan\AppData\Local\Temp\ccQWWdhB.s 			page 86


 2227 002a A370     		strb	r3, [r4, #2]
 774:Drivers/BMP580/Src/bmp5.c ****         }
 2228              		.loc 1 774 13 is_stmt 1 view .LVU679
 774:Drivers/BMP580/Src/bmp5.c ****         }
 2229              		.loc 1 774 38 is_stmt 0 view .LVU680
 2230 002c 9DF80530 		ldrb	r3, [sp, #5]	@ zero_extendqisi2
 2231 0030 C3F38403 		ubfx	r3, r3, #2, #5
 774:Drivers/BMP580/Src/bmp5.c ****         }
 2232              		.loc 1 774 36 view .LVU681
 2233 0034 E370     		strb	r3, [r4, #3]
 2234              	.L137:
 782:Drivers/BMP580/Src/bmp5.c **** }
 2235              		.loc 1 782 5 is_stmt 1 view .LVU682
 783:Drivers/BMP580/Src/bmp5.c **** 
 2236              		.loc 1 783 1 is_stmt 0 view .LVU683
 2237 0036 02B0     		add	sp, sp, #8
 2238              		.cfi_def_cfa_offset 8
 2239              		@ sp needed
 2240 0038 10BD     		pop	{r4, pc}
 2241              	.LVL232:
 2242              	.L138:
 2243              		.cfi_def_cfa_offset 0
 2244              		.cfi_restore 4
 2245              		.cfi_restore 14
 779:Drivers/BMP580/Src/bmp5.c ****     }
 2246              		.loc 1 779 14 view .LVU684
 2247 003a 4FF0FF30 		mov	r0, #-1
 2248              	.LVL233:
 782:Drivers/BMP580/Src/bmp5.c **** }
 2249              		.loc 1 782 5 is_stmt 1 view .LVU685
 783:Drivers/BMP580/Src/bmp5.c **** 
 2250              		.loc 1 783 1 is_stmt 0 view .LVU686
 2251 003e 7047     		bx	lr
 2252              		.cfi_endproc
 2253              	.LFE10:
 2255              		.section	.text.bmp5_get_iir_config,"ax",%progbits
 2256              		.align	1
 2257              		.global	bmp5_get_iir_config
 2258              		.syntax unified
 2259              		.thumb
 2260              		.thumb_func
 2262              	bmp5_get_iir_config:
 2263              	.LVL234:
 2264              	.LFB12:
 840:Drivers/BMP580/Src/bmp5.c ****     /* Variable to store the function result */
 2265              		.loc 1 840 1 is_stmt 1 view -0
 2266              		.cfi_startproc
 2267              		@ args = 0, pretend = 0, frame = 8
 2268              		@ frame_needed = 0, uses_anonymous_args = 0
 842:Drivers/BMP580/Src/bmp5.c **** 
 2269              		.loc 1 842 5 view .LVU688
 845:Drivers/BMP580/Src/bmp5.c **** 
 2270              		.loc 1 845 5 view .LVU689
 847:Drivers/BMP580/Src/bmp5.c ****     {
 2271              		.loc 1 847 5 view .LVU690
 847:Drivers/BMP580/Src/bmp5.c ****     {
 2272              		.loc 1 847 8 is_stmt 0 view .LVU691
ARM GAS  C:\Users\Nathan\AppData\Local\Temp\ccQWWdhB.s 			page 87


 2273 0000 E8B1     		cbz	r0, .L145
 840:Drivers/BMP580/Src/bmp5.c ****     /* Variable to store the function result */
 2274              		.loc 1 840 1 view .LVU692
 2275 0002 10B5     		push	{r4, lr}
 2276              		.cfi_def_cfa_offset 8
 2277              		.cfi_offset 4, -8
 2278              		.cfi_offset 14, -4
 2279 0004 82B0     		sub	sp, sp, #8
 2280              		.cfi_def_cfa_offset 16
 2281 0006 0B46     		mov	r3, r1
 2282 0008 0446     		mov	r4, r0
 850:Drivers/BMP580/Src/bmp5.c **** 
 2283              		.loc 1 850 9 is_stmt 1 view .LVU693
 850:Drivers/BMP580/Src/bmp5.c **** 
 2284              		.loc 1 850 16 is_stmt 0 view .LVU694
 2285 000a 0222     		movs	r2, #2
 2286 000c 01A9     		add	r1, sp, #4
 2287              	.LVL235:
 850:Drivers/BMP580/Src/bmp5.c **** 
 2288              		.loc 1 850 16 view .LVU695
 2289 000e 3020     		movs	r0, #48
 2290              	.LVL236:
 850:Drivers/BMP580/Src/bmp5.c **** 
 2291              		.loc 1 850 16 view .LVU696
 2292 0010 FFF7FEFF 		bl	bmp5_get_regs
 2293              	.LVL237:
 852:Drivers/BMP580/Src/bmp5.c ****         iir_cfg->shdw_set_iir_p = BMP5_GET_BITSLICE(reg_data[0], BMP5_SHDW_SET_IIR_PRESS);
 2294              		.loc 1 852 9 is_stmt 1 view .LVU697
 852:Drivers/BMP580/Src/bmp5.c ****         iir_cfg->shdw_set_iir_p = BMP5_GET_BITSLICE(reg_data[0], BMP5_SHDW_SET_IIR_PRESS);
 2295              		.loc 1 852 35 is_stmt 0 view .LVU698
 2296 0014 9DF80430 		ldrb	r3, [sp, #4]	@ zero_extendqisi2
 2297 0018 C3F3C002 		ubfx	r2, r3, #3, #1
 852:Drivers/BMP580/Src/bmp5.c ****         iir_cfg->shdw_set_iir_p = BMP5_GET_BITSLICE(reg_data[0], BMP5_SHDW_SET_IIR_PRESS);
 2298              		.loc 1 852 33 view .LVU699
 2299 001c A270     		strb	r2, [r4, #2]
 853:Drivers/BMP580/Src/bmp5.c ****         iir_cfg->iir_flush_forced_en = BMP5_GET_BITSLICE(reg_data[0], BMP5_IIR_FLUSH_FORCED_EN);
 2300              		.loc 1 853 9 is_stmt 1 view .LVU700
 853:Drivers/BMP580/Src/bmp5.c ****         iir_cfg->iir_flush_forced_en = BMP5_GET_BITSLICE(reg_data[0], BMP5_IIR_FLUSH_FORCED_EN);
 2301              		.loc 1 853 35 is_stmt 0 view .LVU701
 2302 001e C3F34012 		ubfx	r2, r3, #5, #1
 853:Drivers/BMP580/Src/bmp5.c ****         iir_cfg->iir_flush_forced_en = BMP5_GET_BITSLICE(reg_data[0], BMP5_IIR_FLUSH_FORCED_EN);
 2303              		.loc 1 853 33 view .LVU702
 2304 0022 E270     		strb	r2, [r4, #3]
 854:Drivers/BMP580/Src/bmp5.c **** 
 2305              		.loc 1 854 9 is_stmt 1 view .LVU703
 854:Drivers/BMP580/Src/bmp5.c **** 
 2306              		.loc 1 854 40 is_stmt 0 view .LVU704
 2307 0024 C3F38003 		ubfx	r3, r3, #2, #1
 854:Drivers/BMP580/Src/bmp5.c **** 
 2308              		.loc 1 854 38 view .LVU705
 2309 0028 2371     		strb	r3, [r4, #4]
 856:Drivers/BMP580/Src/bmp5.c ****         iir_cfg->set_iir_p = BMP5_GET_BITSLICE(reg_data[1], BMP5_SET_IIR_PRESS);
 2310              		.loc 1 856 9 is_stmt 1 view .LVU706
 856:Drivers/BMP580/Src/bmp5.c ****         iir_cfg->set_iir_p = BMP5_GET_BITSLICE(reg_data[1], BMP5_SET_IIR_PRESS);
 2311              		.loc 1 856 30 is_stmt 0 view .LVU707
 2312 002a 9DF80530 		ldrb	r3, [sp, #5]	@ zero_extendqisi2
 2313 002e 03F00702 		and	r2, r3, #7
ARM GAS  C:\Users\Nathan\AppData\Local\Temp\ccQWWdhB.s 			page 88


 856:Drivers/BMP580/Src/bmp5.c ****         iir_cfg->set_iir_p = BMP5_GET_BITSLICE(reg_data[1], BMP5_SET_IIR_PRESS);
 2314              		.loc 1 856 28 view .LVU708
 2315 0032 2270     		strb	r2, [r4]
 857:Drivers/BMP580/Src/bmp5.c ****     }
 2316              		.loc 1 857 9 is_stmt 1 view .LVU709
 857:Drivers/BMP580/Src/bmp5.c ****     }
 2317              		.loc 1 857 30 is_stmt 0 view .LVU710
 2318 0034 C3F3C203 		ubfx	r3, r3, #3, #3
 857:Drivers/BMP580/Src/bmp5.c ****     }
 2319              		.loc 1 857 28 view .LVU711
 2320 0038 6370     		strb	r3, [r4, #1]
 864:Drivers/BMP580/Src/bmp5.c **** }
 2321              		.loc 1 864 5 is_stmt 1 view .LVU712
 865:Drivers/BMP580/Src/bmp5.c **** 
 2322              		.loc 1 865 1 is_stmt 0 view .LVU713
 2323 003a 02B0     		add	sp, sp, #8
 2324              		.cfi_def_cfa_offset 8
 2325              		@ sp needed
 2326 003c 10BD     		pop	{r4, pc}
 2327              	.LVL238:
 2328              	.L145:
 2329              		.cfi_def_cfa_offset 0
 2330              		.cfi_restore 4
 2331              		.cfi_restore 14
 861:Drivers/BMP580/Src/bmp5.c ****     }
 2332              		.loc 1 861 14 view .LVU714
 2333 003e 4FF0FF30 		mov	r0, #-1
 2334              	.LVL239:
 864:Drivers/BMP580/Src/bmp5.c **** }
 2335              		.loc 1 864 5 is_stmt 1 view .LVU715
 865:Drivers/BMP580/Src/bmp5.c **** 
 2336              		.loc 1 865 1 is_stmt 0 view .LVU716
 2337 0042 7047     		bx	lr
 2338              		.cfi_endproc
 2339              	.LFE12:
 2341              		.section	.text.check_deepstandby_mode,"ax",%progbits
 2342              		.align	1
 2343              		.syntax unified
 2344              		.thumb
 2345              		.thumb_func
 2347              	check_deepstandby_mode:
 2348              	.LVL240:
 2349              	.LFB27:
1510:Drivers/BMP580/Src/bmp5.c ****     int8_t rslt;
 2350              		.loc 1 1510 1 is_stmt 1 view -0
 2351              		.cfi_startproc
 2352              		@ args = 0, pretend = 0, frame = 16
 2353              		@ frame_needed = 0, uses_anonymous_args = 0
1510:Drivers/BMP580/Src/bmp5.c ****     int8_t rslt;
 2354              		.loc 1 1510 1 is_stmt 0 view .LVU718
 2355 0000 30B5     		push	{r4, r5, lr}
 2356              		.cfi_def_cfa_offset 12
 2357              		.cfi_offset 4, -12
 2358              		.cfi_offset 5, -8
 2359              		.cfi_offset 14, -4
 2360 0002 85B0     		sub	sp, sp, #20
 2361              		.cfi_def_cfa_offset 32
ARM GAS  C:\Users\Nathan\AppData\Local\Temp\ccQWWdhB.s 			page 89


 2362 0004 0546     		mov	r5, r0
 2363 0006 0C46     		mov	r4, r1
1511:Drivers/BMP580/Src/bmp5.c ****     uint8_t fifo_frame_sel;
 2364              		.loc 1 1511 5 is_stmt 1 view .LVU719
1512:Drivers/BMP580/Src/bmp5.c ****     struct bmp5_iir_config iir_cfg = { 0 };
 2365              		.loc 1 1512 5 view .LVU720
1513:Drivers/BMP580/Src/bmp5.c ****     struct bmp5_osr_odr_press_config osr_odr_press_cfg = { 0 };
 2366              		.loc 1 1513 5 view .LVU721
1513:Drivers/BMP580/Src/bmp5.c ****     struct bmp5_osr_odr_press_config osr_odr_press_cfg = { 0 };
 2367              		.loc 1 1513 28 is_stmt 0 view .LVU722
 2368 0008 0023     		movs	r3, #0
 2369 000a 0293     		str	r3, [sp, #8]
 2370 000c 8DF80C30 		strb	r3, [sp, #12]
1514:Drivers/BMP580/Src/bmp5.c **** 
 2371              		.loc 1 1514 5 is_stmt 1 view .LVU723
1514:Drivers/BMP580/Src/bmp5.c **** 
 2372              		.loc 1 1514 38 is_stmt 0 view .LVU724
 2373 0010 0193     		str	r3, [sp, #4]
1516:Drivers/BMP580/Src/bmp5.c ****     fifo_frame_sel = BMP5_GET_BITS_POS_0(fifo_frame_sel, BMP5_FIFO_FRAME_SEL);
 2374              		.loc 1 1516 5 is_stmt 1 view .LVU725
1516:Drivers/BMP580/Src/bmp5.c ****     fifo_frame_sel = BMP5_GET_BITS_POS_0(fifo_frame_sel, BMP5_FIFO_FRAME_SEL);
 2375              		.loc 1 1516 12 is_stmt 0 view .LVU726
 2376 0012 0B46     		mov	r3, r1
 2377 0014 0122     		movs	r2, #1
 2378 0016 0DF10F01 		add	r1, sp, #15
 2379              	.LVL241:
1516:Drivers/BMP580/Src/bmp5.c ****     fifo_frame_sel = BMP5_GET_BITS_POS_0(fifo_frame_sel, BMP5_FIFO_FRAME_SEL);
 2380              		.loc 1 1516 12 view .LVU727
 2381 001a 1820     		movs	r0, #24
 2382              	.LVL242:
1516:Drivers/BMP580/Src/bmp5.c ****     fifo_frame_sel = BMP5_GET_BITS_POS_0(fifo_frame_sel, BMP5_FIFO_FRAME_SEL);
 2383              		.loc 1 1516 12 view .LVU728
 2384 001c FFF7FEFF 		bl	bmp5_get_regs
 2385              	.LVL243:
1517:Drivers/BMP580/Src/bmp5.c **** 
 2386              		.loc 1 1517 5 is_stmt 1 view .LVU729
1517:Drivers/BMP580/Src/bmp5.c **** 
 2387              		.loc 1 1517 22 is_stmt 0 view .LVU730
 2388 0020 9DF80F30 		ldrb	r3, [sp, #15]	@ zero_extendqisi2
 2389 0024 03F00303 		and	r3, r3, #3
1517:Drivers/BMP580/Src/bmp5.c **** 
 2390              		.loc 1 1517 20 view .LVU731
 2391 0028 8DF80F30 		strb	r3, [sp, #15]
1519:Drivers/BMP580/Src/bmp5.c ****     {
 2392              		.loc 1 1519 5 is_stmt 1 view .LVU732
1519:Drivers/BMP580/Src/bmp5.c ****     {
 2393              		.loc 1 1519 8 is_stmt 0 view .LVU733
 2394 002c 80B1     		cbz	r0, .L154
 2395              	.LVL244:
 2396              	.L151:
1532:Drivers/BMP580/Src/bmp5.c ****         (iir_cfg.set_iir_t == BMP5_IIR_FILTER_BYPASS) && (iir_cfg.set_iir_p == BMP5_IIR_FILTER_BYPA
 2397              		.loc 1 1532 5 is_stmt 1 view .LVU734
1532:Drivers/BMP580/Src/bmp5.c ****         (iir_cfg.set_iir_t == BMP5_IIR_FILTER_BYPASS) && (iir_cfg.set_iir_p == BMP5_IIR_FILTER_BYPA
 2398              		.loc 1 1532 27 is_stmt 0 view .LVU735
 2399 002e 9DF80730 		ldrb	r3, [sp, #7]	@ zero_extendqisi2
1532:Drivers/BMP580/Src/bmp5.c ****         (iir_cfg.set_iir_t == BMP5_IIR_FILTER_BYPASS) && (iir_cfg.set_iir_p == BMP5_IIR_FILTER_BYPA
 2400              		.loc 1 1532 8 view .LVU736
ARM GAS  C:\Users\Nathan\AppData\Local\Temp\ccQWWdhB.s 			page 90


 2401 0032 182B     		cmp	r3, #24
 2402 0034 0AD9     		bls	.L152
1532:Drivers/BMP580/Src/bmp5.c ****         (iir_cfg.set_iir_t == BMP5_IIR_FILTER_BYPASS) && (iir_cfg.set_iir_p == BMP5_IIR_FILTER_BYPA
 2403              		.loc 1 1532 69 discriminator 1 view .LVU737
 2404 0036 9DF80F30 		ldrb	r3, [sp, #15]	@ zero_extendqisi2
1532:Drivers/BMP580/Src/bmp5.c ****         (iir_cfg.set_iir_t == BMP5_IIR_FILTER_BYPASS) && (iir_cfg.set_iir_p == BMP5_IIR_FILTER_BYPA
 2405              		.loc 1 1532 50 discriminator 1 view .LVU738
 2406 003a 3BB9     		cbnz	r3, .L152
1533:Drivers/BMP580/Src/bmp5.c ****     {
 2407              		.loc 1 1533 17 view .LVU739
 2408 003c 9DF80830 		ldrb	r3, [sp, #8]	@ zero_extendqisi2
1532:Drivers/BMP580/Src/bmp5.c ****         (iir_cfg.set_iir_t == BMP5_IIR_FILTER_BYPASS) && (iir_cfg.set_iir_p == BMP5_IIR_FILTER_BYPA
 2409              		.loc 1 1532 86 discriminator 2 view .LVU740
 2410 0040 23B9     		cbnz	r3, .L152
1533:Drivers/BMP580/Src/bmp5.c ****     {
 2411              		.loc 1 1533 66 view .LVU741
 2412 0042 9DF80930 		ldrb	r3, [sp, #9]	@ zero_extendqisi2
1533:Drivers/BMP580/Src/bmp5.c ****     {
 2413              		.loc 1 1533 55 view .LVU742
 2414 0046 0BB9     		cbnz	r3, .L152
1535:Drivers/BMP580/Src/bmp5.c ****     }
 2415              		.loc 1 1535 9 is_stmt 1 view .LVU743
1535:Drivers/BMP580/Src/bmp5.c ****     }
 2416              		.loc 1 1535 20 is_stmt 0 view .LVU744
 2417 0048 0423     		movs	r3, #4
 2418 004a 2B70     		strb	r3, [r5]
 2419              	.L152:
1538:Drivers/BMP580/Src/bmp5.c **** }
 2420              		.loc 1 1538 5 is_stmt 1 view .LVU745
1539:Drivers/BMP580/Src/bmp5.c **** 
 2421              		.loc 1 1539 1 is_stmt 0 view .LVU746
 2422 004c 05B0     		add	sp, sp, #20
 2423              		.cfi_remember_state
 2424              		.cfi_def_cfa_offset 12
 2425              		@ sp needed
 2426 004e 30BD     		pop	{r4, r5, pc}
 2427              	.LVL245:
 2428              	.L154:
 2429              		.cfi_restore_state
1521:Drivers/BMP580/Src/bmp5.c **** 
 2430              		.loc 1 1521 9 is_stmt 1 view .LVU747
1521:Drivers/BMP580/Src/bmp5.c **** 
 2431              		.loc 1 1521 16 is_stmt 0 view .LVU748
 2432 0050 2146     		mov	r1, r4
 2433 0052 01A8     		add	r0, sp, #4
 2434 0054 FFF7FEFF 		bl	bmp5_get_osr_odr_press_config
 2435              	.LVL246:
1523:Drivers/BMP580/Src/bmp5.c ****         {
 2436              		.loc 1 1523 9 is_stmt 1 view .LVU749
1523:Drivers/BMP580/Src/bmp5.c ****         {
 2437              		.loc 1 1523 12 is_stmt 0 view .LVU750
 2438 0058 0028     		cmp	r0, #0
 2439 005a E8D1     		bne	.L151
1525:Drivers/BMP580/Src/bmp5.c ****         }
 2440              		.loc 1 1525 13 is_stmt 1 view .LVU751
1525:Drivers/BMP580/Src/bmp5.c ****         }
 2441              		.loc 1 1525 20 is_stmt 0 view .LVU752
ARM GAS  C:\Users\Nathan\AppData\Local\Temp\ccQWWdhB.s 			page 91


 2442 005c 2146     		mov	r1, r4
 2443 005e 02A8     		add	r0, sp, #8
 2444              	.LVL247:
1525:Drivers/BMP580/Src/bmp5.c ****         }
 2445              		.loc 1 1525 20 view .LVU753
 2446 0060 FFF7FEFF 		bl	bmp5_get_iir_config
 2447              	.LVL248:
1525:Drivers/BMP580/Src/bmp5.c ****         }
 2448              		.loc 1 1525 20 view .LVU754
 2449 0064 E3E7     		b	.L151
 2450              		.cfi_endproc
 2451              	.LFE27:
 2453              		.section	.text.bmp5_get_power_mode,"ax",%progbits
 2454              		.align	1
 2455              		.global	bmp5_get_power_mode
 2456              		.syntax unified
 2457              		.thumb
 2458              		.thumb_func
 2460              	bmp5_get_power_mode:
 2461              	.LVL249:
 2462              	.LFB5:
 489:Drivers/BMP580/Src/bmp5.c ****     int8_t rslt;
 2463              		.loc 1 489 1 is_stmt 1 view -0
 2464              		.cfi_startproc
 2465              		@ args = 0, pretend = 0, frame = 8
 2466              		@ frame_needed = 0, uses_anonymous_args = 0
 490:Drivers/BMP580/Src/bmp5.c ****     uint8_t deep_dis;
 2467              		.loc 1 490 5 view .LVU756
 491:Drivers/BMP580/Src/bmp5.c ****     uint8_t reg_data;
 2468              		.loc 1 491 5 view .LVU757
 492:Drivers/BMP580/Src/bmp5.c ****     uint8_t pwrmode;
 2469              		.loc 1 492 5 view .LVU758
 493:Drivers/BMP580/Src/bmp5.c **** 
 2470              		.loc 1 493 5 view .LVU759
 495:Drivers/BMP580/Src/bmp5.c ****     {
 2471              		.loc 1 495 5 view .LVU760
 495:Drivers/BMP580/Src/bmp5.c ****     {
 2472              		.loc 1 495 8 is_stmt 0 view .LVU761
 2473 0000 48B3     		cbz	r0, .L163
 489:Drivers/BMP580/Src/bmp5.c ****     int8_t rslt;
 2474              		.loc 1 489 1 view .LVU762
 2475 0002 30B5     		push	{r4, r5, lr}
 2476              		.cfi_def_cfa_offset 12
 2477              		.cfi_offset 4, -12
 2478              		.cfi_offset 5, -8
 2479              		.cfi_offset 14, -4
 2480 0004 83B0     		sub	sp, sp, #12
 2481              		.cfi_def_cfa_offset 24
 2482 0006 0C46     		mov	r4, r1
 2483 0008 0546     		mov	r5, r0
 498:Drivers/BMP580/Src/bmp5.c **** 
 2484              		.loc 1 498 9 is_stmt 1 view .LVU763
 498:Drivers/BMP580/Src/bmp5.c **** 
 2485              		.loc 1 498 16 is_stmt 0 view .LVU764
 2486 000a 0B46     		mov	r3, r1
 2487 000c 0122     		movs	r2, #1
 2488 000e 0DF10701 		add	r1, sp, #7
ARM GAS  C:\Users\Nathan\AppData\Local\Temp\ccQWWdhB.s 			page 92


 2489              	.LVL250:
 498:Drivers/BMP580/Src/bmp5.c **** 
 2490              		.loc 1 498 16 view .LVU765
 2491 0012 3720     		movs	r0, #55
 2492              	.LVL251:
 498:Drivers/BMP580/Src/bmp5.c **** 
 2493              		.loc 1 498 16 view .LVU766
 2494 0014 FFF7FEFF 		bl	bmp5_get_regs
 2495              	.LVL252:
 500:Drivers/BMP580/Src/bmp5.c ****         {
 2496              		.loc 1 500 9 is_stmt 1 view .LVU767
 500:Drivers/BMP580/Src/bmp5.c ****         {
 2497              		.loc 1 500 12 is_stmt 0 view .LVU768
 2498 0018 A8B9     		cbnz	r0, .L156
 502:Drivers/BMP580/Src/bmp5.c **** 
 2499              		.loc 1 502 13 is_stmt 1 view .LVU769
 502:Drivers/BMP580/Src/bmp5.c **** 
 2500              		.loc 1 502 23 is_stmt 0 view .LVU770
 2501 001a 9DF80720 		ldrb	r2, [sp, #7]	@ zero_extendqisi2
 502:Drivers/BMP580/Src/bmp5.c **** 
 2502              		.loc 1 502 21 view .LVU771
 2503 001e 02F00303 		and	r3, r2, #3
 2504              	.LVL253:
 504:Drivers/BMP580/Src/bmp5.c ****             {
 2505              		.loc 1 504 13 is_stmt 1 view .LVU772
 2506 0022 032B     		cmp	r3, #3
 2507 0024 1AD8     		bhi	.L164
 2508 0026 DFE803F0 		tbb	[pc, r3]
 2509              	.L158:
 2510 002a 02       		.byte	(.L161-.L158)/2
 2511 002b 0C       		.byte	(.L160-.L158)/2
 2512 002c 10       		.byte	(.L159-.L158)/2
 2513 002d 13       		.byte	(.L157-.L158)/2
 2514              		.p2align 1
 2515              	.L161:
 509:Drivers/BMP580/Src/bmp5.c **** 
 2516              		.loc 1 509 21 view .LVU773
 2517              	.LVL254:
 516:Drivers/BMP580/Src/bmp5.c ****                     {
 2518              		.loc 1 516 21 view .LVU774
 516:Drivers/BMP580/Src/bmp5.c ****                     {
 2519              		.loc 1 516 24 is_stmt 0 view .LVU775
 2520 002e D209     		lsrs	r2, r2, #7
 2521              	.LVL255:
 516:Drivers/BMP580/Src/bmp5.c ****                     {
 2522              		.loc 1 516 24 view .LVU776
 2523 0030 02D0     		beq	.L169
 522:Drivers/BMP580/Src/bmp5.c ****                     }
 2524              		.loc 1 522 25 is_stmt 1 view .LVU777
 522:Drivers/BMP580/Src/bmp5.c ****                     }
 2525              		.loc 1 522 36 is_stmt 0 view .LVU778
 2526 0032 0023     		movs	r3, #0
 2527              	.LVL256:
 522:Drivers/BMP580/Src/bmp5.c ****                     }
 2528              		.loc 1 522 36 view .LVU779
 2529 0034 2B70     		strb	r3, [r5]
 2530              	.LVL257:
ARM GAS  C:\Users\Nathan\AppData\Local\Temp\ccQWWdhB.s 			page 93


 522:Drivers/BMP580/Src/bmp5.c ****                     }
 2531              		.loc 1 522 36 view .LVU780
 2532 0036 06E0     		b	.L156
 2533              	.LVL258:
 2534              	.L169:
 518:Drivers/BMP580/Src/bmp5.c ****                     }
 2535              		.loc 1 518 25 is_stmt 1 view .LVU781
 518:Drivers/BMP580/Src/bmp5.c ****                     }
 2536              		.loc 1 518 32 is_stmt 0 view .LVU782
 2537 0038 2146     		mov	r1, r4
 2538 003a 2846     		mov	r0, r5
 2539              	.LVL259:
 518:Drivers/BMP580/Src/bmp5.c ****                     }
 2540              		.loc 1 518 32 view .LVU783
 2541 003c FFF7FEFF 		bl	check_deepstandby_mode
 2542              	.LVL260:
 518:Drivers/BMP580/Src/bmp5.c ****                     }
 2543              		.loc 1 518 32 view .LVU784
 2544 0040 01E0     		b	.L156
 2545              	.LVL261:
 2546              	.L160:
 527:Drivers/BMP580/Src/bmp5.c ****                     break;
 2547              		.loc 1 527 21 is_stmt 1 view .LVU785
 527:Drivers/BMP580/Src/bmp5.c ****                     break;
 2548              		.loc 1 527 32 is_stmt 0 view .LVU786
 2549 0042 0123     		movs	r3, #1
 2550              	.LVL262:
 527:Drivers/BMP580/Src/bmp5.c ****                     break;
 2551              		.loc 1 527 32 view .LVU787
 2552 0044 2B70     		strb	r3, [r5]
 528:Drivers/BMP580/Src/bmp5.c ****                 case BMP5_POWERMODE_FORCED:
 2553              		.loc 1 528 21 is_stmt 1 view .LVU788
 2554              	.LVL263:
 2555              	.L156:
 546:Drivers/BMP580/Src/bmp5.c **** }
 2556              		.loc 1 546 5 view .LVU789
 547:Drivers/BMP580/Src/bmp5.c **** 
 2557              		.loc 1 547 1 is_stmt 0 view .LVU790
 2558 0046 03B0     		add	sp, sp, #12
 2559              		.cfi_remember_state
 2560              		.cfi_def_cfa_offset 12
 2561              		@ sp needed
 2562 0048 30BD     		pop	{r4, r5, pc}
 2563              	.LVL264:
 2564              	.L159:
 2565              		.cfi_restore_state
 530:Drivers/BMP580/Src/bmp5.c ****                     break;
 2566              		.loc 1 530 21 is_stmt 1 view .LVU791
 530:Drivers/BMP580/Src/bmp5.c ****                     break;
 2567              		.loc 1 530 32 is_stmt 0 view .LVU792
 2568 004a 0223     		movs	r3, #2
 2569              	.LVL265:
 530:Drivers/BMP580/Src/bmp5.c ****                     break;
 2570              		.loc 1 530 32 view .LVU793
 2571 004c 2B70     		strb	r3, [r5]
 531:Drivers/BMP580/Src/bmp5.c ****                 case BMP5_POWERMODE_CONTINOUS:
 2572              		.loc 1 531 21 is_stmt 1 view .LVU794
ARM GAS  C:\Users\Nathan\AppData\Local\Temp\ccQWWdhB.s 			page 94


 2573 004e FAE7     		b	.L156
 2574              	.LVL266:
 2575              	.L157:
 533:Drivers/BMP580/Src/bmp5.c ****                     break;
 2576              		.loc 1 533 21 view .LVU795
 533:Drivers/BMP580/Src/bmp5.c ****                     break;
 2577              		.loc 1 533 32 is_stmt 0 view .LVU796
 2578 0050 0323     		movs	r3, #3
 2579              	.LVL267:
 533:Drivers/BMP580/Src/bmp5.c ****                     break;
 2580              		.loc 1 533 32 view .LVU797
 2581 0052 2B70     		strb	r3, [r5]
 534:Drivers/BMP580/Src/bmp5.c ****                 default:
 2582              		.loc 1 534 21 is_stmt 1 view .LVU798
 2583 0054 F7E7     		b	.L156
 2584              	.LVL268:
 2585              	.L163:
 2586              		.cfi_def_cfa_offset 0
 2587              		.cfi_restore 4
 2588              		.cfi_restore 5
 2589              		.cfi_restore 14
 543:Drivers/BMP580/Src/bmp5.c ****     }
 2590              		.loc 1 543 14 is_stmt 0 view .LVU799
 2591 0056 4FF0FF30 		mov	r0, #-1
 2592              	.LVL269:
 546:Drivers/BMP580/Src/bmp5.c **** }
 2593              		.loc 1 546 5 is_stmt 1 view .LVU800
 547:Drivers/BMP580/Src/bmp5.c **** 
 2594              		.loc 1 547 1 is_stmt 0 view .LVU801
 2595 005a 7047     		bx	lr
 2596              	.LVL270:
 2597              	.L164:
 2598              		.cfi_def_cfa_offset 24
 2599              		.cfi_offset 4, -12
 2600              		.cfi_offset 5, -8
 2601              		.cfi_offset 14, -4
 504:Drivers/BMP580/Src/bmp5.c ****             {
 2602              		.loc 1 504 13 view .LVU802
 2603 005c 6FF00600 		mvn	r0, #6
 2604              	.LVL271:
 504:Drivers/BMP580/Src/bmp5.c ****             {
 2605              		.loc 1 504 13 view .LVU803
 2606 0060 F1E7     		b	.L156
 2607              		.cfi_endproc
 2608              	.LFE5:
 2610              		.section	.text.bmp5_set_power_mode,"ax",%progbits
 2611              		.align	1
 2612              		.global	bmp5_set_power_mode
 2613              		.syntax unified
 2614              		.thumb
 2615              		.thumb_func
 2617              	bmp5_set_power_mode:
 2618              	.LVL272:
 2619              	.LFB6:
 553:Drivers/BMP580/Src/bmp5.c ****     int8_t rslt;
 2620              		.loc 1 553 1 is_stmt 1 view -0
 2621              		.cfi_startproc
ARM GAS  C:\Users\Nathan\AppData\Local\Temp\ccQWWdhB.s 			page 95


 2622              		@ args = 0, pretend = 0, frame = 8
 2623              		@ frame_needed = 0, uses_anonymous_args = 0
 553:Drivers/BMP580/Src/bmp5.c ****     int8_t rslt;
 2624              		.loc 1 553 1 is_stmt 0 view .LVU805
 2625 0000 70B5     		push	{r4, r5, r6, lr}
 2626              		.cfi_def_cfa_offset 16
 2627              		.cfi_offset 4, -16
 2628              		.cfi_offset 5, -12
 2629              		.cfi_offset 6, -8
 2630              		.cfi_offset 14, -4
 2631 0002 82B0     		sub	sp, sp, #8
 2632              		.cfi_def_cfa_offset 24
 2633 0004 0646     		mov	r6, r0
 2634 0006 0C46     		mov	r4, r1
 554:Drivers/BMP580/Src/bmp5.c ****     enum bmp5_powermode lst_pwrmode;
 2635              		.loc 1 554 5 is_stmt 1 view .LVU806
 555:Drivers/BMP580/Src/bmp5.c **** 
 2636              		.loc 1 555 5 view .LVU807
 558:Drivers/BMP580/Src/bmp5.c **** 
 2637              		.loc 1 558 5 view .LVU808
 558:Drivers/BMP580/Src/bmp5.c **** 
 2638              		.loc 1 558 12 is_stmt 0 view .LVU809
 2639 0008 0DF10700 		add	r0, sp, #7
 2640              	.LVL273:
 558:Drivers/BMP580/Src/bmp5.c **** 
 2641              		.loc 1 558 12 view .LVU810
 2642 000c FFF7FEFF 		bl	bmp5_get_power_mode
 2643              	.LVL274:
 560:Drivers/BMP580/Src/bmp5.c ****     {
 2644              		.loc 1 560 5 is_stmt 1 view .LVU811
 560:Drivers/BMP580/Src/bmp5.c ****     {
 2645              		.loc 1 560 8 is_stmt 0 view .LVU812
 2646 0010 0546     		mov	r5, r0
 2647 0012 40B9     		cbnz	r0, .L171
 565:Drivers/BMP580/Src/bmp5.c ****         {
 2648              		.loc 1 565 9 is_stmt 1 view .LVU813
 565:Drivers/BMP580/Src/bmp5.c ****         {
 2649              		.loc 1 565 25 is_stmt 0 view .LVU814
 2650 0014 9DF80730 		ldrb	r3, [sp, #7]	@ zero_extendqisi2
 565:Drivers/BMP580/Src/bmp5.c ****         {
 2651              		.loc 1 565 12 view .LVU815
 2652 0018 43B9     		cbnz	r3, .L178
 2653              	.LVL275:
 2654              	.L172:
 580:Drivers/BMP580/Src/bmp5.c ****         {
 2655              		.loc 1 580 9 is_stmt 1 view .LVU816
 580:Drivers/BMP580/Src/bmp5.c ****         {
 2656              		.loc 1 580 12 is_stmt 0 view .LVU817
 2657 001a 25B9     		cbnz	r5, .L171
 582:Drivers/BMP580/Src/bmp5.c ****             {
 2658              		.loc 1 582 13 is_stmt 1 view .LVU818
 2659 001c 032E     		cmp	r6, #3
 2660 001e 11D8     		bhi	.L173
 2661 0020 73B2     		sxtb	r3, r6
 2662 0022 B3B9     		cbnz	r3, .L174
 2663 0024 DEB9     		cbnz	r6, .L179
 2664              	.LVL276:
ARM GAS  C:\Users\Nathan\AppData\Local\Temp\ccQWWdhB.s 			page 96


 2665              	.L171:
 605:Drivers/BMP580/Src/bmp5.c **** }
 2666              		.loc 1 605 5 view .LVU819
 606:Drivers/BMP580/Src/bmp5.c **** 
 2667              		.loc 1 606 1 is_stmt 0 view .LVU820
 2668 0026 2846     		mov	r0, r5
 2669 0028 02B0     		add	sp, sp, #8
 2670              		.cfi_remember_state
 2671              		.cfi_def_cfa_offset 16
 2672              		@ sp needed
 2673 002a 70BD     		pop	{r4, r5, r6, pc}
 2674              	.LVL277:
 2675              	.L178:
 2676              		.cfi_restore_state
 570:Drivers/BMP580/Src/bmp5.c **** 
 2677              		.loc 1 570 13 is_stmt 1 view .LVU821
 570:Drivers/BMP580/Src/bmp5.c **** 
 2678              		.loc 1 570 20 is_stmt 0 view .LVU822
 2679 002c 2146     		mov	r1, r4
 2680 002e FFF7FEFF 		bl	set_power_mode
 2681              	.LVL278:
 572:Drivers/BMP580/Src/bmp5.c ****             {
 2682              		.loc 1 572 13 is_stmt 1 view .LVU823
 572:Drivers/BMP580/Src/bmp5.c ****             {
 2683              		.loc 1 572 16 is_stmt 0 view .LVU824
 2684 0032 0546     		mov	r5, r0
 2685 0034 0028     		cmp	r0, #0
 2686 0036 F6D1     		bne	.L171
 575:Drivers/BMP580/Src/bmp5.c ****             }
 2687              		.loc 1 575 17 is_stmt 1 view .LVU825
 575:Drivers/BMP580/Src/bmp5.c ****             }
 2688              		.loc 1 575 20 is_stmt 0 view .LVU826
 2689 0038 2369     		ldr	r3, [r4, #16]
 575:Drivers/BMP580/Src/bmp5.c ****             }
 2690              		.loc 1 575 17 view .LVU827
 2691 003a 6168     		ldr	r1, [r4, #4]
 2692 003c 40F6C410 		movw	r0, #2500
 2693              	.LVL279:
 575:Drivers/BMP580/Src/bmp5.c ****             }
 2694              		.loc 1 575 17 view .LVU828
 2695 0040 9847     		blx	r3
 2696              	.LVL280:
 2697 0042 EAE7     		b	.L172
 2698              	.L173:
 582:Drivers/BMP580/Src/bmp5.c ****             {
 2699              		.loc 1 582 13 view .LVU829
 2700 0044 042E     		cmp	r6, #4
 2701 0046 0DD1     		bne	.L176
 585:Drivers/BMP580/Src/bmp5.c ****                     break;
 2702              		.loc 1 585 21 is_stmt 1 view .LVU830
 585:Drivers/BMP580/Src/bmp5.c ****                     break;
 2703              		.loc 1 585 28 is_stmt 0 view .LVU831
 2704 0048 2046     		mov	r0, r4
 2705 004a FFF7FEFF 		bl	set_deep_standby_mode
 2706              	.LVL281:
 2707 004e 0546     		mov	r5, r0
 2708              	.LVL282:
ARM GAS  C:\Users\Nathan\AppData\Local\Temp\ccQWWdhB.s 			page 97


 586:Drivers/BMP580/Src/bmp5.c ****                 case BMP5_POWERMODE_STANDBY:
 2709              		.loc 1 586 21 is_stmt 1 view .LVU832
 2710 0050 E9E7     		b	.L171
 2711              	.L174:
 596:Drivers/BMP580/Src/bmp5.c ****                     break;
 2712              		.loc 1 596 21 view .LVU833
 596:Drivers/BMP580/Src/bmp5.c ****                     break;
 2713              		.loc 1 596 28 is_stmt 0 view .LVU834
 2714 0052 2146     		mov	r1, r4
 2715 0054 3046     		mov	r0, r6
 2716 0056 FFF7FEFF 		bl	set_power_mode
 2717              	.LVL283:
 2718 005a 0546     		mov	r5, r0
 2719              	.LVL284:
 597:Drivers/BMP580/Src/bmp5.c ****                 default:
 2720              		.loc 1 597 21 is_stmt 1 view .LVU835
 2721 005c E3E7     		b	.L171
 2722              	.L179:
 599:Drivers/BMP580/Src/bmp5.c ****                     break;
 2723              		.loc 1 599 26 is_stmt 0 view .LVU836
 2724 005e 6FF00605 		mvn	r5, #6
 2725              	.LVL285:
 599:Drivers/BMP580/Src/bmp5.c ****                     break;
 2726              		.loc 1 599 26 view .LVU837
 2727 0062 E0E7     		b	.L171
 2728              	.LVL286:
 2729              	.L176:
 599:Drivers/BMP580/Src/bmp5.c ****                     break;
 2730              		.loc 1 599 26 view .LVU838
 2731 0064 6FF00605 		mvn	r5, #6
 2732              	.LVL287:
 599:Drivers/BMP580/Src/bmp5.c ****                     break;
 2733              		.loc 1 599 26 view .LVU839
 2734 0068 DDE7     		b	.L171
 2735              		.cfi_endproc
 2736              	.LFE6:
 2738              		.section	.text.set_standby_mode,"ax",%progbits
 2739              		.align	1
 2740              		.syntax unified
 2741              		.thumb
 2742              		.thumb_func
 2744              	set_standby_mode:
 2745              	.LVL288:
 2746              	.LFB30:
1625:Drivers/BMP580/Src/bmp5.c ****     int8_t rslt;
 2747              		.loc 1 1625 1 is_stmt 1 view -0
 2748              		.cfi_startproc
 2749              		@ args = 0, pretend = 0, frame = 8
 2750              		@ frame_needed = 0, uses_anonymous_args = 0
1625:Drivers/BMP580/Src/bmp5.c ****     int8_t rslt;
 2751              		.loc 1 1625 1 is_stmt 0 view .LVU841
 2752 0000 10B5     		push	{r4, lr}
 2753              		.cfi_def_cfa_offset 8
 2754              		.cfi_offset 4, -8
 2755              		.cfi_offset 14, -4
 2756 0002 82B0     		sub	sp, sp, #8
 2757              		.cfi_def_cfa_offset 16
ARM GAS  C:\Users\Nathan\AppData\Local\Temp\ccQWWdhB.s 			page 98


 2758 0004 0446     		mov	r4, r0
1626:Drivers/BMP580/Src/bmp5.c ****     enum bmp5_powermode pwrmode;
 2759              		.loc 1 1626 5 is_stmt 1 view .LVU842
1627:Drivers/BMP580/Src/bmp5.c **** 
 2760              		.loc 1 1627 5 view .LVU843
1629:Drivers/BMP580/Src/bmp5.c **** 
 2761              		.loc 1 1629 5 view .LVU844
1629:Drivers/BMP580/Src/bmp5.c **** 
 2762              		.loc 1 1629 12 is_stmt 0 view .LVU845
 2763 0006 0146     		mov	r1, r0
 2764 0008 0DF10700 		add	r0, sp, #7
 2765              	.LVL289:
1629:Drivers/BMP580/Src/bmp5.c **** 
 2766              		.loc 1 1629 12 view .LVU846
 2767 000c FFF7FEFF 		bl	bmp5_get_power_mode
 2768              	.LVL290:
1631:Drivers/BMP580/Src/bmp5.c ****     {
 2769              		.loc 1 1631 5 is_stmt 1 view .LVU847
1631:Drivers/BMP580/Src/bmp5.c ****     {
 2770              		.loc 1 1631 8 is_stmt 0 view .LVU848
 2771 0010 18B9     		cbnz	r0, .L181
1633:Drivers/BMP580/Src/bmp5.c ****         {
 2772              		.loc 1 1633 9 is_stmt 1 view .LVU849
1633:Drivers/BMP580/Src/bmp5.c ****         {
 2773              		.loc 1 1633 21 is_stmt 0 view .LVU850
 2774 0012 9DF80730 		ldrb	r3, [sp, #7]	@ zero_extendqisi2
1633:Drivers/BMP580/Src/bmp5.c ****         {
 2775              		.loc 1 1633 12 view .LVU851
 2776 0016 042B     		cmp	r3, #4
 2777 0018 01D0     		beq	.L183
 2778              	.L181:
 2779              	.LVL291:
1639:Drivers/BMP580/Src/bmp5.c **** }
 2780              		.loc 1 1639 5 is_stmt 1 view .LVU852
1640:Drivers/BMP580/Src/bmp5.c **** 
 2781              		.loc 1 1640 1 is_stmt 0 view .LVU853
 2782 001a 02B0     		add	sp, sp, #8
 2783              		.cfi_remember_state
 2784              		.cfi_def_cfa_offset 8
 2785              		@ sp needed
 2786 001c 10BD     		pop	{r4, pc}
 2787              	.LVL292:
 2788              	.L183:
 2789              		.cfi_restore_state
1635:Drivers/BMP580/Src/bmp5.c ****         }
 2790              		.loc 1 1635 13 is_stmt 1 view .LVU854
1635:Drivers/BMP580/Src/bmp5.c ****         }
 2791              		.loc 1 1635 20 is_stmt 0 view .LVU855
 2792 001e 2146     		mov	r1, r4
 2793 0020 0020     		movs	r0, #0
 2794 0022 FFF7FEFF 		bl	bmp5_set_power_mode
 2795              	.LVL293:
1635:Drivers/BMP580/Src/bmp5.c ****         }
 2796              		.loc 1 1635 20 view .LVU856
 2797 0026 F8E7     		b	.L181
 2798              		.cfi_endproc
 2799              	.LFE30:
ARM GAS  C:\Users\Nathan\AppData\Local\Temp\ccQWWdhB.s 			page 99


 2801              		.section	.text.bmp5_set_osr_odr_press_config,"ax",%progbits
 2802              		.align	1
 2803              		.global	bmp5_set_osr_odr_press_config
 2804              		.syntax unified
 2805              		.thumb
 2806              		.thumb_func
 2808              	bmp5_set_osr_odr_press_config:
 2809              	.LVL294:
 2810              	.LFB11:
 793:Drivers/BMP580/Src/bmp5.c ****     /* Variable to store the function result */
 2811              		.loc 1 793 1 is_stmt 1 view -0
 2812              		.cfi_startproc
 2813              		@ args = 0, pretend = 0, frame = 8
 2814              		@ frame_needed = 0, uses_anonymous_args = 0
 793:Drivers/BMP580/Src/bmp5.c ****     /* Variable to store the function result */
 2815              		.loc 1 793 1 is_stmt 0 view .LVU858
 2816 0000 30B5     		push	{r4, r5, lr}
 2817              		.cfi_def_cfa_offset 12
 2818              		.cfi_offset 4, -12
 2819              		.cfi_offset 5, -8
 2820              		.cfi_offset 14, -4
 2821 0002 83B0     		sub	sp, sp, #12
 2822              		.cfi_def_cfa_offset 24
 795:Drivers/BMP580/Src/bmp5.c **** 
 2823              		.loc 1 795 5 is_stmt 1 view .LVU859
 2824              	.LVL295:
 798:Drivers/BMP580/Src/bmp5.c **** 
 2825              		.loc 1 798 5 view .LVU860
 798:Drivers/BMP580/Src/bmp5.c **** 
 2826              		.loc 1 798 13 is_stmt 0 view .LVU861
 2827 0004 0023     		movs	r3, #0
 2828 0006 ADF80430 		strh	r3, [sp, #4]	@ movhi
 800:Drivers/BMP580/Src/bmp5.c ****     {
 2829              		.loc 1 800 5 is_stmt 1 view .LVU862
 800:Drivers/BMP580/Src/bmp5.c ****     {
 2830              		.loc 1 800 8 is_stmt 0 view .LVU863
 2831 000a 0028     		cmp	r0, #0
 2832 000c 43D0     		beq	.L187
 2833 000e 0C46     		mov	r4, r1
 2834 0010 0546     		mov	r5, r0
 807:Drivers/BMP580/Src/bmp5.c ****         {
 2835              		.loc 1 807 9 is_stmt 1 view .LVU864
 807:Drivers/BMP580/Src/bmp5.c ****         {
 2836              		.loc 1 807 30 is_stmt 0 view .LVU865
 2837 0012 C378     		ldrb	r3, [r0, #3]	@ zero_extendqisi2
 807:Drivers/BMP580/Src/bmp5.c ****         {
 2838              		.loc 1 807 12 view .LVU866
 2839 0014 172B     		cmp	r3, #23
 2840 0016 04D8     		bhi	.L186
 809:Drivers/BMP580/Src/bmp5.c ****         }
 2841              		.loc 1 809 13 is_stmt 1 view .LVU867
 809:Drivers/BMP580/Src/bmp5.c ****         }
 2842              		.loc 1 809 20 is_stmt 0 view .LVU868
 2843 0018 0846     		mov	r0, r1
 2844              	.LVL296:
 809:Drivers/BMP580/Src/bmp5.c ****         }
 2845              		.loc 1 809 20 view .LVU869
ARM GAS  C:\Users\Nathan\AppData\Local\Temp\ccQWWdhB.s 			page 100


 2846 001a FFF7FEFF 		bl	set_standby_mode
 2847              	.LVL297:
 812:Drivers/BMP580/Src/bmp5.c ****         {
 2848              		.loc 1 812 9 is_stmt 1 view .LVU870
 812:Drivers/BMP580/Src/bmp5.c ****         {
 2849              		.loc 1 812 12 is_stmt 0 view .LVU871
 2850 001e 0346     		mov	r3, r0
 2851 0020 38B9     		cbnz	r0, .L185
 2852              	.LVL298:
 2853              	.L186:
 814:Drivers/BMP580/Src/bmp5.c **** 
 2854              		.loc 1 814 13 is_stmt 1 view .LVU872
 814:Drivers/BMP580/Src/bmp5.c **** 
 2855              		.loc 1 814 20 is_stmt 0 view .LVU873
 2856 0022 2346     		mov	r3, r4
 2857 0024 0222     		movs	r2, #2
 2858 0026 01A9     		add	r1, sp, #4
 2859 0028 3620     		movs	r0, #54
 2860 002a FFF7FEFF 		bl	bmp5_get_regs
 2861              	.LVL299:
 816:Drivers/BMP580/Src/bmp5.c ****             {
 2862              		.loc 1 816 13 is_stmt 1 view .LVU874
 816:Drivers/BMP580/Src/bmp5.c ****             {
 2863              		.loc 1 816 16 is_stmt 0 view .LVU875
 2864 002e 0346     		mov	r3, r0
 2865 0030 10B1     		cbz	r0, .L189
 2866              	.LVL300:
 2867              	.L185:
 833:Drivers/BMP580/Src/bmp5.c **** }
 2868              		.loc 1 833 5 is_stmt 1 view .LVU876
 834:Drivers/BMP580/Src/bmp5.c **** 
 2869              		.loc 1 834 1 is_stmt 0 view .LVU877
 2870 0032 1846     		mov	r0, r3
 2871 0034 03B0     		add	sp, sp, #12
 2872              		.cfi_remember_state
 2873              		.cfi_def_cfa_offset 12
 2874              		@ sp needed
 2875 0036 30BD     		pop	{r4, r5, pc}
 2876              	.LVL301:
 2877              	.L189:
 2878              		.cfi_restore_state
 818:Drivers/BMP580/Src/bmp5.c ****                 reg_data[0] = BMP5_SET_BITSLICE(reg_data[0], BMP5_PRESS_OS, osr_odr_press_cfg->osr_
 2879              		.loc 1 818 17 is_stmt 1 view .LVU878
 818:Drivers/BMP580/Src/bmp5.c ****                 reg_data[0] = BMP5_SET_BITSLICE(reg_data[0], BMP5_PRESS_OS, osr_odr_press_cfg->osr_
 2880              		.loc 1 818 31 is_stmt 0 view .LVU879
 2881 0038 9DF80430 		ldrb	r3, [sp, #4]	@ zero_extendqisi2
 2882 003c 2A78     		ldrb	r2, [r5]	@ zero_extendqisi2
 2883 003e 23F00703 		bic	r3, r3, #7
 2884 0042 02F00702 		and	r2, r2, #7
 2885 0046 1343     		orrs	r3, r3, r2
 818:Drivers/BMP580/Src/bmp5.c ****                 reg_data[0] = BMP5_SET_BITSLICE(reg_data[0], BMP5_PRESS_OS, osr_odr_press_cfg->osr_
 2886              		.loc 1 818 29 view .LVU880
 2887 0048 8DF80430 		strb	r3, [sp, #4]
 819:Drivers/BMP580/Src/bmp5.c ****                 reg_data[0] = BMP5_SET_BITSLICE(reg_data[0], BMP5_PRESS_EN, osr_odr_press_cfg->pres
 2888              		.loc 1 819 17 is_stmt 1 view .LVU881
 819:Drivers/BMP580/Src/bmp5.c ****                 reg_data[0] = BMP5_SET_BITSLICE(reg_data[0], BMP5_PRESS_EN, osr_odr_press_cfg->pres
 2889              		.loc 1 819 31 is_stmt 0 view .LVU882
ARM GAS  C:\Users\Nathan\AppData\Local\Temp\ccQWWdhB.s 			page 101


 2890 004c 6A78     		ldrb	r2, [r5, #1]	@ zero_extendqisi2
 2891 004e D200     		lsls	r2, r2, #3
 2892 0050 02F03802 		and	r2, r2, #56
 2893 0054 23F03803 		bic	r3, r3, #56
 2894 0058 1343     		orrs	r3, r3, r2
 819:Drivers/BMP580/Src/bmp5.c ****                 reg_data[0] = BMP5_SET_BITSLICE(reg_data[0], BMP5_PRESS_EN, osr_odr_press_cfg->pres
 2895              		.loc 1 819 29 view .LVU883
 2896 005a 8DF80430 		strb	r3, [sp, #4]
 820:Drivers/BMP580/Src/bmp5.c ****                 reg_data[1] = BMP5_SET_BITSLICE(reg_data[1], BMP5_ODR, osr_odr_press_cfg->odr);
 2897              		.loc 1 820 17 is_stmt 1 view .LVU884
 820:Drivers/BMP580/Src/bmp5.c ****                 reg_data[1] = BMP5_SET_BITSLICE(reg_data[1], BMP5_ODR, osr_odr_press_cfg->odr);
 2898              		.loc 1 820 31 is_stmt 0 view .LVU885
 2899 005e AA78     		ldrb	r2, [r5, #2]	@ zero_extendqisi2
 2900 0060 9201     		lsls	r2, r2, #6
 2901 0062 02F04002 		and	r2, r2, #64
 2902 0066 23F04003 		bic	r3, r3, #64
 2903 006a 1343     		orrs	r3, r3, r2
 820:Drivers/BMP580/Src/bmp5.c ****                 reg_data[1] = BMP5_SET_BITSLICE(reg_data[1], BMP5_ODR, osr_odr_press_cfg->odr);
 2904              		.loc 1 820 29 view .LVU886
 2905 006c 8DF80430 		strb	r3, [sp, #4]
 821:Drivers/BMP580/Src/bmp5.c **** 
 2906              		.loc 1 821 17 is_stmt 1 view .LVU887
 821:Drivers/BMP580/Src/bmp5.c **** 
 2907              		.loc 1 821 31 is_stmt 0 view .LVU888
 2908 0070 9DF80530 		ldrb	r3, [sp, #5]	@ zero_extendqisi2
 2909 0074 EA78     		ldrb	r2, [r5, #3]	@ zero_extendqisi2
 2910 0076 9200     		lsls	r2, r2, #2
 2911 0078 02F07C02 		and	r2, r2, #124
 2912 007c 23F07C03 		bic	r3, r3, #124
 2913 0080 1343     		orrs	r3, r3, r2
 821:Drivers/BMP580/Src/bmp5.c **** 
 2914              		.loc 1 821 29 view .LVU889
 2915 0082 8DF80530 		strb	r3, [sp, #5]
 824:Drivers/BMP580/Src/bmp5.c ****             }
 2916              		.loc 1 824 17 is_stmt 1 view .LVU890
 824:Drivers/BMP580/Src/bmp5.c ****             }
 2917              		.loc 1 824 24 is_stmt 0 view .LVU891
 2918 0086 2346     		mov	r3, r4
 2919 0088 0222     		movs	r2, #2
 2920 008a 01A9     		add	r1, sp, #4
 2921 008c 3620     		movs	r0, #54
 2922              	.LVL302:
 824:Drivers/BMP580/Src/bmp5.c ****             }
 2923              		.loc 1 824 24 view .LVU892
 2924 008e FFF7FEFF 		bl	bmp5_set_regs
 2925              	.LVL303:
 2926 0092 0346     		mov	r3, r0
 2927              	.LVL304:
 824:Drivers/BMP580/Src/bmp5.c ****             }
 2928              		.loc 1 824 24 view .LVU893
 2929 0094 CDE7     		b	.L185
 2930              	.LVL305:
 2931              	.L187:
 830:Drivers/BMP580/Src/bmp5.c ****     }
 2932              		.loc 1 830 14 view .LVU894
 2933 0096 4FF0FF33 		mov	r3, #-1
 2934 009a CAE7     		b	.L185
ARM GAS  C:\Users\Nathan\AppData\Local\Temp\ccQWWdhB.s 			page 102


 2935              		.cfi_endproc
 2936              	.LFE11:
 2938              		.section	.text.set_fifo_iir_config,"ax",%progbits
 2939              		.align	1
 2940              		.syntax unified
 2941              		.thumb
 2942              		.thumb_func
 2944              	set_fifo_iir_config:
 2945              	.LVL306:
 2946              	.LFB32:
1697:Drivers/BMP580/Src/bmp5.c ****     /* Variable to store the function result */
 2947              		.loc 1 1697 1 is_stmt 1 view -0
 2948              		.cfi_startproc
 2949              		@ args = 0, pretend = 0, frame = 8
 2950              		@ frame_needed = 0, uses_anonymous_args = 0
1697:Drivers/BMP580/Src/bmp5.c ****     /* Variable to store the function result */
 2951              		.loc 1 1697 1 is_stmt 0 view .LVU896
 2952 0000 70B5     		push	{r4, r5, r6, lr}
 2953              		.cfi_def_cfa_offset 16
 2954              		.cfi_offset 4, -16
 2955              		.cfi_offset 5, -12
 2956              		.cfi_offset 6, -8
 2957              		.cfi_offset 14, -4
 2958 0002 82B0     		sub	sp, sp, #8
 2959              		.cfi_def_cfa_offset 24
 2960 0004 0546     		mov	r5, r0
 2961 0006 0E46     		mov	r6, r1
 2962 0008 1446     		mov	r4, r2
1699:Drivers/BMP580/Src/bmp5.c **** 
 2963              		.loc 1 1699 5 is_stmt 1 view .LVU897
1702:Drivers/BMP580/Src/bmp5.c **** 
 2964              		.loc 1 1702 5 view .LVU898
1702:Drivers/BMP580/Src/bmp5.c **** 
 2965              		.loc 1 1702 13 is_stmt 0 view .LVU899
 2966 000a 0023     		movs	r3, #0
 2967 000c 8DF80730 		strb	r3, [sp, #7]
1705:Drivers/BMP580/Src/bmp5.c **** 
 2968              		.loc 1 1705 5 is_stmt 1 view .LVU900
1707:Drivers/BMP580/Src/bmp5.c **** 
 2969              		.loc 1 1707 5 view .LVU901
1707:Drivers/BMP580/Src/bmp5.c **** 
 2970              		.loc 1 1707 12 is_stmt 0 view .LVU902
 2971 0010 1146     		mov	r1, r2
 2972              	.LVL307:
1707:Drivers/BMP580/Src/bmp5.c **** 
 2973              		.loc 1 1707 12 view .LVU903
 2974 0012 0DF10600 		add	r0, sp, #6
 2975              	.LVL308:
1707:Drivers/BMP580/Src/bmp5.c **** 
 2976              		.loc 1 1707 12 view .LVU904
 2977 0016 FFF7FEFF 		bl	bmp5_get_power_mode
 2978              	.LVL309:
1709:Drivers/BMP580/Src/bmp5.c ****     {
 2979              		.loc 1 1709 5 is_stmt 1 view .LVU905
1709:Drivers/BMP580/Src/bmp5.c ****     {
 2980              		.loc 1 1709 8 is_stmt 0 view .LVU906
 2981 001a 0346     		mov	r3, r0
ARM GAS  C:\Users\Nathan\AppData\Local\Temp\ccQWWdhB.s 			page 103


 2982 001c 18B9     		cbnz	r0, .L191
1712:Drivers/BMP580/Src/bmp5.c ****         {
 2983              		.loc 1 1712 9 is_stmt 1 view .LVU907
1712:Drivers/BMP580/Src/bmp5.c ****         {
 2984              		.loc 1 1712 26 is_stmt 0 view .LVU908
 2985 001e 9DF80620 		ldrb	r2, [sp, #6]	@ zero_extendqisi2
1712:Drivers/BMP580/Src/bmp5.c ****         {
 2986              		.loc 1 1712 12 view .LVU909
 2987 0022 1AB9     		cbnz	r2, .L194
 2988              	.LVL310:
 2989              	.L192:
1718:Drivers/BMP580/Src/bmp5.c ****         {
 2990              		.loc 1 1718 9 is_stmt 1 view .LVU910
1718:Drivers/BMP580/Src/bmp5.c ****         {
 2991              		.loc 1 1718 12 is_stmt 0 view .LVU911
 2992 0024 3BB1     		cbz	r3, .L195
 2993              	.LVL311:
 2994              	.L191:
1748:Drivers/BMP580/Src/bmp5.c **** }
 2995              		.loc 1 1748 5 is_stmt 1 view .LVU912
1749:Drivers/BMP580/Src/bmp5.c **** 
 2996              		.loc 1 1749 1 is_stmt 0 view .LVU913
 2997 0026 1846     		mov	r0, r3
 2998 0028 02B0     		add	sp, sp, #8
 2999              		.cfi_remember_state
 3000              		.cfi_def_cfa_offset 16
 3001              		@ sp needed
 3002 002a 70BD     		pop	{r4, r5, r6, pc}
 3003              	.LVL312:
 3004              	.L194:
 3005              		.cfi_restore_state
1715:Drivers/BMP580/Src/bmp5.c ****         }
 3006              		.loc 1 1715 13 is_stmt 1 view .LVU914
1715:Drivers/BMP580/Src/bmp5.c ****         }
 3007              		.loc 1 1715 20 is_stmt 0 view .LVU915
 3008 002c 2146     		mov	r1, r4
 3009 002e FFF7FEFF 		bl	bmp5_set_power_mode
 3010              	.LVL313:
1715:Drivers/BMP580/Src/bmp5.c ****         }
 3011              		.loc 1 1715 20 view .LVU916
 3012 0032 0346     		mov	r3, r0
 3013              	.LVL314:
1715:Drivers/BMP580/Src/bmp5.c ****         }
 3014              		.loc 1 1715 20 view .LVU917
 3015 0034 F6E7     		b	.L192
 3016              	.L195:
1721:Drivers/BMP580/Src/bmp5.c **** 
 3017              		.loc 1 1721 13 is_stmt 1 view .LVU918
1721:Drivers/BMP580/Src/bmp5.c **** 
 3018              		.loc 1 1721 20 is_stmt 0 view .LVU919
 3019 0036 2346     		mov	r3, r4
 3020              	.LVL315:
1721:Drivers/BMP580/Src/bmp5.c **** 
 3021              		.loc 1 1721 20 view .LVU920
 3022 0038 0122     		movs	r2, #1
 3023 003a 0DF10701 		add	r1, sp, #7
 3024 003e 3020     		movs	r0, #48
ARM GAS  C:\Users\Nathan\AppData\Local\Temp\ccQWWdhB.s 			page 104


 3025 0040 FFF7FEFF 		bl	bmp5_get_regs
 3026              	.LVL316:
1723:Drivers/BMP580/Src/bmp5.c ****             {
 3027              		.loc 1 1723 13 is_stmt 1 view .LVU921
1723:Drivers/BMP580/Src/bmp5.c ****             {
 3028              		.loc 1 1723 16 is_stmt 0 view .LVU922
 3029 0044 0346     		mov	r3, r0
 3030 0046 0028     		cmp	r0, #0
 3031 0048 EDD1     		bne	.L191
1725:Drivers/BMP580/Src/bmp5.c ****                 reg_data = BMP5_SET_BITSLICE(reg_data, BMP5_SET_FIFO_IIR_PRESS, set_fifo_iir_p);
 3032              		.loc 1 1725 17 is_stmt 1 view .LVU923
1725:Drivers/BMP580/Src/bmp5.c ****                 reg_data = BMP5_SET_BITSLICE(reg_data, BMP5_SET_FIFO_IIR_PRESS, set_fifo_iir_p);
 3033              		.loc 1 1725 28 is_stmt 0 view .LVU924
 3034 004a 9DF80730 		ldrb	r3, [sp, #7]	@ zero_extendqisi2
 3035 004e 2D01     		lsls	r5, r5, #4
 3036 0050 05F01005 		and	r5, r5, #16
 3037 0054 23F01003 		bic	r3, r3, #16
 3038 0058 2B43     		orrs	r3, r3, r5
1725:Drivers/BMP580/Src/bmp5.c ****                 reg_data = BMP5_SET_BITSLICE(reg_data, BMP5_SET_FIFO_IIR_PRESS, set_fifo_iir_p);
 3039              		.loc 1 1725 26 view .LVU925
 3040 005a 8DF80730 		strb	r3, [sp, #7]
1726:Drivers/BMP580/Src/bmp5.c **** 
 3041              		.loc 1 1726 17 is_stmt 1 view .LVU926
1726:Drivers/BMP580/Src/bmp5.c **** 
 3042              		.loc 1 1726 28 is_stmt 0 view .LVU927
 3043 005e B101     		lsls	r1, r6, #6
 3044 0060 01F04001 		and	r1, r1, #64
 3045 0064 23F04003 		bic	r3, r3, #64
 3046 0068 0B43     		orrs	r3, r3, r1
1726:Drivers/BMP580/Src/bmp5.c **** 
 3047              		.loc 1 1726 26 view .LVU928
 3048 006a 8DF80730 		strb	r3, [sp, #7]
1729:Drivers/BMP580/Src/bmp5.c ****             }
 3049              		.loc 1 1729 17 is_stmt 1 view .LVU929
1729:Drivers/BMP580/Src/bmp5.c ****             }
 3050              		.loc 1 1729 24 is_stmt 0 view .LVU930
 3051 006e 2346     		mov	r3, r4
 3052 0070 0122     		movs	r2, #1
 3053 0072 0DF10701 		add	r1, sp, #7
 3054 0076 3020     		movs	r0, #48
 3055              	.LVL317:
1729:Drivers/BMP580/Src/bmp5.c ****             }
 3056              		.loc 1 1729 24 view .LVU931
 3057 0078 FFF7FEFF 		bl	bmp5_set_regs
 3058              	.LVL318:
1736:Drivers/BMP580/Src/bmp5.c ****         {
 3059              		.loc 1 1736 9 is_stmt 1 view .LVU932
1736:Drivers/BMP580/Src/bmp5.c ****         {
 3060              		.loc 1 1736 12 is_stmt 0 view .LVU933
 3061 007c 0346     		mov	r3, r0
 3062 007e 0028     		cmp	r0, #0
 3063 0080 D1D1     		bne	.L191
1741:Drivers/BMP580/Src/bmp5.c ****             {
 3064              		.loc 1 1741 13 is_stmt 1 view .LVU934
1741:Drivers/BMP580/Src/bmp5.c ****             {
 3065              		.loc 1 1741 31 is_stmt 0 view .LVU935
 3066 0082 9DF80600 		ldrb	r0, [sp, #6]	@ zero_extendqisi2
ARM GAS  C:\Users\Nathan\AppData\Local\Temp\ccQWWdhB.s 			page 105


 3067              	.LVL319:
1741:Drivers/BMP580/Src/bmp5.c ****             {
 3068              		.loc 1 1741 16 view .LVU936
 3069 0086 0028     		cmp	r0, #0
 3070 0088 CDD0     		beq	.L191
1741:Drivers/BMP580/Src/bmp5.c ****             {
 3071              		.loc 1 1741 58 discriminator 1 view .LVU937
 3072 008a 0428     		cmp	r0, #4
 3073 008c CBD0     		beq	.L191
1743:Drivers/BMP580/Src/bmp5.c ****             }
 3074              		.loc 1 1743 17 is_stmt 1 view .LVU938
1743:Drivers/BMP580/Src/bmp5.c ****             }
 3075              		.loc 1 1743 24 is_stmt 0 view .LVU939
 3076 008e 2146     		mov	r1, r4
 3077 0090 FFF7FEFF 		bl	bmp5_set_power_mode
 3078              	.LVL320:
1743:Drivers/BMP580/Src/bmp5.c ****             }
 3079              		.loc 1 1743 24 view .LVU940
 3080 0094 0346     		mov	r3, r0
 3081              	.LVL321:
1743:Drivers/BMP580/Src/bmp5.c ****             }
 3082              		.loc 1 1743 24 view .LVU941
 3083 0096 C6E7     		b	.L191
 3084              		.cfi_endproc
 3085              	.LFE32:
 3087              		.section	.text.set_oor_iir_count_limit,"ax",%progbits
 3088              		.align	1
 3089              		.syntax unified
 3090              		.thumb
 3091              		.thumb_func
 3093              	set_oor_iir_count_limit:
 3094              	.LVL322:
 3095              	.LFB35:
1931:Drivers/BMP580/Src/bmp5.c ****     int8_t rslt;
 3096              		.loc 1 1931 1 is_stmt 1 view -0
 3097              		.cfi_startproc
 3098              		@ args = 0, pretend = 0, frame = 8
 3099              		@ frame_needed = 0, uses_anonymous_args = 0
1931:Drivers/BMP580/Src/bmp5.c ****     int8_t rslt;
 3100              		.loc 1 1931 1 is_stmt 0 view .LVU943
 3101 0000 70B5     		push	{r4, r5, r6, lr}
 3102              		.cfi_def_cfa_offset 16
 3103              		.cfi_offset 4, -16
 3104              		.cfi_offset 5, -12
 3105              		.cfi_offset 6, -8
 3106              		.cfi_offset 14, -4
 3107 0002 82B0     		sub	sp, sp, #8
 3108              		.cfi_def_cfa_offset 24
 3109 0004 0646     		mov	r6, r0
 3110 0006 0D46     		mov	r5, r1
 3111 0008 1446     		mov	r4, r2
1932:Drivers/BMP580/Src/bmp5.c ****     uint8_t reg_data = 0;
 3112              		.loc 1 1932 5 is_stmt 1 view .LVU944
1933:Drivers/BMP580/Src/bmp5.c **** 
 3113              		.loc 1 1933 5 view .LVU945
1933:Drivers/BMP580/Src/bmp5.c **** 
 3114              		.loc 1 1933 13 is_stmt 0 view .LVU946
ARM GAS  C:\Users\Nathan\AppData\Local\Temp\ccQWWdhB.s 			page 106


 3115 000a 0023     		movs	r3, #0
 3116 000c 8DF80730 		strb	r3, [sp, #7]
1936:Drivers/BMP580/Src/bmp5.c **** 
 3117              		.loc 1 1936 5 is_stmt 1 view .LVU947
1938:Drivers/BMP580/Src/bmp5.c **** 
 3118              		.loc 1 1938 5 view .LVU948
1938:Drivers/BMP580/Src/bmp5.c **** 
 3119              		.loc 1 1938 12 is_stmt 0 view .LVU949
 3120 0010 1146     		mov	r1, r2
 3121              	.LVL323:
1938:Drivers/BMP580/Src/bmp5.c **** 
 3122              		.loc 1 1938 12 view .LVU950
 3123 0012 0DF10600 		add	r0, sp, #6
 3124              	.LVL324:
1938:Drivers/BMP580/Src/bmp5.c **** 
 3125              		.loc 1 1938 12 view .LVU951
 3126 0016 FFF7FEFF 		bl	bmp5_get_power_mode
 3127              	.LVL325:
1940:Drivers/BMP580/Src/bmp5.c ****     {
 3128              		.loc 1 1940 5 is_stmt 1 view .LVU952
1940:Drivers/BMP580/Src/bmp5.c ****     {
 3129              		.loc 1 1940 8 is_stmt 0 view .LVU953
 3130 001a 0346     		mov	r3, r0
 3131 001c 18B9     		cbnz	r0, .L197
1943:Drivers/BMP580/Src/bmp5.c ****         {
 3132              		.loc 1 1943 9 is_stmt 1 view .LVU954
1943:Drivers/BMP580/Src/bmp5.c ****         {
 3133              		.loc 1 1943 26 is_stmt 0 view .LVU955
 3134 001e 9DF80620 		ldrb	r2, [sp, #6]	@ zero_extendqisi2
1943:Drivers/BMP580/Src/bmp5.c ****         {
 3135              		.loc 1 1943 12 view .LVU956
 3136 0022 1AB9     		cbnz	r2, .L201
 3137              	.LVL326:
 3138              	.L198:
1949:Drivers/BMP580/Src/bmp5.c ****         {
 3139              		.loc 1 1949 9 is_stmt 1 view .LVU957
1949:Drivers/BMP580/Src/bmp5.c ****         {
 3140              		.loc 1 1949 12 is_stmt 0 view .LVU958
 3141 0024 3BB1     		cbz	r3, .L202
 3142              	.LVL327:
 3143              	.L197:
1995:Drivers/BMP580/Src/bmp5.c **** }
 3144              		.loc 1 1995 5 is_stmt 1 view .LVU959
1996:Drivers/BMP580/Src/bmp5.c **** 
 3145              		.loc 1 1996 1 is_stmt 0 view .LVU960
 3146 0026 1846     		mov	r0, r3
 3147 0028 02B0     		add	sp, sp, #8
 3148              		.cfi_remember_state
 3149              		.cfi_def_cfa_offset 16
 3150              		@ sp needed
 3151 002a 70BD     		pop	{r4, r5, r6, pc}
 3152              	.LVL328:
 3153              	.L201:
 3154              		.cfi_restore_state
1946:Drivers/BMP580/Src/bmp5.c ****         }
 3155              		.loc 1 1946 13 is_stmt 1 view .LVU961
1946:Drivers/BMP580/Src/bmp5.c ****         }
ARM GAS  C:\Users\Nathan\AppData\Local\Temp\ccQWWdhB.s 			page 107


 3156              		.loc 1 1946 20 is_stmt 0 view .LVU962
 3157 002c 2146     		mov	r1, r4
 3158 002e FFF7FEFF 		bl	bmp5_set_power_mode
 3159              	.LVL329:
1946:Drivers/BMP580/Src/bmp5.c ****         }
 3160              		.loc 1 1946 20 view .LVU963
 3161 0032 0346     		mov	r3, r0
 3162              	.LVL330:
1946:Drivers/BMP580/Src/bmp5.c ****         }
 3163              		.loc 1 1946 20 view .LVU964
 3164 0034 F6E7     		b	.L198
 3165              	.L202:
1952:Drivers/BMP580/Src/bmp5.c **** 
 3166              		.loc 1 1952 13 is_stmt 1 view .LVU965
1952:Drivers/BMP580/Src/bmp5.c **** 
 3167              		.loc 1 1952 20 is_stmt 0 view .LVU966
 3168 0036 2346     		mov	r3, r4
 3169              	.LVL331:
1952:Drivers/BMP580/Src/bmp5.c **** 
 3170              		.loc 1 1952 20 view .LVU967
 3171 0038 0122     		movs	r2, #1
 3172 003a 0DF10701 		add	r1, sp, #7
 3173 003e 3020     		movs	r0, #48
 3174 0040 FFF7FEFF 		bl	bmp5_get_regs
 3175              	.LVL332:
1954:Drivers/BMP580/Src/bmp5.c ****             {
 3176              		.loc 1 1954 13 is_stmt 1 view .LVU968
1954:Drivers/BMP580/Src/bmp5.c ****             {
 3177              		.loc 1 1954 16 is_stmt 0 view .LVU969
 3178 0044 0346     		mov	r3, r0
 3179 0046 F0B1     		cbz	r0, .L203
 3180              	.LVL333:
 3181              	.L199:
1968:Drivers/BMP580/Src/bmp5.c ****             {
 3182              		.loc 1 1968 13 is_stmt 1 view .LVU970
1968:Drivers/BMP580/Src/bmp5.c ****             {
 3183              		.loc 1 1968 16 is_stmt 0 view .LVU971
 3184 0048 002B     		cmp	r3, #0
 3185 004a ECD1     		bne	.L197
1970:Drivers/BMP580/Src/bmp5.c ****             }
 3186              		.loc 1 1970 17 is_stmt 1 view .LVU972
1970:Drivers/BMP580/Src/bmp5.c ****             }
 3187              		.loc 1 1970 28 is_stmt 0 view .LVU973
 3188 004c 9DF80730 		ldrb	r3, [sp, #7]	@ zero_extendqisi2
 3189              	.LVL334:
1970:Drivers/BMP580/Src/bmp5.c ****             }
 3190              		.loc 1 1970 28 view .LVU974
 3191 0050 03F03F03 		and	r3, r3, #63
 3192 0054 43EA8513 		orr	r3, r3, r5, lsl #6
1970:Drivers/BMP580/Src/bmp5.c ****             }
 3193              		.loc 1 1970 26 view .LVU975
 3194 0058 8DF80730 		strb	r3, [sp, #7]
1973:Drivers/BMP580/Src/bmp5.c ****             {
 3195              		.loc 1 1973 13 is_stmt 1 view .LVU976
1976:Drivers/BMP580/Src/bmp5.c ****             }
 3196              		.loc 1 1976 17 view .LVU977
1976:Drivers/BMP580/Src/bmp5.c ****             }
ARM GAS  C:\Users\Nathan\AppData\Local\Temp\ccQWWdhB.s 			page 108


 3197              		.loc 1 1976 24 is_stmt 0 view .LVU978
 3198 005c 2346     		mov	r3, r4
 3199 005e 0122     		movs	r2, #1
 3200 0060 0DF10701 		add	r1, sp, #7
 3201 0064 3520     		movs	r0, #53
 3202 0066 FFF7FEFF 		bl	bmp5_set_regs
 3203              	.LVL335:
1983:Drivers/BMP580/Src/bmp5.c ****         {
 3204              		.loc 1 1983 9 is_stmt 1 view .LVU979
1983:Drivers/BMP580/Src/bmp5.c ****         {
 3205              		.loc 1 1983 12 is_stmt 0 view .LVU980
 3206 006a 0346     		mov	r3, r0
 3207 006c 0028     		cmp	r0, #0
 3208 006e DAD1     		bne	.L197
1988:Drivers/BMP580/Src/bmp5.c ****             {
 3209              		.loc 1 1988 13 is_stmt 1 view .LVU981
1988:Drivers/BMP580/Src/bmp5.c ****             {
 3210              		.loc 1 1988 31 is_stmt 0 view .LVU982
 3211 0070 9DF80600 		ldrb	r0, [sp, #6]	@ zero_extendqisi2
 3212              	.LVL336:
1988:Drivers/BMP580/Src/bmp5.c ****             {
 3213              		.loc 1 1988 16 view .LVU983
 3214 0074 0028     		cmp	r0, #0
 3215 0076 D6D0     		beq	.L197
1988:Drivers/BMP580/Src/bmp5.c ****             {
 3216              		.loc 1 1988 58 discriminator 1 view .LVU984
 3217 0078 0428     		cmp	r0, #4
 3218 007a D4D0     		beq	.L197
1990:Drivers/BMP580/Src/bmp5.c ****             }
 3219              		.loc 1 1990 17 is_stmt 1 view .LVU985
1990:Drivers/BMP580/Src/bmp5.c ****             }
 3220              		.loc 1 1990 24 is_stmt 0 view .LVU986
 3221 007c 2146     		mov	r1, r4
 3222 007e FFF7FEFF 		bl	bmp5_set_power_mode
 3223              	.LVL337:
1990:Drivers/BMP580/Src/bmp5.c ****             }
 3224              		.loc 1 1990 24 view .LVU987
 3225 0082 0346     		mov	r3, r0
 3226              	.LVL338:
1990:Drivers/BMP580/Src/bmp5.c ****             }
 3227              		.loc 1 1990 24 view .LVU988
 3228 0084 CFE7     		b	.L197
 3229              	.LVL339:
 3230              	.L203:
1956:Drivers/BMP580/Src/bmp5.c **** 
 3231              		.loc 1 1956 17 is_stmt 1 view .LVU989
1956:Drivers/BMP580/Src/bmp5.c **** 
 3232              		.loc 1 1956 28 is_stmt 0 view .LVU990
 3233 0086 9DF80730 		ldrb	r3, [sp, #7]	@ zero_extendqisi2
 3234 008a 03F07F03 		and	r3, r3, #127
 3235 008e 43EAC613 		orr	r3, r3, r6, lsl #7
1956:Drivers/BMP580/Src/bmp5.c **** 
 3236              		.loc 1 1956 26 view .LVU991
 3237 0092 8DF80730 		strb	r3, [sp, #7]
1959:Drivers/BMP580/Src/bmp5.c ****             }
 3238              		.loc 1 1959 17 is_stmt 1 view .LVU992
1959:Drivers/BMP580/Src/bmp5.c ****             }
ARM GAS  C:\Users\Nathan\AppData\Local\Temp\ccQWWdhB.s 			page 109


 3239              		.loc 1 1959 24 is_stmt 0 view .LVU993
 3240 0096 2346     		mov	r3, r4
 3241 0098 0122     		movs	r2, #1
 3242 009a 0DF10701 		add	r1, sp, #7
 3243 009e 3020     		movs	r0, #48
 3244              	.LVL340:
1959:Drivers/BMP580/Src/bmp5.c ****             }
 3245              		.loc 1 1959 24 view .LVU994
 3246 00a0 FFF7FEFF 		bl	bmp5_set_regs
 3247              	.LVL341:
1962:Drivers/BMP580/Src/bmp5.c ****             {
 3248              		.loc 1 1962 13 is_stmt 1 view .LVU995
1962:Drivers/BMP580/Src/bmp5.c ****             {
 3249              		.loc 1 1962 16 is_stmt 0 view .LVU996
 3250 00a4 0346     		mov	r3, r0
 3251 00a6 0028     		cmp	r0, #0
 3252 00a8 BDD1     		bne	.L197
1965:Drivers/BMP580/Src/bmp5.c ****             }
 3253              		.loc 1 1965 17 is_stmt 1 view .LVU997
1965:Drivers/BMP580/Src/bmp5.c ****             }
 3254              		.loc 1 1965 24 is_stmt 0 view .LVU998
 3255 00aa 2346     		mov	r3, r4
 3256 00ac 0122     		movs	r2, #1
 3257 00ae 0DF10701 		add	r1, sp, #7
 3258 00b2 3520     		movs	r0, #53
 3259              	.LVL342:
1965:Drivers/BMP580/Src/bmp5.c ****             }
 3260              		.loc 1 1965 24 view .LVU999
 3261 00b4 FFF7FEFF 		bl	bmp5_get_regs
 3262              	.LVL343:
 3263 00b8 0346     		mov	r3, r0
 3264              	.LVL344:
1965:Drivers/BMP580/Src/bmp5.c ****             }
 3265              		.loc 1 1965 24 view .LVU1000
 3266 00ba C5E7     		b	.L199
 3267              		.cfi_endproc
 3268              	.LFE35:
 3270              		.section	.text.nvm_write_addr,"ax",%progbits
 3271              		.align	1
 3272              		.syntax unified
 3273              		.thumb
 3274              		.thumb_func
 3276              	nvm_write_addr:
 3277              	.LVL345:
 3278              	.LFB36:
2002:Drivers/BMP580/Src/bmp5.c ****     int8_t rslt;
 3279              		.loc 1 2002 1 is_stmt 1 view -0
 3280              		.cfi_startproc
 3281              		@ args = 0, pretend = 0, frame = 0
 3282              		@ frame_needed = 0, uses_anonymous_args = 0
2002:Drivers/BMP580/Src/bmp5.c ****     int8_t rslt;
 3283              		.loc 1 2002 1 is_stmt 0 view .LVU1002
 3284 0000 F8B5     		push	{r3, r4, r5, r6, r7, lr}
 3285              		.cfi_def_cfa_offset 24
 3286              		.cfi_offset 3, -24
 3287              		.cfi_offset 4, -20
 3288              		.cfi_offset 5, -16
ARM GAS  C:\Users\Nathan\AppData\Local\Temp\ccQWWdhB.s 			page 110


 3289              		.cfi_offset 6, -12
 3290              		.cfi_offset 7, -8
 3291              		.cfi_offset 14, -4
 3292 0002 1D46     		mov	r5, r3
2003:Drivers/BMP580/Src/bmp5.c **** 
 3293              		.loc 1 2003 5 is_stmt 1 view .LVU1003
2005:Drivers/BMP580/Src/bmp5.c ****     {
 3294              		.loc 1 2005 5 view .LVU1004
2005:Drivers/BMP580/Src/bmp5.c ****     {
 3295              		.loc 1 2005 43 is_stmt 0 view .LVU1005
 3296 0004 A0F12003 		sub	r3, r0, #32
 3297              	.LVL346:
2005:Drivers/BMP580/Src/bmp5.c ****     {
 3298              		.loc 1 2005 43 view .LVU1006
 3299 0008 DBB2     		uxtb	r3, r3
2005:Drivers/BMP580/Src/bmp5.c ****     {
 3300              		.loc 1 2005 8 view .LVU1007
 3301 000a 022B     		cmp	r3, #2
 3302 000c 16D8     		bhi	.L207
 3303 000e 0646     		mov	r6, r0
 3304 0010 0F46     		mov	r7, r1
 3305 0012 1446     		mov	r4, r2
2008:Drivers/BMP580/Src/bmp5.c **** 
 3306              		.loc 1 2008 9 is_stmt 1 view .LVU1008
2008:Drivers/BMP580/Src/bmp5.c **** 
 3307              		.loc 1 2008 16 is_stmt 0 view .LVU1009
 3308 0014 2946     		mov	r1, r5
 3309              	.LVL347:
2008:Drivers/BMP580/Src/bmp5.c **** 
 3310              		.loc 1 2008 16 view .LVU1010
 3311 0016 1046     		mov	r0, r2
 3312              	.LVL348:
2008:Drivers/BMP580/Src/bmp5.c **** 
 3313              		.loc 1 2008 16 view .LVU1011
 3314 0018 FFF7FEFF 		bl	bmp5_get_power_mode
 3315              	.LVL349:
2010:Drivers/BMP580/Src/bmp5.c ****         {
 3316              		.loc 1 2010 9 is_stmt 1 view .LVU1012
2010:Drivers/BMP580/Src/bmp5.c ****         {
 3317              		.loc 1 2010 12 is_stmt 0 view .LVU1013
 3318 001c 10B9     		cbnz	r0, .L205
2013:Drivers/BMP580/Src/bmp5.c ****             {
 3319              		.loc 1 2013 13 is_stmt 1 view .LVU1014
2013:Drivers/BMP580/Src/bmp5.c ****             {
 3320              		.loc 1 2013 17 is_stmt 0 view .LVU1015
 3321 001e 2378     		ldrb	r3, [r4]	@ zero_extendqisi2
2013:Drivers/BMP580/Src/bmp5.c ****             {
 3322              		.loc 1 2013 16 view .LVU1016
 3323 0020 0BB9     		cbnz	r3, .L209
 3324              	.L206:
2019:Drivers/BMP580/Src/bmp5.c ****             {
 3325              		.loc 1 2019 13 is_stmt 1 view .LVU1017
2019:Drivers/BMP580/Src/bmp5.c ****             {
 3326              		.loc 1 2019 16 is_stmt 0 view .LVU1018
 3327 0022 28B1     		cbz	r0, .L210
 3328              	.LVL350:
 3329              	.L205:
ARM GAS  C:\Users\Nathan\AppData\Local\Temp\ccQWWdhB.s 			page 111


2031:Drivers/BMP580/Src/bmp5.c **** }
 3330              		.loc 1 2031 5 is_stmt 1 view .LVU1019
2032:Drivers/BMP580/Src/bmp5.c **** 
 3331              		.loc 1 2032 1 is_stmt 0 view .LVU1020
 3332 0024 F8BD     		pop	{r3, r4, r5, r6, r7, pc}
 3333              	.LVL351:
 3334              	.L209:
2016:Drivers/BMP580/Src/bmp5.c ****             }
 3335              		.loc 1 2016 17 is_stmt 1 view .LVU1021
2016:Drivers/BMP580/Src/bmp5.c ****             }
 3336              		.loc 1 2016 24 is_stmt 0 view .LVU1022
 3337 0026 2946     		mov	r1, r5
 3338 0028 0020     		movs	r0, #0
 3339              	.LVL352:
2016:Drivers/BMP580/Src/bmp5.c ****             }
 3340              		.loc 1 2016 24 view .LVU1023
 3341 002a FFF7FEFF 		bl	bmp5_set_power_mode
 3342              	.LVL353:
2016:Drivers/BMP580/Src/bmp5.c ****             }
 3343              		.loc 1 2016 24 view .LVU1024
 3344 002e F8E7     		b	.L206
 3345              	.L210:
2022:Drivers/BMP580/Src/bmp5.c ****             }
 3346              		.loc 1 2022 17 is_stmt 1 view .LVU1025
2022:Drivers/BMP580/Src/bmp5.c ****             }
 3347              		.loc 1 2022 24 is_stmt 0 view .LVU1026
 3348 0030 2A46     		mov	r2, r5
 3349 0032 3946     		mov	r1, r7
 3350 0034 3046     		mov	r0, r6
 3351              	.LVL354:
2022:Drivers/BMP580/Src/bmp5.c ****             }
 3352              		.loc 1 2022 24 view .LVU1027
 3353 0036 FFF7FEFF 		bl	set_nvm_addr
 3354              	.LVL355:
2022:Drivers/BMP580/Src/bmp5.c ****             }
 3355              		.loc 1 2022 24 view .LVU1028
 3356 003a F3E7     		b	.L205
 3357              	.LVL356:
 3358              	.L207:
2028:Drivers/BMP580/Src/bmp5.c ****     }
 3359              		.loc 1 2028 14 view .LVU1029
 3360 003c 6FF00900 		mvn	r0, #9
 3361              	.LVL357:
2028:Drivers/BMP580/Src/bmp5.c ****     }
 3362              		.loc 1 2028 14 view .LVU1030
 3363 0040 F0E7     		b	.L205
 3364              		.cfi_endproc
 3365              	.LFE36:
 3367              		.section	.text.bmp5_set_iir_config,"ax",%progbits
 3368              		.align	1
 3369              		.global	bmp5_set_iir_config
 3370              		.syntax unified
 3371              		.thumb
 3372              		.thumb_func
 3374              	bmp5_set_iir_config:
 3375              	.LVL358:
 3376              	.LFB13:
ARM GAS  C:\Users\Nathan\AppData\Local\Temp\ccQWWdhB.s 			page 112


 874:Drivers/BMP580/Src/bmp5.c ****     /* Variable to store the function result */
 3377              		.loc 1 874 1 is_stmt 1 view -0
 3378              		.cfi_startproc
 3379              		@ args = 0, pretend = 0, frame = 8
 3380              		@ frame_needed = 0, uses_anonymous_args = 0
 876:Drivers/BMP580/Src/bmp5.c **** 
 3381              		.loc 1 876 5 view .LVU1032
 879:Drivers/BMP580/Src/bmp5.c **** 
 3382              		.loc 1 879 5 view .LVU1033
 881:Drivers/BMP580/Src/bmp5.c ****     {
 3383              		.loc 1 881 5 view .LVU1034
 881:Drivers/BMP580/Src/bmp5.c ****     {
 3384              		.loc 1 881 8 is_stmt 0 view .LVU1035
 3385 0000 88B3     		cbz	r0, .L216
 874:Drivers/BMP580/Src/bmp5.c ****     /* Variable to store the function result */
 3386              		.loc 1 874 1 view .LVU1036
 3387 0002 30B5     		push	{r4, r5, lr}
 3388              		.cfi_def_cfa_offset 12
 3389              		.cfi_offset 4, -12
 3390              		.cfi_offset 5, -8
 3391              		.cfi_offset 14, -4
 3392 0004 83B0     		sub	sp, sp, #12
 3393              		.cfi_def_cfa_offset 24
 3394 0006 0C46     		mov	r4, r1
 3395 0008 0546     		mov	r5, r0
 887:Drivers/BMP580/Src/bmp5.c ****         {
 3396              		.loc 1 887 9 is_stmt 1 view .LVU1037
 887:Drivers/BMP580/Src/bmp5.c ****         {
 3397              		.loc 1 887 21 is_stmt 0 view .LVU1038
 3398 000a 0378     		ldrb	r3, [r0]	@ zero_extendqisi2
 887:Drivers/BMP580/Src/bmp5.c ****         {
 3399              		.loc 1 887 12 view .LVU1039
 3400 000c 0BB9     		cbnz	r3, .L213
 887:Drivers/BMP580/Src/bmp5.c ****         {
 3401              		.loc 1 887 71 discriminator 1 view .LVU1040
 3402 000e 4378     		ldrb	r3, [r0, #1]	@ zero_extendqisi2
 887:Drivers/BMP580/Src/bmp5.c ****         {
 3403              		.loc 1 887 60 discriminator 1 view .LVU1041
 3404 0010 23B1     		cbz	r3, .L214
 3405              	.L213:
 889:Drivers/BMP580/Src/bmp5.c ****         }
 3406              		.loc 1 889 13 is_stmt 1 view .LVU1042
 889:Drivers/BMP580/Src/bmp5.c ****         }
 3407              		.loc 1 889 20 is_stmt 0 view .LVU1043
 3408 0012 2046     		mov	r0, r4
 3409              	.LVL359:
 889:Drivers/BMP580/Src/bmp5.c ****         }
 3410              		.loc 1 889 20 view .LVU1044
 3411 0014 FFF7FEFF 		bl	set_standby_mode
 3412              	.LVL360:
 892:Drivers/BMP580/Src/bmp5.c ****         {
 3413              		.loc 1 892 9 is_stmt 1 view .LVU1045
 892:Drivers/BMP580/Src/bmp5.c ****         {
 3414              		.loc 1 892 12 is_stmt 0 view .LVU1046
 3415 0018 0346     		mov	r3, r0
 3416 001a 50B9     		cbnz	r0, .L212
 3417              	.LVL361:
ARM GAS  C:\Users\Nathan\AppData\Local\Temp\ccQWWdhB.s 			page 113


 3418              	.L214:
 894:Drivers/BMP580/Src/bmp5.c **** 
 3419              		.loc 1 894 13 is_stmt 1 view .LVU1047
 894:Drivers/BMP580/Src/bmp5.c **** 
 3420              		.loc 1 894 20 is_stmt 0 view .LVU1048
 3421 001c 2146     		mov	r1, r4
 3422 001e 0DF10700 		add	r0, sp, #7
 3423 0022 FFF7FEFF 		bl	bmp5_get_power_mode
 3424              	.LVL362:
 896:Drivers/BMP580/Src/bmp5.c ****             {
 3425              		.loc 1 896 13 is_stmt 1 view .LVU1049
 896:Drivers/BMP580/Src/bmp5.c ****             {
 3426              		.loc 1 896 16 is_stmt 0 view .LVU1050
 3427 0026 0346     		mov	r3, r0
 3428 0028 18B9     		cbnz	r0, .L212
 899:Drivers/BMP580/Src/bmp5.c ****                 {
 3429              		.loc 1 899 17 is_stmt 1 view .LVU1051
 899:Drivers/BMP580/Src/bmp5.c ****                 {
 3430              		.loc 1 899 34 is_stmt 0 view .LVU1052
 3431 002a 9DF80720 		ldrb	r2, [sp, #7]	@ zero_extendqisi2
 899:Drivers/BMP580/Src/bmp5.c ****                 {
 3432              		.loc 1 899 20 view .LVU1053
 3433 002e 1AB9     		cbnz	r2, .L221
 3434              	.LVL363:
 3435              	.L215:
 905:Drivers/BMP580/Src/bmp5.c ****                 {
 3436              		.loc 1 905 17 is_stmt 1 view .LVU1054
 905:Drivers/BMP580/Src/bmp5.c ****                 {
 3437              		.loc 1 905 20 is_stmt 0 view .LVU1055
 3438 0030 3BB1     		cbz	r3, .L222
 3439              	.LVL364:
 3440              	.L212:
 931:Drivers/BMP580/Src/bmp5.c **** }
 3441              		.loc 1 931 5 is_stmt 1 view .LVU1056
 932:Drivers/BMP580/Src/bmp5.c **** 
 3442              		.loc 1 932 1 is_stmt 0 view .LVU1057
 3443 0032 1846     		mov	r0, r3
 3444 0034 03B0     		add	sp, sp, #12
 3445              		.cfi_remember_state
 3446              		.cfi_def_cfa_offset 12
 3447              		@ sp needed
 3448 0036 30BD     		pop	{r4, r5, pc}
 3449              	.LVL365:
 3450              	.L221:
 3451              		.cfi_restore_state
 902:Drivers/BMP580/Src/bmp5.c ****                 }
 3452              		.loc 1 902 21 is_stmt 1 view .LVU1058
 902:Drivers/BMP580/Src/bmp5.c ****                 }
 3453              		.loc 1 902 28 is_stmt 0 view .LVU1059
 3454 0038 2146     		mov	r1, r4
 3455 003a FFF7FEFF 		bl	bmp5_set_power_mode
 3456              	.LVL366:
 902:Drivers/BMP580/Src/bmp5.c ****                 }
 3457              		.loc 1 902 28 view .LVU1060
 3458 003e 0346     		mov	r3, r0
 3459              	.LVL367:
 902:Drivers/BMP580/Src/bmp5.c ****                 }
ARM GAS  C:\Users\Nathan\AppData\Local\Temp\ccQWWdhB.s 			page 114


 3460              		.loc 1 902 28 view .LVU1061
 3461 0040 F6E7     		b	.L215
 3462              	.L222:
 907:Drivers/BMP580/Src/bmp5.c ****                 }
 3463              		.loc 1 907 21 is_stmt 1 view .LVU1062
 907:Drivers/BMP580/Src/bmp5.c ****                 }
 3464              		.loc 1 907 28 is_stmt 0 view .LVU1063
 3465 0042 2146     		mov	r1, r4
 3466 0044 2846     		mov	r0, r5
 3467 0046 FFF7FEFF 		bl	set_iir_config
 3468              	.LVL368:
 913:Drivers/BMP580/Src/bmp5.c ****                 {
 3469              		.loc 1 913 17 is_stmt 1 view .LVU1064
 913:Drivers/BMP580/Src/bmp5.c ****                 {
 3470              		.loc 1 913 20 is_stmt 0 view .LVU1065
 3471 004a 0346     		mov	r3, r0
 3472 004c 0028     		cmp	r0, #0
 3473 004e F0D1     		bne	.L212
 918:Drivers/BMP580/Src/bmp5.c ****                     {
 3474              		.loc 1 918 21 is_stmt 1 view .LVU1066
 918:Drivers/BMP580/Src/bmp5.c ****                     {
 3475              		.loc 1 918 39 is_stmt 0 view .LVU1067
 3476 0050 9DF80700 		ldrb	r0, [sp, #7]	@ zero_extendqisi2
 3477              	.LVL369:
 918:Drivers/BMP580/Src/bmp5.c ****                     {
 3478              		.loc 1 918 24 view .LVU1068
 3479 0054 0028     		cmp	r0, #0
 3480 0056 ECD0     		beq	.L212
 918:Drivers/BMP580/Src/bmp5.c ****                     {
 3481              		.loc 1 918 66 discriminator 1 view .LVU1069
 3482 0058 0428     		cmp	r0, #4
 3483 005a EAD0     		beq	.L212
 920:Drivers/BMP580/Src/bmp5.c ****                     }
 3484              		.loc 1 920 25 is_stmt 1 view .LVU1070
 920:Drivers/BMP580/Src/bmp5.c ****                     }
 3485              		.loc 1 920 32 is_stmt 0 view .LVU1071
 3486 005c 2146     		mov	r1, r4
 3487 005e FFF7FEFF 		bl	bmp5_set_power_mode
 3488              	.LVL370:
 920:Drivers/BMP580/Src/bmp5.c ****                     }
 3489              		.loc 1 920 32 view .LVU1072
 3490 0062 0346     		mov	r3, r0
 3491              	.LVL371:
 920:Drivers/BMP580/Src/bmp5.c ****                     }
 3492              		.loc 1 920 32 view .LVU1073
 3493 0064 E5E7     		b	.L212
 3494              	.LVL372:
 3495              	.L216:
 3496              		.cfi_def_cfa_offset 0
 3497              		.cfi_restore 4
 3498              		.cfi_restore 5
 3499              		.cfi_restore 14
 928:Drivers/BMP580/Src/bmp5.c ****     }
 3500              		.loc 1 928 14 view .LVU1074
 3501 0066 4FF0FF33 		mov	r3, #-1
 3502              	.LVL373:
 931:Drivers/BMP580/Src/bmp5.c **** }
ARM GAS  C:\Users\Nathan\AppData\Local\Temp\ccQWWdhB.s 			page 115


 3503              		.loc 1 931 5 is_stmt 1 view .LVU1075
 932:Drivers/BMP580/Src/bmp5.c **** 
 3504              		.loc 1 932 1 is_stmt 0 view .LVU1076
 3505 006a 1846     		mov	r0, r3
 3506              	.LVL374:
 932:Drivers/BMP580/Src/bmp5.c **** 
 3507              		.loc 1 932 1 view .LVU1077
 3508 006c 7047     		bx	lr
 3509              		.cfi_endproc
 3510              	.LFE13:
 3512              		.section	.text.bmp5_get_osr_odr_eff,"ax",%progbits
 3513              		.align	1
 3514              		.global	bmp5_get_osr_odr_eff
 3515              		.syntax unified
 3516              		.thumb
 3517              		.thumb_func
 3519              	bmp5_get_osr_odr_eff:
 3520              	.LVL375:
 3521              	.LFB14:
 939:Drivers/BMP580/Src/bmp5.c ****     /* Variable to store the function result */
 3522              		.loc 1 939 1 is_stmt 1 view -0
 3523              		.cfi_startproc
 3524              		@ args = 0, pretend = 0, frame = 8
 3525              		@ frame_needed = 0, uses_anonymous_args = 0
 941:Drivers/BMP580/Src/bmp5.c **** 
 3526              		.loc 1 941 5 view .LVU1079
 944:Drivers/BMP580/Src/bmp5.c **** 
 3527              		.loc 1 944 5 view .LVU1080
 946:Drivers/BMP580/Src/bmp5.c ****     {
 3528              		.loc 1 946 5 view .LVU1081
 946:Drivers/BMP580/Src/bmp5.c ****     {
 3529              		.loc 1 946 8 is_stmt 0 view .LVU1082
 3530 0000 B0B1     		cbz	r0, .L225
 939:Drivers/BMP580/Src/bmp5.c ****     /* Variable to store the function result */
 3531              		.loc 1 939 1 view .LVU1083
 3532 0002 10B5     		push	{r4, lr}
 3533              		.cfi_def_cfa_offset 8
 3534              		.cfi_offset 4, -8
 3535              		.cfi_offset 14, -4
 3536 0004 82B0     		sub	sp, sp, #8
 3537              		.cfi_def_cfa_offset 16
 3538 0006 0B46     		mov	r3, r1
 3539 0008 0446     		mov	r4, r0
 949:Drivers/BMP580/Src/bmp5.c **** 
 3540              		.loc 1 949 9 is_stmt 1 view .LVU1084
 949:Drivers/BMP580/Src/bmp5.c **** 
 3541              		.loc 1 949 16 is_stmt 0 view .LVU1085
 3542 000a 0122     		movs	r2, #1
 3543 000c 0DF10701 		add	r1, sp, #7
 3544              	.LVL376:
 949:Drivers/BMP580/Src/bmp5.c **** 
 3545              		.loc 1 949 16 view .LVU1086
 3546 0010 3820     		movs	r0, #56
 3547              	.LVL377:
 949:Drivers/BMP580/Src/bmp5.c **** 
 3548              		.loc 1 949 16 view .LVU1087
 3549 0012 FFF7FEFF 		bl	bmp5_get_regs
ARM GAS  C:\Users\Nathan\AppData\Local\Temp\ccQWWdhB.s 			page 116


 3550              	.LVL378:
 951:Drivers/BMP580/Src/bmp5.c ****         {
 3551              		.loc 1 951 9 is_stmt 1 view .LVU1088
 951:Drivers/BMP580/Src/bmp5.c ****         {
 3552              		.loc 1 951 12 is_stmt 0 view .LVU1089
 3553 0016 48B9     		cbnz	r0, .L224
 953:Drivers/BMP580/Src/bmp5.c ****             osr_odr_eff->osr_p_eff = BMP5_GET_BITSLICE(reg_data, BMP5_OSR_PRESS_EFF);
 3554              		.loc 1 953 13 is_stmt 1 view .LVU1090
 953:Drivers/BMP580/Src/bmp5.c ****             osr_odr_eff->osr_p_eff = BMP5_GET_BITSLICE(reg_data, BMP5_OSR_PRESS_EFF);
 3555              		.loc 1 953 38 is_stmt 0 view .LVU1091
 3556 0018 9DF80730 		ldrb	r3, [sp, #7]	@ zero_extendqisi2
 3557 001c 03F00702 		and	r2, r3, #7
 953:Drivers/BMP580/Src/bmp5.c ****             osr_odr_eff->osr_p_eff = BMP5_GET_BITSLICE(reg_data, BMP5_OSR_PRESS_EFF);
 3558              		.loc 1 953 36 view .LVU1092
 3559 0020 2270     		strb	r2, [r4]
 954:Drivers/BMP580/Src/bmp5.c ****             osr_odr_eff->odr_is_valid = BMP5_GET_BITSLICE(reg_data, BMP5_ODR_IS_VALID);
 3560              		.loc 1 954 13 is_stmt 1 view .LVU1093
 954:Drivers/BMP580/Src/bmp5.c ****             osr_odr_eff->odr_is_valid = BMP5_GET_BITSLICE(reg_data, BMP5_ODR_IS_VALID);
 3561              		.loc 1 954 38 is_stmt 0 view .LVU1094
 3562 0022 C3F3C202 		ubfx	r2, r3, #3, #3
 954:Drivers/BMP580/Src/bmp5.c ****             osr_odr_eff->odr_is_valid = BMP5_GET_BITSLICE(reg_data, BMP5_ODR_IS_VALID);
 3563              		.loc 1 954 36 view .LVU1095
 3564 0026 6270     		strb	r2, [r4, #1]
 955:Drivers/BMP580/Src/bmp5.c ****         }
 3565              		.loc 1 955 13 is_stmt 1 view .LVU1096
 955:Drivers/BMP580/Src/bmp5.c ****         }
 3566              		.loc 1 955 41 is_stmt 0 view .LVU1097
 3567 0028 DB09     		lsrs	r3, r3, #7
 955:Drivers/BMP580/Src/bmp5.c ****         }
 3568              		.loc 1 955 39 view .LVU1098
 3569 002a A370     		strb	r3, [r4, #2]
 3570              	.L224:
 963:Drivers/BMP580/Src/bmp5.c **** }
 3571              		.loc 1 963 5 is_stmt 1 view .LVU1099
 964:Drivers/BMP580/Src/bmp5.c **** 
 3572              		.loc 1 964 1 is_stmt 0 view .LVU1100
 3573 002c 02B0     		add	sp, sp, #8
 3574              		.cfi_def_cfa_offset 8
 3575              		@ sp needed
 3576 002e 10BD     		pop	{r4, pc}
 3577              	.LVL379:
 3578              	.L225:
 3579              		.cfi_def_cfa_offset 0
 3580              		.cfi_restore 4
 3581              		.cfi_restore 14
 960:Drivers/BMP580/Src/bmp5.c ****     }
 3582              		.loc 1 960 14 view .LVU1101
 3583 0030 4FF0FF30 		mov	r0, #-1
 3584              	.LVL380:
 963:Drivers/BMP580/Src/bmp5.c **** }
 3585              		.loc 1 963 5 is_stmt 1 view .LVU1102
 964:Drivers/BMP580/Src/bmp5.c **** 
 3586              		.loc 1 964 1 is_stmt 0 view .LVU1103
 3587 0034 7047     		bx	lr
 3588              		.cfi_endproc
 3589              	.LFE14:
 3591              		.section	.text.bmp5_get_fifo_configuration,"ax",%progbits
ARM GAS  C:\Users\Nathan\AppData\Local\Temp\ccQWWdhB.s 			page 117


 3592              		.align	1
 3593              		.global	bmp5_get_fifo_configuration
 3594              		.syntax unified
 3595              		.thumb
 3596              		.thumb_func
 3598              	bmp5_get_fifo_configuration:
 3599              	.LVL381:
 3600              	.LFB15:
 970:Drivers/BMP580/Src/bmp5.c ****     int8_t rslt = 0;
 3601              		.loc 1 970 1 is_stmt 1 view -0
 3602              		.cfi_startproc
 3603              		@ args = 0, pretend = 0, frame = 8
 3604              		@ frame_needed = 0, uses_anonymous_args = 0
 971:Drivers/BMP580/Src/bmp5.c ****     uint8_t reg_data;
 3605              		.loc 1 971 5 view .LVU1105
 972:Drivers/BMP580/Src/bmp5.c **** 
 3606              		.loc 1 972 5 view .LVU1106
 974:Drivers/BMP580/Src/bmp5.c ****     {
 3607              		.loc 1 974 5 view .LVU1107
 974:Drivers/BMP580/Src/bmp5.c ****     {
 3608              		.loc 1 974 8 is_stmt 0 view .LVU1108
 3609 0000 C0B3     		cbz	r0, .L232
 970:Drivers/BMP580/Src/bmp5.c ****     int8_t rslt = 0;
 3610              		.loc 1 970 1 view .LVU1109
 3611 0002 30B5     		push	{r4, r5, lr}
 3612              		.cfi_def_cfa_offset 12
 3613              		.cfi_offset 4, -12
 3614              		.cfi_offset 5, -8
 3615              		.cfi_offset 14, -4
 3616 0004 83B0     		sub	sp, sp, #12
 3617              		.cfi_def_cfa_offset 24
 3618 0006 0C46     		mov	r4, r1
 3619 0008 0546     		mov	r5, r0
 977:Drivers/BMP580/Src/bmp5.c **** 
 3620              		.loc 1 977 9 is_stmt 1 view .LVU1110
 977:Drivers/BMP580/Src/bmp5.c **** 
 3621              		.loc 1 977 16 is_stmt 0 view .LVU1111
 3622 000a 0B46     		mov	r3, r1
 3623 000c 0122     		movs	r2, #1
 3624 000e 0DF10701 		add	r1, sp, #7
 3625              	.LVL382:
 977:Drivers/BMP580/Src/bmp5.c **** 
 3626              		.loc 1 977 16 view .LVU1112
 3627 0012 1620     		movs	r0, #22
 3628              	.LVL383:
 977:Drivers/BMP580/Src/bmp5.c **** 
 3629              		.loc 1 977 16 view .LVU1113
 3630 0014 FFF7FEFF 		bl	bmp5_get_regs
 3631              	.LVL384:
 979:Drivers/BMP580/Src/bmp5.c ****         {
 3632              		.loc 1 979 9 is_stmt 1 view .LVU1114
 979:Drivers/BMP580/Src/bmp5.c ****         {
 3633              		.loc 1 979 12 is_stmt 0 view .LVU1115
 3634 0018 08B1     		cbz	r0, .L237
 3635              	.LVL385:
 3636              	.L231:
1009:Drivers/BMP580/Src/bmp5.c **** }
ARM GAS  C:\Users\Nathan\AppData\Local\Temp\ccQWWdhB.s 			page 118


 3637              		.loc 1 1009 5 is_stmt 1 view .LVU1116
1010:Drivers/BMP580/Src/bmp5.c **** 
 3638              		.loc 1 1010 1 is_stmt 0 view .LVU1117
 3639 001a 03B0     		add	sp, sp, #12
 3640              		.cfi_remember_state
 3641              		.cfi_def_cfa_offset 12
 3642              		@ sp needed
 3643 001c 30BD     		pop	{r4, r5, pc}
 3644              	.LVL386:
 3645              	.L237:
 3646              		.cfi_restore_state
 981:Drivers/BMP580/Src/bmp5.c ****             fifo->mode = BMP5_GET_BITSLICE(reg_data, BMP5_FIFO_MODE);
 3647              		.loc 1 981 13 is_stmt 1 view .LVU1118
 981:Drivers/BMP580/Src/bmp5.c ****             fifo->mode = BMP5_GET_BITSLICE(reg_data, BMP5_FIFO_MODE);
 3648              		.loc 1 981 31 is_stmt 0 view .LVU1119
 3649 001e 9DF80730 		ldrb	r3, [sp, #7]	@ zero_extendqisi2
 3650 0022 03F01F02 		and	r2, r3, #31
 981:Drivers/BMP580/Src/bmp5.c ****             fifo->mode = BMP5_GET_BITSLICE(reg_data, BMP5_FIFO_MODE);
 3651              		.loc 1 981 29 view .LVU1120
 3652 0026 AA72     		strb	r2, [r5, #10]
 982:Drivers/BMP580/Src/bmp5.c **** 
 3653              		.loc 1 982 13 is_stmt 1 view .LVU1121
 982:Drivers/BMP580/Src/bmp5.c **** 
 3654              		.loc 1 982 26 is_stmt 0 view .LVU1122
 3655 0028 C3F34013 		ubfx	r3, r3, #5, #1
 982:Drivers/BMP580/Src/bmp5.c **** 
 3656              		.loc 1 982 24 view .LVU1123
 3657 002c 6B72     		strb	r3, [r5, #9]
 984:Drivers/BMP580/Src/bmp5.c **** 
 3658              		.loc 1 984 13 is_stmt 1 view .LVU1124
 984:Drivers/BMP580/Src/bmp5.c **** 
 3659              		.loc 1 984 20 is_stmt 0 view .LVU1125
 3660 002e 2346     		mov	r3, r4
 3661 0030 0122     		movs	r2, #1
 3662 0032 0DF10701 		add	r1, sp, #7
 3663 0036 1820     		movs	r0, #24
 3664              	.LVL387:
 984:Drivers/BMP580/Src/bmp5.c **** 
 3665              		.loc 1 984 20 view .LVU1126
 3666 0038 FFF7FEFF 		bl	bmp5_get_regs
 3667              	.LVL388:
 986:Drivers/BMP580/Src/bmp5.c ****             {
 3668              		.loc 1 986 13 is_stmt 1 view .LVU1127
 986:Drivers/BMP580/Src/bmp5.c ****             {
 3669              		.loc 1 986 16 is_stmt 0 view .LVU1128
 3670 003c 0028     		cmp	r0, #0
 3671 003e ECD1     		bne	.L231
 988:Drivers/BMP580/Src/bmp5.c ****                 fifo->dec_sel = BMP5_GET_BITSLICE(reg_data, BMP5_FIFO_DEC_SEL);
 3672              		.loc 1 988 17 is_stmt 1 view .LVU1129
 988:Drivers/BMP580/Src/bmp5.c ****                 fifo->dec_sel = BMP5_GET_BITSLICE(reg_data, BMP5_FIFO_DEC_SEL);
 3673              		.loc 1 988 35 is_stmt 0 view .LVU1130
 3674 0040 9DF80730 		ldrb	r3, [sp, #7]	@ zero_extendqisi2
 3675 0044 03F00302 		and	r2, r3, #3
 988:Drivers/BMP580/Src/bmp5.c ****                 fifo->dec_sel = BMP5_GET_BITSLICE(reg_data, BMP5_FIFO_DEC_SEL);
 3676              		.loc 1 988 33 view .LVU1131
 3677 0048 AA71     		strb	r2, [r5, #6]
 989:Drivers/BMP580/Src/bmp5.c ****             }
ARM GAS  C:\Users\Nathan\AppData\Local\Temp\ccQWWdhB.s 			page 119


 3678              		.loc 1 989 17 is_stmt 1 view .LVU1132
 989:Drivers/BMP580/Src/bmp5.c ****             }
 3679              		.loc 1 989 33 is_stmt 0 view .LVU1133
 3680 004a C3F38203 		ubfx	r3, r3, #2, #3
 989:Drivers/BMP580/Src/bmp5.c ****             }
 3681              		.loc 1 989 31 view .LVU1134
 3682 004e EB71     		strb	r3, [r5, #7]
 993:Drivers/BMP580/Src/bmp5.c ****         {
 3683              		.loc 1 993 9 is_stmt 1 view .LVU1135
 995:Drivers/BMP580/Src/bmp5.c **** 
 3684              		.loc 1 995 13 view .LVU1136
 995:Drivers/BMP580/Src/bmp5.c **** 
 3685              		.loc 1 995 20 is_stmt 0 view .LVU1137
 3686 0050 2346     		mov	r3, r4
 3687 0052 0122     		movs	r2, #1
 3688 0054 0DF10701 		add	r1, sp, #7
 3689 0058 3020     		movs	r0, #48
 3690              	.LVL389:
 995:Drivers/BMP580/Src/bmp5.c **** 
 3691              		.loc 1 995 20 view .LVU1138
 3692 005a FFF7FEFF 		bl	bmp5_get_regs
 3693              	.LVL390:
 997:Drivers/BMP580/Src/bmp5.c ****             {
 3694              		.loc 1 997 13 is_stmt 1 view .LVU1139
 997:Drivers/BMP580/Src/bmp5.c ****             {
 3695              		.loc 1 997 16 is_stmt 0 view .LVU1140
 3696 005e 0028     		cmp	r0, #0
 3697 0060 DBD1     		bne	.L231
 999:Drivers/BMP580/Src/bmp5.c ****                 fifo->set_fifo_iir_p = BMP5_GET_BITSLICE(reg_data, BMP5_SET_FIFO_IIR_PRESS);
 3698              		.loc 1 999 17 is_stmt 1 view .LVU1141
 999:Drivers/BMP580/Src/bmp5.c ****                 fifo->set_fifo_iir_p = BMP5_GET_BITSLICE(reg_data, BMP5_SET_FIFO_IIR_PRESS);
 3699              		.loc 1 999 40 is_stmt 0 view .LVU1142
 3700 0062 9DF80730 		ldrb	r3, [sp, #7]	@ zero_extendqisi2
 3701 0066 C3F30012 		ubfx	r2, r3, #4, #1
 999:Drivers/BMP580/Src/bmp5.c ****                 fifo->set_fifo_iir_p = BMP5_GET_BITSLICE(reg_data, BMP5_SET_FIFO_IIR_PRESS);
 3702              		.loc 1 999 38 view .LVU1143
 3703 006a EA72     		strb	r2, [r5, #11]
1000:Drivers/BMP580/Src/bmp5.c ****             }
 3704              		.loc 1 1000 17 is_stmt 1 view .LVU1144
1000:Drivers/BMP580/Src/bmp5.c ****             }
 3705              		.loc 1 1000 40 is_stmt 0 view .LVU1145
 3706 006c C3F38013 		ubfx	r3, r3, #6, #1
1000:Drivers/BMP580/Src/bmp5.c ****             }
 3707              		.loc 1 1000 38 view .LVU1146
 3708 0070 2B73     		strb	r3, [r5, #12]
 3709 0072 D2E7     		b	.L231
 3710              	.LVL391:
 3711              	.L232:
 3712              		.cfi_def_cfa_offset 0
 3713              		.cfi_restore 4
 3714              		.cfi_restore 5
 3715              		.cfi_restore 14
1006:Drivers/BMP580/Src/bmp5.c ****     }
 3716              		.loc 1 1006 14 view .LVU1147
 3717 0074 4FF0FF30 		mov	r0, #-1
 3718              	.LVL392:
1009:Drivers/BMP580/Src/bmp5.c **** }
ARM GAS  C:\Users\Nathan\AppData\Local\Temp\ccQWWdhB.s 			page 120


 3719              		.loc 1 1009 5 is_stmt 1 view .LVU1148
1010:Drivers/BMP580/Src/bmp5.c **** 
 3720              		.loc 1 1010 1 is_stmt 0 view .LVU1149
 3721 0078 7047     		bx	lr
 3722              		.cfi_endproc
 3723              	.LFE15:
 3725              		.section	.text.bmp5_set_fifo_configuration,"ax",%progbits
 3726              		.align	1
 3727              		.global	bmp5_set_fifo_configuration
 3728              		.syntax unified
 3729              		.thumb
 3730              		.thumb_func
 3732              	bmp5_set_fifo_configuration:
 3733              	.LVL393:
 3734              	.LFB16:
1019:Drivers/BMP580/Src/bmp5.c ****     int8_t rslt = 0;
 3735              		.loc 1 1019 1 is_stmt 1 view -0
 3736              		.cfi_startproc
 3737              		@ args = 0, pretend = 0, frame = 8
 3738              		@ frame_needed = 0, uses_anonymous_args = 0
1020:Drivers/BMP580/Src/bmp5.c ****     uint8_t reg_data;
 3739              		.loc 1 1020 5 view .LVU1151
1021:Drivers/BMP580/Src/bmp5.c ****     uint8_t set_fifo_iir_t, set_fifo_iit_p;
 3740              		.loc 1 1021 5 view .LVU1152
1022:Drivers/BMP580/Src/bmp5.c **** 
 3741              		.loc 1 1022 5 view .LVU1153
1024:Drivers/BMP580/Src/bmp5.c ****     {
 3742              		.loc 1 1024 5 view .LVU1154
1024:Drivers/BMP580/Src/bmp5.c ****     {
 3743              		.loc 1 1024 8 is_stmt 0 view .LVU1155
 3744 0000 0028     		cmp	r0, #0
 3745 0002 61D0     		beq	.L241
1019:Drivers/BMP580/Src/bmp5.c ****     int8_t rslt = 0;
 3746              		.loc 1 1019 1 view .LVU1156
 3747 0004 30B5     		push	{r4, r5, lr}
 3748              		.cfi_def_cfa_offset 12
 3749              		.cfi_offset 4, -12
 3750              		.cfi_offset 5, -8
 3751              		.cfi_offset 14, -4
 3752 0006 83B0     		sub	sp, sp, #12
 3753              		.cfi_def_cfa_offset 24
 3754 0008 0C46     		mov	r4, r1
 3755 000a 0546     		mov	r5, r0
1029:Drivers/BMP580/Src/bmp5.c ****         {
 3756              		.loc 1 1029 9 is_stmt 1 view .LVU1157
1029:Drivers/BMP580/Src/bmp5.c ****         {
 3757              		.loc 1 1029 17 is_stmt 0 view .LVU1158
 3758 000c 8379     		ldrb	r3, [r0, #6]	@ zero_extendqisi2
1029:Drivers/BMP580/Src/bmp5.c ****         {
 3759              		.loc 1 1029 12 view .LVU1159
 3760 000e 23B1     		cbz	r3, .L240
1031:Drivers/BMP580/Src/bmp5.c ****         }
 3761              		.loc 1 1031 13 is_stmt 1 view .LVU1160
1031:Drivers/BMP580/Src/bmp5.c ****         }
 3762              		.loc 1 1031 20 is_stmt 0 view .LVU1161
 3763 0010 0846     		mov	r0, r1
 3764              	.LVL394:
ARM GAS  C:\Users\Nathan\AppData\Local\Temp\ccQWWdhB.s 			page 121


1031:Drivers/BMP580/Src/bmp5.c ****         }
 3765              		.loc 1 1031 20 view .LVU1162
 3766 0012 FFF7FEFF 		bl	set_standby_mode
 3767              	.LVL395:
1034:Drivers/BMP580/Src/bmp5.c ****         {
 3768              		.loc 1 1034 9 is_stmt 1 view .LVU1163
1034:Drivers/BMP580/Src/bmp5.c ****         {
 3769              		.loc 1 1034 12 is_stmt 0 view .LVU1164
 3770 0016 0346     		mov	r3, r0
 3771 0018 30B9     		cbnz	r0, .L239
 3772              	.LVL396:
 3773              	.L240:
1036:Drivers/BMP580/Src/bmp5.c ****             set_fifo_iit_p = fifo->set_fifo_iir_p;
 3774              		.loc 1 1036 13 is_stmt 1 view .LVU1165
1037:Drivers/BMP580/Src/bmp5.c **** 
 3775              		.loc 1 1037 13 view .LVU1166
1039:Drivers/BMP580/Src/bmp5.c **** 
 3776              		.loc 1 1039 13 view .LVU1167
1039:Drivers/BMP580/Src/bmp5.c **** 
 3777              		.loc 1 1039 20 is_stmt 0 view .LVU1168
 3778 001a 2246     		mov	r2, r4
 3779 001c 297B     		ldrb	r1, [r5, #12]	@ zero_extendqisi2
 3780 001e E87A     		ldrb	r0, [r5, #11]	@ zero_extendqisi2
 3781 0020 FFF7FEFF 		bl	set_fifo_iir_config
 3782              	.LVL397:
1041:Drivers/BMP580/Src/bmp5.c ****             {
 3783              		.loc 1 1041 13 is_stmt 1 view .LVU1169
1041:Drivers/BMP580/Src/bmp5.c ****             {
 3784              		.loc 1 1041 16 is_stmt 0 view .LVU1170
 3785 0024 0346     		mov	r3, r0
 3786 0026 10B1     		cbz	r0, .L246
 3787              	.LVL398:
 3788              	.L239:
1083:Drivers/BMP580/Src/bmp5.c **** }
 3789              		.loc 1 1083 5 is_stmt 1 view .LVU1171
1084:Drivers/BMP580/Src/bmp5.c **** 
 3790              		.loc 1 1084 1 is_stmt 0 view .LVU1172
 3791 0028 1846     		mov	r0, r3
 3792 002a 03B0     		add	sp, sp, #12
 3793              		.cfi_remember_state
 3794              		.cfi_def_cfa_offset 12
 3795              		@ sp needed
 3796 002c 30BD     		pop	{r4, r5, pc}
 3797              	.LVL399:
 3798              	.L246:
 3799              		.cfi_restore_state
1044:Drivers/BMP580/Src/bmp5.c **** 
 3800              		.loc 1 1044 17 is_stmt 1 view .LVU1173
1044:Drivers/BMP580/Src/bmp5.c **** 
 3801              		.loc 1 1044 24 is_stmt 0 view .LVU1174
 3802 002e 2346     		mov	r3, r4
 3803 0030 0122     		movs	r2, #1
 3804 0032 0DF10701 		add	r1, sp, #7
 3805 0036 1620     		movs	r0, #22
 3806              	.LVL400:
1044:Drivers/BMP580/Src/bmp5.c **** 
 3807              		.loc 1 1044 24 view .LVU1175
ARM GAS  C:\Users\Nathan\AppData\Local\Temp\ccQWWdhB.s 			page 122


 3808 0038 FFF7FEFF 		bl	bmp5_get_regs
 3809              	.LVL401:
1046:Drivers/BMP580/Src/bmp5.c ****                 {
 3810              		.loc 1 1046 17 is_stmt 1 view .LVU1176
1046:Drivers/BMP580/Src/bmp5.c ****                 {
 3811              		.loc 1 1046 20 is_stmt 0 view .LVU1177
 3812 003c 0346     		mov	r3, r0
 3813 003e 0028     		cmp	r0, #0
 3814 0040 F2D1     		bne	.L239
1048:Drivers/BMP580/Src/bmp5.c **** 
 3815              		.loc 1 1048 21 is_stmt 1 view .LVU1178
1048:Drivers/BMP580/Src/bmp5.c **** 
 3816              		.loc 1 1048 32 is_stmt 0 view .LVU1179
 3817 0042 9DF80730 		ldrb	r3, [sp, #7]	@ zero_extendqisi2
 3818 0046 6A7A     		ldrb	r2, [r5, #9]	@ zero_extendqisi2
 3819 0048 5201     		lsls	r2, r2, #5
 3820 004a 02F02002 		and	r2, r2, #32
 3821 004e 23F02003 		bic	r3, r3, #32
 3822 0052 1343     		orrs	r3, r3, r2
1048:Drivers/BMP580/Src/bmp5.c **** 
 3823              		.loc 1 1048 30 view .LVU1180
 3824 0054 8DF80730 		strb	r3, [sp, #7]
1050:Drivers/BMP580/Src/bmp5.c ****                 }
 3825              		.loc 1 1050 21 is_stmt 1 view .LVU1181
1050:Drivers/BMP580/Src/bmp5.c ****                 }
 3826              		.loc 1 1050 28 is_stmt 0 view .LVU1182
 3827 0058 2946     		mov	r1, r5
 3828 005a 0DF10700 		add	r0, sp, #7
 3829              	.LVL402:
1050:Drivers/BMP580/Src/bmp5.c ****                 }
 3830              		.loc 1 1050 28 view .LVU1183
 3831 005e FFF7FEFF 		bl	set_fifo_threshold
 3832              	.LVL403:
1053:Drivers/BMP580/Src/bmp5.c ****                 {
 3833              		.loc 1 1053 17 is_stmt 1 view .LVU1184
1053:Drivers/BMP580/Src/bmp5.c ****                 {
 3834              		.loc 1 1053 20 is_stmt 0 view .LVU1185
 3835 0062 0346     		mov	r3, r0
 3836 0064 0028     		cmp	r0, #0
 3837 0066 DFD1     		bne	.L239
1056:Drivers/BMP580/Src/bmp5.c ****                 }
 3838              		.loc 1 1056 21 is_stmt 1 view .LVU1186
1056:Drivers/BMP580/Src/bmp5.c ****                 }
 3839              		.loc 1 1056 28 is_stmt 0 view .LVU1187
 3840 0068 2346     		mov	r3, r4
 3841 006a 0122     		movs	r2, #1
 3842 006c 0DF10701 		add	r1, sp, #7
 3843 0070 1620     		movs	r0, #22
 3844              	.LVL404:
1056:Drivers/BMP580/Src/bmp5.c ****                 }
 3845              		.loc 1 1056 28 view .LVU1188
 3846 0072 FFF7FEFF 		bl	bmp5_set_regs
 3847              	.LVL405:
1059:Drivers/BMP580/Src/bmp5.c ****                 {
 3848              		.loc 1 1059 17 is_stmt 1 view .LVU1189
1059:Drivers/BMP580/Src/bmp5.c ****                 {
 3849              		.loc 1 1059 20 is_stmt 0 view .LVU1190
ARM GAS  C:\Users\Nathan\AppData\Local\Temp\ccQWWdhB.s 			page 123


 3850 0076 0346     		mov	r3, r0
 3851 0078 0028     		cmp	r0, #0
 3852 007a D5D1     		bne	.L239
1061:Drivers/BMP580/Src/bmp5.c ****                 }
 3853              		.loc 1 1061 21 is_stmt 1 view .LVU1191
1061:Drivers/BMP580/Src/bmp5.c ****                 }
 3854              		.loc 1 1061 28 is_stmt 0 view .LVU1192
 3855 007c 2346     		mov	r3, r4
 3856 007e 0122     		movs	r2, #1
 3857 0080 0DF10701 		add	r1, sp, #7
 3858 0084 1820     		movs	r0, #24
 3859              	.LVL406:
1061:Drivers/BMP580/Src/bmp5.c ****                 }
 3860              		.loc 1 1061 28 view .LVU1193
 3861 0086 FFF7FEFF 		bl	bmp5_get_regs
 3862              	.LVL407:
1064:Drivers/BMP580/Src/bmp5.c ****                 {
 3863              		.loc 1 1064 17 is_stmt 1 view .LVU1194
1064:Drivers/BMP580/Src/bmp5.c ****                 {
 3864              		.loc 1 1064 20 is_stmt 0 view .LVU1195
 3865 008a 0346     		mov	r3, r0
 3866 008c 0028     		cmp	r0, #0
 3867 008e CBD1     		bne	.L239
1066:Drivers/BMP580/Src/bmp5.c ****                     reg_data = BMP5_SET_BITSLICE(reg_data, BMP5_FIFO_DEC_SEL, fifo->dec_sel);
 3868              		.loc 1 1066 21 is_stmt 1 view .LVU1196
1066:Drivers/BMP580/Src/bmp5.c ****                     reg_data = BMP5_SET_BITSLICE(reg_data, BMP5_FIFO_DEC_SEL, fifo->dec_sel);
 3869              		.loc 1 1066 32 is_stmt 0 view .LVU1197
 3870 0090 9DF80730 		ldrb	r3, [sp, #7]	@ zero_extendqisi2
 3871 0094 AA79     		ldrb	r2, [r5, #6]	@ zero_extendqisi2
 3872 0096 23F00303 		bic	r3, r3, #3
 3873 009a 02F00302 		and	r2, r2, #3
 3874 009e 1343     		orrs	r3, r3, r2
1066:Drivers/BMP580/Src/bmp5.c ****                     reg_data = BMP5_SET_BITSLICE(reg_data, BMP5_FIFO_DEC_SEL, fifo->dec_sel);
 3875              		.loc 1 1066 30 view .LVU1198
 3876 00a0 8DF80730 		strb	r3, [sp, #7]
1067:Drivers/BMP580/Src/bmp5.c ****                 }
 3877              		.loc 1 1067 21 is_stmt 1 view .LVU1199
1067:Drivers/BMP580/Src/bmp5.c ****                 }
 3878              		.loc 1 1067 32 is_stmt 0 view .LVU1200
 3879 00a4 EA79     		ldrb	r2, [r5, #7]	@ zero_extendqisi2
 3880 00a6 9200     		lsls	r2, r2, #2
 3881 00a8 02F01C02 		and	r2, r2, #28
 3882 00ac 23F01C03 		bic	r3, r3, #28
 3883 00b0 1343     		orrs	r3, r3, r2
1067:Drivers/BMP580/Src/bmp5.c ****                 }
 3884              		.loc 1 1067 30 view .LVU1201
 3885 00b2 8DF80730 		strb	r3, [sp, #7]
1070:Drivers/BMP580/Src/bmp5.c ****                 {
 3886              		.loc 1 1070 17 is_stmt 1 view .LVU1202
1073:Drivers/BMP580/Src/bmp5.c ****                 }
 3887              		.loc 1 1073 21 view .LVU1203
1073:Drivers/BMP580/Src/bmp5.c ****                 }
 3888              		.loc 1 1073 28 is_stmt 0 view .LVU1204
 3889 00b6 2346     		mov	r3, r4
 3890 00b8 0122     		movs	r2, #1
 3891 00ba 0DF10701 		add	r1, sp, #7
 3892 00be 1820     		movs	r0, #24
ARM GAS  C:\Users\Nathan\AppData\Local\Temp\ccQWWdhB.s 			page 124


 3893              	.LVL408:
1073:Drivers/BMP580/Src/bmp5.c ****                 }
 3894              		.loc 1 1073 28 view .LVU1205
 3895 00c0 FFF7FEFF 		bl	bmp5_set_regs
 3896              	.LVL409:
 3897 00c4 0346     		mov	r3, r0
 3898              	.LVL410:
1073:Drivers/BMP580/Src/bmp5.c ****                 }
 3899              		.loc 1 1073 28 view .LVU1206
 3900 00c6 AFE7     		b	.L239
 3901              	.LVL411:
 3902              	.L241:
 3903              		.cfi_def_cfa_offset 0
 3904              		.cfi_restore 4
 3905              		.cfi_restore 5
 3906              		.cfi_restore 14
1080:Drivers/BMP580/Src/bmp5.c ****     }
 3907              		.loc 1 1080 14 view .LVU1207
 3908 00c8 4FF0FF33 		mov	r3, #-1
 3909              	.LVL412:
1083:Drivers/BMP580/Src/bmp5.c **** }
 3910              		.loc 1 1083 5 is_stmt 1 view .LVU1208
1084:Drivers/BMP580/Src/bmp5.c **** 
 3911              		.loc 1 1084 1 is_stmt 0 view .LVU1209
 3912 00cc 1846     		mov	r0, r3
 3913              	.LVL413:
1084:Drivers/BMP580/Src/bmp5.c **** 
 3914              		.loc 1 1084 1 view .LVU1210
 3915 00ce 7047     		bx	lr
 3916              		.cfi_endproc
 3917              	.LFE16:
 3919              		.section	.text.bmp5_get_fifo_len,"ax",%progbits
 3920              		.align	1
 3921              		.global	bmp5_get_fifo_len
 3922              		.syntax unified
 3923              		.thumb
 3924              		.thumb_func
 3926              	bmp5_get_fifo_len:
 3927              	.LVL414:
 3928              	.LFB17:
1090:Drivers/BMP580/Src/bmp5.c ****     int8_t rslt;
 3929              		.loc 1 1090 1 is_stmt 1 view -0
 3930              		.cfi_startproc
 3931              		@ args = 0, pretend = 0, frame = 8
 3932              		@ frame_needed = 0, uses_anonymous_args = 0
1091:Drivers/BMP580/Src/bmp5.c ****     uint8_t reg_data;
 3933              		.loc 1 1091 5 view .LVU1212
1092:Drivers/BMP580/Src/bmp5.c **** 
 3934              		.loc 1 1092 5 view .LVU1213
1094:Drivers/BMP580/Src/bmp5.c ****     {
 3935              		.loc 1 1094 5 view .LVU1214
1094:Drivers/BMP580/Src/bmp5.c ****     {
 3936              		.loc 1 1094 8 is_stmt 0 view .LVU1215
 3937 0000 11B3     		cbz	r1, .L250
1090:Drivers/BMP580/Src/bmp5.c ****     int8_t rslt;
 3938              		.loc 1 1090 1 view .LVU1216
 3939 0002 30B5     		push	{r4, r5, lr}
ARM GAS  C:\Users\Nathan\AppData\Local\Temp\ccQWWdhB.s 			page 125


 3940              		.cfi_def_cfa_offset 12
 3941              		.cfi_offset 4, -12
 3942              		.cfi_offset 5, -8
 3943              		.cfi_offset 14, -4
 3944 0004 83B0     		sub	sp, sp, #12
 3945              		.cfi_def_cfa_offset 24
 3946 0006 0446     		mov	r4, r0
 3947 0008 1346     		mov	r3, r2
 3948 000a 0D46     		mov	r5, r1
1094:Drivers/BMP580/Src/bmp5.c ****     {
 3949              		.loc 1 1094 24 discriminator 1 view .LVU1217
 3950 000c F8B1     		cbz	r0, .L251
1097:Drivers/BMP580/Src/bmp5.c **** 
 3951              		.loc 1 1097 9 is_stmt 1 view .LVU1218
1097:Drivers/BMP580/Src/bmp5.c **** 
 3952              		.loc 1 1097 16 is_stmt 0 view .LVU1219
 3953 000e 0122     		movs	r2, #1
 3954              	.LVL415:
1097:Drivers/BMP580/Src/bmp5.c **** 
 3955              		.loc 1 1097 16 view .LVU1220
 3956 0010 0DF10701 		add	r1, sp, #7
 3957              	.LVL416:
1097:Drivers/BMP580/Src/bmp5.c **** 
 3958              		.loc 1 1097 16 view .LVU1221
 3959 0014 1720     		movs	r0, #23
 3960              	.LVL417:
1097:Drivers/BMP580/Src/bmp5.c **** 
 3961              		.loc 1 1097 16 view .LVU1222
 3962 0016 FFF7FEFF 		bl	bmp5_get_regs
 3963              	.LVL418:
1099:Drivers/BMP580/Src/bmp5.c ****         {
 3964              		.loc 1 1099 9 is_stmt 1 view .LVU1223
1099:Drivers/BMP580/Src/bmp5.c ****         {
 3965              		.loc 1 1099 12 is_stmt 0 view .LVU1224
 3966 001a 98B9     		cbnz	r0, .L248
1101:Drivers/BMP580/Src/bmp5.c **** 
 3967              		.loc 1 1101 13 is_stmt 1 view .LVU1225
1101:Drivers/BMP580/Src/bmp5.c **** 
 3968              		.loc 1 1101 32 is_stmt 0 view .LVU1226
 3969 001c 9DF80730 		ldrb	r3, [sp, #7]	@ zero_extendqisi2
 3970 0020 03F03F03 		and	r3, r3, #63
1101:Drivers/BMP580/Src/bmp5.c **** 
 3971              		.loc 1 1101 30 view .LVU1227
 3972 0024 2B72     		strb	r3, [r5, #8]
1103:Drivers/BMP580/Src/bmp5.c ****             {
 3973              		.loc 1 1103 13 is_stmt 1 view .LVU1228
1103:Drivers/BMP580/Src/bmp5.c ****             {
 3974              		.loc 1 1103 22 is_stmt 0 view .LVU1229
 3975 0026 A979     		ldrb	r1, [r5, #6]	@ zero_extendqisi2
1103:Drivers/BMP580/Src/bmp5.c ****             {
 3976              		.loc 1 1103 65 view .LVU1230
 3977 0028 4A1E     		subs	r2, r1, #1
 3978 002a D2B2     		uxtb	r2, r2
1103:Drivers/BMP580/Src/bmp5.c ****             {
 3979              		.loc 1 1103 16 view .LVU1231
 3980 002c 012A     		cmp	r2, #1
 3981 002e 06D9     		bls	.L256
ARM GAS  C:\Users\Nathan\AppData\Local\Temp\ccQWWdhB.s 			page 126


1110:Drivers/BMP580/Src/bmp5.c ****             {
 3982              		.loc 1 1110 18 is_stmt 1 view .LVU1232
1110:Drivers/BMP580/Src/bmp5.c ****             {
 3983              		.loc 1 1110 21 is_stmt 0 view .LVU1233
 3984 0030 0329     		cmp	r1, #3
 3985 0032 07D1     		bne	.L248
1115:Drivers/BMP580/Src/bmp5.c ****             }
 3986              		.loc 1 1115 17 is_stmt 1 view .LVU1234
1115:Drivers/BMP580/Src/bmp5.c ****             }
 3987              		.loc 1 1115 27 is_stmt 0 view .LVU1235
 3988 0034 03EB4303 		add	r3, r3, r3, lsl #1
 3989 0038 5B00     		lsls	r3, r3, #1
 3990 003a 2380     		strh	r3, [r4]	@ movhi
 3991 003c 02E0     		b	.L248
 3992              	.L256:
1108:Drivers/BMP580/Src/bmp5.c ****             }
 3993              		.loc 1 1108 17 is_stmt 1 view .LVU1236
1108:Drivers/BMP580/Src/bmp5.c ****             }
 3994              		.loc 1 1108 27 is_stmt 0 view .LVU1237
 3995 003e 03EB4303 		add	r3, r3, r3, lsl #1
 3996 0042 2380     		strh	r3, [r4]	@ movhi
 3997              	.LVL419:
 3998              	.L248:
1124:Drivers/BMP580/Src/bmp5.c **** }
 3999              		.loc 1 1124 5 is_stmt 1 view .LVU1238
1125:Drivers/BMP580/Src/bmp5.c **** 
 4000              		.loc 1 1125 1 is_stmt 0 view .LVU1239
 4001 0044 03B0     		add	sp, sp, #12
 4002              		.cfi_def_cfa_offset 12
 4003              		@ sp needed
 4004 0046 30BD     		pop	{r4, r5, pc}
 4005              	.LVL420:
 4006              	.L250:
 4007              		.cfi_def_cfa_offset 0
 4008              		.cfi_restore 4
 4009              		.cfi_restore 5
 4010              		.cfi_restore 14
1121:Drivers/BMP580/Src/bmp5.c ****     }
 4011              		.loc 1 1121 14 view .LVU1240
 4012 0048 4FF0FF30 		mov	r0, #-1
 4013              	.LVL421:
1124:Drivers/BMP580/Src/bmp5.c **** }
 4014              		.loc 1 1124 5 is_stmt 1 view .LVU1241
1125:Drivers/BMP580/Src/bmp5.c **** 
 4015              		.loc 1 1125 1 is_stmt 0 view .LVU1242
 4016 004c 7047     		bx	lr
 4017              	.LVL422:
 4018              	.L251:
 4019              		.cfi_def_cfa_offset 24
 4020              		.cfi_offset 4, -12
 4021              		.cfi_offset 5, -8
 4022              		.cfi_offset 14, -4
1121:Drivers/BMP580/Src/bmp5.c ****     }
 4023              		.loc 1 1121 14 view .LVU1243
 4024 004e 4FF0FF30 		mov	r0, #-1
 4025              	.LVL423:
1121:Drivers/BMP580/Src/bmp5.c ****     }
ARM GAS  C:\Users\Nathan\AppData\Local\Temp\ccQWWdhB.s 			page 127


 4026              		.loc 1 1121 14 view .LVU1244
 4027 0052 F7E7     		b	.L248
 4028              		.cfi_endproc
 4029              	.LFE17:
 4031              		.section	.text.bmp5_get_fifo_data,"ax",%progbits
 4032              		.align	1
 4033              		.global	bmp5_get_fifo_data
 4034              		.syntax unified
 4035              		.thumb
 4036              		.thumb_func
 4038              	bmp5_get_fifo_data:
 4039              	.LVL424:
 4040              	.LFB18:
1131:Drivers/BMP580/Src/bmp5.c ****     int8_t rslt;
 4041              		.loc 1 1131 1 is_stmt 1 view -0
 4042              		.cfi_startproc
 4043              		@ args = 0, pretend = 0, frame = 8
 4044              		@ frame_needed = 0, uses_anonymous_args = 0
1132:Drivers/BMP580/Src/bmp5.c ****     uint16_t fifo_len;
 4045              		.loc 1 1132 5 view .LVU1246
1133:Drivers/BMP580/Src/bmp5.c **** 
 4046              		.loc 1 1133 5 view .LVU1247
1135:Drivers/BMP580/Src/bmp5.c ****     {
 4047              		.loc 1 1135 5 view .LVU1248
1135:Drivers/BMP580/Src/bmp5.c ****     {
 4048              		.loc 1 1135 8 is_stmt 0 view .LVU1249
 4049 0000 C0B1     		cbz	r0, .L260
1131:Drivers/BMP580/Src/bmp5.c ****     int8_t rslt;
 4050              		.loc 1 1131 1 view .LVU1250
 4051 0002 30B5     		push	{r4, r5, lr}
 4052              		.cfi_def_cfa_offset 12
 4053              		.cfi_offset 4, -12
 4054              		.cfi_offset 5, -8
 4055              		.cfi_offset 14, -4
 4056 0004 83B0     		sub	sp, sp, #12
 4057              		.cfi_def_cfa_offset 24
 4058 0006 0C46     		mov	r4, r1
 4059 0008 0546     		mov	r5, r0
1138:Drivers/BMP580/Src/bmp5.c **** 
 4060              		.loc 1 1138 9 is_stmt 1 view .LVU1251
1138:Drivers/BMP580/Src/bmp5.c **** 
 4061              		.loc 1 1138 16 is_stmt 0 view .LVU1252
 4062 000a 0A46     		mov	r2, r1
 4063 000c 0146     		mov	r1, r0
 4064              	.LVL425:
1138:Drivers/BMP580/Src/bmp5.c **** 
 4065              		.loc 1 1138 16 view .LVU1253
 4066 000e 0DF10600 		add	r0, sp, #6
 4067              	.LVL426:
1138:Drivers/BMP580/Src/bmp5.c **** 
 4068              		.loc 1 1138 16 view .LVU1254
 4069 0012 FFF7FEFF 		bl	bmp5_get_fifo_len
 4070              	.LVL427:
1140:Drivers/BMP580/Src/bmp5.c ****         {
 4071              		.loc 1 1140 9 is_stmt 1 view .LVU1255
1140:Drivers/BMP580/Src/bmp5.c ****         {
 4072              		.loc 1 1140 12 is_stmt 0 view .LVU1256
ARM GAS  C:\Users\Nathan\AppData\Local\Temp\ccQWWdhB.s 			page 128


 4073 0016 58B9     		cbnz	r0, .L258
1142:Drivers/BMP580/Src/bmp5.c ****             {
 4074              		.loc 1 1142 13 is_stmt 1 view .LVU1257
1142:Drivers/BMP580/Src/bmp5.c ****             {
 4075              		.loc 1 1142 21 is_stmt 0 view .LVU1258
 4076 0018 AA88     		ldrh	r2, [r5, #4]
1142:Drivers/BMP580/Src/bmp5.c ****             {
 4077              		.loc 1 1142 30 view .LVU1259
 4078 001a BDF80630 		ldrh	r3, [sp, #6]
1142:Drivers/BMP580/Src/bmp5.c ****             {
 4079              		.loc 1 1142 16 view .LVU1260
 4080 001e 9A42     		cmp	r2, r3
 4081 0020 00D9     		bls	.L259
1144:Drivers/BMP580/Src/bmp5.c ****             }
 4082              		.loc 1 1144 17 is_stmt 1 view .LVU1261
1144:Drivers/BMP580/Src/bmp5.c ****             }
 4083              		.loc 1 1144 30 is_stmt 0 view .LVU1262
 4084 0022 AB80     		strh	r3, [r5, #4]	@ movhi
 4085              	.L259:
1148:Drivers/BMP580/Src/bmp5.c ****         }
 4086              		.loc 1 1148 13 is_stmt 1 view .LVU1263
1148:Drivers/BMP580/Src/bmp5.c ****         }
 4087              		.loc 1 1148 20 is_stmt 0 view .LVU1264
 4088 0024 2346     		mov	r3, r4
 4089 0026 AA88     		ldrh	r2, [r5, #4]
 4090 0028 2968     		ldr	r1, [r5]
 4091 002a 2920     		movs	r0, #41
 4092              	.LVL428:
1148:Drivers/BMP580/Src/bmp5.c ****         }
 4093              		.loc 1 1148 20 view .LVU1265
 4094 002c FFF7FEFF 		bl	bmp5_get_regs
 4095              	.LVL429:
 4096              	.L258:
1156:Drivers/BMP580/Src/bmp5.c **** }
 4097              		.loc 1 1156 5 is_stmt 1 view .LVU1266
1157:Drivers/BMP580/Src/bmp5.c **** 
 4098              		.loc 1 1157 1 is_stmt 0 view .LVU1267
 4099 0030 03B0     		add	sp, sp, #12
 4100              		.cfi_def_cfa_offset 12
 4101              		@ sp needed
 4102 0032 30BD     		pop	{r4, r5, pc}
 4103              	.LVL430:
 4104              	.L260:
 4105              		.cfi_def_cfa_offset 0
 4106              		.cfi_restore 4
 4107              		.cfi_restore 5
 4108              		.cfi_restore 14
1153:Drivers/BMP580/Src/bmp5.c ****     }
 4109              		.loc 1 1153 14 view .LVU1268
 4110 0034 4FF0FF30 		mov	r0, #-1
 4111              	.LVL431:
1156:Drivers/BMP580/Src/bmp5.c **** }
 4112              		.loc 1 1156 5 is_stmt 1 view .LVU1269
1157:Drivers/BMP580/Src/bmp5.c **** 
 4113              		.loc 1 1157 1 is_stmt 0 view .LVU1270
 4114 0038 7047     		bx	lr
 4115              		.cfi_endproc
ARM GAS  C:\Users\Nathan\AppData\Local\Temp\ccQWWdhB.s 			page 129


 4116              	.LFE18:
 4118              		.section	.text.bmp5_extract_fifo_data,"ax",%progbits
 4119              		.align	1
 4120              		.global	bmp5_extract_fifo_data
 4121              		.syntax unified
 4122              		.thumb
 4123              		.thumb_func
 4125              	bmp5_extract_fifo_data:
 4126              	.LVL432:
 4127              	.LFB19:
1164:Drivers/BMP580/Src/bmp5.c ****     int8_t rslt = 0;
 4128              		.loc 1 1164 1 is_stmt 1 view -0
 4129              		.cfi_startproc
 4130              		@ args = 0, pretend = 0, frame = 8
 4131              		@ frame_needed = 0, uses_anonymous_args = 0
1165:Drivers/BMP580/Src/bmp5.c ****     uint8_t idx = 0;
 4132              		.loc 1 1165 5 view .LVU1272
1166:Drivers/BMP580/Src/bmp5.c ****     uint16_t data_indx;
 4133              		.loc 1 1166 5 view .LVU1273
1167:Drivers/BMP580/Src/bmp5.c **** 
 4134              		.loc 1 1167 5 view .LVU1274
1170:Drivers/BMP580/Src/bmp5.c ****     {
 4135              		.loc 1 1170 5 view .LVU1275
1170:Drivers/BMP580/Src/bmp5.c ****     {
 4136              		.loc 1 1170 8 is_stmt 0 view .LVU1276
 4137 0000 E0B1     		cbz	r0, .L269
1164:Drivers/BMP580/Src/bmp5.c ****     int8_t rslt = 0;
 4138              		.loc 1 1164 1 view .LVU1277
 4139 0002 70B5     		push	{r4, r5, r6, lr}
 4140              		.cfi_def_cfa_offset 16
 4141              		.cfi_offset 4, -16
 4142              		.cfi_offset 5, -12
 4143              		.cfi_offset 6, -8
 4144              		.cfi_offset 14, -4
 4145 0004 82B0     		sub	sp, sp, #8
 4146              		.cfi_def_cfa_offset 24
 4147 0006 0E46     		mov	r6, r1
 4148 0008 0546     		mov	r5, r0
1170:Drivers/BMP580/Src/bmp5.c ****     {
 4149              		.loc 1 1170 24 discriminator 1 view .LVU1278
 4150 000a D1B1     		cbz	r1, .L270
1172:Drivers/BMP580/Src/bmp5.c ****         {
 4151              		.loc 1 1172 9 is_stmt 1 view .LVU1279
1172:Drivers/BMP580/Src/bmp5.c ****         {
 4152              		.loc 1 1172 24 is_stmt 0 view .LVU1280
 4153 000c 0020     		movs	r0, #0
 4154              	.LVL433:
1172:Drivers/BMP580/Src/bmp5.c ****         {
 4155              		.loc 1 1172 24 view .LVU1281
 4156 000e ADF80600 		strh	r0, [sp, #6]	@ movhi
1166:Drivers/BMP580/Src/bmp5.c ****     uint16_t data_indx;
 4157              		.loc 1 1166 13 view .LVU1282
 4158 0012 0446     		mov	r4, r0
1172:Drivers/BMP580/Src/bmp5.c ****         {
 4159              		.loc 1 1172 9 view .LVU1283
 4160 0014 08E0     		b	.L267
 4161              	.LVL434:
ARM GAS  C:\Users\Nathan\AppData\Local\Temp\ccQWWdhB.s 			page 130


 4162              	.L268:
1175:Drivers/BMP580/Src/bmp5.c ****             idx++;
 4163              		.loc 1 1175 13 is_stmt 1 view .LVU1284
1175:Drivers/BMP580/Src/bmp5.c ****             idx++;
 4164              		.loc 1 1175 20 is_stmt 0 view .LVU1285
 4165 0016 2A46     		mov	r2, r5
 4166 0018 0DF10601 		add	r1, sp, #6
 4167 001c 06EBC400 		add	r0, r6, r4, lsl #3
 4168              	.LVL435:
1175:Drivers/BMP580/Src/bmp5.c ****             idx++;
 4169              		.loc 1 1175 20 view .LVU1286
 4170 0020 FFF7FEFF 		bl	unpack_sensor_data
 4171              	.LVL436:
1176:Drivers/BMP580/Src/bmp5.c ****         }
 4172              		.loc 1 1176 13 is_stmt 1 view .LVU1287
1176:Drivers/BMP580/Src/bmp5.c ****         }
 4173              		.loc 1 1176 16 is_stmt 0 view .LVU1288
 4174 0024 0134     		adds	r4, r4, #1
 4175              	.LVL437:
1176:Drivers/BMP580/Src/bmp5.c ****         }
 4176              		.loc 1 1176 16 view .LVU1289
 4177 0026 E4B2     		uxtb	r4, r4
 4178              	.LVL438:
 4179              	.L267:
1172:Drivers/BMP580/Src/bmp5.c ****         {
 4180              		.loc 1 1172 56 is_stmt 1 discriminator 1 view .LVU1290
1172:Drivers/BMP580/Src/bmp5.c ****         {
 4181              		.loc 1 1172 46 is_stmt 0 discriminator 1 view .LVU1291
 4182 0028 AA88     		ldrh	r2, [r5, #4]
1172:Drivers/BMP580/Src/bmp5.c ****         {
 4183              		.loc 1 1172 40 discriminator 1 view .LVU1292
 4184 002a BDF80630 		ldrh	r3, [sp, #6]
1172:Drivers/BMP580/Src/bmp5.c ****         {
 4185              		.loc 1 1172 56 discriminator 1 view .LVU1293
 4186 002e 9A42     		cmp	r2, r3
 4187 0030 02D9     		bls	.L266
1172:Drivers/BMP580/Src/bmp5.c ****         {
 4188              		.loc 1 1172 56 discriminator 2 view .LVU1294
 4189 0032 10F1090F 		cmn	r0, #9
 4190 0036 EED1     		bne	.L268
 4191              	.LVL439:
 4192              	.L266:
1184:Drivers/BMP580/Src/bmp5.c **** }
 4193              		.loc 1 1184 5 is_stmt 1 view .LVU1295
1185:Drivers/BMP580/Src/bmp5.c **** 
 4194              		.loc 1 1185 1 is_stmt 0 view .LVU1296
 4195 0038 02B0     		add	sp, sp, #8
 4196              		.cfi_def_cfa_offset 16
 4197              		@ sp needed
 4198 003a 70BD     		pop	{r4, r5, r6, pc}
 4199              	.LVL440:
 4200              	.L269:
 4201              		.cfi_def_cfa_offset 0
 4202              		.cfi_restore 4
 4203              		.cfi_restore 5
 4204              		.cfi_restore 6
 4205              		.cfi_restore 14
ARM GAS  C:\Users\Nathan\AppData\Local\Temp\ccQWWdhB.s 			page 131


1181:Drivers/BMP580/Src/bmp5.c ****     }
 4206              		.loc 1 1181 14 view .LVU1297
 4207 003c 4FF0FF30 		mov	r0, #-1
 4208              	.LVL441:
1184:Drivers/BMP580/Src/bmp5.c **** }
 4209              		.loc 1 1184 5 is_stmt 1 view .LVU1298
1185:Drivers/BMP580/Src/bmp5.c **** 
 4210              		.loc 1 1185 1 is_stmt 0 view .LVU1299
 4211 0040 7047     		bx	lr
 4212              	.LVL442:
 4213              	.L270:
 4214              		.cfi_def_cfa_offset 24
 4215              		.cfi_offset 4, -16
 4216              		.cfi_offset 5, -12
 4217              		.cfi_offset 6, -8
 4218              		.cfi_offset 14, -4
1181:Drivers/BMP580/Src/bmp5.c ****     }
 4219              		.loc 1 1181 14 view .LVU1300
 4220 0042 4FF0FF30 		mov	r0, #-1
 4221              	.LVL443:
1181:Drivers/BMP580/Src/bmp5.c ****     }
 4222              		.loc 1 1181 14 view .LVU1301
 4223 0046 F7E7     		b	.L266
 4224              		.cfi_endproc
 4225              	.LFE19:
 4227              		.section	.text.bmp5_get_oor_configuration,"ax",%progbits
 4228              		.align	1
 4229              		.global	bmp5_get_oor_configuration
 4230              		.syntax unified
 4231              		.thumb
 4232              		.thumb_func
 4234              	bmp5_get_oor_configuration:
 4235              	.LVL444:
 4236              	.LFB20:
1192:Drivers/BMP580/Src/bmp5.c ****     int8_t rslt;
 4237              		.loc 1 1192 1 is_stmt 1 view -0
 4238              		.cfi_startproc
 4239              		@ args = 0, pretend = 0, frame = 8
 4240              		@ frame_needed = 0, uses_anonymous_args = 0
1193:Drivers/BMP580/Src/bmp5.c ****     uint8_t reg_data[4];
 4241              		.loc 1 1193 5 view .LVU1303
1194:Drivers/BMP580/Src/bmp5.c **** 
 4242              		.loc 1 1194 5 view .LVU1304
1196:Drivers/BMP580/Src/bmp5.c ****     {
 4243              		.loc 1 1196 5 view .LVU1305
1196:Drivers/BMP580/Src/bmp5.c ****     {
 4244              		.loc 1 1196 8 is_stmt 0 view .LVU1306
 4245 0000 60B3     		cbz	r0, .L277
1192:Drivers/BMP580/Src/bmp5.c ****     int8_t rslt;
 4246              		.loc 1 1192 1 view .LVU1307
 4247 0002 30B5     		push	{r4, r5, lr}
 4248              		.cfi_def_cfa_offset 12
 4249              		.cfi_offset 4, -12
 4250              		.cfi_offset 5, -8
 4251              		.cfi_offset 14, -4
 4252 0004 83B0     		sub	sp, sp, #12
 4253              		.cfi_def_cfa_offset 24
ARM GAS  C:\Users\Nathan\AppData\Local\Temp\ccQWWdhB.s 			page 132


 4254 0006 0C46     		mov	r4, r1
 4255 0008 0546     		mov	r5, r0
1198:Drivers/BMP580/Src/bmp5.c **** 
 4256              		.loc 1 1198 9 is_stmt 1 view .LVU1308
1198:Drivers/BMP580/Src/bmp5.c **** 
 4257              		.loc 1 1198 16 is_stmt 0 view .LVU1309
 4258 000a 0B46     		mov	r3, r1
 4259 000c 0122     		movs	r2, #1
 4260 000e 01A9     		add	r1, sp, #4
 4261              	.LVL445:
1198:Drivers/BMP580/Src/bmp5.c **** 
 4262              		.loc 1 1198 16 view .LVU1310
 4263 0010 3020     		movs	r0, #48
 4264              	.LVL446:
1198:Drivers/BMP580/Src/bmp5.c **** 
 4265              		.loc 1 1198 16 view .LVU1311
 4266 0012 FFF7FEFF 		bl	bmp5_get_regs
 4267              	.LVL447:
1200:Drivers/BMP580/Src/bmp5.c ****         {
 4268              		.loc 1 1200 9 is_stmt 1 view .LVU1312
1200:Drivers/BMP580/Src/bmp5.c ****         {
 4269              		.loc 1 1200 12 is_stmt 0 view .LVU1313
 4270 0016 08B1     		cbz	r0, .L282
 4271              	.L276:
1220:Drivers/BMP580/Src/bmp5.c **** }
 4272              		.loc 1 1220 5 is_stmt 1 view .LVU1314
1221:Drivers/BMP580/Src/bmp5.c **** 
 4273              		.loc 1 1221 1 is_stmt 0 view .LVU1315
 4274 0018 03B0     		add	sp, sp, #12
 4275              		.cfi_remember_state
 4276              		.cfi_def_cfa_offset 12
 4277              		@ sp needed
 4278 001a 30BD     		pop	{r4, r5, pc}
 4279              	.LVL448:
 4280              	.L282:
 4281              		.cfi_restore_state
1202:Drivers/BMP580/Src/bmp5.c **** 
 4282              		.loc 1 1202 13 is_stmt 1 view .LVU1316
1202:Drivers/BMP580/Src/bmp5.c **** 
 4283              		.loc 1 1202 47 is_stmt 0 view .LVU1317
 4284 001c 9DF80430 		ldrb	r3, [sp, #4]	@ zero_extendqisi2
 4285 0020 DB09     		lsrs	r3, r3, #7
1202:Drivers/BMP580/Src/bmp5.c **** 
 4286              		.loc 1 1202 45 view .LVU1318
 4287 0022 AB71     		strb	r3, [r5, #6]
1204:Drivers/BMP580/Src/bmp5.c **** 
 4288              		.loc 1 1204 13 is_stmt 1 view .LVU1319
1204:Drivers/BMP580/Src/bmp5.c **** 
 4289              		.loc 1 1204 20 is_stmt 0 view .LVU1320
 4290 0024 2346     		mov	r3, r4
 4291 0026 0422     		movs	r2, #4
 4292 0028 0DEB0201 		add	r1, sp, r2
 4293 002c 3220     		movs	r0, #50
 4294              	.LVL449:
1204:Drivers/BMP580/Src/bmp5.c **** 
 4295              		.loc 1 1204 20 view .LVU1321
 4296 002e FFF7FEFF 		bl	bmp5_get_regs
ARM GAS  C:\Users\Nathan\AppData\Local\Temp\ccQWWdhB.s 			page 133


 4297              	.LVL450:
1206:Drivers/BMP580/Src/bmp5.c ****             {
 4298              		.loc 1 1206 13 is_stmt 1 view .LVU1322
1206:Drivers/BMP580/Src/bmp5.c ****             {
 4299              		.loc 1 1206 16 is_stmt 0 view .LVU1323
 4300 0032 0028     		cmp	r0, #0
 4301 0034 F0D1     		bne	.L276
1208:Drivers/BMP580/Src/bmp5.c ****                                               ((reg_data[3] & BMP5_OOR_THR_P_XMSB_REG_MSK) << 16);
 4302              		.loc 1 1208 17 is_stmt 1 view .LVU1324
1208:Drivers/BMP580/Src/bmp5.c ****                                               ((reg_data[3] & BMP5_OOR_THR_P_XMSB_REG_MSK) << 16);
 4303              		.loc 1 1208 55 is_stmt 0 view .LVU1325
 4304 0036 9DF80430 		ldrb	r3, [sp, #4]	@ zero_extendqisi2
1208:Drivers/BMP580/Src/bmp5.c ****                                               ((reg_data[3] & BMP5_OOR_THR_P_XMSB_REG_MSK) << 16);
 4305              		.loc 1 1208 70 view .LVU1326
 4306 003a 9DF80520 		ldrb	r2, [sp, #5]	@ zero_extendqisi2
1208:Drivers/BMP580/Src/bmp5.c ****                                               ((reg_data[3] & BMP5_OOR_THR_P_XMSB_REG_MSK) << 16);
 4307              		.loc 1 1208 59 view .LVU1327
 4308 003e 43EA0223 		orr	r3, r3, r2, lsl #8
1209:Drivers/BMP580/Src/bmp5.c ****                 oor_press_config->oor_range_p = reg_data[2];
 4309              		.loc 1 1209 57 view .LVU1328
 4310 0042 9DF80720 		ldrb	r2, [sp, #7]	@ zero_extendqisi2
1209:Drivers/BMP580/Src/bmp5.c ****                 oor_press_config->oor_range_p = reg_data[2];
 4311              		.loc 1 1209 92 view .LVU1329
 4312 0046 1104     		lsls	r1, r2, #16
 4313 0048 01F48031 		and	r1, r1, #65536
1208:Drivers/BMP580/Src/bmp5.c ****                                               ((reg_data[3] & BMP5_OOR_THR_P_XMSB_REG_MSK) << 16);
 4314              		.loc 1 1208 80 view .LVU1330
 4315 004c 0B43     		orrs	r3, r3, r1
1208:Drivers/BMP580/Src/bmp5.c ****                                               ((reg_data[3] & BMP5_OOR_THR_P_XMSB_REG_MSK) << 16);
 4316              		.loc 1 1208 45 view .LVU1331
 4317 004e 2B60     		str	r3, [r5]
1210:Drivers/BMP580/Src/bmp5.c ****                 oor_press_config->cnt_lim = BMP5_GET_BITSLICE(reg_data[3], BMP5_OOR_COUNT_LIMIT);
 4318              		.loc 1 1210 17 is_stmt 1 view .LVU1332
1210:Drivers/BMP580/Src/bmp5.c ****                 oor_press_config->cnt_lim = BMP5_GET_BITSLICE(reg_data[3], BMP5_OOR_COUNT_LIMIT);
 4319              		.loc 1 1210 57 is_stmt 0 view .LVU1333
 4320 0050 9DF80630 		ldrb	r3, [sp, #6]	@ zero_extendqisi2
1210:Drivers/BMP580/Src/bmp5.c ****                 oor_press_config->cnt_lim = BMP5_GET_BITSLICE(reg_data[3], BMP5_OOR_COUNT_LIMIT);
 4321              		.loc 1 1210 47 view .LVU1334
 4322 0054 2B71     		strb	r3, [r5, #4]
1211:Drivers/BMP580/Src/bmp5.c ****             }
 4323              		.loc 1 1211 17 is_stmt 1 view .LVU1335
1211:Drivers/BMP580/Src/bmp5.c ****             }
 4324              		.loc 1 1211 45 is_stmt 0 view .LVU1336
 4325 0056 9209     		lsrs	r2, r2, #6
1211:Drivers/BMP580/Src/bmp5.c ****             }
 4326              		.loc 1 1211 43 view .LVU1337
 4327 0058 6A71     		strb	r2, [r5, #5]
 4328 005a DDE7     		b	.L276
 4329              	.LVL451:
 4330              	.L277:
 4331              		.cfi_def_cfa_offset 0
 4332              		.cfi_restore 4
 4333              		.cfi_restore 5
 4334              		.cfi_restore 14
1217:Drivers/BMP580/Src/bmp5.c ****     }
 4335              		.loc 1 1217 14 view .LVU1338
 4336 005c 4FF0FF30 		mov	r0, #-1
ARM GAS  C:\Users\Nathan\AppData\Local\Temp\ccQWWdhB.s 			page 134


 4337              	.LVL452:
1220:Drivers/BMP580/Src/bmp5.c **** }
 4338              		.loc 1 1220 5 is_stmt 1 view .LVU1339
1221:Drivers/BMP580/Src/bmp5.c **** 
 4339              		.loc 1 1221 1 is_stmt 0 view .LVU1340
 4340 0060 7047     		bx	lr
 4341              		.cfi_endproc
 4342              	.LFE20:
 4344              		.section	.text.bmp5_set_oor_configuration,"ax",%progbits
 4345              		.align	1
 4346              		.global	bmp5_set_oor_configuration
 4347              		.syntax unified
 4348              		.thumb
 4349              		.thumb_func
 4351              	bmp5_set_oor_configuration:
 4352              	.LVL453:
 4353              	.LFB21:
1228:Drivers/BMP580/Src/bmp5.c ****     int8_t rslt;
 4354              		.loc 1 1228 1 is_stmt 1 view -0
 4355              		.cfi_startproc
 4356              		@ args = 0, pretend = 0, frame = 8
 4357              		@ frame_needed = 0, uses_anonymous_args = 0
1229:Drivers/BMP580/Src/bmp5.c ****     uint8_t reg_data[4];
 4358              		.loc 1 1229 5 view .LVU1342
1230:Drivers/BMP580/Src/bmp5.c ****     uint8_t thres_xmsb;
 4359              		.loc 1 1230 5 view .LVU1343
1231:Drivers/BMP580/Src/bmp5.c ****     uint8_t set_oor_iir_p, set_count_limit;
 4360              		.loc 1 1231 5 view .LVU1344
1232:Drivers/BMP580/Src/bmp5.c **** 
 4361              		.loc 1 1232 5 view .LVU1345
1234:Drivers/BMP580/Src/bmp5.c ****     {
 4362              		.loc 1 1234 5 view .LVU1346
1234:Drivers/BMP580/Src/bmp5.c ****     {
 4363              		.loc 1 1234 8 is_stmt 0 view .LVU1347
 4364 0000 78B3     		cbz	r0, .L285
1228:Drivers/BMP580/Src/bmp5.c ****     int8_t rslt;
 4365              		.loc 1 1228 1 view .LVU1348
 4366 0002 30B5     		push	{r4, r5, lr}
 4367              		.cfi_def_cfa_offset 12
 4368              		.cfi_offset 4, -12
 4369              		.cfi_offset 5, -8
 4370              		.cfi_offset 14, -4
 4371 0004 83B0     		sub	sp, sp, #12
 4372              		.cfi_def_cfa_offset 24
 4373 0006 0C46     		mov	r4, r1
 4374 0008 0546     		mov	r5, r0
1236:Drivers/BMP580/Src/bmp5.c ****         set_count_limit = oor_press_config->cnt_lim;
 4375              		.loc 1 1236 9 is_stmt 1 view .LVU1349
 4376              	.LVL454:
1237:Drivers/BMP580/Src/bmp5.c **** 
 4377              		.loc 1 1237 9 view .LVU1350
1239:Drivers/BMP580/Src/bmp5.c **** 
 4378              		.loc 1 1239 9 view .LVU1351
1239:Drivers/BMP580/Src/bmp5.c **** 
 4379              		.loc 1 1239 16 is_stmt 0 view .LVU1352
 4380 000a 0A46     		mov	r2, r1
 4381 000c 4179     		ldrb	r1, [r0, #5]	@ zero_extendqisi2
ARM GAS  C:\Users\Nathan\AppData\Local\Temp\ccQWWdhB.s 			page 135


 4382              	.LVL455:
1239:Drivers/BMP580/Src/bmp5.c **** 
 4383              		.loc 1 1239 16 view .LVU1353
 4384 000e 8079     		ldrb	r0, [r0, #6]	@ zero_extendqisi2
 4385              	.LVL456:
1239:Drivers/BMP580/Src/bmp5.c **** 
 4386              		.loc 1 1239 16 view .LVU1354
 4387 0010 FFF7FEFF 		bl	set_oor_iir_count_limit
 4388              	.LVL457:
1241:Drivers/BMP580/Src/bmp5.c ****         {
 4389              		.loc 1 1241 9 is_stmt 1 view .LVU1355
1241:Drivers/BMP580/Src/bmp5.c ****         {
 4390              		.loc 1 1241 12 is_stmt 0 view .LVU1356
 4391 0014 08B1     		cbz	r0, .L290
 4392              	.L284:
1265:Drivers/BMP580/Src/bmp5.c **** }
 4393              		.loc 1 1265 5 is_stmt 1 view .LVU1357
1266:Drivers/BMP580/Src/bmp5.c **** 
 4394              		.loc 1 1266 1 is_stmt 0 view .LVU1358
 4395 0016 03B0     		add	sp, sp, #12
 4396              		.cfi_remember_state
 4397              		.cfi_def_cfa_offset 12
 4398              		@ sp needed
 4399 0018 30BD     		pop	{r4, r5, pc}
 4400              	.LVL458:
 4401              	.L290:
 4402              		.cfi_restore_state
1244:Drivers/BMP580/Src/bmp5.c **** 
 4403              		.loc 1 1244 13 is_stmt 1 view .LVU1359
1244:Drivers/BMP580/Src/bmp5.c **** 
 4404              		.loc 1 1244 20 is_stmt 0 view .LVU1360
 4405 001a 2346     		mov	r3, r4
 4406 001c 0422     		movs	r2, #4
 4407 001e 0DEB0201 		add	r1, sp, r2
 4408 0022 3220     		movs	r0, #50
 4409              	.LVL459:
1244:Drivers/BMP580/Src/bmp5.c **** 
 4410              		.loc 1 1244 20 view .LVU1361
 4411 0024 FFF7FEFF 		bl	bmp5_get_regs
 4412              	.LVL460:
1246:Drivers/BMP580/Src/bmp5.c ****             {
 4413              		.loc 1 1246 13 is_stmt 1 view .LVU1362
1246:Drivers/BMP580/Src/bmp5.c ****             {
 4414              		.loc 1 1246 16 is_stmt 0 view .LVU1363
 4415 0028 0028     		cmp	r0, #0
 4416 002a F4D1     		bne	.L284
1248:Drivers/BMP580/Src/bmp5.c ****                 reg_data[1] =
 4417              		.loc 1 1248 17 is_stmt 1 view .LVU1364
1248:Drivers/BMP580/Src/bmp5.c ****                 reg_data[1] =
 4418              		.loc 1 1248 31 is_stmt 0 view .LVU1365
 4419 002c 2B68     		ldr	r3, [r5]
1248:Drivers/BMP580/Src/bmp5.c ****                 reg_data[1] =
 4420              		.loc 1 1248 29 view .LVU1366
 4421 002e 8DF80430 		strb	r3, [sp, #4]
1249:Drivers/BMP580/Src/bmp5.c ****                     (uint8_t)(BMP5_SET_BITS_POS_0(reg_data[1], BMP5_OOR_THR_P_MSB, oor_press_config
 4422              		.loc 1 1249 17 is_stmt 1 view .LVU1367
1250:Drivers/BMP580/Src/bmp5.c ****                 reg_data[2] = oor_press_config->oor_range_p;
ARM GAS  C:\Users\Nathan\AppData\Local\Temp\ccQWWdhB.s 			page 136


 4423              		.loc 1 1250 21 is_stmt 0 view .LVU1368
 4424 0032 C3F30722 		ubfx	r2, r3, #8, #8
1249:Drivers/BMP580/Src/bmp5.c ****                     (uint8_t)(BMP5_SET_BITS_POS_0(reg_data[1], BMP5_OOR_THR_P_MSB, oor_press_config
 4425              		.loc 1 1249 29 view .LVU1369
 4426 0036 8DF80520 		strb	r2, [sp, #5]
1251:Drivers/BMP580/Src/bmp5.c ****                 thres_xmsb = BMP5_GET_BITSLICE(oor_press_config->oor_thr_p, BMP5_OOR_THR_P_XMSB);
 4427              		.loc 1 1251 17 is_stmt 1 view .LVU1370
1251:Drivers/BMP580/Src/bmp5.c ****                 thres_xmsb = BMP5_GET_BITSLICE(oor_press_config->oor_thr_p, BMP5_OOR_THR_P_XMSB);
 4428              		.loc 1 1251 47 is_stmt 0 view .LVU1371
 4429 003a 2A79     		ldrb	r2, [r5, #4]	@ zero_extendqisi2
1251:Drivers/BMP580/Src/bmp5.c ****                 thres_xmsb = BMP5_GET_BITSLICE(oor_press_config->oor_thr_p, BMP5_OOR_THR_P_XMSB);
 4430              		.loc 1 1251 29 view .LVU1372
 4431 003c 8DF80620 		strb	r2, [sp, #6]
1252:Drivers/BMP580/Src/bmp5.c ****                 reg_data[3] = BMP5_SET_BITS_POS_0(reg_data[3], BMP5_OOR_THR_P_XMSB_REG, thres_xmsb)
 4432              		.loc 1 1252 17 is_stmt 1 view .LVU1373
1252:Drivers/BMP580/Src/bmp5.c ****                 reg_data[3] = BMP5_SET_BITS_POS_0(reg_data[3], BMP5_OOR_THR_P_XMSB_REG, thres_xmsb)
 4433              		.loc 1 1252 28 is_stmt 0 view .LVU1374
 4434 0040 C3F30043 		ubfx	r3, r3, #16, #1
 4435              	.LVL461:
1253:Drivers/BMP580/Src/bmp5.c **** 
 4436              		.loc 1 1253 17 is_stmt 1 view .LVU1375
1253:Drivers/BMP580/Src/bmp5.c **** 
 4437              		.loc 1 1253 31 is_stmt 0 view .LVU1376
 4438 0044 9DF80720 		ldrb	r2, [sp, #7]	@ zero_extendqisi2
1253:Drivers/BMP580/Src/bmp5.c **** 
 4439              		.loc 1 1253 29 view .LVU1377
 4440 0048 22F00102 		bic	r2, r2, #1
 4441 004c 1343     		orrs	r3, r3, r2
 4442              	.LVL462:
1253:Drivers/BMP580/Src/bmp5.c **** 
 4443              		.loc 1 1253 29 view .LVU1378
 4444 004e 8DF80730 		strb	r3, [sp, #7]
1256:Drivers/BMP580/Src/bmp5.c ****             }
 4445              		.loc 1 1256 17 is_stmt 1 view .LVU1379
1256:Drivers/BMP580/Src/bmp5.c ****             }
 4446              		.loc 1 1256 24 is_stmt 0 view .LVU1380
 4447 0052 2346     		mov	r3, r4
 4448 0054 0422     		movs	r2, #4
 4449 0056 0DEB0201 		add	r1, sp, r2
 4450 005a 3220     		movs	r0, #50
 4451              	.LVL463:
1256:Drivers/BMP580/Src/bmp5.c ****             }
 4452              		.loc 1 1256 24 view .LVU1381
 4453 005c FFF7FEFF 		bl	bmp5_set_regs
 4454              	.LVL464:
1256:Drivers/BMP580/Src/bmp5.c ****             }
 4455              		.loc 1 1256 24 view .LVU1382
 4456 0060 D9E7     		b	.L284
 4457              	.LVL465:
 4458              	.L285:
 4459              		.cfi_def_cfa_offset 0
 4460              		.cfi_restore 4
 4461              		.cfi_restore 5
 4462              		.cfi_restore 14
1262:Drivers/BMP580/Src/bmp5.c ****     }
 4463              		.loc 1 1262 14 view .LVU1383
 4464 0062 4FF0FF30 		mov	r0, #-1
ARM GAS  C:\Users\Nathan\AppData\Local\Temp\ccQWWdhB.s 			page 137


 4465              	.LVL466:
1265:Drivers/BMP580/Src/bmp5.c **** }
 4466              		.loc 1 1265 5 is_stmt 1 view .LVU1384
1266:Drivers/BMP580/Src/bmp5.c **** 
 4467              		.loc 1 1266 1 is_stmt 0 view .LVU1385
 4468 0066 7047     		bx	lr
 4469              		.cfi_endproc
 4470              	.LFE21:
 4472              		.section	.text.bmp5_nvm_read,"ax",%progbits
 4473              		.align	1
 4474              		.global	bmp5_nvm_read
 4475              		.syntax unified
 4476              		.thumb
 4477              		.thumb_func
 4479              	bmp5_nvm_read:
 4480              	.LVL467:
 4481              	.LFB22:
1272:Drivers/BMP580/Src/bmp5.c ****     int8_t rslt;
 4482              		.loc 1 1272 1 is_stmt 1 view -0
 4483              		.cfi_startproc
 4484              		@ args = 0, pretend = 0, frame = 8
 4485              		@ frame_needed = 0, uses_anonymous_args = 0
1272:Drivers/BMP580/Src/bmp5.c ****     int8_t rslt;
 4486              		.loc 1 1272 1 is_stmt 0 view .LVU1387
 4487 0000 70B5     		push	{r4, r5, r6, lr}
 4488              		.cfi_def_cfa_offset 16
 4489              		.cfi_offset 4, -16
 4490              		.cfi_offset 5, -12
 4491              		.cfi_offset 6, -8
 4492              		.cfi_offset 14, -4
 4493 0002 82B0     		sub	sp, sp, #8
 4494              		.cfi_def_cfa_offset 24
 4495 0004 0546     		mov	r5, r0
 4496 0006 0E46     		mov	r6, r1
 4497 0008 1446     		mov	r4, r2
1273:Drivers/BMP580/Src/bmp5.c ****     uint8_t reg_data;
 4498              		.loc 1 1273 5 is_stmt 1 view .LVU1388
1274:Drivers/BMP580/Src/bmp5.c **** 
 4499              		.loc 1 1274 5 view .LVU1389
1277:Drivers/BMP580/Src/bmp5.c **** 
 4500              		.loc 1 1277 5 view .LVU1390
1280:Drivers/BMP580/Src/bmp5.c **** 
 4501              		.loc 1 1280 5 view .LVU1391
1280:Drivers/BMP580/Src/bmp5.c **** 
 4502              		.loc 1 1280 12 is_stmt 0 view .LVU1392
 4503 000a 1046     		mov	r0, r2
 4504              	.LVL468:
1280:Drivers/BMP580/Src/bmp5.c **** 
 4505              		.loc 1 1280 12 view .LVU1393
 4506 000c FFF7FEFF 		bl	null_ptr_check
 4507              	.LVL469:
1283:Drivers/BMP580/Src/bmp5.c ****     {
 4508              		.loc 1 1283 5 is_stmt 1 view .LVU1394
1283:Drivers/BMP580/Src/bmp5.c ****     {
 4509              		.loc 1 1283 8 is_stmt 0 view .LVU1395
 4510 0010 0028     		cmp	r0, #0
 4511 0012 3CD1     		bne	.L294
ARM GAS  C:\Users\Nathan\AppData\Local\Temp\ccQWWdhB.s 			page 138


1283:Drivers/BMP580/Src/bmp5.c ****     {
 4512              		.loc 1 1283 27 discriminator 1 view .LVU1396
 4513 0014 002E     		cmp	r6, #0
 4514 0016 3DD0     		beq	.L295
1285:Drivers/BMP580/Src/bmp5.c **** 
 4515              		.loc 1 1285 9 is_stmt 1 view .LVU1397
1285:Drivers/BMP580/Src/bmp5.c **** 
 4516              		.loc 1 1285 16 is_stmt 0 view .LVU1398
 4517 0018 2346     		mov	r3, r4
 4518 001a 0DF10602 		add	r2, sp, #6
 4519 001e 0021     		movs	r1, #0
 4520 0020 2846     		mov	r0, r5
 4521              	.LVL470:
1285:Drivers/BMP580/Src/bmp5.c **** 
 4522              		.loc 1 1285 16 view .LVU1399
 4523 0022 FFF7FEFF 		bl	nvm_write_addr
 4524              	.LVL471:
1287:Drivers/BMP580/Src/bmp5.c ****         {
 4525              		.loc 1 1287 9 is_stmt 1 view .LVU1400
1287:Drivers/BMP580/Src/bmp5.c ****         {
 4526              		.loc 1 1287 12 is_stmt 0 view .LVU1401
 4527 0026 0546     		mov	r5, r0
 4528              	.LVL472:
1287:Drivers/BMP580/Src/bmp5.c ****         {
 4529              		.loc 1 1287 12 view .LVU1402
 4530 0028 18B1     		cbz	r0, .L297
 4531              	.LVL473:
 4532              	.L293:
1304:Drivers/BMP580/Src/bmp5.c ****         {
 4533              		.loc 1 1304 9 is_stmt 1 view .LVU1403
1304:Drivers/BMP580/Src/bmp5.c ****         {
 4534              		.loc 1 1304 12 is_stmt 0 view .LVU1404
 4535 002a 05B3     		cbz	r5, .L298
 4536              	.LVL474:
 4537              	.L292:
1325:Drivers/BMP580/Src/bmp5.c **** }
 4538              		.loc 1 1325 5 is_stmt 1 view .LVU1405
1326:Drivers/BMP580/Src/bmp5.c **** 
 4539              		.loc 1 1326 1 is_stmt 0 view .LVU1406
 4540 002c 2846     		mov	r0, r5
 4541 002e 02B0     		add	sp, sp, #8
 4542              		.cfi_remember_state
 4543              		.cfi_def_cfa_offset 16
 4544              		@ sp needed
 4545 0030 70BD     		pop	{r4, r5, r6, pc}
 4546              	.LVL475:
 4547              	.L297:
 4548              		.cfi_restore_state
1290:Drivers/BMP580/Src/bmp5.c ****             rslt = bmp5_set_regs(BMP5_REG_CMD, &reg_data, 1, dev);
 4549              		.loc 1 1290 13 is_stmt 1 view .LVU1407
1290:Drivers/BMP580/Src/bmp5.c ****             rslt = bmp5_set_regs(BMP5_REG_CMD, &reg_data, 1, dev);
 4550              		.loc 1 1290 22 is_stmt 0 view .LVU1408
 4551 0032 5D23     		movs	r3, #93
 4552 0034 8DF80730 		strb	r3, [sp, #7]
1291:Drivers/BMP580/Src/bmp5.c ****         }
 4553              		.loc 1 1291 13 is_stmt 1 view .LVU1409
1291:Drivers/BMP580/Src/bmp5.c ****         }
ARM GAS  C:\Users\Nathan\AppData\Local\Temp\ccQWWdhB.s 			page 139


 4554              		.loc 1 1291 20 is_stmt 0 view .LVU1410
 4555 0038 2346     		mov	r3, r4
 4556 003a 0122     		movs	r2, #1
 4557 003c 0DF10701 		add	r1, sp, #7
 4558 0040 7E20     		movs	r0, #126
 4559              	.LVL476:
1291:Drivers/BMP580/Src/bmp5.c ****         }
 4560              		.loc 1 1291 20 view .LVU1411
 4561 0042 FFF7FEFF 		bl	bmp5_set_regs
 4562              	.LVL477:
1294:Drivers/BMP580/Src/bmp5.c ****         {
 4563              		.loc 1 1294 9 is_stmt 1 view .LVU1412
1294:Drivers/BMP580/Src/bmp5.c ****         {
 4564              		.loc 1 1294 12 is_stmt 0 view .LVU1413
 4565 0046 0546     		mov	r5, r0
 4566 0048 0028     		cmp	r0, #0
 4567 004a EFD1     		bne	.L292
1297:Drivers/BMP580/Src/bmp5.c ****             rslt = bmp5_set_regs(BMP5_REG_CMD, &reg_data, 1, dev);
 4568              		.loc 1 1297 13 is_stmt 1 view .LVU1414
1297:Drivers/BMP580/Src/bmp5.c ****             rslt = bmp5_set_regs(BMP5_REG_CMD, &reg_data, 1, dev);
 4569              		.loc 1 1297 22 is_stmt 0 view .LVU1415
 4570 004c A523     		movs	r3, #165
 4571 004e 8DF80730 		strb	r3, [sp, #7]
1298:Drivers/BMP580/Src/bmp5.c **** 
 4572              		.loc 1 1298 13 is_stmt 1 view .LVU1416
1298:Drivers/BMP580/Src/bmp5.c **** 
 4573              		.loc 1 1298 20 is_stmt 0 view .LVU1417
 4574 0052 2346     		mov	r3, r4
 4575 0054 0122     		movs	r2, #1
 4576 0056 0DF10701 		add	r1, sp, #7
 4577 005a 7E20     		movs	r0, #126
 4578              	.LVL478:
1298:Drivers/BMP580/Src/bmp5.c **** 
 4579              		.loc 1 1298 20 view .LVU1418
 4580 005c FFF7FEFF 		bl	bmp5_set_regs
 4581              	.LVL479:
 4582 0060 0546     		mov	r5, r0
 4583              	.LVL480:
1301:Drivers/BMP580/Src/bmp5.c ****         }
 4584              		.loc 1 1301 13 is_stmt 1 view .LVU1419
1301:Drivers/BMP580/Src/bmp5.c ****         }
 4585              		.loc 1 1301 16 is_stmt 0 view .LVU1420
 4586 0062 2369     		ldr	r3, [r4, #16]
1301:Drivers/BMP580/Src/bmp5.c ****         }
 4587              		.loc 1 1301 13 view .LVU1421
 4588 0064 6168     		ldr	r1, [r4, #4]
 4589 0066 4FF44870 		mov	r0, #800
 4590 006a 9847     		blx	r3
 4591              	.LVL481:
 4592 006c DDE7     		b	.L293
 4593              	.L298:
1306:Drivers/BMP580/Src/bmp5.c ****         }
 4594              		.loc 1 1306 13 is_stmt 1 view .LVU1422
1306:Drivers/BMP580/Src/bmp5.c ****         }
 4595              		.loc 1 1306 20 is_stmt 0 view .LVU1423
 4596 006e 2146     		mov	r1, r4
 4597 0070 3046     		mov	r0, r6
ARM GAS  C:\Users\Nathan\AppData\Local\Temp\ccQWWdhB.s 			page 140


 4598 0072 FFF7FEFF 		bl	get_nvm_data
 4599              	.LVL482:
1309:Drivers/BMP580/Src/bmp5.c ****         {
 4600              		.loc 1 1309 9 is_stmt 1 view .LVU1424
1309:Drivers/BMP580/Src/bmp5.c ****         {
 4601              		.loc 1 1309 12 is_stmt 0 view .LVU1425
 4602 0076 0546     		mov	r5, r0
 4603 0078 0028     		cmp	r0, #0
 4604 007a D7D1     		bne	.L292
1314:Drivers/BMP580/Src/bmp5.c ****             {
 4605              		.loc 1 1314 13 is_stmt 1 view .LVU1426
1314:Drivers/BMP580/Src/bmp5.c ****             {
 4606              		.loc 1 1314 30 is_stmt 0 view .LVU1427
 4607 007c 9DF80600 		ldrb	r0, [sp, #6]	@ zero_extendqisi2
 4608              	.LVL483:
1314:Drivers/BMP580/Src/bmp5.c ****             {
 4609              		.loc 1 1314 16 view .LVU1428
 4610 0080 0028     		cmp	r0, #0
 4611 0082 D3D0     		beq	.L292
1316:Drivers/BMP580/Src/bmp5.c ****             }
 4612              		.loc 1 1316 17 is_stmt 1 view .LVU1429
1316:Drivers/BMP580/Src/bmp5.c ****             }
 4613              		.loc 1 1316 24 is_stmt 0 view .LVU1430
 4614 0084 2146     		mov	r1, r4
 4615 0086 FFF7FEFF 		bl	bmp5_set_power_mode
 4616              	.LVL484:
 4617 008a 0546     		mov	r5, r0
 4618              	.LVL485:
1316:Drivers/BMP580/Src/bmp5.c ****             }
 4619              		.loc 1 1316 24 view .LVU1431
 4620 008c CEE7     		b	.L292
 4621              	.LVL486:
 4622              	.L294:
1322:Drivers/BMP580/Src/bmp5.c ****     }
 4623              		.loc 1 1322 14 view .LVU1432
 4624 008e 4FF0FF35 		mov	r5, #-1
 4625 0092 CBE7     		b	.L292
 4626              	.L295:
 4627 0094 4FF0FF35 		mov	r5, #-1
 4628 0098 C8E7     		b	.L292
 4629              		.cfi_endproc
 4630              	.LFE22:
 4632              		.section	.text.bmp5_nvm_write,"ax",%progbits
 4633              		.align	1
 4634              		.global	bmp5_nvm_write
 4635              		.syntax unified
 4636              		.thumb
 4637              		.thumb_func
 4639              	bmp5_nvm_write:
 4640              	.LVL487:
 4641              	.LFB23:
1332:Drivers/BMP580/Src/bmp5.c ****     int8_t rslt;
 4642              		.loc 1 1332 1 is_stmt 1 view -0
 4643              		.cfi_startproc
 4644              		@ args = 0, pretend = 0, frame = 8
 4645              		@ frame_needed = 0, uses_anonymous_args = 0
1332:Drivers/BMP580/Src/bmp5.c ****     int8_t rslt;
ARM GAS  C:\Users\Nathan\AppData\Local\Temp\ccQWWdhB.s 			page 141


 4646              		.loc 1 1332 1 is_stmt 0 view .LVU1434
 4647 0000 70B5     		push	{r4, r5, r6, lr}
 4648              		.cfi_def_cfa_offset 16
 4649              		.cfi_offset 4, -16
 4650              		.cfi_offset 5, -12
 4651              		.cfi_offset 6, -8
 4652              		.cfi_offset 14, -4
 4653 0002 82B0     		sub	sp, sp, #8
 4654              		.cfi_def_cfa_offset 24
 4655 0004 0546     		mov	r5, r0
 4656 0006 0E46     		mov	r6, r1
 4657 0008 1446     		mov	r4, r2
1333:Drivers/BMP580/Src/bmp5.c **** 
 4658              		.loc 1 1333 5 is_stmt 1 view .LVU1435
1335:Drivers/BMP580/Src/bmp5.c **** 
 4659              		.loc 1 1335 5 view .LVU1436
1335:Drivers/BMP580/Src/bmp5.c **** 
 4660              		.loc 1 1335 13 is_stmt 0 view .LVU1437
 4661 000a 0023     		movs	r3, #0
 4662 000c 8DF80730 		strb	r3, [sp, #7]
1337:Drivers/BMP580/Src/bmp5.c **** 
 4663              		.loc 1 1337 5 is_stmt 1 view .LVU1438
1337:Drivers/BMP580/Src/bmp5.c **** 
 4664              		.loc 1 1337 13 is_stmt 0 view .LVU1439
 4665 0010 8DF80630 		strb	r3, [sp, #6]
1339:Drivers/BMP580/Src/bmp5.c **** 
 4666              		.loc 1 1339 5 is_stmt 1 view .LVU1440
1342:Drivers/BMP580/Src/bmp5.c **** 
 4667              		.loc 1 1342 5 view .LVU1441
1345:Drivers/BMP580/Src/bmp5.c **** 
 4668              		.loc 1 1345 5 view .LVU1442
1345:Drivers/BMP580/Src/bmp5.c **** 
 4669              		.loc 1 1345 12 is_stmt 0 view .LVU1443
 4670 0014 1046     		mov	r0, r2
 4671              	.LVL488:
1345:Drivers/BMP580/Src/bmp5.c **** 
 4672              		.loc 1 1345 12 view .LVU1444
 4673 0016 FFF7FEFF 		bl	null_ptr_check
 4674              	.LVL489:
1348:Drivers/BMP580/Src/bmp5.c ****     {
 4675              		.loc 1 1348 5 is_stmt 1 view .LVU1445
1348:Drivers/BMP580/Src/bmp5.c ****     {
 4676              		.loc 1 1348 8 is_stmt 0 view .LVU1446
 4677 001a 0028     		cmp	r0, #0
 4678 001c 6BD1     		bne	.L302
1348:Drivers/BMP580/Src/bmp5.c ****     {
 4679              		.loc 1 1348 27 discriminator 1 view .LVU1447
 4680 001e 002E     		cmp	r6, #0
 4681 0020 6CD0     		beq	.L303
1350:Drivers/BMP580/Src/bmp5.c **** 
 4682              		.loc 1 1350 9 is_stmt 1 view .LVU1448
1350:Drivers/BMP580/Src/bmp5.c **** 
 4683              		.loc 1 1350 16 is_stmt 0 view .LVU1449
 4684 0022 2346     		mov	r3, r4
 4685 0024 0DF10302 		add	r2, sp, #3
 4686 0028 0121     		movs	r1, #1
 4687 002a 2846     		mov	r0, r5
ARM GAS  C:\Users\Nathan\AppData\Local\Temp\ccQWWdhB.s 			page 142


 4688              	.LVL490:
1350:Drivers/BMP580/Src/bmp5.c **** 
 4689              		.loc 1 1350 16 view .LVU1450
 4690 002c FFF7FEFF 		bl	nvm_write_addr
 4691              	.LVL491:
1352:Drivers/BMP580/Src/bmp5.c ****         {
 4692              		.loc 1 1352 9 is_stmt 1 view .LVU1451
1352:Drivers/BMP580/Src/bmp5.c ****         {
 4693              		.loc 1 1352 12 is_stmt 0 view .LVU1452
 4694 0030 0546     		mov	r5, r0
 4695              	.LVL492:
1352:Drivers/BMP580/Src/bmp5.c ****         {
 4696              		.loc 1 1352 12 view .LVU1453
 4697 0032 18B1     		cbz	r0, .L307
 4698              	.LVL493:
 4699              	.L301:
1373:Drivers/BMP580/Src/bmp5.c ****         {
 4700              		.loc 1 1373 9 is_stmt 1 view .LVU1454
1373:Drivers/BMP580/Src/bmp5.c ****         {
 4701              		.loc 1 1373 12 is_stmt 0 view .LVU1455
 4702 0034 35B3     		cbz	r5, .L308
 4703              	.LVL494:
 4704              	.L300:
1418:Drivers/BMP580/Src/bmp5.c **** }
 4705              		.loc 1 1418 5 is_stmt 1 view .LVU1456
1419:Drivers/BMP580/Src/bmp5.c **** 
 4706              		.loc 1 1419 1 is_stmt 0 view .LVU1457
 4707 0036 2846     		mov	r0, r5
 4708 0038 02B0     		add	sp, sp, #8
 4709              		.cfi_remember_state
 4710              		.cfi_def_cfa_offset 16
 4711              		@ sp needed
 4712 003a 70BD     		pop	{r4, r5, r6, pc}
 4713              	.LVL495:
 4714              	.L307:
 4715              		.cfi_restore_state
1355:Drivers/BMP580/Src/bmp5.c **** 
 4716              		.loc 1 1355 13 is_stmt 1 view .LVU1458
1355:Drivers/BMP580/Src/bmp5.c **** 
 4717              		.loc 1 1355 20 is_stmt 0 view .LVU1459
 4718 003c 2346     		mov	r3, r4
 4719 003e 0222     		movs	r2, #2
 4720 0040 01A9     		add	r1, sp, #4
 4721 0042 2C20     		movs	r0, #44
 4722              	.LVL496:
1355:Drivers/BMP580/Src/bmp5.c **** 
 4723              		.loc 1 1355 20 view .LVU1460
 4724 0044 FFF7FEFF 		bl	bmp5_get_regs
 4725              	.LVL497:
1357:Drivers/BMP580/Src/bmp5.c ****             {
 4726              		.loc 1 1357 13 is_stmt 1 view .LVU1461
1357:Drivers/BMP580/Src/bmp5.c ****             {
 4727              		.loc 1 1357 16 is_stmt 0 view .LVU1462
 4728 0048 0546     		mov	r5, r0
 4729 004a 0028     		cmp	r0, #0
 4730 004c F3D1     		bne	.L300
1359:Drivers/BMP580/Src/bmp5.c ****                 nvmdata[1] = (uint8_t)((*nvm_data & BMP5_NVM_DATA_MSB_MSK) >> 8);
ARM GAS  C:\Users\Nathan\AppData\Local\Temp\ccQWWdhB.s 			page 143


 4731              		.loc 1 1359 17 is_stmt 1 view .LVU1463
1359:Drivers/BMP580/Src/bmp5.c ****                 nvmdata[1] = (uint8_t)((*nvm_data & BMP5_NVM_DATA_MSB_MSK) >> 8);
 4732              		.loc 1 1359 40 is_stmt 0 view .LVU1464
 4733 004e 3388     		ldrh	r3, [r6]
1359:Drivers/BMP580/Src/bmp5.c ****                 nvmdata[1] = (uint8_t)((*nvm_data & BMP5_NVM_DATA_MSB_MSK) >> 8);
 4734              		.loc 1 1359 28 view .LVU1465
 4735 0050 8DF80430 		strb	r3, [sp, #4]
1360:Drivers/BMP580/Src/bmp5.c **** 
 4736              		.loc 1 1360 17 is_stmt 1 view .LVU1466
1360:Drivers/BMP580/Src/bmp5.c **** 
 4737              		.loc 1 1360 30 is_stmt 0 view .LVU1467
 4738 0054 1B0A     		lsrs	r3, r3, #8
1360:Drivers/BMP580/Src/bmp5.c **** 
 4739              		.loc 1 1360 28 view .LVU1468
 4740 0056 8DF80530 		strb	r3, [sp, #5]
1362:Drivers/BMP580/Src/bmp5.c ****             }
 4741              		.loc 1 1362 17 is_stmt 1 view .LVU1469
1362:Drivers/BMP580/Src/bmp5.c ****             }
 4742              		.loc 1 1362 24 is_stmt 0 view .LVU1470
 4743 005a 2346     		mov	r3, r4
 4744 005c 0222     		movs	r2, #2
 4745 005e 01A9     		add	r1, sp, #4
 4746 0060 2C20     		movs	r0, #44
 4747              	.LVL498:
1362:Drivers/BMP580/Src/bmp5.c ****             }
 4748              		.loc 1 1362 24 view .LVU1471
 4749 0062 FFF7FEFF 		bl	bmp5_set_regs
 4750              	.LVL499:
1366:Drivers/BMP580/Src/bmp5.c ****         {
 4751              		.loc 1 1366 9 is_stmt 1 view .LVU1472
1366:Drivers/BMP580/Src/bmp5.c ****         {
 4752              		.loc 1 1366 12 is_stmt 0 view .LVU1473
 4753 0066 0546     		mov	r5, r0
 4754 0068 0028     		cmp	r0, #0
 4755 006a E4D1     		bne	.L300
1369:Drivers/BMP580/Src/bmp5.c ****             rslt = bmp5_set_regs(BMP5_REG_CMD, &reg_data, 1, dev);
 4756              		.loc 1 1369 13 is_stmt 1 view .LVU1474
1369:Drivers/BMP580/Src/bmp5.c ****             rslt = bmp5_set_regs(BMP5_REG_CMD, &reg_data, 1, dev);
 4757              		.loc 1 1369 22 is_stmt 0 view .LVU1475
 4758 006c 5D23     		movs	r3, #93
 4759 006e 8DF80630 		strb	r3, [sp, #6]
1370:Drivers/BMP580/Src/bmp5.c ****         }
 4760              		.loc 1 1370 13 is_stmt 1 view .LVU1476
1370:Drivers/BMP580/Src/bmp5.c ****         }
 4761              		.loc 1 1370 20 is_stmt 0 view .LVU1477
 4762 0072 2346     		mov	r3, r4
 4763 0074 0122     		movs	r2, #1
 4764 0076 0DF10601 		add	r1, sp, #6
 4765 007a 7E20     		movs	r0, #126
 4766              	.LVL500:
1370:Drivers/BMP580/Src/bmp5.c ****         }
 4767              		.loc 1 1370 20 view .LVU1478
 4768 007c FFF7FEFF 		bl	bmp5_set_regs
 4769              	.LVL501:
 4770 0080 0546     		mov	r5, r0
 4771              	.LVL502:
1370:Drivers/BMP580/Src/bmp5.c ****         }
ARM GAS  C:\Users\Nathan\AppData\Local\Temp\ccQWWdhB.s 			page 144


 4772              		.loc 1 1370 20 view .LVU1479
 4773 0082 D7E7     		b	.L301
 4774              	.L308:
1376:Drivers/BMP580/Src/bmp5.c ****             rslt = bmp5_set_regs(BMP5_REG_CMD, &reg_data, 1, dev);
 4775              		.loc 1 1376 13 is_stmt 1 view .LVU1480
1376:Drivers/BMP580/Src/bmp5.c ****             rslt = bmp5_set_regs(BMP5_REG_CMD, &reg_data, 1, dev);
 4776              		.loc 1 1376 22 is_stmt 0 view .LVU1481
 4777 0084 A023     		movs	r3, #160
 4778 0086 8DF80630 		strb	r3, [sp, #6]
1377:Drivers/BMP580/Src/bmp5.c **** 
 4779              		.loc 1 1377 13 is_stmt 1 view .LVU1482
1377:Drivers/BMP580/Src/bmp5.c **** 
 4780              		.loc 1 1377 20 is_stmt 0 view .LVU1483
 4781 008a 2346     		mov	r3, r4
 4782 008c 0122     		movs	r2, #1
 4783 008e 0DF10601 		add	r1, sp, #6
 4784 0092 7E20     		movs	r0, #126
 4785 0094 FFF7FEFF 		bl	bmp5_set_regs
 4786              	.LVL503:
 4787 0098 0546     		mov	r5, r0
 4788              	.LVL504:
1380:Drivers/BMP580/Src/bmp5.c ****         }
 4789              		.loc 1 1380 13 is_stmt 1 view .LVU1484
1380:Drivers/BMP580/Src/bmp5.c ****         }
 4790              		.loc 1 1380 16 is_stmt 0 view .LVU1485
 4791 009a 2369     		ldr	r3, [r4, #16]
1380:Drivers/BMP580/Src/bmp5.c ****         }
 4792              		.loc 1 1380 13 view .LVU1486
 4793 009c 6168     		ldr	r1, [r4, #4]
 4794 009e 42F21070 		movw	r0, #10000
 4795 00a2 9847     		blx	r3
 4796              	.LVL505:
1383:Drivers/BMP580/Src/bmp5.c ****         {
 4797              		.loc 1 1383 9 is_stmt 1 view .LVU1487
1383:Drivers/BMP580/Src/bmp5.c ****         {
 4798              		.loc 1 1383 12 is_stmt 0 view .LVU1488
 4799 00a4 002D     		cmp	r5, #0
 4800 00a6 C6D1     		bne	.L300
1386:Drivers/BMP580/Src/bmp5.c **** 
 4801              		.loc 1 1386 13 is_stmt 1 view .LVU1489
1386:Drivers/BMP580/Src/bmp5.c **** 
 4802              		.loc 1 1386 20 is_stmt 0 view .LVU1490
 4803 00a8 2146     		mov	r1, r4
 4804 00aa 0DF10700 		add	r0, sp, #7
 4805 00ae FFF7FEFF 		bl	get_nvm_status
 4806              	.LVL506:
1388:Drivers/BMP580/Src/bmp5.c ****                 (!(nvm_status & BMP5_INT_NVM_CMD_ERR)))
 4807              		.loc 1 1388 13 is_stmt 1 view .LVU1491
1388:Drivers/BMP580/Src/bmp5.c ****                 (!(nvm_status & BMP5_INT_NVM_CMD_ERR)))
 4808              		.loc 1 1388 49 is_stmt 0 view .LVU1492
 4809 00b2 9DF80730 		ldrb	r3, [sp, #7]	@ zero_extendqisi2
1388:Drivers/BMP580/Src/bmp5.c ****                 (!(nvm_status & BMP5_INT_NVM_CMD_ERR)))
 4810              		.loc 1 1388 16 view .LVU1493
 4811 00b6 03F00602 		and	r2, r3, #6
 4812 00ba 022A     		cmp	r2, #2
 4813 00bc 21D1     		bne	.L304
1388:Drivers/BMP580/Src/bmp5.c ****                 (!(nvm_status & BMP5_INT_NVM_CMD_ERR)))
ARM GAS  C:\Users\Nathan\AppData\Local\Temp\ccQWWdhB.s 			page 145


 4814              		.loc 1 1388 87 discriminator 1 view .LVU1494
 4815 00be 13F0080F 		tst	r3, #8
 4816 00c2 21D1     		bne	.L305
1392:Drivers/BMP580/Src/bmp5.c **** 
 4817              		.loc 1 1392 17 is_stmt 1 view .LVU1495
1392:Drivers/BMP580/Src/bmp5.c **** 
 4818              		.loc 1 1392 28 is_stmt 0 view .LVU1496
 4819 00c4 9DF80630 		ldrb	r3, [sp, #6]	@ zero_extendqisi2
 4820 00c8 03F0BF03 		and	r3, r3, #191
1392:Drivers/BMP580/Src/bmp5.c **** 
 4821              		.loc 1 1392 26 view .LVU1497
 4822 00cc 8DF80630 		strb	r3, [sp, #6]
1394:Drivers/BMP580/Src/bmp5.c ****             }
 4823              		.loc 1 1394 17 is_stmt 1 view .LVU1498
1394:Drivers/BMP580/Src/bmp5.c ****             }
 4824              		.loc 1 1394 24 is_stmt 0 view .LVU1499
 4825 00d0 2346     		mov	r3, r4
 4826 00d2 0122     		movs	r2, #1
 4827 00d4 0DF10601 		add	r1, sp, #6
 4828 00d8 2B20     		movs	r0, #43
 4829 00da FFF7FEFF 		bl	bmp5_set_regs
 4830              	.LVL507:
1402:Drivers/BMP580/Src/bmp5.c ****         {
 4831              		.loc 1 1402 9 is_stmt 1 view .LVU1500
1402:Drivers/BMP580/Src/bmp5.c ****         {
 4832              		.loc 1 1402 12 is_stmt 0 view .LVU1501
 4833 00de 0546     		mov	r5, r0
 4834 00e0 0028     		cmp	r0, #0
 4835 00e2 A8D1     		bne	.L300
1407:Drivers/BMP580/Src/bmp5.c ****             {
 4836              		.loc 1 1407 13 is_stmt 1 view .LVU1502
1407:Drivers/BMP580/Src/bmp5.c ****             {
 4837              		.loc 1 1407 30 is_stmt 0 view .LVU1503
 4838 00e4 9DF80300 		ldrb	r0, [sp, #3]	@ zero_extendqisi2
 4839              	.LVL508:
1407:Drivers/BMP580/Src/bmp5.c ****             {
 4840              		.loc 1 1407 16 view .LVU1504
 4841 00e8 0028     		cmp	r0, #0
 4842 00ea A4D0     		beq	.L300
1409:Drivers/BMP580/Src/bmp5.c ****             }
 4843              		.loc 1 1409 17 is_stmt 1 view .LVU1505
1409:Drivers/BMP580/Src/bmp5.c ****             }
 4844              		.loc 1 1409 24 is_stmt 0 view .LVU1506
 4845 00ec 2146     		mov	r1, r4
 4846 00ee FFF7FEFF 		bl	bmp5_set_power_mode
 4847              	.LVL509:
 4848 00f2 0546     		mov	r5, r0
 4849              	.LVL510:
1409:Drivers/BMP580/Src/bmp5.c ****             }
 4850              		.loc 1 1409 24 view .LVU1507
 4851 00f4 9FE7     		b	.L300
 4852              	.LVL511:
 4853              	.L302:
1415:Drivers/BMP580/Src/bmp5.c ****     }
 4854              		.loc 1 1415 14 view .LVU1508
 4855 00f6 4FF0FF35 		mov	r5, #-1
 4856 00fa 9CE7     		b	.L300
ARM GAS  C:\Users\Nathan\AppData\Local\Temp\ccQWWdhB.s 			page 146


 4857              	.L303:
 4858 00fc 4FF0FF35 		mov	r5, #-1
 4859 0100 99E7     		b	.L300
 4860              	.LVL512:
 4861              	.L304:
1398:Drivers/BMP580/Src/bmp5.c ****             }
 4862              		.loc 1 1398 22 view .LVU1509
 4863 0102 6FF00A05 		mvn	r5, #10
 4864 0106 96E7     		b	.L300
 4865              	.L305:
 4866 0108 6FF00A05 		mvn	r5, #10
 4867 010c 93E7     		b	.L300
 4868              		.cfi_endproc
 4869              	.LFE23:
 4871              		.text
 4872              	.Letext0:
 4873              		.file 2 "C:/PROGRAM FILES (X86)/ARM GNU TOOLCHAIN ARM-NONE-EABI/13.3 REL1/arm-none-eabi/include/ma
 4874              		.file 3 "C:/PROGRAM FILES (X86)/ARM GNU TOOLCHAIN ARM-NONE-EABI/13.3 REL1/arm-none-eabi/include/sy
 4875              		.file 4 "Drivers/BMP580/Inc/bmp5_defs.h"
ARM GAS  C:\Users\Nathan\AppData\Local\Temp\ccQWWdhB.s 			page 147


DEFINED SYMBOLS
                            *ABS*:00000000 bmp5.c
C:\Users\Nathan\AppData\Local\Temp\ccQWWdhB.s:21     .text.null_ptr_check:00000000 $t
C:\Users\Nathan\AppData\Local\Temp\ccQWWdhB.s:26     .text.null_ptr_check:00000000 null_ptr_check
C:\Users\Nathan\AppData\Local\Temp\ccQWWdhB.s:88     .text.validate_chip_id:00000000 $t
C:\Users\Nathan\AppData\Local\Temp\ccQWWdhB.s:93     .text.validate_chip_id:00000000 validate_chip_id
C:\Users\Nathan\AppData\Local\Temp\ccQWWdhB.s:131    .text.set_fifo_threshold:00000000 $t
C:\Users\Nathan\AppData\Local\Temp\ccQWWdhB.s:136    .text.set_fifo_threshold:00000000 set_fifo_threshold
C:\Users\Nathan\AppData\Local\Temp\ccQWWdhB.s:228    .text.unpack_sensor_data:00000000 $t
C:\Users\Nathan\AppData\Local\Temp\ccQWWdhB.s:233    .text.unpack_sensor_data:00000000 unpack_sensor_data
C:\Users\Nathan\AppData\Local\Temp\ccQWWdhB.s:568    .text.unpack_sensor_data:0000014c $d
C:\Users\Nathan\AppData\Local\Temp\ccQWWdhB.s:574    .text.bmp5_get_regs:00000000 $t
C:\Users\Nathan\AppData\Local\Temp\ccQWWdhB.s:580    .text.bmp5_get_regs:00000000 bmp5_get_regs
C:\Users\Nathan\AppData\Local\Temp\ccQWWdhB.s:667    .text.get_nvm_status:00000000 $t
C:\Users\Nathan\AppData\Local\Temp\ccQWWdhB.s:672    .text.get_nvm_status:00000000 get_nvm_status
C:\Users\Nathan\AppData\Local\Temp\ccQWWdhB.s:717    .text.get_nvm_data:00000000 $t
C:\Users\Nathan\AppData\Local\Temp\ccQWWdhB.s:722    .text.get_nvm_data:00000000 get_nvm_data
C:\Users\Nathan\AppData\Local\Temp\ccQWWdhB.s:814    .text.bmp5_set_regs:00000000 $t
C:\Users\Nathan\AppData\Local\Temp\ccQWWdhB.s:820    .text.bmp5_set_regs:00000000 bmp5_set_regs
C:\Users\Nathan\AppData\Local\Temp\ccQWWdhB.s:950    .text.set_deep_standby_mode:00000000 $t
C:\Users\Nathan\AppData\Local\Temp\ccQWWdhB.s:955    .text.set_deep_standby_mode:00000000 set_deep_standby_mode
C:\Users\Nathan\AppData\Local\Temp\ccQWWdhB.s:1090   .text.set_power_mode:00000000 $t
C:\Users\Nathan\AppData\Local\Temp\ccQWWdhB.s:1095   .text.set_power_mode:00000000 set_power_mode
C:\Users\Nathan\AppData\Local\Temp\ccQWWdhB.s:1168   .text.set_iir_config:00000000 $t
C:\Users\Nathan\AppData\Local\Temp\ccQWWdhB.s:1173   .text.set_iir_config:00000000 set_iir_config
C:\Users\Nathan\AppData\Local\Temp\ccQWWdhB.s:1275   .text.set_nvm_addr:00000000 $t
C:\Users\Nathan\AppData\Local\Temp\ccQWWdhB.s:1280   .text.set_nvm_addr:00000000 set_nvm_addr
C:\Users\Nathan\AppData\Local\Temp\ccQWWdhB.s:1388   .text.bmp5_get_interrupt_status:00000000 $t
C:\Users\Nathan\AppData\Local\Temp\ccQWWdhB.s:1394   .text.bmp5_get_interrupt_status:00000000 bmp5_get_interrupt_status
C:\Users\Nathan\AppData\Local\Temp\ccQWWdhB.s:1439   .text.power_up_check:00000000 $t
C:\Users\Nathan\AppData\Local\Temp\ccQWWdhB.s:1444   .text.power_up_check:00000000 power_up_check
C:\Users\Nathan\AppData\Local\Temp\ccQWWdhB.s:1521   .text.bmp5_init:00000000 $t
C:\Users\Nathan\AppData\Local\Temp\ccQWWdhB.s:1527   .text.bmp5_init:00000000 bmp5_init
C:\Users\Nathan\AppData\Local\Temp\ccQWWdhB.s:1649   .text.bmp5_soft_reset:00000000 $t
C:\Users\Nathan\AppData\Local\Temp\ccQWWdhB.s:1655   .text.bmp5_soft_reset:00000000 bmp5_soft_reset
C:\Users\Nathan\AppData\Local\Temp\ccQWWdhB.s:1762   .text.bmp5_get_sensor_data:00000000 $t
C:\Users\Nathan\AppData\Local\Temp\ccQWWdhB.s:1768   .text.bmp5_get_sensor_data:00000000 bmp5_get_sensor_data
C:\Users\Nathan\AppData\Local\Temp\ccQWWdhB.s:1900   .text.bmp5_get_sensor_data:00000084 $d
C:\Users\Nathan\AppData\Local\Temp\ccQWWdhB.s:1906   .text.bmp5_int_source_select:00000000 $t
C:\Users\Nathan\AppData\Local\Temp\ccQWWdhB.s:1912   .text.bmp5_int_source_select:00000000 bmp5_int_source_select
C:\Users\Nathan\AppData\Local\Temp\ccQWWdhB.s:2025   .text.bmp5_configure_interrupt:00000000 $t
C:\Users\Nathan\AppData\Local\Temp\ccQWWdhB.s:2031   .text.bmp5_configure_interrupt:00000000 bmp5_configure_interrupt
C:\Users\Nathan\AppData\Local\Temp\ccQWWdhB.s:2171   .text.bmp5_get_osr_odr_press_config:00000000 $t
C:\Users\Nathan\AppData\Local\Temp\ccQWWdhB.s:2177   .text.bmp5_get_osr_odr_press_config:00000000 bmp5_get_osr_odr_press_config
C:\Users\Nathan\AppData\Local\Temp\ccQWWdhB.s:2256   .text.bmp5_get_iir_config:00000000 $t
C:\Users\Nathan\AppData\Local\Temp\ccQWWdhB.s:2262   .text.bmp5_get_iir_config:00000000 bmp5_get_iir_config
C:\Users\Nathan\AppData\Local\Temp\ccQWWdhB.s:2342   .text.check_deepstandby_mode:00000000 $t
C:\Users\Nathan\AppData\Local\Temp\ccQWWdhB.s:2347   .text.check_deepstandby_mode:00000000 check_deepstandby_mode
C:\Users\Nathan\AppData\Local\Temp\ccQWWdhB.s:2454   .text.bmp5_get_power_mode:00000000 $t
C:\Users\Nathan\AppData\Local\Temp\ccQWWdhB.s:2460   .text.bmp5_get_power_mode:00000000 bmp5_get_power_mode
C:\Users\Nathan\AppData\Local\Temp\ccQWWdhB.s:2510   .text.bmp5_get_power_mode:0000002a $d
C:\Users\Nathan\AppData\Local\Temp\ccQWWdhB.s:2514   .text.bmp5_get_power_mode:0000002e $t
C:\Users\Nathan\AppData\Local\Temp\ccQWWdhB.s:2611   .text.bmp5_set_power_mode:00000000 $t
C:\Users\Nathan\AppData\Local\Temp\ccQWWdhB.s:2617   .text.bmp5_set_power_mode:00000000 bmp5_set_power_mode
C:\Users\Nathan\AppData\Local\Temp\ccQWWdhB.s:2739   .text.set_standby_mode:00000000 $t
C:\Users\Nathan\AppData\Local\Temp\ccQWWdhB.s:2744   .text.set_standby_mode:00000000 set_standby_mode
C:\Users\Nathan\AppData\Local\Temp\ccQWWdhB.s:2802   .text.bmp5_set_osr_odr_press_config:00000000 $t
ARM GAS  C:\Users\Nathan\AppData\Local\Temp\ccQWWdhB.s 			page 148


C:\Users\Nathan\AppData\Local\Temp\ccQWWdhB.s:2808   .text.bmp5_set_osr_odr_press_config:00000000 bmp5_set_osr_odr_press_config
C:\Users\Nathan\AppData\Local\Temp\ccQWWdhB.s:2939   .text.set_fifo_iir_config:00000000 $t
C:\Users\Nathan\AppData\Local\Temp\ccQWWdhB.s:2944   .text.set_fifo_iir_config:00000000 set_fifo_iir_config
C:\Users\Nathan\AppData\Local\Temp\ccQWWdhB.s:3088   .text.set_oor_iir_count_limit:00000000 $t
C:\Users\Nathan\AppData\Local\Temp\ccQWWdhB.s:3093   .text.set_oor_iir_count_limit:00000000 set_oor_iir_count_limit
C:\Users\Nathan\AppData\Local\Temp\ccQWWdhB.s:3271   .text.nvm_write_addr:00000000 $t
C:\Users\Nathan\AppData\Local\Temp\ccQWWdhB.s:3276   .text.nvm_write_addr:00000000 nvm_write_addr
C:\Users\Nathan\AppData\Local\Temp\ccQWWdhB.s:3368   .text.bmp5_set_iir_config:00000000 $t
C:\Users\Nathan\AppData\Local\Temp\ccQWWdhB.s:3374   .text.bmp5_set_iir_config:00000000 bmp5_set_iir_config
C:\Users\Nathan\AppData\Local\Temp\ccQWWdhB.s:3513   .text.bmp5_get_osr_odr_eff:00000000 $t
C:\Users\Nathan\AppData\Local\Temp\ccQWWdhB.s:3519   .text.bmp5_get_osr_odr_eff:00000000 bmp5_get_osr_odr_eff
C:\Users\Nathan\AppData\Local\Temp\ccQWWdhB.s:3592   .text.bmp5_get_fifo_configuration:00000000 $t
C:\Users\Nathan\AppData\Local\Temp\ccQWWdhB.s:3598   .text.bmp5_get_fifo_configuration:00000000 bmp5_get_fifo_configuration
C:\Users\Nathan\AppData\Local\Temp\ccQWWdhB.s:3726   .text.bmp5_set_fifo_configuration:00000000 $t
C:\Users\Nathan\AppData\Local\Temp\ccQWWdhB.s:3732   .text.bmp5_set_fifo_configuration:00000000 bmp5_set_fifo_configuration
C:\Users\Nathan\AppData\Local\Temp\ccQWWdhB.s:3920   .text.bmp5_get_fifo_len:00000000 $t
C:\Users\Nathan\AppData\Local\Temp\ccQWWdhB.s:3926   .text.bmp5_get_fifo_len:00000000 bmp5_get_fifo_len
C:\Users\Nathan\AppData\Local\Temp\ccQWWdhB.s:4032   .text.bmp5_get_fifo_data:00000000 $t
C:\Users\Nathan\AppData\Local\Temp\ccQWWdhB.s:4038   .text.bmp5_get_fifo_data:00000000 bmp5_get_fifo_data
C:\Users\Nathan\AppData\Local\Temp\ccQWWdhB.s:4119   .text.bmp5_extract_fifo_data:00000000 $t
C:\Users\Nathan\AppData\Local\Temp\ccQWWdhB.s:4125   .text.bmp5_extract_fifo_data:00000000 bmp5_extract_fifo_data
C:\Users\Nathan\AppData\Local\Temp\ccQWWdhB.s:4228   .text.bmp5_get_oor_configuration:00000000 $t
C:\Users\Nathan\AppData\Local\Temp\ccQWWdhB.s:4234   .text.bmp5_get_oor_configuration:00000000 bmp5_get_oor_configuration
C:\Users\Nathan\AppData\Local\Temp\ccQWWdhB.s:4345   .text.bmp5_set_oor_configuration:00000000 $t
C:\Users\Nathan\AppData\Local\Temp\ccQWWdhB.s:4351   .text.bmp5_set_oor_configuration:00000000 bmp5_set_oor_configuration
C:\Users\Nathan\AppData\Local\Temp\ccQWWdhB.s:4473   .text.bmp5_nvm_read:00000000 $t
C:\Users\Nathan\AppData\Local\Temp\ccQWWdhB.s:4479   .text.bmp5_nvm_read:00000000 bmp5_nvm_read
C:\Users\Nathan\AppData\Local\Temp\ccQWWdhB.s:4633   .text.bmp5_nvm_write:00000000 $t
C:\Users\Nathan\AppData\Local\Temp\ccQWWdhB.s:4639   .text.bmp5_nvm_write:00000000 bmp5_nvm_write

UNDEFINED SYMBOLS
__aeabi_i2d
__aeabi_dmul
__aeabi_d2f
__aeabi_ui2d
