ARM GAS  C:\Users\Nathan\AppData\Local\Temp\ccznllVY.s 			page 1


   1              		.cpu cortex-m4
   2              		.arch armv7e-m
   3              		.fpu fpv4-sp-d16
   4              		.eabi_attribute 27, 1
   5              		.eabi_attribute 28, 1
   6              		.eabi_attribute 20, 1
   7              		.eabi_attribute 21, 1
   8              		.eabi_attribute 23, 3
   9              		.eabi_attribute 24, 1
  10              		.eabi_attribute 25, 1
  11              		.eabi_attribute 26, 1
  12              		.eabi_attribute 30, 1
  13              		.eabi_attribute 34, 1
  14              		.eabi_attribute 18, 4
  15              		.file	"lsm6dso16is_reg.c"
  16              		.text
  17              	.Ltext0:
  18              		.cfi_sections	.debug_frame
  19              		.file 1 "Drivers/BSP/Components/lsm6dso16is/lsm6dso16is_reg.c"
  20              		.section	.text.lsm6dso16is_read_reg,"ax",%progbits
  21              		.align	1
  22              		.weak	lsm6dso16is_read_reg
  23              		.syntax unified
  24              		.thumb
  25              		.thumb_func
  27              	lsm6dso16is_read_reg:
  28              	.LVL0:
  29              	.LFB0:
   1:Drivers/BSP/Components/lsm6dso16is/lsm6dso16is_reg.c **** /**
   2:Drivers/BSP/Components/lsm6dso16is/lsm6dso16is_reg.c ****   ******************************************************************************
   3:Drivers/BSP/Components/lsm6dso16is/lsm6dso16is_reg.c ****   * @file    lsm6dso16is_reg.c
   4:Drivers/BSP/Components/lsm6dso16is/lsm6dso16is_reg.c ****   * @author  Sensors Software Solution Team
   5:Drivers/BSP/Components/lsm6dso16is/lsm6dso16is_reg.c ****   * @brief   LSM6DSO16IS driver file
   6:Drivers/BSP/Components/lsm6dso16is/lsm6dso16is_reg.c ****   ******************************************************************************
   7:Drivers/BSP/Components/lsm6dso16is/lsm6dso16is_reg.c ****   * @attention
   8:Drivers/BSP/Components/lsm6dso16is/lsm6dso16is_reg.c ****   *
   9:Drivers/BSP/Components/lsm6dso16is/lsm6dso16is_reg.c ****   * Copyright (c) 2022 STMicroelectronics.
  10:Drivers/BSP/Components/lsm6dso16is/lsm6dso16is_reg.c ****   * All rights reserved.
  11:Drivers/BSP/Components/lsm6dso16is/lsm6dso16is_reg.c ****   *
  12:Drivers/BSP/Components/lsm6dso16is/lsm6dso16is_reg.c ****   * This software is licensed under terms that can be found in the LICENSE file
  13:Drivers/BSP/Components/lsm6dso16is/lsm6dso16is_reg.c ****   * in the root directory of this software component.
  14:Drivers/BSP/Components/lsm6dso16is/lsm6dso16is_reg.c ****   * If no LICENSE file comes with this software, it is provided AS-IS.
  15:Drivers/BSP/Components/lsm6dso16is/lsm6dso16is_reg.c ****   *
  16:Drivers/BSP/Components/lsm6dso16is/lsm6dso16is_reg.c ****   ******************************************************************************
  17:Drivers/BSP/Components/lsm6dso16is/lsm6dso16is_reg.c ****   */
  18:Drivers/BSP/Components/lsm6dso16is/lsm6dso16is_reg.c **** 
  19:Drivers/BSP/Components/lsm6dso16is/lsm6dso16is_reg.c **** #include "lsm6dso16is_reg.h"
  20:Drivers/BSP/Components/lsm6dso16is/lsm6dso16is_reg.c **** 
  21:Drivers/BSP/Components/lsm6dso16is/lsm6dso16is_reg.c **** /**
  22:Drivers/BSP/Components/lsm6dso16is/lsm6dso16is_reg.c ****   * @defgroup  LSM6DSO16IS
  23:Drivers/BSP/Components/lsm6dso16is/lsm6dso16is_reg.c ****   * @brief     This file provides a set of functions needed to drive the
  24:Drivers/BSP/Components/lsm6dso16is/lsm6dso16is_reg.c ****   *            lsm6dso16is enhanced inertial module.
  25:Drivers/BSP/Components/lsm6dso16is/lsm6dso16is_reg.c ****   * @{
  26:Drivers/BSP/Components/lsm6dso16is/lsm6dso16is_reg.c ****   *
  27:Drivers/BSP/Components/lsm6dso16is/lsm6dso16is_reg.c ****   */
  28:Drivers/BSP/Components/lsm6dso16is/lsm6dso16is_reg.c **** 
  29:Drivers/BSP/Components/lsm6dso16is/lsm6dso16is_reg.c **** /**
ARM GAS  C:\Users\Nathan\AppData\Local\Temp\ccznllVY.s 			page 2


  30:Drivers/BSP/Components/lsm6dso16is/lsm6dso16is_reg.c ****   * @defgroup  Interfaces functions
  31:Drivers/BSP/Components/lsm6dso16is/lsm6dso16is_reg.c ****   * @brief     This section provide a set of functions used to read and
  32:Drivers/BSP/Components/lsm6dso16is/lsm6dso16is_reg.c ****   *            write a generic register of the device.
  33:Drivers/BSP/Components/lsm6dso16is/lsm6dso16is_reg.c ****   *            MANDATORY: return 0 -> no Error.
  34:Drivers/BSP/Components/lsm6dso16is/lsm6dso16is_reg.c ****   * @{
  35:Drivers/BSP/Components/lsm6dso16is/lsm6dso16is_reg.c ****   *
  36:Drivers/BSP/Components/lsm6dso16is/lsm6dso16is_reg.c ****   */
  37:Drivers/BSP/Components/lsm6dso16is/lsm6dso16is_reg.c **** 
  38:Drivers/BSP/Components/lsm6dso16is/lsm6dso16is_reg.c **** /**
  39:Drivers/BSP/Components/lsm6dso16is/lsm6dso16is_reg.c ****   * @brief  Read generic device register
  40:Drivers/BSP/Components/lsm6dso16is/lsm6dso16is_reg.c ****   *
  41:Drivers/BSP/Components/lsm6dso16is/lsm6dso16is_reg.c ****   * @param  ctx   communication interface handler.(ptr)
  42:Drivers/BSP/Components/lsm6dso16is/lsm6dso16is_reg.c ****   * @param  reg   first register address to read.
  43:Drivers/BSP/Components/lsm6dso16is/lsm6dso16is_reg.c ****   * @param  data  buffer for data read.(ptr)
  44:Drivers/BSP/Components/lsm6dso16is/lsm6dso16is_reg.c ****   * @param  len   number of consecutive register to read.
  45:Drivers/BSP/Components/lsm6dso16is/lsm6dso16is_reg.c ****   * @retval       interface status (MANDATORY: return 0 -> no Error)
  46:Drivers/BSP/Components/lsm6dso16is/lsm6dso16is_reg.c ****   *
  47:Drivers/BSP/Components/lsm6dso16is/lsm6dso16is_reg.c ****   */
  48:Drivers/BSP/Components/lsm6dso16is/lsm6dso16is_reg.c **** int32_t __weak lsm6dso16is_read_reg(const stmdev_ctx_t *ctx, uint8_t reg,
  49:Drivers/BSP/Components/lsm6dso16is/lsm6dso16is_reg.c ****                                     uint8_t *data,
  50:Drivers/BSP/Components/lsm6dso16is/lsm6dso16is_reg.c ****                                     uint16_t len)
  51:Drivers/BSP/Components/lsm6dso16is/lsm6dso16is_reg.c **** {
  30              		.loc 1 51 1 view -0
  31              		.cfi_startproc
  32              		@ args = 0, pretend = 0, frame = 0
  33              		@ frame_needed = 0, uses_anonymous_args = 0
  52:Drivers/BSP/Components/lsm6dso16is/lsm6dso16is_reg.c ****   int32_t ret;
  34              		.loc 1 52 3 view .LVU1
  53:Drivers/BSP/Components/lsm6dso16is/lsm6dso16is_reg.c **** 
  54:Drivers/BSP/Components/lsm6dso16is/lsm6dso16is_reg.c ****   if (ctx == NULL)
  35              		.loc 1 54 3 view .LVU2
  36              		.loc 1 54 6 is_stmt 0 view .LVU3
  37 0000 20B1     		cbz	r0, .L3
  51:Drivers/BSP/Components/lsm6dso16is/lsm6dso16is_reg.c ****   int32_t ret;
  38              		.loc 1 51 1 view .LVU4
  39 0002 10B5     		push	{r4, lr}
  40              		.cfi_def_cfa_offset 8
  41              		.cfi_offset 4, -8
  42              		.cfi_offset 14, -4
  55:Drivers/BSP/Components/lsm6dso16is/lsm6dso16is_reg.c ****   {
  56:Drivers/BSP/Components/lsm6dso16is/lsm6dso16is_reg.c ****     return -1;
  57:Drivers/BSP/Components/lsm6dso16is/lsm6dso16is_reg.c ****   }
  58:Drivers/BSP/Components/lsm6dso16is/lsm6dso16is_reg.c **** 
  59:Drivers/BSP/Components/lsm6dso16is/lsm6dso16is_reg.c ****   ret = ctx->read_reg(ctx->handle, reg, data, len);
  43              		.loc 1 59 3 is_stmt 1 view .LVU5
  44              		.loc 1 59 12 is_stmt 0 view .LVU6
  45 0004 4468     		ldr	r4, [r0, #4]
  46              		.loc 1 59 9 view .LVU7
  47 0006 C068     		ldr	r0, [r0, #12]
  48              	.LVL1:
  49              		.loc 1 59 9 view .LVU8
  50 0008 A047     		blx	r4
  51              	.LVL2:
  60:Drivers/BSP/Components/lsm6dso16is/lsm6dso16is_reg.c **** 
  61:Drivers/BSP/Components/lsm6dso16is/lsm6dso16is_reg.c ****   return ret;
  52              		.loc 1 61 3 is_stmt 1 view .LVU9
  62:Drivers/BSP/Components/lsm6dso16is/lsm6dso16is_reg.c **** }
ARM GAS  C:\Users\Nathan\AppData\Local\Temp\ccznllVY.s 			page 3


  53              		.loc 1 62 1 is_stmt 0 view .LVU10
  54 000a 10BD     		pop	{r4, pc}
  55              	.LVL3:
  56              	.L3:
  57              		.cfi_def_cfa_offset 0
  58              		.cfi_restore 4
  59              		.cfi_restore 14
  56:Drivers/BSP/Components/lsm6dso16is/lsm6dso16is_reg.c ****   }
  60              		.loc 1 56 12 view .LVU11
  61 000c 4FF0FF30 		mov	r0, #-1
  62              	.LVL4:
  63              		.loc 1 62 1 view .LVU12
  64 0010 7047     		bx	lr
  65              		.cfi_endproc
  66              	.LFE0:
  68              		.section	.text.lsm6dso16is_write_reg,"ax",%progbits
  69              		.align	1
  70              		.weak	lsm6dso16is_write_reg
  71              		.syntax unified
  72              		.thumb
  73              		.thumb_func
  75              	lsm6dso16is_write_reg:
  76              	.LVL5:
  77              	.LFB1:
  63:Drivers/BSP/Components/lsm6dso16is/lsm6dso16is_reg.c **** 
  64:Drivers/BSP/Components/lsm6dso16is/lsm6dso16is_reg.c **** /**
  65:Drivers/BSP/Components/lsm6dso16is/lsm6dso16is_reg.c ****   * @brief  Write generic device register
  66:Drivers/BSP/Components/lsm6dso16is/lsm6dso16is_reg.c ****   *
  67:Drivers/BSP/Components/lsm6dso16is/lsm6dso16is_reg.c ****   * @param  ctx   communication interface handler.(ptr)
  68:Drivers/BSP/Components/lsm6dso16is/lsm6dso16is_reg.c ****   * @param  reg   first register address to write.
  69:Drivers/BSP/Components/lsm6dso16is/lsm6dso16is_reg.c ****   * @param  data  the buffer contains data to be written.(ptr)
  70:Drivers/BSP/Components/lsm6dso16is/lsm6dso16is_reg.c ****   * @param  len   number of consecutive register to write.
  71:Drivers/BSP/Components/lsm6dso16is/lsm6dso16is_reg.c ****   * @retval       interface status (MANDATORY: return 0 -> no Error)
  72:Drivers/BSP/Components/lsm6dso16is/lsm6dso16is_reg.c ****   *
  73:Drivers/BSP/Components/lsm6dso16is/lsm6dso16is_reg.c ****   */
  74:Drivers/BSP/Components/lsm6dso16is/lsm6dso16is_reg.c **** int32_t __weak lsm6dso16is_write_reg(const stmdev_ctx_t *ctx, uint8_t reg,
  75:Drivers/BSP/Components/lsm6dso16is/lsm6dso16is_reg.c ****                                      uint8_t *data,
  76:Drivers/BSP/Components/lsm6dso16is/lsm6dso16is_reg.c ****                                      uint16_t len)
  77:Drivers/BSP/Components/lsm6dso16is/lsm6dso16is_reg.c **** {
  78              		.loc 1 77 1 is_stmt 1 view -0
  79              		.cfi_startproc
  80              		@ args = 0, pretend = 0, frame = 0
  81              		@ frame_needed = 0, uses_anonymous_args = 0
  78:Drivers/BSP/Components/lsm6dso16is/lsm6dso16is_reg.c ****   int32_t ret;
  82              		.loc 1 78 3 view .LVU14
  79:Drivers/BSP/Components/lsm6dso16is/lsm6dso16is_reg.c **** 
  80:Drivers/BSP/Components/lsm6dso16is/lsm6dso16is_reg.c ****   if (ctx == NULL)
  83              		.loc 1 80 3 view .LVU15
  84              		.loc 1 80 6 is_stmt 0 view .LVU16
  85 0000 20B1     		cbz	r0, .L10
  77:Drivers/BSP/Components/lsm6dso16is/lsm6dso16is_reg.c ****   int32_t ret;
  86              		.loc 1 77 1 view .LVU17
  87 0002 10B5     		push	{r4, lr}
  88              		.cfi_def_cfa_offset 8
  89              		.cfi_offset 4, -8
  90              		.cfi_offset 14, -4
  81:Drivers/BSP/Components/lsm6dso16is/lsm6dso16is_reg.c ****   {
ARM GAS  C:\Users\Nathan\AppData\Local\Temp\ccznllVY.s 			page 4


  82:Drivers/BSP/Components/lsm6dso16is/lsm6dso16is_reg.c ****     return -1;
  83:Drivers/BSP/Components/lsm6dso16is/lsm6dso16is_reg.c ****   }
  84:Drivers/BSP/Components/lsm6dso16is/lsm6dso16is_reg.c **** 
  85:Drivers/BSP/Components/lsm6dso16is/lsm6dso16is_reg.c ****   ret = ctx->write_reg(ctx->handle, reg, data, len);
  91              		.loc 1 85 3 is_stmt 1 view .LVU18
  92              		.loc 1 85 12 is_stmt 0 view .LVU19
  93 0004 0468     		ldr	r4, [r0]
  94              		.loc 1 85 9 view .LVU20
  95 0006 C068     		ldr	r0, [r0, #12]
  96              	.LVL6:
  97              		.loc 1 85 9 view .LVU21
  98 0008 A047     		blx	r4
  99              	.LVL7:
  86:Drivers/BSP/Components/lsm6dso16is/lsm6dso16is_reg.c **** 
  87:Drivers/BSP/Components/lsm6dso16is/lsm6dso16is_reg.c ****   return ret;
 100              		.loc 1 87 3 is_stmt 1 view .LVU22
  88:Drivers/BSP/Components/lsm6dso16is/lsm6dso16is_reg.c **** }
 101              		.loc 1 88 1 is_stmt 0 view .LVU23
 102 000a 10BD     		pop	{r4, pc}
 103              	.LVL8:
 104              	.L10:
 105              		.cfi_def_cfa_offset 0
 106              		.cfi_restore 4
 107              		.cfi_restore 14
  82:Drivers/BSP/Components/lsm6dso16is/lsm6dso16is_reg.c ****   }
 108              		.loc 1 82 12 view .LVU24
 109 000c 4FF0FF30 		mov	r0, #-1
 110              	.LVL9:
 111              		.loc 1 88 1 view .LVU25
 112 0010 7047     		bx	lr
 113              		.cfi_endproc
 114              	.LFE1:
 116              		.section	.text.lsm6dso16is_ispu_sel_memory_addr,"ax",%progbits
 117              		.align	1
 118              		.syntax unified
 119              		.thumb
 120              		.thumb_func
 122              	lsm6dso16is_ispu_sel_memory_addr:
 123              	.LVL10:
 124              	.LFB105:
  89:Drivers/BSP/Components/lsm6dso16is/lsm6dso16is_reg.c **** 
  90:Drivers/BSP/Components/lsm6dso16is/lsm6dso16is_reg.c **** /**
  91:Drivers/BSP/Components/lsm6dso16is/lsm6dso16is_reg.c ****   * @}
  92:Drivers/BSP/Components/lsm6dso16is/lsm6dso16is_reg.c ****   *
  93:Drivers/BSP/Components/lsm6dso16is/lsm6dso16is_reg.c ****   */
  94:Drivers/BSP/Components/lsm6dso16is/lsm6dso16is_reg.c **** 
  95:Drivers/BSP/Components/lsm6dso16is/lsm6dso16is_reg.c **** /**
  96:Drivers/BSP/Components/lsm6dso16is/lsm6dso16is_reg.c ****   * @defgroup    LSM6DSO16IS_Sensitivity
  97:Drivers/BSP/Components/lsm6dso16is/lsm6dso16is_reg.c ****   * @brief       These functions convert raw-data into engineering units.
  98:Drivers/BSP/Components/lsm6dso16is/lsm6dso16is_reg.c ****   * @{
  99:Drivers/BSP/Components/lsm6dso16is/lsm6dso16is_reg.c ****   *
 100:Drivers/BSP/Components/lsm6dso16is/lsm6dso16is_reg.c ****   */
 101:Drivers/BSP/Components/lsm6dso16is/lsm6dso16is_reg.c **** 
 102:Drivers/BSP/Components/lsm6dso16is/lsm6dso16is_reg.c **** float_t lsm6dso16is_from_fs2g_to_mg(int16_t lsb)
 103:Drivers/BSP/Components/lsm6dso16is/lsm6dso16is_reg.c **** {
 104:Drivers/BSP/Components/lsm6dso16is/lsm6dso16is_reg.c ****   return ((float_t)lsb * 0.061f);
 105:Drivers/BSP/Components/lsm6dso16is/lsm6dso16is_reg.c **** }
ARM GAS  C:\Users\Nathan\AppData\Local\Temp\ccznllVY.s 			page 5


 106:Drivers/BSP/Components/lsm6dso16is/lsm6dso16is_reg.c **** 
 107:Drivers/BSP/Components/lsm6dso16is/lsm6dso16is_reg.c **** float_t lsm6dso16is_from_fs4g_to_mg(int16_t lsb)
 108:Drivers/BSP/Components/lsm6dso16is/lsm6dso16is_reg.c **** {
 109:Drivers/BSP/Components/lsm6dso16is/lsm6dso16is_reg.c ****   return ((float_t)lsb * 0.122f);
 110:Drivers/BSP/Components/lsm6dso16is/lsm6dso16is_reg.c **** }
 111:Drivers/BSP/Components/lsm6dso16is/lsm6dso16is_reg.c **** 
 112:Drivers/BSP/Components/lsm6dso16is/lsm6dso16is_reg.c **** float_t lsm6dso16is_from_fs8g_to_mg(int16_t lsb)
 113:Drivers/BSP/Components/lsm6dso16is/lsm6dso16is_reg.c **** {
 114:Drivers/BSP/Components/lsm6dso16is/lsm6dso16is_reg.c ****   return ((float_t)lsb * 0.244f);
 115:Drivers/BSP/Components/lsm6dso16is/lsm6dso16is_reg.c **** }
 116:Drivers/BSP/Components/lsm6dso16is/lsm6dso16is_reg.c **** 
 117:Drivers/BSP/Components/lsm6dso16is/lsm6dso16is_reg.c **** float_t lsm6dso16is_from_fs16g_to_mg(int16_t lsb)
 118:Drivers/BSP/Components/lsm6dso16is/lsm6dso16is_reg.c **** {
 119:Drivers/BSP/Components/lsm6dso16is/lsm6dso16is_reg.c ****   return ((float_t)lsb * 0.488f);
 120:Drivers/BSP/Components/lsm6dso16is/lsm6dso16is_reg.c **** }
 121:Drivers/BSP/Components/lsm6dso16is/lsm6dso16is_reg.c **** 
 122:Drivers/BSP/Components/lsm6dso16is/lsm6dso16is_reg.c **** float_t lsm6dso16is_from_fs125dps_to_mdps(int16_t lsb)
 123:Drivers/BSP/Components/lsm6dso16is/lsm6dso16is_reg.c **** {
 124:Drivers/BSP/Components/lsm6dso16is/lsm6dso16is_reg.c ****   return ((float_t)lsb * 4.375f);
 125:Drivers/BSP/Components/lsm6dso16is/lsm6dso16is_reg.c **** }
 126:Drivers/BSP/Components/lsm6dso16is/lsm6dso16is_reg.c **** 
 127:Drivers/BSP/Components/lsm6dso16is/lsm6dso16is_reg.c **** float_t lsm6dso16is_from_fs250dps_to_mdps(int16_t lsb)
 128:Drivers/BSP/Components/lsm6dso16is/lsm6dso16is_reg.c **** {
 129:Drivers/BSP/Components/lsm6dso16is/lsm6dso16is_reg.c ****   return ((float_t)lsb * 8.75f);
 130:Drivers/BSP/Components/lsm6dso16is/lsm6dso16is_reg.c **** }
 131:Drivers/BSP/Components/lsm6dso16is/lsm6dso16is_reg.c **** 
 132:Drivers/BSP/Components/lsm6dso16is/lsm6dso16is_reg.c **** float_t lsm6dso16is_from_fs500dps_to_mdps(int16_t lsb)
 133:Drivers/BSP/Components/lsm6dso16is/lsm6dso16is_reg.c **** {
 134:Drivers/BSP/Components/lsm6dso16is/lsm6dso16is_reg.c ****   return ((float_t)lsb * 17.50f);
 135:Drivers/BSP/Components/lsm6dso16is/lsm6dso16is_reg.c **** }
 136:Drivers/BSP/Components/lsm6dso16is/lsm6dso16is_reg.c **** 
 137:Drivers/BSP/Components/lsm6dso16is/lsm6dso16is_reg.c **** float_t lsm6dso16is_from_fs1000dps_to_mdps(int16_t lsb)
 138:Drivers/BSP/Components/lsm6dso16is/lsm6dso16is_reg.c **** {
 139:Drivers/BSP/Components/lsm6dso16is/lsm6dso16is_reg.c ****   return ((float_t)lsb * 35.0f);
 140:Drivers/BSP/Components/lsm6dso16is/lsm6dso16is_reg.c **** }
 141:Drivers/BSP/Components/lsm6dso16is/lsm6dso16is_reg.c **** 
 142:Drivers/BSP/Components/lsm6dso16is/lsm6dso16is_reg.c **** float_t lsm6dso16is_from_fs2000dps_to_mdps(int16_t lsb)
 143:Drivers/BSP/Components/lsm6dso16is/lsm6dso16is_reg.c **** {
 144:Drivers/BSP/Components/lsm6dso16is/lsm6dso16is_reg.c ****   return ((float_t)lsb * 70.0f);
 145:Drivers/BSP/Components/lsm6dso16is/lsm6dso16is_reg.c **** }
 146:Drivers/BSP/Components/lsm6dso16is/lsm6dso16is_reg.c **** 
 147:Drivers/BSP/Components/lsm6dso16is/lsm6dso16is_reg.c **** float_t lsm6dso16is_from_lsb_to_celsius(int16_t lsb)
 148:Drivers/BSP/Components/lsm6dso16is/lsm6dso16is_reg.c **** {
 149:Drivers/BSP/Components/lsm6dso16is/lsm6dso16is_reg.c ****   return (((float_t)lsb / 256.0f) + 25.0f);
 150:Drivers/BSP/Components/lsm6dso16is/lsm6dso16is_reg.c **** }
 151:Drivers/BSP/Components/lsm6dso16is/lsm6dso16is_reg.c **** 
 152:Drivers/BSP/Components/lsm6dso16is/lsm6dso16is_reg.c **** /**
 153:Drivers/BSP/Components/lsm6dso16is/lsm6dso16is_reg.c ****   * @defgroup Common
 154:Drivers/BSP/Components/lsm6dso16is/lsm6dso16is_reg.c ****   * @brief    Common
 155:Drivers/BSP/Components/lsm6dso16is/lsm6dso16is_reg.c ****   * @{/
 156:Drivers/BSP/Components/lsm6dso16is/lsm6dso16is_reg.c ****   *
 157:Drivers/BSP/Components/lsm6dso16is/lsm6dso16is_reg.c ****   */
 158:Drivers/BSP/Components/lsm6dso16is/lsm6dso16is_reg.c **** 
 159:Drivers/BSP/Components/lsm6dso16is/lsm6dso16is_reg.c **** /**
 160:Drivers/BSP/Components/lsm6dso16is/lsm6dso16is_reg.c ****   * @brief  Difference in percentage of the effective ODR (and timestamp rate)
 161:Drivers/BSP/Components/lsm6dso16is/lsm6dso16is_reg.c ****   *         with respect to the typical.[set]
 162:Drivers/BSP/Components/lsm6dso16is/lsm6dso16is_reg.c ****   *         Step:  0.15%. 8-bit format, 2's complement.
ARM GAS  C:\Users\Nathan\AppData\Local\Temp\ccznllVY.s 			page 6


 163:Drivers/BSP/Components/lsm6dso16is/lsm6dso16is_reg.c ****   *
 164:Drivers/BSP/Components/lsm6dso16is/lsm6dso16is_reg.c ****   * @param  ctx    Read / write interface definitions.(ptr)
 165:Drivers/BSP/Components/lsm6dso16is/lsm6dso16is_reg.c ****   * @param  val    Change the values of freq_fine in reg INTERNAL_FREQ_FINE
 166:Drivers/BSP/Components/lsm6dso16is/lsm6dso16is_reg.c ****   * @retval        Interface status (MANDATORY: return 0 -> no Error).
 167:Drivers/BSP/Components/lsm6dso16is/lsm6dso16is_reg.c ****   *
 168:Drivers/BSP/Components/lsm6dso16is/lsm6dso16is_reg.c ****   */
 169:Drivers/BSP/Components/lsm6dso16is/lsm6dso16is_reg.c **** int32_t lsm6dso16is_odr_cal_reg_set(const stmdev_ctx_t *ctx, uint8_t val)
 170:Drivers/BSP/Components/lsm6dso16is/lsm6dso16is_reg.c **** {
 171:Drivers/BSP/Components/lsm6dso16is/lsm6dso16is_reg.c ****   lsm6dso16is_internal_freq_fine_t internal_freq_fine;
 172:Drivers/BSP/Components/lsm6dso16is/lsm6dso16is_reg.c ****   int32_t ret;
 173:Drivers/BSP/Components/lsm6dso16is/lsm6dso16is_reg.c **** 
 174:Drivers/BSP/Components/lsm6dso16is/lsm6dso16is_reg.c ****   ret = lsm6dso16is_read_reg(ctx, LSM6DSO16IS_INTERNAL_FREQ_FINE,
 175:Drivers/BSP/Components/lsm6dso16is/lsm6dso16is_reg.c ****                              (uint8_t *)&internal_freq_fine, 1);
 176:Drivers/BSP/Components/lsm6dso16is/lsm6dso16is_reg.c **** 
 177:Drivers/BSP/Components/lsm6dso16is/lsm6dso16is_reg.c ****   if (ret == 0)
 178:Drivers/BSP/Components/lsm6dso16is/lsm6dso16is_reg.c ****   {
 179:Drivers/BSP/Components/lsm6dso16is/lsm6dso16is_reg.c ****     internal_freq_fine.freq_fine = (uint8_t)val;
 180:Drivers/BSP/Components/lsm6dso16is/lsm6dso16is_reg.c ****     ret = lsm6dso16is_write_reg(ctx, LSM6DSO16IS_INTERNAL_FREQ_FINE,
 181:Drivers/BSP/Components/lsm6dso16is/lsm6dso16is_reg.c ****                                 (uint8_t *)&internal_freq_fine, 1);
 182:Drivers/BSP/Components/lsm6dso16is/lsm6dso16is_reg.c ****   }
 183:Drivers/BSP/Components/lsm6dso16is/lsm6dso16is_reg.c **** 
 184:Drivers/BSP/Components/lsm6dso16is/lsm6dso16is_reg.c ****   return ret;
 185:Drivers/BSP/Components/lsm6dso16is/lsm6dso16is_reg.c **** }
 186:Drivers/BSP/Components/lsm6dso16is/lsm6dso16is_reg.c **** 
 187:Drivers/BSP/Components/lsm6dso16is/lsm6dso16is_reg.c **** /**
 188:Drivers/BSP/Components/lsm6dso16is/lsm6dso16is_reg.c ****   * @brief  Difference in percentage of the effective ODR (and timestamp rate)
 189:Drivers/BSP/Components/lsm6dso16is/lsm6dso16is_reg.c ****   *         with respect to the typical.[get]
 190:Drivers/BSP/Components/lsm6dso16is/lsm6dso16is_reg.c ****   *         Step:  0.15%. 8-bit format, 2's complement.
 191:Drivers/BSP/Components/lsm6dso16is/lsm6dso16is_reg.c ****   *
 192:Drivers/BSP/Components/lsm6dso16is/lsm6dso16is_reg.c ****   * @param  ctx    Read / write interface definitions.(ptr)
 193:Drivers/BSP/Components/lsm6dso16is/lsm6dso16is_reg.c ****   * @param  val    Change the values of freq_fine in reg INTERNAL_FREQ_FINE
 194:Drivers/BSP/Components/lsm6dso16is/lsm6dso16is_reg.c ****   * @retval        Interface status (MANDATORY: return 0 -> no Error).
 195:Drivers/BSP/Components/lsm6dso16is/lsm6dso16is_reg.c ****   *
 196:Drivers/BSP/Components/lsm6dso16is/lsm6dso16is_reg.c ****   */
 197:Drivers/BSP/Components/lsm6dso16is/lsm6dso16is_reg.c **** int32_t lsm6dso16is_odr_cal_reg_get(const stmdev_ctx_t *ctx, uint8_t *val)
 198:Drivers/BSP/Components/lsm6dso16is/lsm6dso16is_reg.c **** {
 199:Drivers/BSP/Components/lsm6dso16is/lsm6dso16is_reg.c ****   lsm6dso16is_internal_freq_fine_t internal_freq_fine;
 200:Drivers/BSP/Components/lsm6dso16is/lsm6dso16is_reg.c ****   int32_t ret;
 201:Drivers/BSP/Components/lsm6dso16is/lsm6dso16is_reg.c **** 
 202:Drivers/BSP/Components/lsm6dso16is/lsm6dso16is_reg.c ****   ret = lsm6dso16is_read_reg(ctx, LSM6DSO16IS_INTERNAL_FREQ_FINE,
 203:Drivers/BSP/Components/lsm6dso16is/lsm6dso16is_reg.c ****                              (uint8_t *)&internal_freq_fine, 1);
 204:Drivers/BSP/Components/lsm6dso16is/lsm6dso16is_reg.c ****   *val = internal_freq_fine.freq_fine;
 205:Drivers/BSP/Components/lsm6dso16is/lsm6dso16is_reg.c **** 
 206:Drivers/BSP/Components/lsm6dso16is/lsm6dso16is_reg.c ****   return ret;
 207:Drivers/BSP/Components/lsm6dso16is/lsm6dso16is_reg.c **** }
 208:Drivers/BSP/Components/lsm6dso16is/lsm6dso16is_reg.c **** 
 209:Drivers/BSP/Components/lsm6dso16is/lsm6dso16is_reg.c **** /**
 210:Drivers/BSP/Components/lsm6dso16is/lsm6dso16is_reg.c ****   * @brief  Change memory bank.[set]
 211:Drivers/BSP/Components/lsm6dso16is/lsm6dso16is_reg.c ****   *
 212:Drivers/BSP/Components/lsm6dso16is/lsm6dso16is_reg.c ****   * @param  ctx      read / write interface definitions
 213:Drivers/BSP/Components/lsm6dso16is/lsm6dso16is_reg.c ****   * @param  val      MAIN_MEM_BANK, EMBED_FUNC_MEM_BANK, SENSOR_HUB_MEM_BANK, ISPU_MEM_BANK,
 214:Drivers/BSP/Components/lsm6dso16is/lsm6dso16is_reg.c ****   * @retval          interface status (MANDATORY: return 0 -> no Error)
 215:Drivers/BSP/Components/lsm6dso16is/lsm6dso16is_reg.c ****   *
 216:Drivers/BSP/Components/lsm6dso16is/lsm6dso16is_reg.c ****   */
 217:Drivers/BSP/Components/lsm6dso16is/lsm6dso16is_reg.c **** int32_t lsm6dso16is_mem_bank_set(const stmdev_ctx_t *ctx, lsm6dso16is_mem_bank_t val)
 218:Drivers/BSP/Components/lsm6dso16is/lsm6dso16is_reg.c **** {
 219:Drivers/BSP/Components/lsm6dso16is/lsm6dso16is_reg.c ****   lsm6dso16is_func_cfg_access_t func_cfg_access = {0x0};
ARM GAS  C:\Users\Nathan\AppData\Local\Temp\ccznllVY.s 			page 7


 220:Drivers/BSP/Components/lsm6dso16is/lsm6dso16is_reg.c ****   int32_t ret;
 221:Drivers/BSP/Components/lsm6dso16is/lsm6dso16is_reg.c **** 
 222:Drivers/BSP/Components/lsm6dso16is/lsm6dso16is_reg.c ****   /* no need to read it first as the only other field is a ispu reset bit */
 223:Drivers/BSP/Components/lsm6dso16is/lsm6dso16is_reg.c ****   func_cfg_access.shub_reg_access = (val == LSM6DSO16IS_SENSOR_HUB_MEM_BANK) ? 0x1U : 0x0U;
 224:Drivers/BSP/Components/lsm6dso16is/lsm6dso16is_reg.c ****   func_cfg_access.ispu_reg_access = (val == LSM6DSO16IS_ISPU_MEM_BANK) ? 0x1U : 0x0U;
 225:Drivers/BSP/Components/lsm6dso16is/lsm6dso16is_reg.c ****   ret = lsm6dso16is_write_reg(ctx, LSM6DSO16IS_FUNC_CFG_ACCESS, (uint8_t *)&func_cfg_access, 1);
 226:Drivers/BSP/Components/lsm6dso16is/lsm6dso16is_reg.c **** 
 227:Drivers/BSP/Components/lsm6dso16is/lsm6dso16is_reg.c ****   return ret;
 228:Drivers/BSP/Components/lsm6dso16is/lsm6dso16is_reg.c **** }
 229:Drivers/BSP/Components/lsm6dso16is/lsm6dso16is_reg.c **** 
 230:Drivers/BSP/Components/lsm6dso16is/lsm6dso16is_reg.c **** /**
 231:Drivers/BSP/Components/lsm6dso16is/lsm6dso16is_reg.c ****   * @brief  Change memory bank.[get]
 232:Drivers/BSP/Components/lsm6dso16is/lsm6dso16is_reg.c ****   *
 233:Drivers/BSP/Components/lsm6dso16is/lsm6dso16is_reg.c ****   * @param  ctx      read / write interface definitions
 234:Drivers/BSP/Components/lsm6dso16is/lsm6dso16is_reg.c ****   * @param  val      MAIN_MEM_BANK, EMBED_FUNC_MEM_BANK, SENSOR_HUB_MEM_BANK, ISPU_MEM_BANK,
 235:Drivers/BSP/Components/lsm6dso16is/lsm6dso16is_reg.c ****   * @retval          interface status (MANDATORY: return 0 -> no Error)
 236:Drivers/BSP/Components/lsm6dso16is/lsm6dso16is_reg.c ****   *
 237:Drivers/BSP/Components/lsm6dso16is/lsm6dso16is_reg.c ****   */
 238:Drivers/BSP/Components/lsm6dso16is/lsm6dso16is_reg.c **** int32_t lsm6dso16is_mem_bank_get(const stmdev_ctx_t *ctx, lsm6dso16is_mem_bank_t *val)
 239:Drivers/BSP/Components/lsm6dso16is/lsm6dso16is_reg.c **** {
 240:Drivers/BSP/Components/lsm6dso16is/lsm6dso16is_reg.c ****   lsm6dso16is_func_cfg_access_t func_cfg_access;
 241:Drivers/BSP/Components/lsm6dso16is/lsm6dso16is_reg.c ****   int32_t ret;
 242:Drivers/BSP/Components/lsm6dso16is/lsm6dso16is_reg.c **** 
 243:Drivers/BSP/Components/lsm6dso16is/lsm6dso16is_reg.c ****   ret = lsm6dso16is_read_reg(ctx, LSM6DSO16IS_FUNC_CFG_ACCESS, (uint8_t *)&func_cfg_access, 1);
 244:Drivers/BSP/Components/lsm6dso16is/lsm6dso16is_reg.c **** 
 245:Drivers/BSP/Components/lsm6dso16is/lsm6dso16is_reg.c ****   if (func_cfg_access.shub_reg_access == 1U)
 246:Drivers/BSP/Components/lsm6dso16is/lsm6dso16is_reg.c ****   {
 247:Drivers/BSP/Components/lsm6dso16is/lsm6dso16is_reg.c ****     *val = LSM6DSO16IS_SENSOR_HUB_MEM_BANK;
 248:Drivers/BSP/Components/lsm6dso16is/lsm6dso16is_reg.c ****   }
 249:Drivers/BSP/Components/lsm6dso16is/lsm6dso16is_reg.c ****   else if (func_cfg_access.ispu_reg_access == 1U)
 250:Drivers/BSP/Components/lsm6dso16is/lsm6dso16is_reg.c ****   {
 251:Drivers/BSP/Components/lsm6dso16is/lsm6dso16is_reg.c ****     *val = LSM6DSO16IS_ISPU_MEM_BANK;
 252:Drivers/BSP/Components/lsm6dso16is/lsm6dso16is_reg.c ****   }
 253:Drivers/BSP/Components/lsm6dso16is/lsm6dso16is_reg.c ****   else
 254:Drivers/BSP/Components/lsm6dso16is/lsm6dso16is_reg.c ****   {
 255:Drivers/BSP/Components/lsm6dso16is/lsm6dso16is_reg.c ****     *val = LSM6DSO16IS_MAIN_MEM_BANK;
 256:Drivers/BSP/Components/lsm6dso16is/lsm6dso16is_reg.c ****   }
 257:Drivers/BSP/Components/lsm6dso16is/lsm6dso16is_reg.c **** 
 258:Drivers/BSP/Components/lsm6dso16is/lsm6dso16is_reg.c ****   return ret;
 259:Drivers/BSP/Components/lsm6dso16is/lsm6dso16is_reg.c **** }
 260:Drivers/BSP/Components/lsm6dso16is/lsm6dso16is_reg.c **** 
 261:Drivers/BSP/Components/lsm6dso16is/lsm6dso16is_reg.c **** /**
 262:Drivers/BSP/Components/lsm6dso16is/lsm6dso16is_reg.c ****   * @brief  Enables pulsed data-ready mode (~75 us).[set]
 263:Drivers/BSP/Components/lsm6dso16is/lsm6dso16is_reg.c ****   *
 264:Drivers/BSP/Components/lsm6dso16is/lsm6dso16is_reg.c ****   * @param  ctx      read / write interface definitions
 265:Drivers/BSP/Components/lsm6dso16is/lsm6dso16is_reg.c ****   * @param  val      DRDY_LATCHED, DRDY_PULSED,
 266:Drivers/BSP/Components/lsm6dso16is/lsm6dso16is_reg.c ****   * @retval          interface status (MANDATORY: return 0 -> no Error)
 267:Drivers/BSP/Components/lsm6dso16is/lsm6dso16is_reg.c ****   *
 268:Drivers/BSP/Components/lsm6dso16is/lsm6dso16is_reg.c ****   */
 269:Drivers/BSP/Components/lsm6dso16is/lsm6dso16is_reg.c **** int32_t lsm6dso16is_data_ready_mode_set(const stmdev_ctx_t *ctx,
 270:Drivers/BSP/Components/lsm6dso16is/lsm6dso16is_reg.c ****                                         lsm6dso16is_data_ready_mode_t val)
 271:Drivers/BSP/Components/lsm6dso16is/lsm6dso16is_reg.c **** {
 272:Drivers/BSP/Components/lsm6dso16is/lsm6dso16is_reg.c ****   lsm6dso16is_drdy_pulsed_reg_t drdy_pulsed_reg;
 273:Drivers/BSP/Components/lsm6dso16is/lsm6dso16is_reg.c ****   int32_t ret;
 274:Drivers/BSP/Components/lsm6dso16is/lsm6dso16is_reg.c **** 
 275:Drivers/BSP/Components/lsm6dso16is/lsm6dso16is_reg.c ****   ret = lsm6dso16is_read_reg(ctx, LSM6DSO16IS_DRDY_PULSED_REG, (uint8_t *)&drdy_pulsed_reg, 1);
 276:Drivers/BSP/Components/lsm6dso16is/lsm6dso16is_reg.c **** 
ARM GAS  C:\Users\Nathan\AppData\Local\Temp\ccznllVY.s 			page 8


 277:Drivers/BSP/Components/lsm6dso16is/lsm6dso16is_reg.c ****   if (ret == 0)
 278:Drivers/BSP/Components/lsm6dso16is/lsm6dso16is_reg.c ****   {
 279:Drivers/BSP/Components/lsm6dso16is/lsm6dso16is_reg.c ****     drdy_pulsed_reg.drdy_pulsed = ((uint8_t)val & 0x1U);
 280:Drivers/BSP/Components/lsm6dso16is/lsm6dso16is_reg.c ****     ret = lsm6dso16is_write_reg(ctx, LSM6DSO16IS_DRDY_PULSED_REG, (uint8_t *)&drdy_pulsed_reg, 1);
 281:Drivers/BSP/Components/lsm6dso16is/lsm6dso16is_reg.c ****   }
 282:Drivers/BSP/Components/lsm6dso16is/lsm6dso16is_reg.c **** 
 283:Drivers/BSP/Components/lsm6dso16is/lsm6dso16is_reg.c ****   return ret;
 284:Drivers/BSP/Components/lsm6dso16is/lsm6dso16is_reg.c **** }
 285:Drivers/BSP/Components/lsm6dso16is/lsm6dso16is_reg.c **** 
 286:Drivers/BSP/Components/lsm6dso16is/lsm6dso16is_reg.c **** /**
 287:Drivers/BSP/Components/lsm6dso16is/lsm6dso16is_reg.c ****   * @brief  Enables pulsed data-ready mode (~75 us).[get]
 288:Drivers/BSP/Components/lsm6dso16is/lsm6dso16is_reg.c ****   *
 289:Drivers/BSP/Components/lsm6dso16is/lsm6dso16is_reg.c ****   * @param  ctx      read / write interface definitions
 290:Drivers/BSP/Components/lsm6dso16is/lsm6dso16is_reg.c ****   * @param  val      DRDY_LATCHED, DRDY_PULSED,
 291:Drivers/BSP/Components/lsm6dso16is/lsm6dso16is_reg.c ****   * @retval          interface status (MANDATORY: return 0 -> no Error)
 292:Drivers/BSP/Components/lsm6dso16is/lsm6dso16is_reg.c ****   *
 293:Drivers/BSP/Components/lsm6dso16is/lsm6dso16is_reg.c ****   */
 294:Drivers/BSP/Components/lsm6dso16is/lsm6dso16is_reg.c **** int32_t lsm6dso16is_data_ready_mode_get(const stmdev_ctx_t *ctx,
 295:Drivers/BSP/Components/lsm6dso16is/lsm6dso16is_reg.c ****                                         lsm6dso16is_data_ready_mode_t *val)
 296:Drivers/BSP/Components/lsm6dso16is/lsm6dso16is_reg.c **** {
 297:Drivers/BSP/Components/lsm6dso16is/lsm6dso16is_reg.c ****   lsm6dso16is_drdy_pulsed_reg_t drdy_pulsed_reg;
 298:Drivers/BSP/Components/lsm6dso16is/lsm6dso16is_reg.c ****   int32_t ret;
 299:Drivers/BSP/Components/lsm6dso16is/lsm6dso16is_reg.c **** 
 300:Drivers/BSP/Components/lsm6dso16is/lsm6dso16is_reg.c ****   ret = lsm6dso16is_read_reg(ctx, LSM6DSO16IS_DRDY_PULSED_REG, (uint8_t *)&drdy_pulsed_reg, 1);
 301:Drivers/BSP/Components/lsm6dso16is/lsm6dso16is_reg.c **** 
 302:Drivers/BSP/Components/lsm6dso16is/lsm6dso16is_reg.c ****   switch ((drdy_pulsed_reg.drdy_pulsed))
 303:Drivers/BSP/Components/lsm6dso16is/lsm6dso16is_reg.c ****   {
 304:Drivers/BSP/Components/lsm6dso16is/lsm6dso16is_reg.c ****     case LSM6DSO16IS_DRDY_LATCHED:
 305:Drivers/BSP/Components/lsm6dso16is/lsm6dso16is_reg.c ****       *val = LSM6DSO16IS_DRDY_LATCHED;
 306:Drivers/BSP/Components/lsm6dso16is/lsm6dso16is_reg.c ****       break;
 307:Drivers/BSP/Components/lsm6dso16is/lsm6dso16is_reg.c **** 
 308:Drivers/BSP/Components/lsm6dso16is/lsm6dso16is_reg.c ****     case LSM6DSO16IS_DRDY_PULSED:
 309:Drivers/BSP/Components/lsm6dso16is/lsm6dso16is_reg.c ****       *val = LSM6DSO16IS_DRDY_PULSED;
 310:Drivers/BSP/Components/lsm6dso16is/lsm6dso16is_reg.c ****       break;
 311:Drivers/BSP/Components/lsm6dso16is/lsm6dso16is_reg.c **** 
 312:Drivers/BSP/Components/lsm6dso16is/lsm6dso16is_reg.c ****     default:
 313:Drivers/BSP/Components/lsm6dso16is/lsm6dso16is_reg.c ****       *val = LSM6DSO16IS_DRDY_LATCHED;
 314:Drivers/BSP/Components/lsm6dso16is/lsm6dso16is_reg.c ****       break;
 315:Drivers/BSP/Components/lsm6dso16is/lsm6dso16is_reg.c ****   }
 316:Drivers/BSP/Components/lsm6dso16is/lsm6dso16is_reg.c ****   return ret;
 317:Drivers/BSP/Components/lsm6dso16is/lsm6dso16is_reg.c **** }
 318:Drivers/BSP/Components/lsm6dso16is/lsm6dso16is_reg.c **** 
 319:Drivers/BSP/Components/lsm6dso16is/lsm6dso16is_reg.c **** /**
 320:Drivers/BSP/Components/lsm6dso16is/lsm6dso16is_reg.c ****   * @brief  Device ID.[get]
 321:Drivers/BSP/Components/lsm6dso16is/lsm6dso16is_reg.c ****   *
 322:Drivers/BSP/Components/lsm6dso16is/lsm6dso16is_reg.c ****   * @param  ctx      read / write interface definitions
 323:Drivers/BSP/Components/lsm6dso16is/lsm6dso16is_reg.c ****   * @param  val      Device ID.
 324:Drivers/BSP/Components/lsm6dso16is/lsm6dso16is_reg.c ****   * @retval          interface status (MANDATORY: return 0 -> no Error)
 325:Drivers/BSP/Components/lsm6dso16is/lsm6dso16is_reg.c ****   *
 326:Drivers/BSP/Components/lsm6dso16is/lsm6dso16is_reg.c ****   */
 327:Drivers/BSP/Components/lsm6dso16is/lsm6dso16is_reg.c **** int32_t lsm6dso16is_device_id_get(const stmdev_ctx_t *ctx, uint8_t *val)
 328:Drivers/BSP/Components/lsm6dso16is/lsm6dso16is_reg.c **** {
 329:Drivers/BSP/Components/lsm6dso16is/lsm6dso16is_reg.c ****   int32_t ret;
 330:Drivers/BSP/Components/lsm6dso16is/lsm6dso16is_reg.c **** 
 331:Drivers/BSP/Components/lsm6dso16is/lsm6dso16is_reg.c ****   ret = lsm6dso16is_read_reg(ctx, LSM6DSO16IS_WHO_AM_I, (uint8_t *)val, 1);
 332:Drivers/BSP/Components/lsm6dso16is/lsm6dso16is_reg.c **** 
 333:Drivers/BSP/Components/lsm6dso16is/lsm6dso16is_reg.c ****   return ret;
ARM GAS  C:\Users\Nathan\AppData\Local\Temp\ccznllVY.s 			page 9


 334:Drivers/BSP/Components/lsm6dso16is/lsm6dso16is_reg.c **** }
 335:Drivers/BSP/Components/lsm6dso16is/lsm6dso16is_reg.c **** 
 336:Drivers/BSP/Components/lsm6dso16is/lsm6dso16is_reg.c **** /**
 337:Drivers/BSP/Components/lsm6dso16is/lsm6dso16is_reg.c ****   * @brief  Software reset. Restore the default values in user registers.[set]
 338:Drivers/BSP/Components/lsm6dso16is/lsm6dso16is_reg.c ****   *
 339:Drivers/BSP/Components/lsm6dso16is/lsm6dso16is_reg.c ****   * @param  ctx    Read / write interface definitions.(ptr)
 340:Drivers/BSP/Components/lsm6dso16is/lsm6dso16is_reg.c ****   * @retval        Interface status (MANDATORY: return 0 -> no Error).
 341:Drivers/BSP/Components/lsm6dso16is/lsm6dso16is_reg.c ****   *
 342:Drivers/BSP/Components/lsm6dso16is/lsm6dso16is_reg.c ****   */
 343:Drivers/BSP/Components/lsm6dso16is/lsm6dso16is_reg.c **** int32_t lsm6dso16is_software_reset(const stmdev_ctx_t *ctx)
 344:Drivers/BSP/Components/lsm6dso16is/lsm6dso16is_reg.c **** {
 345:Drivers/BSP/Components/lsm6dso16is/lsm6dso16is_reg.c ****   lsm6dso16is_ctrl3_c_t ctrl3_c;
 346:Drivers/BSP/Components/lsm6dso16is/lsm6dso16is_reg.c ****   int32_t ret;
 347:Drivers/BSP/Components/lsm6dso16is/lsm6dso16is_reg.c **** 
 348:Drivers/BSP/Components/lsm6dso16is/lsm6dso16is_reg.c ****   ret = lsm6dso16is_read_reg(ctx, LSM6DSO16IS_CTRL3_C, (uint8_t *)&ctrl3_c, 1);
 349:Drivers/BSP/Components/lsm6dso16is/lsm6dso16is_reg.c **** 
 350:Drivers/BSP/Components/lsm6dso16is/lsm6dso16is_reg.c ****   if (ret == 0)
 351:Drivers/BSP/Components/lsm6dso16is/lsm6dso16is_reg.c ****   {
 352:Drivers/BSP/Components/lsm6dso16is/lsm6dso16is_reg.c ****     ret += lsm6dso16is_xl_data_rate_set(ctx, LSM6DSO16IS_XL_ODR_OFF);
 353:Drivers/BSP/Components/lsm6dso16is/lsm6dso16is_reg.c ****     ret += lsm6dso16is_gy_data_rate_set(ctx, LSM6DSO16IS_GY_ODR_OFF);
 354:Drivers/BSP/Components/lsm6dso16is/lsm6dso16is_reg.c **** 
 355:Drivers/BSP/Components/lsm6dso16is/lsm6dso16is_reg.c ****     ctrl3_c.sw_reset = PROPERTY_ENABLE;
 356:Drivers/BSP/Components/lsm6dso16is/lsm6dso16is_reg.c ****     ret += lsm6dso16is_write_reg(ctx, LSM6DSO16IS_CTRL3_C, (uint8_t *)&ctrl3_c, 1);
 357:Drivers/BSP/Components/lsm6dso16is/lsm6dso16is_reg.c **** 
 358:Drivers/BSP/Components/lsm6dso16is/lsm6dso16is_reg.c ****     do
 359:Drivers/BSP/Components/lsm6dso16is/lsm6dso16is_reg.c ****     {
 360:Drivers/BSP/Components/lsm6dso16is/lsm6dso16is_reg.c ****       ret += lsm6dso16is_read_reg(ctx, LSM6DSO16IS_CTRL3_C, (uint8_t *)&ctrl3_c, 1);
 361:Drivers/BSP/Components/lsm6dso16is/lsm6dso16is_reg.c ****     } while (ret == 0 && ctrl3_c.sw_reset == PROPERTY_ENABLE);
 362:Drivers/BSP/Components/lsm6dso16is/lsm6dso16is_reg.c ****   }
 363:Drivers/BSP/Components/lsm6dso16is/lsm6dso16is_reg.c **** 
 364:Drivers/BSP/Components/lsm6dso16is/lsm6dso16is_reg.c ****   return ret;
 365:Drivers/BSP/Components/lsm6dso16is/lsm6dso16is_reg.c **** }
 366:Drivers/BSP/Components/lsm6dso16is/lsm6dso16is_reg.c **** 
 367:Drivers/BSP/Components/lsm6dso16is/lsm6dso16is_reg.c **** /**
 368:Drivers/BSP/Components/lsm6dso16is/lsm6dso16is_reg.c ****   * @brief  Reboot memory content. Reload the calibration parameters.[set]
 369:Drivers/BSP/Components/lsm6dso16is/lsm6dso16is_reg.c ****   *
 370:Drivers/BSP/Components/lsm6dso16is/lsm6dso16is_reg.c ****   * @param  ctx    Read / write interface definitions.(ptr)
 371:Drivers/BSP/Components/lsm6dso16is/lsm6dso16is_reg.c ****   * @param  val    Change the values of boot in reg CTRL_REG1
 372:Drivers/BSP/Components/lsm6dso16is/lsm6dso16is_reg.c ****   * @retval        Interface status (MANDATORY: return 0 -> no Error).
 373:Drivers/BSP/Components/lsm6dso16is/lsm6dso16is_reg.c ****   *
 374:Drivers/BSP/Components/lsm6dso16is/lsm6dso16is_reg.c ****   */
 375:Drivers/BSP/Components/lsm6dso16is/lsm6dso16is_reg.c **** int32_t lsm6dso16is_boot_set(const stmdev_ctx_t *ctx, uint8_t val)
 376:Drivers/BSP/Components/lsm6dso16is/lsm6dso16is_reg.c **** {
 377:Drivers/BSP/Components/lsm6dso16is/lsm6dso16is_reg.c ****   lsm6dso16is_ctrl3_c_t ctrl3_c;
 378:Drivers/BSP/Components/lsm6dso16is/lsm6dso16is_reg.c ****   int32_t ret;
 379:Drivers/BSP/Components/lsm6dso16is/lsm6dso16is_reg.c **** 
 380:Drivers/BSP/Components/lsm6dso16is/lsm6dso16is_reg.c ****   ret = lsm6dso16is_read_reg(ctx, LSM6DSO16IS_CTRL3_C, (uint8_t *)&ctrl3_c, 1);
 381:Drivers/BSP/Components/lsm6dso16is/lsm6dso16is_reg.c **** 
 382:Drivers/BSP/Components/lsm6dso16is/lsm6dso16is_reg.c ****   if (ret == 0)
 383:Drivers/BSP/Components/lsm6dso16is/lsm6dso16is_reg.c ****   {
 384:Drivers/BSP/Components/lsm6dso16is/lsm6dso16is_reg.c ****     ctrl3_c.boot = val;
 385:Drivers/BSP/Components/lsm6dso16is/lsm6dso16is_reg.c ****     ret = lsm6dso16is_write_reg(ctx, LSM6DSO16IS_CTRL3_C, (uint8_t *)&ctrl3_c, 1);
 386:Drivers/BSP/Components/lsm6dso16is/lsm6dso16is_reg.c ****   }
 387:Drivers/BSP/Components/lsm6dso16is/lsm6dso16is_reg.c **** 
 388:Drivers/BSP/Components/lsm6dso16is/lsm6dso16is_reg.c ****   return ret;
 389:Drivers/BSP/Components/lsm6dso16is/lsm6dso16is_reg.c **** }
 390:Drivers/BSP/Components/lsm6dso16is/lsm6dso16is_reg.c **** 
ARM GAS  C:\Users\Nathan\AppData\Local\Temp\ccznllVY.s 			page 10


 391:Drivers/BSP/Components/lsm6dso16is/lsm6dso16is_reg.c **** /**
 392:Drivers/BSP/Components/lsm6dso16is/lsm6dso16is_reg.c ****   * @brief  Reboot memory content. Reload the calibration parameters.[get]
 393:Drivers/BSP/Components/lsm6dso16is/lsm6dso16is_reg.c ****   *
 394:Drivers/BSP/Components/lsm6dso16is/lsm6dso16is_reg.c ****   * @param  ctx    Read / write interface definitions.(ptr)
 395:Drivers/BSP/Components/lsm6dso16is/lsm6dso16is_reg.c ****   * @param  val    Get the values of boot in reg CTRL_REG1.(ptr)
 396:Drivers/BSP/Components/lsm6dso16is/lsm6dso16is_reg.c ****   * @retval        Interface status (MANDATORY: return 0 -> no Error).
 397:Drivers/BSP/Components/lsm6dso16is/lsm6dso16is_reg.c ****   *
 398:Drivers/BSP/Components/lsm6dso16is/lsm6dso16is_reg.c ****   */
 399:Drivers/BSP/Components/lsm6dso16is/lsm6dso16is_reg.c **** int32_t lsm6dso16is_boot_get(const stmdev_ctx_t *ctx, uint8_t *val)
 400:Drivers/BSP/Components/lsm6dso16is/lsm6dso16is_reg.c **** {
 401:Drivers/BSP/Components/lsm6dso16is/lsm6dso16is_reg.c ****   lsm6dso16is_ctrl3_c_t ctrl3_c;
 402:Drivers/BSP/Components/lsm6dso16is/lsm6dso16is_reg.c ****   int32_t ret;
 403:Drivers/BSP/Components/lsm6dso16is/lsm6dso16is_reg.c **** 
 404:Drivers/BSP/Components/lsm6dso16is/lsm6dso16is_reg.c ****   ret = lsm6dso16is_read_reg(ctx, LSM6DSO16IS_CTRL3_C, (uint8_t *)&ctrl3_c, 1);
 405:Drivers/BSP/Components/lsm6dso16is/lsm6dso16is_reg.c ****   *val = ctrl3_c.boot;
 406:Drivers/BSP/Components/lsm6dso16is/lsm6dso16is_reg.c **** 
 407:Drivers/BSP/Components/lsm6dso16is/lsm6dso16is_reg.c ****   return ret;
 408:Drivers/BSP/Components/lsm6dso16is/lsm6dso16is_reg.c **** }
 409:Drivers/BSP/Components/lsm6dso16is/lsm6dso16is_reg.c **** 
 410:Drivers/BSP/Components/lsm6dso16is/lsm6dso16is_reg.c **** /**
 411:Drivers/BSP/Components/lsm6dso16is/lsm6dso16is_reg.c ****   * @brief  Enable disable high-performance mode[set]
 412:Drivers/BSP/Components/lsm6dso16is/lsm6dso16is_reg.c ****   *
 413:Drivers/BSP/Components/lsm6dso16is/lsm6dso16is_reg.c ****   * @param  ctx      read / write interface definitions
 414:Drivers/BSP/Components/lsm6dso16is/lsm6dso16is_reg.c ****   * @param  val      HIGH_PERFOMANCE_MODE_ENABLED, HIGH_PERFOMANCE_MODE_DISABLED,
 415:Drivers/BSP/Components/lsm6dso16is/lsm6dso16is_reg.c ****   * @retval          interface status (MANDATORY: return 0 -> no Error)
 416:Drivers/BSP/Components/lsm6dso16is/lsm6dso16is_reg.c ****   *
 417:Drivers/BSP/Components/lsm6dso16is/lsm6dso16is_reg.c ****   */
 418:Drivers/BSP/Components/lsm6dso16is/lsm6dso16is_reg.c **** int32_t lsm6dso16is_xl_hm_mode_set(const stmdev_ctx_t *ctx, lsm6dso16is_hm_mode_t val)
 419:Drivers/BSP/Components/lsm6dso16is/lsm6dso16is_reg.c **** {
 420:Drivers/BSP/Components/lsm6dso16is/lsm6dso16is_reg.c ****   lsm6dso16is_ctrl6_c_t ctrl6_c;
 421:Drivers/BSP/Components/lsm6dso16is/lsm6dso16is_reg.c ****   int32_t ret;
 422:Drivers/BSP/Components/lsm6dso16is/lsm6dso16is_reg.c **** 
 423:Drivers/BSP/Components/lsm6dso16is/lsm6dso16is_reg.c ****   ret = lsm6dso16is_read_reg(ctx, LSM6DSO16IS_CTRL6_C, (uint8_t *)&ctrl6_c, 1);
 424:Drivers/BSP/Components/lsm6dso16is/lsm6dso16is_reg.c **** 
 425:Drivers/BSP/Components/lsm6dso16is/lsm6dso16is_reg.c ****   if (ret == 0)
 426:Drivers/BSP/Components/lsm6dso16is/lsm6dso16is_reg.c ****   {
 427:Drivers/BSP/Components/lsm6dso16is/lsm6dso16is_reg.c ****     ctrl6_c.xl_hm_mode = ((uint8_t)val & 0x1U);
 428:Drivers/BSP/Components/lsm6dso16is/lsm6dso16is_reg.c ****     ret = lsm6dso16is_write_reg(ctx, LSM6DSO16IS_CTRL6_C, (uint8_t *)&ctrl6_c, 1);
 429:Drivers/BSP/Components/lsm6dso16is/lsm6dso16is_reg.c ****   }
 430:Drivers/BSP/Components/lsm6dso16is/lsm6dso16is_reg.c **** 
 431:Drivers/BSP/Components/lsm6dso16is/lsm6dso16is_reg.c ****   return ret;
 432:Drivers/BSP/Components/lsm6dso16is/lsm6dso16is_reg.c **** }
 433:Drivers/BSP/Components/lsm6dso16is/lsm6dso16is_reg.c **** 
 434:Drivers/BSP/Components/lsm6dso16is/lsm6dso16is_reg.c **** /**
 435:Drivers/BSP/Components/lsm6dso16is/lsm6dso16is_reg.c ****   * @brief  Enable disable high-performance mode[get]
 436:Drivers/BSP/Components/lsm6dso16is/lsm6dso16is_reg.c ****   *
 437:Drivers/BSP/Components/lsm6dso16is/lsm6dso16is_reg.c ****   * @param  ctx      read / write interface definitions
 438:Drivers/BSP/Components/lsm6dso16is/lsm6dso16is_reg.c ****   * @param  val      HIGH_PERFOMANCE_MODE_ENABLED, HIGH_PERFOMANCE_MODE_DISABLED,
 439:Drivers/BSP/Components/lsm6dso16is/lsm6dso16is_reg.c ****   * @retval          interface status (MANDATORY: return 0 -> no Error)
 440:Drivers/BSP/Components/lsm6dso16is/lsm6dso16is_reg.c ****   *
 441:Drivers/BSP/Components/lsm6dso16is/lsm6dso16is_reg.c ****   */
 442:Drivers/BSP/Components/lsm6dso16is/lsm6dso16is_reg.c **** int32_t lsm6dso16is_xl_hm_mode_get(const stmdev_ctx_t *ctx, lsm6dso16is_hm_mode_t *val)
 443:Drivers/BSP/Components/lsm6dso16is/lsm6dso16is_reg.c **** {
 444:Drivers/BSP/Components/lsm6dso16is/lsm6dso16is_reg.c ****   lsm6dso16is_ctrl6_c_t ctrl6_c;
 445:Drivers/BSP/Components/lsm6dso16is/lsm6dso16is_reg.c ****   int32_t ret;
 446:Drivers/BSP/Components/lsm6dso16is/lsm6dso16is_reg.c **** 
 447:Drivers/BSP/Components/lsm6dso16is/lsm6dso16is_reg.c ****   ret = lsm6dso16is_read_reg(ctx, LSM6DSO16IS_CTRL6_C, (uint8_t *)&ctrl6_c, 1);
ARM GAS  C:\Users\Nathan\AppData\Local\Temp\ccznllVY.s 			page 11


 448:Drivers/BSP/Components/lsm6dso16is/lsm6dso16is_reg.c **** 
 449:Drivers/BSP/Components/lsm6dso16is/lsm6dso16is_reg.c ****   switch ((ctrl6_c.xl_hm_mode))
 450:Drivers/BSP/Components/lsm6dso16is/lsm6dso16is_reg.c ****   {
 451:Drivers/BSP/Components/lsm6dso16is/lsm6dso16is_reg.c ****     case LSM6DSO16IS_HIGH_PERFOMANCE_MODE_ENABLED:
 452:Drivers/BSP/Components/lsm6dso16is/lsm6dso16is_reg.c ****       *val = LSM6DSO16IS_HIGH_PERFOMANCE_MODE_ENABLED;
 453:Drivers/BSP/Components/lsm6dso16is/lsm6dso16is_reg.c ****       break;
 454:Drivers/BSP/Components/lsm6dso16is/lsm6dso16is_reg.c **** 
 455:Drivers/BSP/Components/lsm6dso16is/lsm6dso16is_reg.c ****     case LSM6DSO16IS_HIGH_PERFOMANCE_MODE_DISABLED:
 456:Drivers/BSP/Components/lsm6dso16is/lsm6dso16is_reg.c ****       *val = LSM6DSO16IS_HIGH_PERFOMANCE_MODE_DISABLED;
 457:Drivers/BSP/Components/lsm6dso16is/lsm6dso16is_reg.c ****       break;
 458:Drivers/BSP/Components/lsm6dso16is/lsm6dso16is_reg.c **** 
 459:Drivers/BSP/Components/lsm6dso16is/lsm6dso16is_reg.c ****     default:
 460:Drivers/BSP/Components/lsm6dso16is/lsm6dso16is_reg.c ****       *val = LSM6DSO16IS_HIGH_PERFOMANCE_MODE_ENABLED;
 461:Drivers/BSP/Components/lsm6dso16is/lsm6dso16is_reg.c ****       break;
 462:Drivers/BSP/Components/lsm6dso16is/lsm6dso16is_reg.c ****   }
 463:Drivers/BSP/Components/lsm6dso16is/lsm6dso16is_reg.c ****   return ret;
 464:Drivers/BSP/Components/lsm6dso16is/lsm6dso16is_reg.c **** }
 465:Drivers/BSP/Components/lsm6dso16is/lsm6dso16is_reg.c **** 
 466:Drivers/BSP/Components/lsm6dso16is/lsm6dso16is_reg.c **** /**
 467:Drivers/BSP/Components/lsm6dso16is/lsm6dso16is_reg.c ****   * @brief  Accelerometer full-scale selection.[set]
 468:Drivers/BSP/Components/lsm6dso16is/lsm6dso16is_reg.c ****   *
 469:Drivers/BSP/Components/lsm6dso16is/lsm6dso16is_reg.c ****   * @param  ctx      read / write interface definitions
 470:Drivers/BSP/Components/lsm6dso16is/lsm6dso16is_reg.c ****   * @param  val      2g, 4g, 8g, 16g,
 471:Drivers/BSP/Components/lsm6dso16is/lsm6dso16is_reg.c ****   * @retval          interface status (MANDATORY: return 0 -> no Error)
 472:Drivers/BSP/Components/lsm6dso16is/lsm6dso16is_reg.c ****   *
 473:Drivers/BSP/Components/lsm6dso16is/lsm6dso16is_reg.c ****   */
 474:Drivers/BSP/Components/lsm6dso16is/lsm6dso16is_reg.c **** int32_t lsm6dso16is_xl_full_scale_set(const stmdev_ctx_t *ctx,
 475:Drivers/BSP/Components/lsm6dso16is/lsm6dso16is_reg.c ****                                       lsm6dso16is_xl_full_scale_t val)
 476:Drivers/BSP/Components/lsm6dso16is/lsm6dso16is_reg.c **** {
 477:Drivers/BSP/Components/lsm6dso16is/lsm6dso16is_reg.c ****   lsm6dso16is_ctrl1_xl_t ctrl1_xl;
 478:Drivers/BSP/Components/lsm6dso16is/lsm6dso16is_reg.c ****   int32_t ret;
 479:Drivers/BSP/Components/lsm6dso16is/lsm6dso16is_reg.c **** 
 480:Drivers/BSP/Components/lsm6dso16is/lsm6dso16is_reg.c ****   ret = lsm6dso16is_read_reg(ctx, LSM6DSO16IS_CTRL1_XL, (uint8_t *)&ctrl1_xl, 1);
 481:Drivers/BSP/Components/lsm6dso16is/lsm6dso16is_reg.c **** 
 482:Drivers/BSP/Components/lsm6dso16is/lsm6dso16is_reg.c ****   if (ret == 0)
 483:Drivers/BSP/Components/lsm6dso16is/lsm6dso16is_reg.c ****   {
 484:Drivers/BSP/Components/lsm6dso16is/lsm6dso16is_reg.c ****     ctrl1_xl.fs_xl = ((uint8_t)val & 0x3U);
 485:Drivers/BSP/Components/lsm6dso16is/lsm6dso16is_reg.c ****     ret = lsm6dso16is_write_reg(ctx, LSM6DSO16IS_CTRL1_XL, (uint8_t *)&ctrl1_xl, 1);
 486:Drivers/BSP/Components/lsm6dso16is/lsm6dso16is_reg.c ****   }
 487:Drivers/BSP/Components/lsm6dso16is/lsm6dso16is_reg.c **** 
 488:Drivers/BSP/Components/lsm6dso16is/lsm6dso16is_reg.c ****   return ret;
 489:Drivers/BSP/Components/lsm6dso16is/lsm6dso16is_reg.c **** }
 490:Drivers/BSP/Components/lsm6dso16is/lsm6dso16is_reg.c **** 
 491:Drivers/BSP/Components/lsm6dso16is/lsm6dso16is_reg.c **** /**
 492:Drivers/BSP/Components/lsm6dso16is/lsm6dso16is_reg.c ****   * @brief  Accelerometer full-scale selection.[get]
 493:Drivers/BSP/Components/lsm6dso16is/lsm6dso16is_reg.c ****   *
 494:Drivers/BSP/Components/lsm6dso16is/lsm6dso16is_reg.c ****   * @param  ctx      read / write interface definitions
 495:Drivers/BSP/Components/lsm6dso16is/lsm6dso16is_reg.c ****   * @param  val      2g, 4g, 8g, 16g,
 496:Drivers/BSP/Components/lsm6dso16is/lsm6dso16is_reg.c ****   * @retval          interface status (MANDATORY: return 0 -> no Error)
 497:Drivers/BSP/Components/lsm6dso16is/lsm6dso16is_reg.c ****   *
 498:Drivers/BSP/Components/lsm6dso16is/lsm6dso16is_reg.c ****   */
 499:Drivers/BSP/Components/lsm6dso16is/lsm6dso16is_reg.c **** int32_t lsm6dso16is_xl_full_scale_get(const stmdev_ctx_t *ctx,
 500:Drivers/BSP/Components/lsm6dso16is/lsm6dso16is_reg.c ****                                       lsm6dso16is_xl_full_scale_t *val)
 501:Drivers/BSP/Components/lsm6dso16is/lsm6dso16is_reg.c **** {
 502:Drivers/BSP/Components/lsm6dso16is/lsm6dso16is_reg.c ****   lsm6dso16is_ctrl1_xl_t ctrl1_xl;
 503:Drivers/BSP/Components/lsm6dso16is/lsm6dso16is_reg.c ****   int32_t ret;
 504:Drivers/BSP/Components/lsm6dso16is/lsm6dso16is_reg.c **** 
ARM GAS  C:\Users\Nathan\AppData\Local\Temp\ccznllVY.s 			page 12


 505:Drivers/BSP/Components/lsm6dso16is/lsm6dso16is_reg.c ****   ret = lsm6dso16is_read_reg(ctx, LSM6DSO16IS_CTRL1_XL, (uint8_t *)&ctrl1_xl, 1);
 506:Drivers/BSP/Components/lsm6dso16is/lsm6dso16is_reg.c **** 
 507:Drivers/BSP/Components/lsm6dso16is/lsm6dso16is_reg.c ****   switch ((ctrl1_xl.fs_xl))
 508:Drivers/BSP/Components/lsm6dso16is/lsm6dso16is_reg.c ****   {
 509:Drivers/BSP/Components/lsm6dso16is/lsm6dso16is_reg.c ****     case LSM6DSO16IS_2g:
 510:Drivers/BSP/Components/lsm6dso16is/lsm6dso16is_reg.c ****       *val = LSM6DSO16IS_2g;
 511:Drivers/BSP/Components/lsm6dso16is/lsm6dso16is_reg.c ****       break;
 512:Drivers/BSP/Components/lsm6dso16is/lsm6dso16is_reg.c **** 
 513:Drivers/BSP/Components/lsm6dso16is/lsm6dso16is_reg.c ****     case LSM6DSO16IS_4g:
 514:Drivers/BSP/Components/lsm6dso16is/lsm6dso16is_reg.c ****       *val = LSM6DSO16IS_4g;
 515:Drivers/BSP/Components/lsm6dso16is/lsm6dso16is_reg.c ****       break;
 516:Drivers/BSP/Components/lsm6dso16is/lsm6dso16is_reg.c **** 
 517:Drivers/BSP/Components/lsm6dso16is/lsm6dso16is_reg.c ****     case LSM6DSO16IS_8g:
 518:Drivers/BSP/Components/lsm6dso16is/lsm6dso16is_reg.c ****       *val = LSM6DSO16IS_8g;
 519:Drivers/BSP/Components/lsm6dso16is/lsm6dso16is_reg.c ****       break;
 520:Drivers/BSP/Components/lsm6dso16is/lsm6dso16is_reg.c **** 
 521:Drivers/BSP/Components/lsm6dso16is/lsm6dso16is_reg.c ****     case LSM6DSO16IS_16g:
 522:Drivers/BSP/Components/lsm6dso16is/lsm6dso16is_reg.c ****       *val = LSM6DSO16IS_16g;
 523:Drivers/BSP/Components/lsm6dso16is/lsm6dso16is_reg.c ****       break;
 524:Drivers/BSP/Components/lsm6dso16is/lsm6dso16is_reg.c **** 
 525:Drivers/BSP/Components/lsm6dso16is/lsm6dso16is_reg.c ****     default:
 526:Drivers/BSP/Components/lsm6dso16is/lsm6dso16is_reg.c ****       *val = LSM6DSO16IS_2g;
 527:Drivers/BSP/Components/lsm6dso16is/lsm6dso16is_reg.c ****       break;
 528:Drivers/BSP/Components/lsm6dso16is/lsm6dso16is_reg.c ****   }
 529:Drivers/BSP/Components/lsm6dso16is/lsm6dso16is_reg.c ****   return ret;
 530:Drivers/BSP/Components/lsm6dso16is/lsm6dso16is_reg.c **** }
 531:Drivers/BSP/Components/lsm6dso16is/lsm6dso16is_reg.c **** 
 532:Drivers/BSP/Components/lsm6dso16is/lsm6dso16is_reg.c **** /**
 533:Drivers/BSP/Components/lsm6dso16is/lsm6dso16is_reg.c ****   * @brief  Accelerometer output data rate (ODR) selection.[set]
 534:Drivers/BSP/Components/lsm6dso16is/lsm6dso16is_reg.c ****   *
 535:Drivers/BSP/Components/lsm6dso16is/lsm6dso16is_reg.c ****   * @param  ctx      read / write interface definitions
 536:Drivers/BSP/Components/lsm6dso16is/lsm6dso16is_reg.c ****   * @param  val      XL_ODR_OFF, XL_ODR_AT_1Hz875, XL_ODR_AT_7Hz5, XL_ODR_AT_15Hz, XL_ODR_AT_30Hz, 
 537:Drivers/BSP/Components/lsm6dso16is/lsm6dso16is_reg.c ****   * @retval          interface status (MANDATORY: return 0 -> no Error)
 538:Drivers/BSP/Components/lsm6dso16is/lsm6dso16is_reg.c ****   *
 539:Drivers/BSP/Components/lsm6dso16is/lsm6dso16is_reg.c ****   */
 540:Drivers/BSP/Components/lsm6dso16is/lsm6dso16is_reg.c **** int32_t lsm6dso16is_xl_data_rate_set(const stmdev_ctx_t *ctx,
 541:Drivers/BSP/Components/lsm6dso16is/lsm6dso16is_reg.c ****                                      lsm6dso16is_xl_data_rate_t val)
 542:Drivers/BSP/Components/lsm6dso16is/lsm6dso16is_reg.c **** {
 543:Drivers/BSP/Components/lsm6dso16is/lsm6dso16is_reg.c ****   lsm6dso16is_ctrl1_xl_t ctrl1_xl;
 544:Drivers/BSP/Components/lsm6dso16is/lsm6dso16is_reg.c ****   int32_t ret;
 545:Drivers/BSP/Components/lsm6dso16is/lsm6dso16is_reg.c **** 
 546:Drivers/BSP/Components/lsm6dso16is/lsm6dso16is_reg.c ****   ret = lsm6dso16is_read_reg(ctx, LSM6DSO16IS_CTRL1_XL, (uint8_t *)&ctrl1_xl, 1);
 547:Drivers/BSP/Components/lsm6dso16is/lsm6dso16is_reg.c **** 
 548:Drivers/BSP/Components/lsm6dso16is/lsm6dso16is_reg.c ****   if (ret == 0)
 549:Drivers/BSP/Components/lsm6dso16is/lsm6dso16is_reg.c ****   {
 550:Drivers/BSP/Components/lsm6dso16is/lsm6dso16is_reg.c ****     if (((uint8_t)val & 0x10U) == 0x10U)
 551:Drivers/BSP/Components/lsm6dso16is/lsm6dso16is_reg.c ****     {
 552:Drivers/BSP/Components/lsm6dso16is/lsm6dso16is_reg.c ****       ret += lsm6dso16is_xl_hm_mode_set(ctx, LSM6DSO16IS_HIGH_PERFOMANCE_MODE_DISABLED);
 553:Drivers/BSP/Components/lsm6dso16is/lsm6dso16is_reg.c ****     }
 554:Drivers/BSP/Components/lsm6dso16is/lsm6dso16is_reg.c ****     else
 555:Drivers/BSP/Components/lsm6dso16is/lsm6dso16is_reg.c ****     {
 556:Drivers/BSP/Components/lsm6dso16is/lsm6dso16is_reg.c ****       ret += lsm6dso16is_xl_hm_mode_set(ctx, LSM6DSO16IS_HIGH_PERFOMANCE_MODE_ENABLED);
 557:Drivers/BSP/Components/lsm6dso16is/lsm6dso16is_reg.c ****     }
 558:Drivers/BSP/Components/lsm6dso16is/lsm6dso16is_reg.c **** 
 559:Drivers/BSP/Components/lsm6dso16is/lsm6dso16is_reg.c ****     ctrl1_xl.odr_xl = ((uint8_t)val & 0xfU);
 560:Drivers/BSP/Components/lsm6dso16is/lsm6dso16is_reg.c ****     ret += lsm6dso16is_write_reg(ctx, LSM6DSO16IS_CTRL1_XL, (uint8_t *)&ctrl1_xl, 1);
 561:Drivers/BSP/Components/lsm6dso16is/lsm6dso16is_reg.c ****   }
ARM GAS  C:\Users\Nathan\AppData\Local\Temp\ccznllVY.s 			page 13


 562:Drivers/BSP/Components/lsm6dso16is/lsm6dso16is_reg.c **** 
 563:Drivers/BSP/Components/lsm6dso16is/lsm6dso16is_reg.c ****   return ret;
 564:Drivers/BSP/Components/lsm6dso16is/lsm6dso16is_reg.c **** }
 565:Drivers/BSP/Components/lsm6dso16is/lsm6dso16is_reg.c **** 
 566:Drivers/BSP/Components/lsm6dso16is/lsm6dso16is_reg.c **** /**
 567:Drivers/BSP/Components/lsm6dso16is/lsm6dso16is_reg.c ****   * @brief  Accelerometer output data rate (ODR) selection.[get]
 568:Drivers/BSP/Components/lsm6dso16is/lsm6dso16is_reg.c ****   *
 569:Drivers/BSP/Components/lsm6dso16is/lsm6dso16is_reg.c ****   * @param  ctx      read / write interface definitions
 570:Drivers/BSP/Components/lsm6dso16is/lsm6dso16is_reg.c ****   * @param  val      XL_ODR_OFF, XL_ODR_AT_1Hz875, XL_ODR_AT_7Hz5, XL_ODR_AT_15Hz, XL_ODR_AT_30Hz, 
 571:Drivers/BSP/Components/lsm6dso16is/lsm6dso16is_reg.c ****   * @retval          interface status (MANDATORY: return 0 -> no Error)
 572:Drivers/BSP/Components/lsm6dso16is/lsm6dso16is_reg.c ****   *
 573:Drivers/BSP/Components/lsm6dso16is/lsm6dso16is_reg.c ****   */
 574:Drivers/BSP/Components/lsm6dso16is/lsm6dso16is_reg.c **** int32_t lsm6dso16is_xl_data_rate_get(const stmdev_ctx_t *ctx,
 575:Drivers/BSP/Components/lsm6dso16is/lsm6dso16is_reg.c ****                                      lsm6dso16is_xl_data_rate_t *val)
 576:Drivers/BSP/Components/lsm6dso16is/lsm6dso16is_reg.c **** {
 577:Drivers/BSP/Components/lsm6dso16is/lsm6dso16is_reg.c ****   lsm6dso16is_ctrl1_xl_t ctrl1_xl;
 578:Drivers/BSP/Components/lsm6dso16is/lsm6dso16is_reg.c ****   lsm6dso16is_ctrl6_c_t ctrl6_c;
 579:Drivers/BSP/Components/lsm6dso16is/lsm6dso16is_reg.c ****   int32_t ret;
 580:Drivers/BSP/Components/lsm6dso16is/lsm6dso16is_reg.c **** 
 581:Drivers/BSP/Components/lsm6dso16is/lsm6dso16is_reg.c ****   ret = lsm6dso16is_read_reg(ctx, LSM6DSO16IS_CTRL1_XL, (uint8_t *)&ctrl1_xl, 1);
 582:Drivers/BSP/Components/lsm6dso16is/lsm6dso16is_reg.c ****   ret += lsm6dso16is_read_reg(ctx, LSM6DSO16IS_CTRL6_C, (uint8_t *)&ctrl6_c, 1);
 583:Drivers/BSP/Components/lsm6dso16is/lsm6dso16is_reg.c **** 
 584:Drivers/BSP/Components/lsm6dso16is/lsm6dso16is_reg.c ****   switch ((ctrl6_c.xl_hm_mode << 4) | (ctrl1_xl.odr_xl))
 585:Drivers/BSP/Components/lsm6dso16is/lsm6dso16is_reg.c ****   {
 586:Drivers/BSP/Components/lsm6dso16is/lsm6dso16is_reg.c ****     case LSM6DSO16IS_XL_ODR_OFF:
 587:Drivers/BSP/Components/lsm6dso16is/lsm6dso16is_reg.c ****       *val = LSM6DSO16IS_XL_ODR_OFF;
 588:Drivers/BSP/Components/lsm6dso16is/lsm6dso16is_reg.c ****       break;
 589:Drivers/BSP/Components/lsm6dso16is/lsm6dso16is_reg.c **** 
 590:Drivers/BSP/Components/lsm6dso16is/lsm6dso16is_reg.c ****     case LSM6DSO16IS_XL_ODR_AT_12Hz5_HP:
 591:Drivers/BSP/Components/lsm6dso16is/lsm6dso16is_reg.c ****       *val = LSM6DSO16IS_XL_ODR_AT_12Hz5_HP;
 592:Drivers/BSP/Components/lsm6dso16is/lsm6dso16is_reg.c ****       break;
 593:Drivers/BSP/Components/lsm6dso16is/lsm6dso16is_reg.c **** 
 594:Drivers/BSP/Components/lsm6dso16is/lsm6dso16is_reg.c ****     case LSM6DSO16IS_XL_ODR_AT_26H_HP:
 595:Drivers/BSP/Components/lsm6dso16is/lsm6dso16is_reg.c ****       *val = LSM6DSO16IS_XL_ODR_AT_26H_HP;
 596:Drivers/BSP/Components/lsm6dso16is/lsm6dso16is_reg.c ****       break;
 597:Drivers/BSP/Components/lsm6dso16is/lsm6dso16is_reg.c **** 
 598:Drivers/BSP/Components/lsm6dso16is/lsm6dso16is_reg.c ****     case LSM6DSO16IS_XL_ODR_AT_52Hz_HP:
 599:Drivers/BSP/Components/lsm6dso16is/lsm6dso16is_reg.c ****       *val = LSM6DSO16IS_XL_ODR_AT_52Hz_HP;
 600:Drivers/BSP/Components/lsm6dso16is/lsm6dso16is_reg.c ****       break;
 601:Drivers/BSP/Components/lsm6dso16is/lsm6dso16is_reg.c **** 
 602:Drivers/BSP/Components/lsm6dso16is/lsm6dso16is_reg.c ****     case LSM6DSO16IS_XL_ODR_AT_104Hz_HP:
 603:Drivers/BSP/Components/lsm6dso16is/lsm6dso16is_reg.c ****       *val = LSM6DSO16IS_XL_ODR_AT_104Hz_HP;
 604:Drivers/BSP/Components/lsm6dso16is/lsm6dso16is_reg.c ****       break;
 605:Drivers/BSP/Components/lsm6dso16is/lsm6dso16is_reg.c **** 
 606:Drivers/BSP/Components/lsm6dso16is/lsm6dso16is_reg.c ****     case LSM6DSO16IS_XL_ODR_AT_208Hz_HP:
 607:Drivers/BSP/Components/lsm6dso16is/lsm6dso16is_reg.c ****       *val = LSM6DSO16IS_XL_ODR_AT_208Hz_HP;
 608:Drivers/BSP/Components/lsm6dso16is/lsm6dso16is_reg.c ****       break;
 609:Drivers/BSP/Components/lsm6dso16is/lsm6dso16is_reg.c **** 
 610:Drivers/BSP/Components/lsm6dso16is/lsm6dso16is_reg.c ****     case LSM6DSO16IS_XL_ODR_AT_416Hz_HP:
 611:Drivers/BSP/Components/lsm6dso16is/lsm6dso16is_reg.c ****       *val = LSM6DSO16IS_XL_ODR_AT_416Hz_HP;
 612:Drivers/BSP/Components/lsm6dso16is/lsm6dso16is_reg.c ****       break;
 613:Drivers/BSP/Components/lsm6dso16is/lsm6dso16is_reg.c **** 
 614:Drivers/BSP/Components/lsm6dso16is/lsm6dso16is_reg.c ****     case LSM6DSO16IS_XL_ODR_AT_833Hz_HP:
 615:Drivers/BSP/Components/lsm6dso16is/lsm6dso16is_reg.c ****       *val = LSM6DSO16IS_XL_ODR_AT_833Hz_HP;
 616:Drivers/BSP/Components/lsm6dso16is/lsm6dso16is_reg.c ****       break;
 617:Drivers/BSP/Components/lsm6dso16is/lsm6dso16is_reg.c **** 
 618:Drivers/BSP/Components/lsm6dso16is/lsm6dso16is_reg.c ****     case LSM6DSO16IS_XL_ODR_AT_1667Hz_HP:
ARM GAS  C:\Users\Nathan\AppData\Local\Temp\ccznllVY.s 			page 14


 619:Drivers/BSP/Components/lsm6dso16is/lsm6dso16is_reg.c ****       *val = LSM6DSO16IS_XL_ODR_AT_1667Hz_HP;
 620:Drivers/BSP/Components/lsm6dso16is/lsm6dso16is_reg.c ****       break;
 621:Drivers/BSP/Components/lsm6dso16is/lsm6dso16is_reg.c **** 
 622:Drivers/BSP/Components/lsm6dso16is/lsm6dso16is_reg.c ****     case LSM6DSO16IS_XL_ODR_AT_3333Hz_HP:
 623:Drivers/BSP/Components/lsm6dso16is/lsm6dso16is_reg.c ****       *val = LSM6DSO16IS_XL_ODR_AT_3333Hz_HP;
 624:Drivers/BSP/Components/lsm6dso16is/lsm6dso16is_reg.c ****       break;
 625:Drivers/BSP/Components/lsm6dso16is/lsm6dso16is_reg.c **** 
 626:Drivers/BSP/Components/lsm6dso16is/lsm6dso16is_reg.c ****     case LSM6DSO16IS_XL_ODR_AT_6667Hz_HP:
 627:Drivers/BSP/Components/lsm6dso16is/lsm6dso16is_reg.c ****       *val = LSM6DSO16IS_XL_ODR_AT_6667Hz_HP;
 628:Drivers/BSP/Components/lsm6dso16is/lsm6dso16is_reg.c ****       break;
 629:Drivers/BSP/Components/lsm6dso16is/lsm6dso16is_reg.c **** 
 630:Drivers/BSP/Components/lsm6dso16is/lsm6dso16is_reg.c ****     case LSM6DSO16IS_XL_ODR_AT_12Hz5_LP:
 631:Drivers/BSP/Components/lsm6dso16is/lsm6dso16is_reg.c ****       *val = LSM6DSO16IS_XL_ODR_AT_12Hz5_LP;
 632:Drivers/BSP/Components/lsm6dso16is/lsm6dso16is_reg.c ****       break;
 633:Drivers/BSP/Components/lsm6dso16is/lsm6dso16is_reg.c **** 
 634:Drivers/BSP/Components/lsm6dso16is/lsm6dso16is_reg.c ****     case LSM6DSO16IS_XL_ODR_AT_26H_LP:
 635:Drivers/BSP/Components/lsm6dso16is/lsm6dso16is_reg.c ****       *val = LSM6DSO16IS_XL_ODR_AT_26H_LP;
 636:Drivers/BSP/Components/lsm6dso16is/lsm6dso16is_reg.c ****       break;
 637:Drivers/BSP/Components/lsm6dso16is/lsm6dso16is_reg.c **** 
 638:Drivers/BSP/Components/lsm6dso16is/lsm6dso16is_reg.c ****     case LSM6DSO16IS_XL_ODR_AT_52Hz_LP:
 639:Drivers/BSP/Components/lsm6dso16is/lsm6dso16is_reg.c ****       *val = LSM6DSO16IS_XL_ODR_AT_52Hz_LP;
 640:Drivers/BSP/Components/lsm6dso16is/lsm6dso16is_reg.c ****       break;
 641:Drivers/BSP/Components/lsm6dso16is/lsm6dso16is_reg.c **** 
 642:Drivers/BSP/Components/lsm6dso16is/lsm6dso16is_reg.c ****     case LSM6DSO16IS_XL_ODR_AT_104Hz_LP:
 643:Drivers/BSP/Components/lsm6dso16is/lsm6dso16is_reg.c ****       *val = LSM6DSO16IS_XL_ODR_AT_104Hz_LP;
 644:Drivers/BSP/Components/lsm6dso16is/lsm6dso16is_reg.c ****       break;
 645:Drivers/BSP/Components/lsm6dso16is/lsm6dso16is_reg.c **** 
 646:Drivers/BSP/Components/lsm6dso16is/lsm6dso16is_reg.c ****     case LSM6DSO16IS_XL_ODR_AT_208Hz_LP:
 647:Drivers/BSP/Components/lsm6dso16is/lsm6dso16is_reg.c ****       *val = LSM6DSO16IS_XL_ODR_AT_208Hz_LP;
 648:Drivers/BSP/Components/lsm6dso16is/lsm6dso16is_reg.c ****       break;
 649:Drivers/BSP/Components/lsm6dso16is/lsm6dso16is_reg.c **** 
 650:Drivers/BSP/Components/lsm6dso16is/lsm6dso16is_reg.c ****     case LSM6DSO16IS_XL_ODR_AT_416Hz_LP:
 651:Drivers/BSP/Components/lsm6dso16is/lsm6dso16is_reg.c ****       *val = LSM6DSO16IS_XL_ODR_AT_416Hz_LP;
 652:Drivers/BSP/Components/lsm6dso16is/lsm6dso16is_reg.c ****       break;
 653:Drivers/BSP/Components/lsm6dso16is/lsm6dso16is_reg.c **** 
 654:Drivers/BSP/Components/lsm6dso16is/lsm6dso16is_reg.c ****     case LSM6DSO16IS_XL_ODR_AT_833Hz_LP:
 655:Drivers/BSP/Components/lsm6dso16is/lsm6dso16is_reg.c ****       *val = LSM6DSO16IS_XL_ODR_AT_833Hz_LP;
 656:Drivers/BSP/Components/lsm6dso16is/lsm6dso16is_reg.c ****       break;
 657:Drivers/BSP/Components/lsm6dso16is/lsm6dso16is_reg.c **** 
 658:Drivers/BSP/Components/lsm6dso16is/lsm6dso16is_reg.c ****     case LSM6DSO16IS_XL_ODR_AT_1667Hz_LP:
 659:Drivers/BSP/Components/lsm6dso16is/lsm6dso16is_reg.c ****       *val = LSM6DSO16IS_XL_ODR_AT_1667Hz_LP;
 660:Drivers/BSP/Components/lsm6dso16is/lsm6dso16is_reg.c ****       break;
 661:Drivers/BSP/Components/lsm6dso16is/lsm6dso16is_reg.c **** 
 662:Drivers/BSP/Components/lsm6dso16is/lsm6dso16is_reg.c ****     case LSM6DSO16IS_XL_ODR_AT_3333Hz_LP:
 663:Drivers/BSP/Components/lsm6dso16is/lsm6dso16is_reg.c ****       *val = LSM6DSO16IS_XL_ODR_AT_3333Hz_LP;
 664:Drivers/BSP/Components/lsm6dso16is/lsm6dso16is_reg.c ****       break;
 665:Drivers/BSP/Components/lsm6dso16is/lsm6dso16is_reg.c **** 
 666:Drivers/BSP/Components/lsm6dso16is/lsm6dso16is_reg.c ****     case LSM6DSO16IS_XL_ODR_AT_6667Hz_LP:
 667:Drivers/BSP/Components/lsm6dso16is/lsm6dso16is_reg.c ****       *val = LSM6DSO16IS_XL_ODR_AT_6667Hz_LP;
 668:Drivers/BSP/Components/lsm6dso16is/lsm6dso16is_reg.c ****       break;
 669:Drivers/BSP/Components/lsm6dso16is/lsm6dso16is_reg.c **** 
 670:Drivers/BSP/Components/lsm6dso16is/lsm6dso16is_reg.c ****     case LSM6DSO16IS_XL_ODR_AT_1Hz6_LP:
 671:Drivers/BSP/Components/lsm6dso16is/lsm6dso16is_reg.c ****       *val = LSM6DSO16IS_XL_ODR_AT_1Hz6_LP;
 672:Drivers/BSP/Components/lsm6dso16is/lsm6dso16is_reg.c ****       break;
 673:Drivers/BSP/Components/lsm6dso16is/lsm6dso16is_reg.c **** 
 674:Drivers/BSP/Components/lsm6dso16is/lsm6dso16is_reg.c ****     default:
 675:Drivers/BSP/Components/lsm6dso16is/lsm6dso16is_reg.c ****       *val = LSM6DSO16IS_XL_ODR_OFF;
ARM GAS  C:\Users\Nathan\AppData\Local\Temp\ccznllVY.s 			page 15


 676:Drivers/BSP/Components/lsm6dso16is/lsm6dso16is_reg.c ****       break;
 677:Drivers/BSP/Components/lsm6dso16is/lsm6dso16is_reg.c ****   }
 678:Drivers/BSP/Components/lsm6dso16is/lsm6dso16is_reg.c **** 
 679:Drivers/BSP/Components/lsm6dso16is/lsm6dso16is_reg.c ****   return ret;
 680:Drivers/BSP/Components/lsm6dso16is/lsm6dso16is_reg.c **** }
 681:Drivers/BSP/Components/lsm6dso16is/lsm6dso16is_reg.c **** 
 682:Drivers/BSP/Components/lsm6dso16is/lsm6dso16is_reg.c **** /**
 683:Drivers/BSP/Components/lsm6dso16is/lsm6dso16is_reg.c ****   * @brief  Enable disable high-performance mode[set]
 684:Drivers/BSP/Components/lsm6dso16is/lsm6dso16is_reg.c ****   *
 685:Drivers/BSP/Components/lsm6dso16is/lsm6dso16is_reg.c ****   * @param  ctx      read / write interface definitions
 686:Drivers/BSP/Components/lsm6dso16is/lsm6dso16is_reg.c ****   * @param  val      HIGH_PERFOMANCE_MODE_ENABLED, HIGH_PERFOMANCE_MODE_DISABLED,
 687:Drivers/BSP/Components/lsm6dso16is/lsm6dso16is_reg.c ****   * @retval          interface status (MANDATORY: return 0 -> no Error)
 688:Drivers/BSP/Components/lsm6dso16is/lsm6dso16is_reg.c ****   *
 689:Drivers/BSP/Components/lsm6dso16is/lsm6dso16is_reg.c ****   */
 690:Drivers/BSP/Components/lsm6dso16is/lsm6dso16is_reg.c **** int32_t lsm6dso16is_gy_hm_mode_set(const stmdev_ctx_t *ctx, lsm6dso16is_hm_mode_t val)
 691:Drivers/BSP/Components/lsm6dso16is/lsm6dso16is_reg.c **** {
 692:Drivers/BSP/Components/lsm6dso16is/lsm6dso16is_reg.c ****   lsm6dso16is_ctrl7_g_t ctrl7_g;
 693:Drivers/BSP/Components/lsm6dso16is/lsm6dso16is_reg.c ****   int32_t ret;
 694:Drivers/BSP/Components/lsm6dso16is/lsm6dso16is_reg.c **** 
 695:Drivers/BSP/Components/lsm6dso16is/lsm6dso16is_reg.c ****   ret = lsm6dso16is_read_reg(ctx, LSM6DSO16IS_CTRL7_G, (uint8_t *)&ctrl7_g, 1);
 696:Drivers/BSP/Components/lsm6dso16is/lsm6dso16is_reg.c **** 
 697:Drivers/BSP/Components/lsm6dso16is/lsm6dso16is_reg.c ****   if (ret == 0)
 698:Drivers/BSP/Components/lsm6dso16is/lsm6dso16is_reg.c ****   {
 699:Drivers/BSP/Components/lsm6dso16is/lsm6dso16is_reg.c ****     ctrl7_g.g_hm_mode = ((uint8_t)val & 0x1U);
 700:Drivers/BSP/Components/lsm6dso16is/lsm6dso16is_reg.c ****     ret = lsm6dso16is_write_reg(ctx, LSM6DSO16IS_CTRL7_G, (uint8_t *)&ctrl7_g, 1);
 701:Drivers/BSP/Components/lsm6dso16is/lsm6dso16is_reg.c ****   }
 702:Drivers/BSP/Components/lsm6dso16is/lsm6dso16is_reg.c **** 
 703:Drivers/BSP/Components/lsm6dso16is/lsm6dso16is_reg.c ****   return ret;
 704:Drivers/BSP/Components/lsm6dso16is/lsm6dso16is_reg.c **** }
 705:Drivers/BSP/Components/lsm6dso16is/lsm6dso16is_reg.c **** 
 706:Drivers/BSP/Components/lsm6dso16is/lsm6dso16is_reg.c **** /**
 707:Drivers/BSP/Components/lsm6dso16is/lsm6dso16is_reg.c ****   * @brief  Enable disable high-performance mode[get]
 708:Drivers/BSP/Components/lsm6dso16is/lsm6dso16is_reg.c ****   *
 709:Drivers/BSP/Components/lsm6dso16is/lsm6dso16is_reg.c ****   * @param  ctx      read / write interface definitions
 710:Drivers/BSP/Components/lsm6dso16is/lsm6dso16is_reg.c ****   * @param  val      HIGH_PERFOMANCE_MODE_ENABLED, HIGH_PERFOMANCE_MODE_DISABLED,
 711:Drivers/BSP/Components/lsm6dso16is/lsm6dso16is_reg.c ****   * @retval          interface status (MANDATORY: return 0 -> no Error)
 712:Drivers/BSP/Components/lsm6dso16is/lsm6dso16is_reg.c ****   *
 713:Drivers/BSP/Components/lsm6dso16is/lsm6dso16is_reg.c ****   */
 714:Drivers/BSP/Components/lsm6dso16is/lsm6dso16is_reg.c **** int32_t lsm6dso16is_gy_hm_mode_get(const stmdev_ctx_t *ctx, lsm6dso16is_hm_mode_t *val)
 715:Drivers/BSP/Components/lsm6dso16is/lsm6dso16is_reg.c **** {
 716:Drivers/BSP/Components/lsm6dso16is/lsm6dso16is_reg.c ****   lsm6dso16is_ctrl7_g_t ctrl7_g;
 717:Drivers/BSP/Components/lsm6dso16is/lsm6dso16is_reg.c ****   int32_t ret;
 718:Drivers/BSP/Components/lsm6dso16is/lsm6dso16is_reg.c **** 
 719:Drivers/BSP/Components/lsm6dso16is/lsm6dso16is_reg.c ****   ret = lsm6dso16is_read_reg(ctx, LSM6DSO16IS_CTRL7_G, (uint8_t *)&ctrl7_g, 1);
 720:Drivers/BSP/Components/lsm6dso16is/lsm6dso16is_reg.c **** 
 721:Drivers/BSP/Components/lsm6dso16is/lsm6dso16is_reg.c ****   switch ((ctrl7_g.g_hm_mode))
 722:Drivers/BSP/Components/lsm6dso16is/lsm6dso16is_reg.c ****   {
 723:Drivers/BSP/Components/lsm6dso16is/lsm6dso16is_reg.c ****     case LSM6DSO16IS_HIGH_PERFOMANCE_MODE_ENABLED:
 724:Drivers/BSP/Components/lsm6dso16is/lsm6dso16is_reg.c ****       *val = LSM6DSO16IS_HIGH_PERFOMANCE_MODE_ENABLED;
 725:Drivers/BSP/Components/lsm6dso16is/lsm6dso16is_reg.c ****       break;
 726:Drivers/BSP/Components/lsm6dso16is/lsm6dso16is_reg.c **** 
 727:Drivers/BSP/Components/lsm6dso16is/lsm6dso16is_reg.c ****     case LSM6DSO16IS_HIGH_PERFOMANCE_MODE_DISABLED:
 728:Drivers/BSP/Components/lsm6dso16is/lsm6dso16is_reg.c ****       *val = LSM6DSO16IS_HIGH_PERFOMANCE_MODE_DISABLED;
 729:Drivers/BSP/Components/lsm6dso16is/lsm6dso16is_reg.c ****       break;
 730:Drivers/BSP/Components/lsm6dso16is/lsm6dso16is_reg.c **** 
 731:Drivers/BSP/Components/lsm6dso16is/lsm6dso16is_reg.c ****     default:
 732:Drivers/BSP/Components/lsm6dso16is/lsm6dso16is_reg.c ****       *val = LSM6DSO16IS_HIGH_PERFOMANCE_MODE_ENABLED;
ARM GAS  C:\Users\Nathan\AppData\Local\Temp\ccznllVY.s 			page 16


 733:Drivers/BSP/Components/lsm6dso16is/lsm6dso16is_reg.c ****       break;
 734:Drivers/BSP/Components/lsm6dso16is/lsm6dso16is_reg.c ****   }
 735:Drivers/BSP/Components/lsm6dso16is/lsm6dso16is_reg.c ****   return ret;
 736:Drivers/BSP/Components/lsm6dso16is/lsm6dso16is_reg.c **** }
 737:Drivers/BSP/Components/lsm6dso16is/lsm6dso16is_reg.c **** 
 738:Drivers/BSP/Components/lsm6dso16is/lsm6dso16is_reg.c **** /**
 739:Drivers/BSP/Components/lsm6dso16is/lsm6dso16is_reg.c ****   * @brief  Gyroscope full-scale selection[set]
 740:Drivers/BSP/Components/lsm6dso16is/lsm6dso16is_reg.c ****   *
 741:Drivers/BSP/Components/lsm6dso16is/lsm6dso16is_reg.c ****   * @param  ctx      read / write interface definitions
 742:Drivers/BSP/Components/lsm6dso16is/lsm6dso16is_reg.c ****   * @param  val      125dps, 250dps, 500dps, 1000dps, 2000dps, 4000dps,
 743:Drivers/BSP/Components/lsm6dso16is/lsm6dso16is_reg.c ****   * @retval          interface status (MANDATORY: return 0 -> no Error)
 744:Drivers/BSP/Components/lsm6dso16is/lsm6dso16is_reg.c ****   *
 745:Drivers/BSP/Components/lsm6dso16is/lsm6dso16is_reg.c ****   */
 746:Drivers/BSP/Components/lsm6dso16is/lsm6dso16is_reg.c **** int32_t lsm6dso16is_gy_full_scale_set(const stmdev_ctx_t *ctx,
 747:Drivers/BSP/Components/lsm6dso16is/lsm6dso16is_reg.c ****                                       lsm6dso16is_gy_full_scale_t val)
 748:Drivers/BSP/Components/lsm6dso16is/lsm6dso16is_reg.c **** {
 749:Drivers/BSP/Components/lsm6dso16is/lsm6dso16is_reg.c ****   lsm6dso16is_ctrl2_g_t ctrl2_g;
 750:Drivers/BSP/Components/lsm6dso16is/lsm6dso16is_reg.c ****   int32_t ret;
 751:Drivers/BSP/Components/lsm6dso16is/lsm6dso16is_reg.c **** 
 752:Drivers/BSP/Components/lsm6dso16is/lsm6dso16is_reg.c ****   ret = lsm6dso16is_read_reg(ctx, LSM6DSO16IS_CTRL2_G, (uint8_t *)&ctrl2_g, 1);
 753:Drivers/BSP/Components/lsm6dso16is/lsm6dso16is_reg.c **** 
 754:Drivers/BSP/Components/lsm6dso16is/lsm6dso16is_reg.c ****   if (ret == 0)
 755:Drivers/BSP/Components/lsm6dso16is/lsm6dso16is_reg.c ****   {
 756:Drivers/BSP/Components/lsm6dso16is/lsm6dso16is_reg.c ****     ctrl2_g.fs_g = ((uint8_t)val & 0x3U);
 757:Drivers/BSP/Components/lsm6dso16is/lsm6dso16is_reg.c ****     ctrl2_g.fs_125 = ((uint8_t)val >> 4);
 758:Drivers/BSP/Components/lsm6dso16is/lsm6dso16is_reg.c ****     ret = lsm6dso16is_write_reg(ctx, LSM6DSO16IS_CTRL2_G, (uint8_t *)&ctrl2_g, 1);
 759:Drivers/BSP/Components/lsm6dso16is/lsm6dso16is_reg.c ****   }
 760:Drivers/BSP/Components/lsm6dso16is/lsm6dso16is_reg.c **** 
 761:Drivers/BSP/Components/lsm6dso16is/lsm6dso16is_reg.c ****   return ret;
 762:Drivers/BSP/Components/lsm6dso16is/lsm6dso16is_reg.c **** }
 763:Drivers/BSP/Components/lsm6dso16is/lsm6dso16is_reg.c **** 
 764:Drivers/BSP/Components/lsm6dso16is/lsm6dso16is_reg.c **** /**
 765:Drivers/BSP/Components/lsm6dso16is/lsm6dso16is_reg.c ****   * @brief  Gyroscope full-scale selection[get]
 766:Drivers/BSP/Components/lsm6dso16is/lsm6dso16is_reg.c ****   *
 767:Drivers/BSP/Components/lsm6dso16is/lsm6dso16is_reg.c ****   * @param  ctx      read / write interface definitions
 768:Drivers/BSP/Components/lsm6dso16is/lsm6dso16is_reg.c ****   * @param  val      125dps, 250dps, 500dps, 1000dps, 2000dps, 4000dps,
 769:Drivers/BSP/Components/lsm6dso16is/lsm6dso16is_reg.c ****   * @retval          interface status (MANDATORY: return 0 -> no Error)
 770:Drivers/BSP/Components/lsm6dso16is/lsm6dso16is_reg.c ****   *
 771:Drivers/BSP/Components/lsm6dso16is/lsm6dso16is_reg.c ****   */
 772:Drivers/BSP/Components/lsm6dso16is/lsm6dso16is_reg.c **** int32_t lsm6dso16is_gy_full_scale_get(const stmdev_ctx_t *ctx,
 773:Drivers/BSP/Components/lsm6dso16is/lsm6dso16is_reg.c ****                                       lsm6dso16is_gy_full_scale_t *val)
 774:Drivers/BSP/Components/lsm6dso16is/lsm6dso16is_reg.c **** {
 775:Drivers/BSP/Components/lsm6dso16is/lsm6dso16is_reg.c ****   lsm6dso16is_ctrl2_g_t ctrl2_g;
 776:Drivers/BSP/Components/lsm6dso16is/lsm6dso16is_reg.c ****   int32_t ret;
 777:Drivers/BSP/Components/lsm6dso16is/lsm6dso16is_reg.c **** 
 778:Drivers/BSP/Components/lsm6dso16is/lsm6dso16is_reg.c ****   ret = lsm6dso16is_read_reg(ctx, LSM6DSO16IS_CTRL2_G, (uint8_t *)&ctrl2_g, 1);
 779:Drivers/BSP/Components/lsm6dso16is/lsm6dso16is_reg.c **** 
 780:Drivers/BSP/Components/lsm6dso16is/lsm6dso16is_reg.c ****   switch ((ctrl2_g.fs_125 << 4) | (ctrl2_g.fs_g))
 781:Drivers/BSP/Components/lsm6dso16is/lsm6dso16is_reg.c ****   {
 782:Drivers/BSP/Components/lsm6dso16is/lsm6dso16is_reg.c ****     case LSM6DSO16IS_125dps:
 783:Drivers/BSP/Components/lsm6dso16is/lsm6dso16is_reg.c ****       *val = LSM6DSO16IS_125dps;
 784:Drivers/BSP/Components/lsm6dso16is/lsm6dso16is_reg.c ****       break;
 785:Drivers/BSP/Components/lsm6dso16is/lsm6dso16is_reg.c **** 
 786:Drivers/BSP/Components/lsm6dso16is/lsm6dso16is_reg.c ****     case LSM6DSO16IS_250dps:
 787:Drivers/BSP/Components/lsm6dso16is/lsm6dso16is_reg.c ****       *val = LSM6DSO16IS_250dps;
 788:Drivers/BSP/Components/lsm6dso16is/lsm6dso16is_reg.c ****       break;
 789:Drivers/BSP/Components/lsm6dso16is/lsm6dso16is_reg.c **** 
ARM GAS  C:\Users\Nathan\AppData\Local\Temp\ccznllVY.s 			page 17


 790:Drivers/BSP/Components/lsm6dso16is/lsm6dso16is_reg.c ****     case LSM6DSO16IS_500dps:
 791:Drivers/BSP/Components/lsm6dso16is/lsm6dso16is_reg.c ****       *val = LSM6DSO16IS_500dps;
 792:Drivers/BSP/Components/lsm6dso16is/lsm6dso16is_reg.c ****       break;
 793:Drivers/BSP/Components/lsm6dso16is/lsm6dso16is_reg.c **** 
 794:Drivers/BSP/Components/lsm6dso16is/lsm6dso16is_reg.c ****     case LSM6DSO16IS_1000dps:
 795:Drivers/BSP/Components/lsm6dso16is/lsm6dso16is_reg.c ****       *val = LSM6DSO16IS_1000dps;
 796:Drivers/BSP/Components/lsm6dso16is/lsm6dso16is_reg.c ****       break;
 797:Drivers/BSP/Components/lsm6dso16is/lsm6dso16is_reg.c **** 
 798:Drivers/BSP/Components/lsm6dso16is/lsm6dso16is_reg.c ****     case LSM6DSO16IS_2000dps:
 799:Drivers/BSP/Components/lsm6dso16is/lsm6dso16is_reg.c ****       *val = LSM6DSO16IS_2000dps;
 800:Drivers/BSP/Components/lsm6dso16is/lsm6dso16is_reg.c ****       break;
 801:Drivers/BSP/Components/lsm6dso16is/lsm6dso16is_reg.c **** 
 802:Drivers/BSP/Components/lsm6dso16is/lsm6dso16is_reg.c ****     default:
 803:Drivers/BSP/Components/lsm6dso16is/lsm6dso16is_reg.c ****       *val = LSM6DSO16IS_125dps;
 804:Drivers/BSP/Components/lsm6dso16is/lsm6dso16is_reg.c ****       break;
 805:Drivers/BSP/Components/lsm6dso16is/lsm6dso16is_reg.c ****   }
 806:Drivers/BSP/Components/lsm6dso16is/lsm6dso16is_reg.c ****   return ret;
 807:Drivers/BSP/Components/lsm6dso16is/lsm6dso16is_reg.c **** }
 808:Drivers/BSP/Components/lsm6dso16is/lsm6dso16is_reg.c **** 
 809:Drivers/BSP/Components/lsm6dso16is/lsm6dso16is_reg.c **** /**
 810:Drivers/BSP/Components/lsm6dso16is/lsm6dso16is_reg.c ****   * @brief  Gyroscope output data rate (ODR) selection.[set]
 811:Drivers/BSP/Components/lsm6dso16is/lsm6dso16is_reg.c ****   *
 812:Drivers/BSP/Components/lsm6dso16is/lsm6dso16is_reg.c ****   * @param  ctx      read / write interface definitions
 813:Drivers/BSP/Components/lsm6dso16is/lsm6dso16is_reg.c ****   * @param  val      GY_ODR_OFF, GY_ODR_AT_7Hz5, GY_ODR_AT_15Hz, GY_ODR_AT_30Hz, GY_ODR_AT_60Hz, GY
 814:Drivers/BSP/Components/lsm6dso16is/lsm6dso16is_reg.c ****   * @retval          interface status (MANDATORY: return 0 -> no Error)
 815:Drivers/BSP/Components/lsm6dso16is/lsm6dso16is_reg.c ****   *
 816:Drivers/BSP/Components/lsm6dso16is/lsm6dso16is_reg.c ****   */
 817:Drivers/BSP/Components/lsm6dso16is/lsm6dso16is_reg.c **** int32_t lsm6dso16is_gy_data_rate_set(const stmdev_ctx_t *ctx,
 818:Drivers/BSP/Components/lsm6dso16is/lsm6dso16is_reg.c ****                                      lsm6dso16is_gy_data_rate_t val)
 819:Drivers/BSP/Components/lsm6dso16is/lsm6dso16is_reg.c **** {
 820:Drivers/BSP/Components/lsm6dso16is/lsm6dso16is_reg.c ****   lsm6dso16is_ctrl2_g_t ctrl2_g;
 821:Drivers/BSP/Components/lsm6dso16is/lsm6dso16is_reg.c ****   int32_t ret;
 822:Drivers/BSP/Components/lsm6dso16is/lsm6dso16is_reg.c **** 
 823:Drivers/BSP/Components/lsm6dso16is/lsm6dso16is_reg.c ****   ret = lsm6dso16is_read_reg(ctx, LSM6DSO16IS_CTRL2_G, (uint8_t *)&ctrl2_g, 1);
 824:Drivers/BSP/Components/lsm6dso16is/lsm6dso16is_reg.c **** 
 825:Drivers/BSP/Components/lsm6dso16is/lsm6dso16is_reg.c ****   if (ret == 0)
 826:Drivers/BSP/Components/lsm6dso16is/lsm6dso16is_reg.c ****   {
 827:Drivers/BSP/Components/lsm6dso16is/lsm6dso16is_reg.c ****     if (((uint8_t)val & 0x10U) == 0x10U)
 828:Drivers/BSP/Components/lsm6dso16is/lsm6dso16is_reg.c ****     {
 829:Drivers/BSP/Components/lsm6dso16is/lsm6dso16is_reg.c ****       ret += lsm6dso16is_gy_hm_mode_set(ctx, LSM6DSO16IS_HIGH_PERFOMANCE_MODE_DISABLED);
 830:Drivers/BSP/Components/lsm6dso16is/lsm6dso16is_reg.c ****     }
 831:Drivers/BSP/Components/lsm6dso16is/lsm6dso16is_reg.c ****     else
 832:Drivers/BSP/Components/lsm6dso16is/lsm6dso16is_reg.c ****     {
 833:Drivers/BSP/Components/lsm6dso16is/lsm6dso16is_reg.c ****       ret += lsm6dso16is_gy_hm_mode_set(ctx, LSM6DSO16IS_HIGH_PERFOMANCE_MODE_ENABLED);
 834:Drivers/BSP/Components/lsm6dso16is/lsm6dso16is_reg.c ****     }
 835:Drivers/BSP/Components/lsm6dso16is/lsm6dso16is_reg.c **** 
 836:Drivers/BSP/Components/lsm6dso16is/lsm6dso16is_reg.c ****     ctrl2_g.odr_g = ((uint8_t)val & 0xfU);
 837:Drivers/BSP/Components/lsm6dso16is/lsm6dso16is_reg.c ****     ret += lsm6dso16is_write_reg(ctx, LSM6DSO16IS_CTRL2_G, (uint8_t *)&ctrl2_g, 1);
 838:Drivers/BSP/Components/lsm6dso16is/lsm6dso16is_reg.c ****   }
 839:Drivers/BSP/Components/lsm6dso16is/lsm6dso16is_reg.c **** 
 840:Drivers/BSP/Components/lsm6dso16is/lsm6dso16is_reg.c ****   return ret;
 841:Drivers/BSP/Components/lsm6dso16is/lsm6dso16is_reg.c **** }
 842:Drivers/BSP/Components/lsm6dso16is/lsm6dso16is_reg.c **** 
 843:Drivers/BSP/Components/lsm6dso16is/lsm6dso16is_reg.c **** /**
 844:Drivers/BSP/Components/lsm6dso16is/lsm6dso16is_reg.c ****   * @brief  Gyroscope output data rate (ODR) selection.[get]
 845:Drivers/BSP/Components/lsm6dso16is/lsm6dso16is_reg.c ****   *
 846:Drivers/BSP/Components/lsm6dso16is/lsm6dso16is_reg.c ****   * @param  ctx      read / write interface definitions
ARM GAS  C:\Users\Nathan\AppData\Local\Temp\ccznllVY.s 			page 18


 847:Drivers/BSP/Components/lsm6dso16is/lsm6dso16is_reg.c ****   * @param  val      GY_ODR_OFF, GY_ODR_AT_7Hz5, GY_ODR_AT_15Hz, GY_ODR_AT_30Hz, GY_ODR_AT_60Hz, GY
 848:Drivers/BSP/Components/lsm6dso16is/lsm6dso16is_reg.c ****   * @retval          interface status (MANDATORY: return 0 -> no Error)
 849:Drivers/BSP/Components/lsm6dso16is/lsm6dso16is_reg.c ****   *
 850:Drivers/BSP/Components/lsm6dso16is/lsm6dso16is_reg.c ****   */
 851:Drivers/BSP/Components/lsm6dso16is/lsm6dso16is_reg.c **** int32_t lsm6dso16is_gy_data_rate_get(const stmdev_ctx_t *ctx,
 852:Drivers/BSP/Components/lsm6dso16is/lsm6dso16is_reg.c ****                                      lsm6dso16is_gy_data_rate_t *val)
 853:Drivers/BSP/Components/lsm6dso16is/lsm6dso16is_reg.c **** {
 854:Drivers/BSP/Components/lsm6dso16is/lsm6dso16is_reg.c ****   lsm6dso16is_ctrl2_g_t ctrl2_g;
 855:Drivers/BSP/Components/lsm6dso16is/lsm6dso16is_reg.c ****   lsm6dso16is_ctrl7_g_t ctrl7_g;
 856:Drivers/BSP/Components/lsm6dso16is/lsm6dso16is_reg.c ****   int32_t ret;
 857:Drivers/BSP/Components/lsm6dso16is/lsm6dso16is_reg.c **** 
 858:Drivers/BSP/Components/lsm6dso16is/lsm6dso16is_reg.c ****   ret = lsm6dso16is_read_reg(ctx, LSM6DSO16IS_CTRL2_G, (uint8_t *)&ctrl2_g, 1);
 859:Drivers/BSP/Components/lsm6dso16is/lsm6dso16is_reg.c ****   ret += lsm6dso16is_read_reg(ctx, LSM6DSO16IS_CTRL7_G, (uint8_t *)&ctrl7_g, 1);
 860:Drivers/BSP/Components/lsm6dso16is/lsm6dso16is_reg.c **** 
 861:Drivers/BSP/Components/lsm6dso16is/lsm6dso16is_reg.c ****   switch ((ctrl7_g.g_hm_mode << 4) | (ctrl2_g.odr_g))
 862:Drivers/BSP/Components/lsm6dso16is/lsm6dso16is_reg.c ****   {
 863:Drivers/BSP/Components/lsm6dso16is/lsm6dso16is_reg.c ****     case LSM6DSO16IS_GY_ODR_OFF:
 864:Drivers/BSP/Components/lsm6dso16is/lsm6dso16is_reg.c ****       *val = LSM6DSO16IS_GY_ODR_OFF;
 865:Drivers/BSP/Components/lsm6dso16is/lsm6dso16is_reg.c ****       break;
 866:Drivers/BSP/Components/lsm6dso16is/lsm6dso16is_reg.c **** 
 867:Drivers/BSP/Components/lsm6dso16is/lsm6dso16is_reg.c ****     case LSM6DSO16IS_GY_ODR_AT_12Hz5_HP:
 868:Drivers/BSP/Components/lsm6dso16is/lsm6dso16is_reg.c ****       *val = LSM6DSO16IS_GY_ODR_AT_12Hz5_HP;
 869:Drivers/BSP/Components/lsm6dso16is/lsm6dso16is_reg.c ****       break;
 870:Drivers/BSP/Components/lsm6dso16is/lsm6dso16is_reg.c **** 
 871:Drivers/BSP/Components/lsm6dso16is/lsm6dso16is_reg.c ****     case LSM6DSO16IS_GY_ODR_AT_26H_HP:
 872:Drivers/BSP/Components/lsm6dso16is/lsm6dso16is_reg.c ****       *val = LSM6DSO16IS_GY_ODR_AT_26H_HP;
 873:Drivers/BSP/Components/lsm6dso16is/lsm6dso16is_reg.c ****       break;
 874:Drivers/BSP/Components/lsm6dso16is/lsm6dso16is_reg.c **** 
 875:Drivers/BSP/Components/lsm6dso16is/lsm6dso16is_reg.c ****     case LSM6DSO16IS_GY_ODR_AT_52Hz_HP:
 876:Drivers/BSP/Components/lsm6dso16is/lsm6dso16is_reg.c ****       *val = LSM6DSO16IS_GY_ODR_AT_52Hz_HP;
 877:Drivers/BSP/Components/lsm6dso16is/lsm6dso16is_reg.c ****       break;
 878:Drivers/BSP/Components/lsm6dso16is/lsm6dso16is_reg.c **** 
 879:Drivers/BSP/Components/lsm6dso16is/lsm6dso16is_reg.c ****     case LSM6DSO16IS_GY_ODR_AT_104Hz_HP:
 880:Drivers/BSP/Components/lsm6dso16is/lsm6dso16is_reg.c ****       *val = LSM6DSO16IS_GY_ODR_AT_104Hz_HP;
 881:Drivers/BSP/Components/lsm6dso16is/lsm6dso16is_reg.c ****       break;
 882:Drivers/BSP/Components/lsm6dso16is/lsm6dso16is_reg.c **** 
 883:Drivers/BSP/Components/lsm6dso16is/lsm6dso16is_reg.c ****     case LSM6DSO16IS_GY_ODR_AT_208Hz_HP:
 884:Drivers/BSP/Components/lsm6dso16is/lsm6dso16is_reg.c ****       *val = LSM6DSO16IS_GY_ODR_AT_208Hz_HP;
 885:Drivers/BSP/Components/lsm6dso16is/lsm6dso16is_reg.c ****       break;
 886:Drivers/BSP/Components/lsm6dso16is/lsm6dso16is_reg.c **** 
 887:Drivers/BSP/Components/lsm6dso16is/lsm6dso16is_reg.c ****     case LSM6DSO16IS_GY_ODR_AT_416Hz_HP:
 888:Drivers/BSP/Components/lsm6dso16is/lsm6dso16is_reg.c ****       *val = LSM6DSO16IS_GY_ODR_AT_416Hz_HP;
 889:Drivers/BSP/Components/lsm6dso16is/lsm6dso16is_reg.c ****       break;
 890:Drivers/BSP/Components/lsm6dso16is/lsm6dso16is_reg.c **** 
 891:Drivers/BSP/Components/lsm6dso16is/lsm6dso16is_reg.c ****     case LSM6DSO16IS_GY_ODR_AT_833Hz_HP:
 892:Drivers/BSP/Components/lsm6dso16is/lsm6dso16is_reg.c ****       *val = LSM6DSO16IS_GY_ODR_AT_833Hz_HP;
 893:Drivers/BSP/Components/lsm6dso16is/lsm6dso16is_reg.c ****       break;
 894:Drivers/BSP/Components/lsm6dso16is/lsm6dso16is_reg.c **** 
 895:Drivers/BSP/Components/lsm6dso16is/lsm6dso16is_reg.c ****     case LSM6DSO16IS_GY_ODR_AT_1667Hz_HP:
 896:Drivers/BSP/Components/lsm6dso16is/lsm6dso16is_reg.c ****       *val = LSM6DSO16IS_GY_ODR_AT_1667Hz_HP;
 897:Drivers/BSP/Components/lsm6dso16is/lsm6dso16is_reg.c ****       break;
 898:Drivers/BSP/Components/lsm6dso16is/lsm6dso16is_reg.c **** 
 899:Drivers/BSP/Components/lsm6dso16is/lsm6dso16is_reg.c ****     case LSM6DSO16IS_GY_ODR_AT_3333Hz_HP:
 900:Drivers/BSP/Components/lsm6dso16is/lsm6dso16is_reg.c ****       *val = LSM6DSO16IS_GY_ODR_AT_3333Hz_HP;
 901:Drivers/BSP/Components/lsm6dso16is/lsm6dso16is_reg.c ****       break;
 902:Drivers/BSP/Components/lsm6dso16is/lsm6dso16is_reg.c **** 
 903:Drivers/BSP/Components/lsm6dso16is/lsm6dso16is_reg.c ****     case LSM6DSO16IS_GY_ODR_AT_6667Hz_HP:
ARM GAS  C:\Users\Nathan\AppData\Local\Temp\ccznllVY.s 			page 19


 904:Drivers/BSP/Components/lsm6dso16is/lsm6dso16is_reg.c ****       *val = LSM6DSO16IS_GY_ODR_AT_6667Hz_HP;
 905:Drivers/BSP/Components/lsm6dso16is/lsm6dso16is_reg.c ****       break;
 906:Drivers/BSP/Components/lsm6dso16is/lsm6dso16is_reg.c **** 
 907:Drivers/BSP/Components/lsm6dso16is/lsm6dso16is_reg.c ****     case LSM6DSO16IS_GY_ODR_AT_12Hz5_LP:
 908:Drivers/BSP/Components/lsm6dso16is/lsm6dso16is_reg.c ****       *val = LSM6DSO16IS_GY_ODR_AT_12Hz5_LP;
 909:Drivers/BSP/Components/lsm6dso16is/lsm6dso16is_reg.c ****       break;
 910:Drivers/BSP/Components/lsm6dso16is/lsm6dso16is_reg.c **** 
 911:Drivers/BSP/Components/lsm6dso16is/lsm6dso16is_reg.c ****     case LSM6DSO16IS_GY_ODR_AT_26H_LP:
 912:Drivers/BSP/Components/lsm6dso16is/lsm6dso16is_reg.c ****       *val = LSM6DSO16IS_GY_ODR_AT_26H_LP;
 913:Drivers/BSP/Components/lsm6dso16is/lsm6dso16is_reg.c ****       break;
 914:Drivers/BSP/Components/lsm6dso16is/lsm6dso16is_reg.c **** 
 915:Drivers/BSP/Components/lsm6dso16is/lsm6dso16is_reg.c ****     case LSM6DSO16IS_GY_ODR_AT_52Hz_LP:
 916:Drivers/BSP/Components/lsm6dso16is/lsm6dso16is_reg.c ****       *val = LSM6DSO16IS_GY_ODR_AT_52Hz_LP;
 917:Drivers/BSP/Components/lsm6dso16is/lsm6dso16is_reg.c ****       break;
 918:Drivers/BSP/Components/lsm6dso16is/lsm6dso16is_reg.c **** 
 919:Drivers/BSP/Components/lsm6dso16is/lsm6dso16is_reg.c ****     case LSM6DSO16IS_GY_ODR_AT_104Hz_LP:
 920:Drivers/BSP/Components/lsm6dso16is/lsm6dso16is_reg.c ****       *val = LSM6DSO16IS_GY_ODR_AT_104Hz_LP;
 921:Drivers/BSP/Components/lsm6dso16is/lsm6dso16is_reg.c ****       break;
 922:Drivers/BSP/Components/lsm6dso16is/lsm6dso16is_reg.c **** 
 923:Drivers/BSP/Components/lsm6dso16is/lsm6dso16is_reg.c ****     case LSM6DSO16IS_GY_ODR_AT_208Hz_LP:
 924:Drivers/BSP/Components/lsm6dso16is/lsm6dso16is_reg.c ****       *val = LSM6DSO16IS_GY_ODR_AT_208Hz_LP;
 925:Drivers/BSP/Components/lsm6dso16is/lsm6dso16is_reg.c ****       break;
 926:Drivers/BSP/Components/lsm6dso16is/lsm6dso16is_reg.c **** 
 927:Drivers/BSP/Components/lsm6dso16is/lsm6dso16is_reg.c ****     case LSM6DSO16IS_GY_ODR_AT_416Hz_LP:
 928:Drivers/BSP/Components/lsm6dso16is/lsm6dso16is_reg.c ****       *val = LSM6DSO16IS_GY_ODR_AT_416Hz_LP;
 929:Drivers/BSP/Components/lsm6dso16is/lsm6dso16is_reg.c ****       break;
 930:Drivers/BSP/Components/lsm6dso16is/lsm6dso16is_reg.c **** 
 931:Drivers/BSP/Components/lsm6dso16is/lsm6dso16is_reg.c ****     case LSM6DSO16IS_GY_ODR_AT_833Hz_LP:
 932:Drivers/BSP/Components/lsm6dso16is/lsm6dso16is_reg.c ****       *val = LSM6DSO16IS_GY_ODR_AT_833Hz_LP;
 933:Drivers/BSP/Components/lsm6dso16is/lsm6dso16is_reg.c ****       break;
 934:Drivers/BSP/Components/lsm6dso16is/lsm6dso16is_reg.c **** 
 935:Drivers/BSP/Components/lsm6dso16is/lsm6dso16is_reg.c ****     case LSM6DSO16IS_GY_ODR_AT_1667Hz_LP:
 936:Drivers/BSP/Components/lsm6dso16is/lsm6dso16is_reg.c ****       *val = LSM6DSO16IS_GY_ODR_AT_1667Hz_LP;
 937:Drivers/BSP/Components/lsm6dso16is/lsm6dso16is_reg.c ****       break;
 938:Drivers/BSP/Components/lsm6dso16is/lsm6dso16is_reg.c **** 
 939:Drivers/BSP/Components/lsm6dso16is/lsm6dso16is_reg.c ****     case LSM6DSO16IS_GY_ODR_AT_3333Hz_LP:
 940:Drivers/BSP/Components/lsm6dso16is/lsm6dso16is_reg.c ****       *val = LSM6DSO16IS_GY_ODR_AT_3333Hz_LP;
 941:Drivers/BSP/Components/lsm6dso16is/lsm6dso16is_reg.c ****       break;
 942:Drivers/BSP/Components/lsm6dso16is/lsm6dso16is_reg.c **** 
 943:Drivers/BSP/Components/lsm6dso16is/lsm6dso16is_reg.c ****     case LSM6DSO16IS_GY_ODR_AT_6667Hz_LP:
 944:Drivers/BSP/Components/lsm6dso16is/lsm6dso16is_reg.c ****       *val = LSM6DSO16IS_GY_ODR_AT_6667Hz_LP;
 945:Drivers/BSP/Components/lsm6dso16is/lsm6dso16is_reg.c ****       break;
 946:Drivers/BSP/Components/lsm6dso16is/lsm6dso16is_reg.c **** 
 947:Drivers/BSP/Components/lsm6dso16is/lsm6dso16is_reg.c ****     default:
 948:Drivers/BSP/Components/lsm6dso16is/lsm6dso16is_reg.c ****       *val = LSM6DSO16IS_GY_ODR_OFF;
 949:Drivers/BSP/Components/lsm6dso16is/lsm6dso16is_reg.c ****       break;
 950:Drivers/BSP/Components/lsm6dso16is/lsm6dso16is_reg.c ****   }
 951:Drivers/BSP/Components/lsm6dso16is/lsm6dso16is_reg.c **** 
 952:Drivers/BSP/Components/lsm6dso16is/lsm6dso16is_reg.c ****   return ret;
 953:Drivers/BSP/Components/lsm6dso16is/lsm6dso16is_reg.c **** }
 954:Drivers/BSP/Components/lsm6dso16is/lsm6dso16is_reg.c **** 
 955:Drivers/BSP/Components/lsm6dso16is/lsm6dso16is_reg.c **** /**
 956:Drivers/BSP/Components/lsm6dso16is/lsm6dso16is_reg.c ****   * @brief  Register address automatically incremented during a multiple byte access with a serial 
 957:Drivers/BSP/Components/lsm6dso16is/lsm6dso16is_reg.c ****   *
 958:Drivers/BSP/Components/lsm6dso16is/lsm6dso16is_reg.c ****   * @param  ctx      read / write interface definitions
 959:Drivers/BSP/Components/lsm6dso16is/lsm6dso16is_reg.c ****   * @param  val      Register address automatically incremented during a multiple byte access with 
 960:Drivers/BSP/Components/lsm6dso16is/lsm6dso16is_reg.c ****   * @retval          interface status (MANDATORY: return 0 -> no Error)
ARM GAS  C:\Users\Nathan\AppData\Local\Temp\ccznllVY.s 			page 20


 961:Drivers/BSP/Components/lsm6dso16is/lsm6dso16is_reg.c ****   *
 962:Drivers/BSP/Components/lsm6dso16is/lsm6dso16is_reg.c ****   */
 963:Drivers/BSP/Components/lsm6dso16is/lsm6dso16is_reg.c **** int32_t lsm6dso16is_auto_increment_set(const stmdev_ctx_t *ctx, uint8_t val)
 964:Drivers/BSP/Components/lsm6dso16is/lsm6dso16is_reg.c **** {
 965:Drivers/BSP/Components/lsm6dso16is/lsm6dso16is_reg.c ****   lsm6dso16is_ctrl3_c_t ctrl3_c;
 966:Drivers/BSP/Components/lsm6dso16is/lsm6dso16is_reg.c ****   int32_t ret;
 967:Drivers/BSP/Components/lsm6dso16is/lsm6dso16is_reg.c **** 
 968:Drivers/BSP/Components/lsm6dso16is/lsm6dso16is_reg.c ****   ret = lsm6dso16is_read_reg(ctx, LSM6DSO16IS_CTRL3_C, (uint8_t *)&ctrl3_c, 1);
 969:Drivers/BSP/Components/lsm6dso16is/lsm6dso16is_reg.c **** 
 970:Drivers/BSP/Components/lsm6dso16is/lsm6dso16is_reg.c ****   if (ret == 0)
 971:Drivers/BSP/Components/lsm6dso16is/lsm6dso16is_reg.c ****   {
 972:Drivers/BSP/Components/lsm6dso16is/lsm6dso16is_reg.c ****     ctrl3_c.if_inc = val;
 973:Drivers/BSP/Components/lsm6dso16is/lsm6dso16is_reg.c ****     ret = lsm6dso16is_write_reg(ctx, LSM6DSO16IS_CTRL3_C, (uint8_t *)&ctrl3_c, 1);
 974:Drivers/BSP/Components/lsm6dso16is/lsm6dso16is_reg.c ****   }
 975:Drivers/BSP/Components/lsm6dso16is/lsm6dso16is_reg.c **** 
 976:Drivers/BSP/Components/lsm6dso16is/lsm6dso16is_reg.c ****   return ret;
 977:Drivers/BSP/Components/lsm6dso16is/lsm6dso16is_reg.c **** }
 978:Drivers/BSP/Components/lsm6dso16is/lsm6dso16is_reg.c **** 
 979:Drivers/BSP/Components/lsm6dso16is/lsm6dso16is_reg.c **** /**
 980:Drivers/BSP/Components/lsm6dso16is/lsm6dso16is_reg.c ****   * @brief  Register address automatically incremented during a multiple byte access with a serial 
 981:Drivers/BSP/Components/lsm6dso16is/lsm6dso16is_reg.c ****   *
 982:Drivers/BSP/Components/lsm6dso16is/lsm6dso16is_reg.c ****   * @param  ctx      read / write interface definitions
 983:Drivers/BSP/Components/lsm6dso16is/lsm6dso16is_reg.c ****   * @param  val      Register address automatically incremented during a multiple byte access with 
 984:Drivers/BSP/Components/lsm6dso16is/lsm6dso16is_reg.c ****   * @retval          interface status (MANDATORY: return 0 -> no Error)
 985:Drivers/BSP/Components/lsm6dso16is/lsm6dso16is_reg.c ****   *
 986:Drivers/BSP/Components/lsm6dso16is/lsm6dso16is_reg.c ****   */
 987:Drivers/BSP/Components/lsm6dso16is/lsm6dso16is_reg.c **** int32_t lsm6dso16is_auto_increment_get(const stmdev_ctx_t *ctx, uint8_t *val)
 988:Drivers/BSP/Components/lsm6dso16is/lsm6dso16is_reg.c **** {
 989:Drivers/BSP/Components/lsm6dso16is/lsm6dso16is_reg.c ****   lsm6dso16is_ctrl3_c_t ctrl3_c;
 990:Drivers/BSP/Components/lsm6dso16is/lsm6dso16is_reg.c ****   int32_t ret;
 991:Drivers/BSP/Components/lsm6dso16is/lsm6dso16is_reg.c **** 
 992:Drivers/BSP/Components/lsm6dso16is/lsm6dso16is_reg.c ****   ret = lsm6dso16is_read_reg(ctx, LSM6DSO16IS_CTRL3_C, (uint8_t *)&ctrl3_c, 1);
 993:Drivers/BSP/Components/lsm6dso16is/lsm6dso16is_reg.c **** 
 994:Drivers/BSP/Components/lsm6dso16is/lsm6dso16is_reg.c ****   *val = ctrl3_c.if_inc;
 995:Drivers/BSP/Components/lsm6dso16is/lsm6dso16is_reg.c **** 
 996:Drivers/BSP/Components/lsm6dso16is/lsm6dso16is_reg.c ****   return ret;
 997:Drivers/BSP/Components/lsm6dso16is/lsm6dso16is_reg.c **** }
 998:Drivers/BSP/Components/lsm6dso16is/lsm6dso16is_reg.c **** 
 999:Drivers/BSP/Components/lsm6dso16is/lsm6dso16is_reg.c **** /**
1000:Drivers/BSP/Components/lsm6dso16is/lsm6dso16is_reg.c ****   * @brief  Block Data Update (BDU): output registers are not updated until LSB and MSB have been r
1001:Drivers/BSP/Components/lsm6dso16is/lsm6dso16is_reg.c ****   *
1002:Drivers/BSP/Components/lsm6dso16is/lsm6dso16is_reg.c ****   * @param  ctx      read / write interface definitions
1003:Drivers/BSP/Components/lsm6dso16is/lsm6dso16is_reg.c ****   * @param  val      Block Data Update (BDU): output registers are not updated until LSB and MSB ha
1004:Drivers/BSP/Components/lsm6dso16is/lsm6dso16is_reg.c ****   * @retval          interface status (MANDATORY: return 0 -> no Error)
1005:Drivers/BSP/Components/lsm6dso16is/lsm6dso16is_reg.c ****   *
1006:Drivers/BSP/Components/lsm6dso16is/lsm6dso16is_reg.c ****   */
1007:Drivers/BSP/Components/lsm6dso16is/lsm6dso16is_reg.c **** int32_t lsm6dso16is_block_data_update_set(const stmdev_ctx_t *ctx, uint8_t val)
1008:Drivers/BSP/Components/lsm6dso16is/lsm6dso16is_reg.c **** {
1009:Drivers/BSP/Components/lsm6dso16is/lsm6dso16is_reg.c ****   lsm6dso16is_ctrl3_c_t ctrl3_c;
1010:Drivers/BSP/Components/lsm6dso16is/lsm6dso16is_reg.c ****   int32_t ret;
1011:Drivers/BSP/Components/lsm6dso16is/lsm6dso16is_reg.c **** 
1012:Drivers/BSP/Components/lsm6dso16is/lsm6dso16is_reg.c ****   ret = lsm6dso16is_read_reg(ctx, LSM6DSO16IS_CTRL3_C, (uint8_t *)&ctrl3_c, 1);
1013:Drivers/BSP/Components/lsm6dso16is/lsm6dso16is_reg.c **** 
1014:Drivers/BSP/Components/lsm6dso16is/lsm6dso16is_reg.c ****   if (ret == 0)
1015:Drivers/BSP/Components/lsm6dso16is/lsm6dso16is_reg.c ****   {
1016:Drivers/BSP/Components/lsm6dso16is/lsm6dso16is_reg.c ****     ctrl3_c.bdu = val;
1017:Drivers/BSP/Components/lsm6dso16is/lsm6dso16is_reg.c ****     ret = lsm6dso16is_write_reg(ctx, LSM6DSO16IS_CTRL3_C, (uint8_t *)&ctrl3_c, 1);
ARM GAS  C:\Users\Nathan\AppData\Local\Temp\ccznllVY.s 			page 21


1018:Drivers/BSP/Components/lsm6dso16is/lsm6dso16is_reg.c ****   }
1019:Drivers/BSP/Components/lsm6dso16is/lsm6dso16is_reg.c **** 
1020:Drivers/BSP/Components/lsm6dso16is/lsm6dso16is_reg.c ****   return ret;
1021:Drivers/BSP/Components/lsm6dso16is/lsm6dso16is_reg.c **** }
1022:Drivers/BSP/Components/lsm6dso16is/lsm6dso16is_reg.c **** 
1023:Drivers/BSP/Components/lsm6dso16is/lsm6dso16is_reg.c **** /**
1024:Drivers/BSP/Components/lsm6dso16is/lsm6dso16is_reg.c ****   * @brief  Block Data Update (BDU): output registers are not updated until LSB and MSB have been r
1025:Drivers/BSP/Components/lsm6dso16is/lsm6dso16is_reg.c ****   *
1026:Drivers/BSP/Components/lsm6dso16is/lsm6dso16is_reg.c ****   * @param  ctx      read / write interface definitions
1027:Drivers/BSP/Components/lsm6dso16is/lsm6dso16is_reg.c ****   * @param  val      Block Data Update (BDU): output registers are not updated until LSB and MSB ha
1028:Drivers/BSP/Components/lsm6dso16is/lsm6dso16is_reg.c ****   * @retval          interface status (MANDATORY: return 0 -> no Error)
1029:Drivers/BSP/Components/lsm6dso16is/lsm6dso16is_reg.c ****   *
1030:Drivers/BSP/Components/lsm6dso16is/lsm6dso16is_reg.c ****   */
1031:Drivers/BSP/Components/lsm6dso16is/lsm6dso16is_reg.c **** int32_t lsm6dso16is_block_data_update_get(const stmdev_ctx_t *ctx, uint8_t *val)
1032:Drivers/BSP/Components/lsm6dso16is/lsm6dso16is_reg.c **** {
1033:Drivers/BSP/Components/lsm6dso16is/lsm6dso16is_reg.c ****   lsm6dso16is_ctrl3_c_t ctrl3_c;
1034:Drivers/BSP/Components/lsm6dso16is/lsm6dso16is_reg.c ****   int32_t ret;
1035:Drivers/BSP/Components/lsm6dso16is/lsm6dso16is_reg.c **** 
1036:Drivers/BSP/Components/lsm6dso16is/lsm6dso16is_reg.c ****   ret = lsm6dso16is_read_reg(ctx, LSM6DSO16IS_CTRL3_C, (uint8_t *)&ctrl3_c, 1);
1037:Drivers/BSP/Components/lsm6dso16is/lsm6dso16is_reg.c **** 
1038:Drivers/BSP/Components/lsm6dso16is/lsm6dso16is_reg.c ****   *val = ctrl3_c.bdu;
1039:Drivers/BSP/Components/lsm6dso16is/lsm6dso16is_reg.c **** 
1040:Drivers/BSP/Components/lsm6dso16is/lsm6dso16is_reg.c ****   return ret;
1041:Drivers/BSP/Components/lsm6dso16is/lsm6dso16is_reg.c **** }
1042:Drivers/BSP/Components/lsm6dso16is/lsm6dso16is_reg.c **** 
1043:Drivers/BSP/Components/lsm6dso16is/lsm6dso16is_reg.c **** /**
1044:Drivers/BSP/Components/lsm6dso16is/lsm6dso16is_reg.c ****   * @brief  Enables gyroscope sleep mode[set]
1045:Drivers/BSP/Components/lsm6dso16is/lsm6dso16is_reg.c ****   *
1046:Drivers/BSP/Components/lsm6dso16is/lsm6dso16is_reg.c ****   * @param  ctx      read / write interface definitions
1047:Drivers/BSP/Components/lsm6dso16is/lsm6dso16is_reg.c ****   * @param  val      SLEEP_G_ENABLE, SLEEP_G_DISABLE,
1048:Drivers/BSP/Components/lsm6dso16is/lsm6dso16is_reg.c ****   * @retval          interface status (MANDATORY: return 0 -> no Error)
1049:Drivers/BSP/Components/lsm6dso16is/lsm6dso16is_reg.c ****   *
1050:Drivers/BSP/Components/lsm6dso16is/lsm6dso16is_reg.c ****   */
1051:Drivers/BSP/Components/lsm6dso16is/lsm6dso16is_reg.c **** int32_t lsm6dso16is_sleep_set(const stmdev_ctx_t *ctx, lsm6dso16is_sleep_t val)
1052:Drivers/BSP/Components/lsm6dso16is/lsm6dso16is_reg.c **** {
1053:Drivers/BSP/Components/lsm6dso16is/lsm6dso16is_reg.c ****   lsm6dso16is_ctrl4_c_t ctrl4_c;
1054:Drivers/BSP/Components/lsm6dso16is/lsm6dso16is_reg.c ****   int32_t ret;
1055:Drivers/BSP/Components/lsm6dso16is/lsm6dso16is_reg.c **** 
1056:Drivers/BSP/Components/lsm6dso16is/lsm6dso16is_reg.c ****   ret = lsm6dso16is_read_reg(ctx, LSM6DSO16IS_CTRL4_C, (uint8_t *)&ctrl4_c, 1);
1057:Drivers/BSP/Components/lsm6dso16is/lsm6dso16is_reg.c **** 
1058:Drivers/BSP/Components/lsm6dso16is/lsm6dso16is_reg.c ****   if (ret == 0)
1059:Drivers/BSP/Components/lsm6dso16is/lsm6dso16is_reg.c ****   {
1060:Drivers/BSP/Components/lsm6dso16is/lsm6dso16is_reg.c ****     ctrl4_c.sleep_g = ((uint8_t)val & 0x1U);
1061:Drivers/BSP/Components/lsm6dso16is/lsm6dso16is_reg.c ****     ret = lsm6dso16is_write_reg(ctx, LSM6DSO16IS_CTRL4_C, (uint8_t *)&ctrl4_c, 1);
1062:Drivers/BSP/Components/lsm6dso16is/lsm6dso16is_reg.c ****   }
1063:Drivers/BSP/Components/lsm6dso16is/lsm6dso16is_reg.c **** 
1064:Drivers/BSP/Components/lsm6dso16is/lsm6dso16is_reg.c ****   return ret;
1065:Drivers/BSP/Components/lsm6dso16is/lsm6dso16is_reg.c **** }
1066:Drivers/BSP/Components/lsm6dso16is/lsm6dso16is_reg.c **** 
1067:Drivers/BSP/Components/lsm6dso16is/lsm6dso16is_reg.c **** /**
1068:Drivers/BSP/Components/lsm6dso16is/lsm6dso16is_reg.c ****   * @brief  Enables gyroscope sleep mode[get]
1069:Drivers/BSP/Components/lsm6dso16is/lsm6dso16is_reg.c ****   *
1070:Drivers/BSP/Components/lsm6dso16is/lsm6dso16is_reg.c ****   * @param  ctx      read / write interface definitions
1071:Drivers/BSP/Components/lsm6dso16is/lsm6dso16is_reg.c ****   * @param  val      SLEEP_G_ENABLE, SLEEP_G_DISABLE,
1072:Drivers/BSP/Components/lsm6dso16is/lsm6dso16is_reg.c ****   * @retval          interface status (MANDATORY: return 0 -> no Error)
1073:Drivers/BSP/Components/lsm6dso16is/lsm6dso16is_reg.c ****   *
1074:Drivers/BSP/Components/lsm6dso16is/lsm6dso16is_reg.c ****   */
ARM GAS  C:\Users\Nathan\AppData\Local\Temp\ccznllVY.s 			page 22


1075:Drivers/BSP/Components/lsm6dso16is/lsm6dso16is_reg.c **** int32_t lsm6dso16is_sleep_get(const stmdev_ctx_t *ctx, lsm6dso16is_sleep_t *val)
1076:Drivers/BSP/Components/lsm6dso16is/lsm6dso16is_reg.c **** {
1077:Drivers/BSP/Components/lsm6dso16is/lsm6dso16is_reg.c ****   lsm6dso16is_ctrl4_c_t ctrl4_c;
1078:Drivers/BSP/Components/lsm6dso16is/lsm6dso16is_reg.c ****   int32_t ret;
1079:Drivers/BSP/Components/lsm6dso16is/lsm6dso16is_reg.c **** 
1080:Drivers/BSP/Components/lsm6dso16is/lsm6dso16is_reg.c ****   ret = lsm6dso16is_read_reg(ctx, LSM6DSO16IS_CTRL4_C, (uint8_t *)&ctrl4_c, 1);
1081:Drivers/BSP/Components/lsm6dso16is/lsm6dso16is_reg.c **** 
1082:Drivers/BSP/Components/lsm6dso16is/lsm6dso16is_reg.c ****   switch ((ctrl4_c.sleep_g))
1083:Drivers/BSP/Components/lsm6dso16is/lsm6dso16is_reg.c ****   {
1084:Drivers/BSP/Components/lsm6dso16is/lsm6dso16is_reg.c ****     case LSM6DSO16IS_SLEEP_G_ENABLE:
1085:Drivers/BSP/Components/lsm6dso16is/lsm6dso16is_reg.c ****       *val = LSM6DSO16IS_SLEEP_G_ENABLE;
1086:Drivers/BSP/Components/lsm6dso16is/lsm6dso16is_reg.c ****       break;
1087:Drivers/BSP/Components/lsm6dso16is/lsm6dso16is_reg.c **** 
1088:Drivers/BSP/Components/lsm6dso16is/lsm6dso16is_reg.c ****     case LSM6DSO16IS_SLEEP_G_DISABLE:
1089:Drivers/BSP/Components/lsm6dso16is/lsm6dso16is_reg.c ****       *val = LSM6DSO16IS_SLEEP_G_DISABLE;
1090:Drivers/BSP/Components/lsm6dso16is/lsm6dso16is_reg.c ****       break;
1091:Drivers/BSP/Components/lsm6dso16is/lsm6dso16is_reg.c **** 
1092:Drivers/BSP/Components/lsm6dso16is/lsm6dso16is_reg.c ****     default:
1093:Drivers/BSP/Components/lsm6dso16is/lsm6dso16is_reg.c ****       *val = LSM6DSO16IS_SLEEP_G_ENABLE;
1094:Drivers/BSP/Components/lsm6dso16is/lsm6dso16is_reg.c ****       break;
1095:Drivers/BSP/Components/lsm6dso16is/lsm6dso16is_reg.c ****   }
1096:Drivers/BSP/Components/lsm6dso16is/lsm6dso16is_reg.c ****   return ret;
1097:Drivers/BSP/Components/lsm6dso16is/lsm6dso16is_reg.c **** }
1098:Drivers/BSP/Components/lsm6dso16is/lsm6dso16is_reg.c **** 
1099:Drivers/BSP/Components/lsm6dso16is/lsm6dso16is_reg.c **** /**
1100:Drivers/BSP/Components/lsm6dso16is/lsm6dso16is_reg.c ****   * @brief  Accelerometer self-test selection.[set]
1101:Drivers/BSP/Components/lsm6dso16is/lsm6dso16is_reg.c ****   *
1102:Drivers/BSP/Components/lsm6dso16is/lsm6dso16is_reg.c ****   * @param  ctx      read / write interface definitions
1103:Drivers/BSP/Components/lsm6dso16is/lsm6dso16is_reg.c ****   * @param  val      XL_ST_DISABLE, XL_ST_POSITIVE, XL_ST_NEGATIVE,
1104:Drivers/BSP/Components/lsm6dso16is/lsm6dso16is_reg.c ****   * @retval          interface status (MANDATORY: return 0 -> no Error)
1105:Drivers/BSP/Components/lsm6dso16is/lsm6dso16is_reg.c ****   *
1106:Drivers/BSP/Components/lsm6dso16is/lsm6dso16is_reg.c ****   */
1107:Drivers/BSP/Components/lsm6dso16is/lsm6dso16is_reg.c **** int32_t lsm6dso16is_xl_self_test_set(const stmdev_ctx_t *ctx,
1108:Drivers/BSP/Components/lsm6dso16is/lsm6dso16is_reg.c ****                                      lsm6dso16is_xl_self_test_t val)
1109:Drivers/BSP/Components/lsm6dso16is/lsm6dso16is_reg.c **** {
1110:Drivers/BSP/Components/lsm6dso16is/lsm6dso16is_reg.c ****   lsm6dso16is_ctrl5_c_t ctrl5_c;
1111:Drivers/BSP/Components/lsm6dso16is/lsm6dso16is_reg.c ****   int32_t ret;
1112:Drivers/BSP/Components/lsm6dso16is/lsm6dso16is_reg.c **** 
1113:Drivers/BSP/Components/lsm6dso16is/lsm6dso16is_reg.c ****   ret = lsm6dso16is_read_reg(ctx, LSM6DSO16IS_CTRL5_C, (uint8_t *)&ctrl5_c, 1);
1114:Drivers/BSP/Components/lsm6dso16is/lsm6dso16is_reg.c **** 
1115:Drivers/BSP/Components/lsm6dso16is/lsm6dso16is_reg.c ****   if (ret == 0)
1116:Drivers/BSP/Components/lsm6dso16is/lsm6dso16is_reg.c ****   {
1117:Drivers/BSP/Components/lsm6dso16is/lsm6dso16is_reg.c ****     ctrl5_c.st_xl = ((uint8_t)val & 0x3U);
1118:Drivers/BSP/Components/lsm6dso16is/lsm6dso16is_reg.c ****     ret = lsm6dso16is_write_reg(ctx, LSM6DSO16IS_CTRL5_C, (uint8_t *)&ctrl5_c, 1);
1119:Drivers/BSP/Components/lsm6dso16is/lsm6dso16is_reg.c ****   }
1120:Drivers/BSP/Components/lsm6dso16is/lsm6dso16is_reg.c **** 
1121:Drivers/BSP/Components/lsm6dso16is/lsm6dso16is_reg.c ****   return ret;
1122:Drivers/BSP/Components/lsm6dso16is/lsm6dso16is_reg.c **** }
1123:Drivers/BSP/Components/lsm6dso16is/lsm6dso16is_reg.c **** 
1124:Drivers/BSP/Components/lsm6dso16is/lsm6dso16is_reg.c **** /**
1125:Drivers/BSP/Components/lsm6dso16is/lsm6dso16is_reg.c ****   * @brief  Accelerometer self-test selection.[get]
1126:Drivers/BSP/Components/lsm6dso16is/lsm6dso16is_reg.c ****   *
1127:Drivers/BSP/Components/lsm6dso16is/lsm6dso16is_reg.c ****   * @param  ctx      read / write interface definitions
1128:Drivers/BSP/Components/lsm6dso16is/lsm6dso16is_reg.c ****   * @param  val      XL_ST_DISABLE, XL_ST_POSITIVE, XL_ST_NEGATIVE,
1129:Drivers/BSP/Components/lsm6dso16is/lsm6dso16is_reg.c ****   * @retval          interface status (MANDATORY: return 0 -> no Error)
1130:Drivers/BSP/Components/lsm6dso16is/lsm6dso16is_reg.c ****   *
1131:Drivers/BSP/Components/lsm6dso16is/lsm6dso16is_reg.c ****   */
ARM GAS  C:\Users\Nathan\AppData\Local\Temp\ccznllVY.s 			page 23


1132:Drivers/BSP/Components/lsm6dso16is/lsm6dso16is_reg.c **** int32_t lsm6dso16is_xl_self_test_get(const stmdev_ctx_t *ctx,
1133:Drivers/BSP/Components/lsm6dso16is/lsm6dso16is_reg.c ****                                      lsm6dso16is_xl_self_test_t *val)
1134:Drivers/BSP/Components/lsm6dso16is/lsm6dso16is_reg.c **** {
1135:Drivers/BSP/Components/lsm6dso16is/lsm6dso16is_reg.c ****   lsm6dso16is_ctrl5_c_t ctrl5_c;
1136:Drivers/BSP/Components/lsm6dso16is/lsm6dso16is_reg.c ****   int32_t ret;
1137:Drivers/BSP/Components/lsm6dso16is/lsm6dso16is_reg.c **** 
1138:Drivers/BSP/Components/lsm6dso16is/lsm6dso16is_reg.c ****   ret = lsm6dso16is_read_reg(ctx, LSM6DSO16IS_CTRL5_C, (uint8_t *)&ctrl5_c, 1);
1139:Drivers/BSP/Components/lsm6dso16is/lsm6dso16is_reg.c **** 
1140:Drivers/BSP/Components/lsm6dso16is/lsm6dso16is_reg.c ****   switch ((ctrl5_c.st_xl))
1141:Drivers/BSP/Components/lsm6dso16is/lsm6dso16is_reg.c ****   {
1142:Drivers/BSP/Components/lsm6dso16is/lsm6dso16is_reg.c ****     case LSM6DSO16IS_XL_ST_DISABLE:
1143:Drivers/BSP/Components/lsm6dso16is/lsm6dso16is_reg.c ****       *val = LSM6DSO16IS_XL_ST_DISABLE;
1144:Drivers/BSP/Components/lsm6dso16is/lsm6dso16is_reg.c ****       break;
1145:Drivers/BSP/Components/lsm6dso16is/lsm6dso16is_reg.c **** 
1146:Drivers/BSP/Components/lsm6dso16is/lsm6dso16is_reg.c ****     case LSM6DSO16IS_XL_ST_POSITIVE:
1147:Drivers/BSP/Components/lsm6dso16is/lsm6dso16is_reg.c ****       *val = LSM6DSO16IS_XL_ST_POSITIVE;
1148:Drivers/BSP/Components/lsm6dso16is/lsm6dso16is_reg.c ****       break;
1149:Drivers/BSP/Components/lsm6dso16is/lsm6dso16is_reg.c **** 
1150:Drivers/BSP/Components/lsm6dso16is/lsm6dso16is_reg.c ****     case LSM6DSO16IS_XL_ST_NEGATIVE:
1151:Drivers/BSP/Components/lsm6dso16is/lsm6dso16is_reg.c ****       *val = LSM6DSO16IS_XL_ST_NEGATIVE;
1152:Drivers/BSP/Components/lsm6dso16is/lsm6dso16is_reg.c ****       break;
1153:Drivers/BSP/Components/lsm6dso16is/lsm6dso16is_reg.c **** 
1154:Drivers/BSP/Components/lsm6dso16is/lsm6dso16is_reg.c ****     default:
1155:Drivers/BSP/Components/lsm6dso16is/lsm6dso16is_reg.c ****       *val = LSM6DSO16IS_XL_ST_DISABLE;
1156:Drivers/BSP/Components/lsm6dso16is/lsm6dso16is_reg.c ****       break;
1157:Drivers/BSP/Components/lsm6dso16is/lsm6dso16is_reg.c ****   }
1158:Drivers/BSP/Components/lsm6dso16is/lsm6dso16is_reg.c ****   return ret;
1159:Drivers/BSP/Components/lsm6dso16is/lsm6dso16is_reg.c **** }
1160:Drivers/BSP/Components/lsm6dso16is/lsm6dso16is_reg.c **** 
1161:Drivers/BSP/Components/lsm6dso16is/lsm6dso16is_reg.c **** /**
1162:Drivers/BSP/Components/lsm6dso16is/lsm6dso16is_reg.c ****   * @brief  Gyroscope self-test selection.[set]
1163:Drivers/BSP/Components/lsm6dso16is/lsm6dso16is_reg.c ****   *
1164:Drivers/BSP/Components/lsm6dso16is/lsm6dso16is_reg.c ****   * @param  ctx      read / write interface definitions
1165:Drivers/BSP/Components/lsm6dso16is/lsm6dso16is_reg.c ****   * @param  val      GY_ST_DISABLE, GY_ST_POSITIVE, GY_ST_NEGATIVE,
1166:Drivers/BSP/Components/lsm6dso16is/lsm6dso16is_reg.c ****   * @retval          interface status (MANDATORY: return 0 -> no Error)
1167:Drivers/BSP/Components/lsm6dso16is/lsm6dso16is_reg.c ****   *
1168:Drivers/BSP/Components/lsm6dso16is/lsm6dso16is_reg.c ****   */
1169:Drivers/BSP/Components/lsm6dso16is/lsm6dso16is_reg.c **** int32_t lsm6dso16is_gy_self_test_set(const stmdev_ctx_t *ctx,
1170:Drivers/BSP/Components/lsm6dso16is/lsm6dso16is_reg.c ****                                      lsm6dso16is_gy_self_test_t val)
1171:Drivers/BSP/Components/lsm6dso16is/lsm6dso16is_reg.c **** {
1172:Drivers/BSP/Components/lsm6dso16is/lsm6dso16is_reg.c ****   lsm6dso16is_ctrl5_c_t ctrl5_c;
1173:Drivers/BSP/Components/lsm6dso16is/lsm6dso16is_reg.c ****   int32_t ret;
1174:Drivers/BSP/Components/lsm6dso16is/lsm6dso16is_reg.c **** 
1175:Drivers/BSP/Components/lsm6dso16is/lsm6dso16is_reg.c ****   ret = lsm6dso16is_read_reg(ctx, LSM6DSO16IS_CTRL5_C, (uint8_t *)&ctrl5_c, 1);
1176:Drivers/BSP/Components/lsm6dso16is/lsm6dso16is_reg.c **** 
1177:Drivers/BSP/Components/lsm6dso16is/lsm6dso16is_reg.c ****   if (ret == 0)
1178:Drivers/BSP/Components/lsm6dso16is/lsm6dso16is_reg.c ****   {
1179:Drivers/BSP/Components/lsm6dso16is/lsm6dso16is_reg.c ****     ctrl5_c.st_g = ((uint8_t)val & 0x3U);
1180:Drivers/BSP/Components/lsm6dso16is/lsm6dso16is_reg.c ****     ret = lsm6dso16is_write_reg(ctx, LSM6DSO16IS_CTRL5_C, (uint8_t *)&ctrl5_c, 1);
1181:Drivers/BSP/Components/lsm6dso16is/lsm6dso16is_reg.c ****   }
1182:Drivers/BSP/Components/lsm6dso16is/lsm6dso16is_reg.c **** 
1183:Drivers/BSP/Components/lsm6dso16is/lsm6dso16is_reg.c ****   return ret;
1184:Drivers/BSP/Components/lsm6dso16is/lsm6dso16is_reg.c **** }
1185:Drivers/BSP/Components/lsm6dso16is/lsm6dso16is_reg.c **** 
1186:Drivers/BSP/Components/lsm6dso16is/lsm6dso16is_reg.c **** /**
1187:Drivers/BSP/Components/lsm6dso16is/lsm6dso16is_reg.c ****   * @brief  Gyroscope self-test selection.[get]
1188:Drivers/BSP/Components/lsm6dso16is/lsm6dso16is_reg.c ****   *
ARM GAS  C:\Users\Nathan\AppData\Local\Temp\ccznllVY.s 			page 24


1189:Drivers/BSP/Components/lsm6dso16is/lsm6dso16is_reg.c ****   * @param  ctx      read / write interface definitions
1190:Drivers/BSP/Components/lsm6dso16is/lsm6dso16is_reg.c ****   * @param  val      GY_ST_DISABLE, GY_ST_POSITIVE, GY_ST_NEGATIVE,
1191:Drivers/BSP/Components/lsm6dso16is/lsm6dso16is_reg.c ****   * @retval          interface status (MANDATORY: return 0 -> no Error)
1192:Drivers/BSP/Components/lsm6dso16is/lsm6dso16is_reg.c ****   *
1193:Drivers/BSP/Components/lsm6dso16is/lsm6dso16is_reg.c ****   */
1194:Drivers/BSP/Components/lsm6dso16is/lsm6dso16is_reg.c **** int32_t lsm6dso16is_gy_self_test_get(const stmdev_ctx_t *ctx,
1195:Drivers/BSP/Components/lsm6dso16is/lsm6dso16is_reg.c ****                                      lsm6dso16is_gy_self_test_t *val)
1196:Drivers/BSP/Components/lsm6dso16is/lsm6dso16is_reg.c **** {
1197:Drivers/BSP/Components/lsm6dso16is/lsm6dso16is_reg.c ****   lsm6dso16is_ctrl5_c_t ctrl5_c;
1198:Drivers/BSP/Components/lsm6dso16is/lsm6dso16is_reg.c ****   int32_t ret;
1199:Drivers/BSP/Components/lsm6dso16is/lsm6dso16is_reg.c **** 
1200:Drivers/BSP/Components/lsm6dso16is/lsm6dso16is_reg.c ****   ret = lsm6dso16is_read_reg(ctx, LSM6DSO16IS_CTRL5_C, (uint8_t *)&ctrl5_c, 1);
1201:Drivers/BSP/Components/lsm6dso16is/lsm6dso16is_reg.c **** 
1202:Drivers/BSP/Components/lsm6dso16is/lsm6dso16is_reg.c ****   switch ((ctrl5_c.st_g))
1203:Drivers/BSP/Components/lsm6dso16is/lsm6dso16is_reg.c ****   {
1204:Drivers/BSP/Components/lsm6dso16is/lsm6dso16is_reg.c ****     case LSM6DSO16IS_GY_ST_DISABLE:
1205:Drivers/BSP/Components/lsm6dso16is/lsm6dso16is_reg.c ****       *val = LSM6DSO16IS_GY_ST_DISABLE;
1206:Drivers/BSP/Components/lsm6dso16is/lsm6dso16is_reg.c ****       break;
1207:Drivers/BSP/Components/lsm6dso16is/lsm6dso16is_reg.c **** 
1208:Drivers/BSP/Components/lsm6dso16is/lsm6dso16is_reg.c ****     case LSM6DSO16IS_GY_ST_POSITIVE:
1209:Drivers/BSP/Components/lsm6dso16is/lsm6dso16is_reg.c ****       *val = LSM6DSO16IS_GY_ST_POSITIVE;
1210:Drivers/BSP/Components/lsm6dso16is/lsm6dso16is_reg.c ****       break;
1211:Drivers/BSP/Components/lsm6dso16is/lsm6dso16is_reg.c **** 
1212:Drivers/BSP/Components/lsm6dso16is/lsm6dso16is_reg.c ****     case LSM6DSO16IS_GY_ST_NEGATIVE:
1213:Drivers/BSP/Components/lsm6dso16is/lsm6dso16is_reg.c ****       *val = LSM6DSO16IS_GY_ST_NEGATIVE;
1214:Drivers/BSP/Components/lsm6dso16is/lsm6dso16is_reg.c ****       break;
1215:Drivers/BSP/Components/lsm6dso16is/lsm6dso16is_reg.c **** 
1216:Drivers/BSP/Components/lsm6dso16is/lsm6dso16is_reg.c ****     default:
1217:Drivers/BSP/Components/lsm6dso16is/lsm6dso16is_reg.c ****       *val = LSM6DSO16IS_GY_ST_DISABLE;
1218:Drivers/BSP/Components/lsm6dso16is/lsm6dso16is_reg.c ****       break;
1219:Drivers/BSP/Components/lsm6dso16is/lsm6dso16is_reg.c ****   }
1220:Drivers/BSP/Components/lsm6dso16is/lsm6dso16is_reg.c ****   return ret;
1221:Drivers/BSP/Components/lsm6dso16is/lsm6dso16is_reg.c **** }
1222:Drivers/BSP/Components/lsm6dso16is/lsm6dso16is_reg.c **** 
1223:Drivers/BSP/Components/lsm6dso16is/lsm6dso16is_reg.c **** /**
1224:Drivers/BSP/Components/lsm6dso16is/lsm6dso16is_reg.c ****   * @defgroup Serial Interfaces
1225:Drivers/BSP/Components/lsm6dso16is/lsm6dso16is_reg.c ****   * @brief    Serial Interfaces
1226:Drivers/BSP/Components/lsm6dso16is/lsm6dso16is_reg.c ****   * @{/
1227:Drivers/BSP/Components/lsm6dso16is/lsm6dso16is_reg.c ****   *
1228:Drivers/BSP/Components/lsm6dso16is/lsm6dso16is_reg.c ****   */
1229:Drivers/BSP/Components/lsm6dso16is/lsm6dso16is_reg.c **** /**
1230:Drivers/BSP/Components/lsm6dso16is/lsm6dso16is_reg.c ****   * @brief  Enables pull-up on SDO pin of UI (User Interface).[set]
1231:Drivers/BSP/Components/lsm6dso16is/lsm6dso16is_reg.c ****   *
1232:Drivers/BSP/Components/lsm6dso16is/lsm6dso16is_reg.c ****   * @param  ctx      read / write interface definitions
1233:Drivers/BSP/Components/lsm6dso16is/lsm6dso16is_reg.c ****   * @param  val      Enables pull-up on SDO pin of UI (User Interface).
1234:Drivers/BSP/Components/lsm6dso16is/lsm6dso16is_reg.c ****   * @retval          interface status (MANDATORY: return 0 -> no Error)
1235:Drivers/BSP/Components/lsm6dso16is/lsm6dso16is_reg.c ****   *
1236:Drivers/BSP/Components/lsm6dso16is/lsm6dso16is_reg.c ****   */
1237:Drivers/BSP/Components/lsm6dso16is/lsm6dso16is_reg.c **** int32_t lsm6dso16is_ui_sdo_pull_up_set(const stmdev_ctx_t *ctx, uint8_t val)
1238:Drivers/BSP/Components/lsm6dso16is/lsm6dso16is_reg.c **** {
1239:Drivers/BSP/Components/lsm6dso16is/lsm6dso16is_reg.c ****   lsm6dso16is_pin_ctrl_t pin_ctrl;
1240:Drivers/BSP/Components/lsm6dso16is/lsm6dso16is_reg.c ****   int32_t ret;
1241:Drivers/BSP/Components/lsm6dso16is/lsm6dso16is_reg.c **** 
1242:Drivers/BSP/Components/lsm6dso16is/lsm6dso16is_reg.c ****   ret = lsm6dso16is_read_reg(ctx, LSM6DSO16IS_PIN_CTRL, (uint8_t *)&pin_ctrl, 1);
1243:Drivers/BSP/Components/lsm6dso16is/lsm6dso16is_reg.c **** 
1244:Drivers/BSP/Components/lsm6dso16is/lsm6dso16is_reg.c ****   if (ret == 0)
1245:Drivers/BSP/Components/lsm6dso16is/lsm6dso16is_reg.c ****   {
ARM GAS  C:\Users\Nathan\AppData\Local\Temp\ccznllVY.s 			page 25


1246:Drivers/BSP/Components/lsm6dso16is/lsm6dso16is_reg.c ****     pin_ctrl.sdo_pu_en = val;
1247:Drivers/BSP/Components/lsm6dso16is/lsm6dso16is_reg.c ****     ret = lsm6dso16is_write_reg(ctx, LSM6DSO16IS_PIN_CTRL, (uint8_t *)&pin_ctrl, 1);
1248:Drivers/BSP/Components/lsm6dso16is/lsm6dso16is_reg.c ****   }
1249:Drivers/BSP/Components/lsm6dso16is/lsm6dso16is_reg.c **** 
1250:Drivers/BSP/Components/lsm6dso16is/lsm6dso16is_reg.c ****   return ret;
1251:Drivers/BSP/Components/lsm6dso16is/lsm6dso16is_reg.c **** }
1252:Drivers/BSP/Components/lsm6dso16is/lsm6dso16is_reg.c **** 
1253:Drivers/BSP/Components/lsm6dso16is/lsm6dso16is_reg.c **** /**
1254:Drivers/BSP/Components/lsm6dso16is/lsm6dso16is_reg.c ****   * @brief  Enables pull-up on SDO pin of UI (User Interface).[get]
1255:Drivers/BSP/Components/lsm6dso16is/lsm6dso16is_reg.c ****   *
1256:Drivers/BSP/Components/lsm6dso16is/lsm6dso16is_reg.c ****   * @param  ctx      read / write interface definitions
1257:Drivers/BSP/Components/lsm6dso16is/lsm6dso16is_reg.c ****   * @param  val      Enables pull-up on SDO pin of UI (User Interface).
1258:Drivers/BSP/Components/lsm6dso16is/lsm6dso16is_reg.c ****   * @retval          interface status (MANDATORY: return 0 -> no Error)
1259:Drivers/BSP/Components/lsm6dso16is/lsm6dso16is_reg.c ****   *
1260:Drivers/BSP/Components/lsm6dso16is/lsm6dso16is_reg.c ****   */
1261:Drivers/BSP/Components/lsm6dso16is/lsm6dso16is_reg.c **** int32_t lsm6dso16is_ui_sdo_pull_up_get(const stmdev_ctx_t *ctx, uint8_t *val)
1262:Drivers/BSP/Components/lsm6dso16is/lsm6dso16is_reg.c **** {
1263:Drivers/BSP/Components/lsm6dso16is/lsm6dso16is_reg.c ****   lsm6dso16is_pin_ctrl_t pin_ctrl;
1264:Drivers/BSP/Components/lsm6dso16is/lsm6dso16is_reg.c ****   int32_t ret;
1265:Drivers/BSP/Components/lsm6dso16is/lsm6dso16is_reg.c **** 
1266:Drivers/BSP/Components/lsm6dso16is/lsm6dso16is_reg.c ****   ret = lsm6dso16is_read_reg(ctx, LSM6DSO16IS_PIN_CTRL, (uint8_t *)&pin_ctrl, 1);
1267:Drivers/BSP/Components/lsm6dso16is/lsm6dso16is_reg.c **** 
1268:Drivers/BSP/Components/lsm6dso16is/lsm6dso16is_reg.c ****   *val = pin_ctrl.sdo_pu_en;
1269:Drivers/BSP/Components/lsm6dso16is/lsm6dso16is_reg.c **** 
1270:Drivers/BSP/Components/lsm6dso16is/lsm6dso16is_reg.c ****   return ret;
1271:Drivers/BSP/Components/lsm6dso16is/lsm6dso16is_reg.c **** }
1272:Drivers/BSP/Components/lsm6dso16is/lsm6dso16is_reg.c **** 
1273:Drivers/BSP/Components/lsm6dso16is/lsm6dso16is_reg.c **** /**
1274:Drivers/BSP/Components/lsm6dso16is/lsm6dso16is_reg.c ****   * @brief  SPI Serial Interface Mode selection.[set]
1275:Drivers/BSP/Components/lsm6dso16is/lsm6dso16is_reg.c ****   *
1276:Drivers/BSP/Components/lsm6dso16is/lsm6dso16is_reg.c ****   * @param  ctx      read / write interface definitions
1277:Drivers/BSP/Components/lsm6dso16is/lsm6dso16is_reg.c ****   * @param  val      SPI_4_WIRE, SPI_3_WIRE,
1278:Drivers/BSP/Components/lsm6dso16is/lsm6dso16is_reg.c ****   * @retval          interface status (MANDATORY: return 0 -> no Error)
1279:Drivers/BSP/Components/lsm6dso16is/lsm6dso16is_reg.c ****   *
1280:Drivers/BSP/Components/lsm6dso16is/lsm6dso16is_reg.c ****   */
1281:Drivers/BSP/Components/lsm6dso16is/lsm6dso16is_reg.c **** int32_t lsm6dso16is_spi_mode_set(const stmdev_ctx_t *ctx, lsm6dso16is_spi_mode_t val)
1282:Drivers/BSP/Components/lsm6dso16is/lsm6dso16is_reg.c **** {
1283:Drivers/BSP/Components/lsm6dso16is/lsm6dso16is_reg.c ****   lsm6dso16is_ctrl3_c_t ctrl3_c;
1284:Drivers/BSP/Components/lsm6dso16is/lsm6dso16is_reg.c ****   int32_t ret;
1285:Drivers/BSP/Components/lsm6dso16is/lsm6dso16is_reg.c **** 
1286:Drivers/BSP/Components/lsm6dso16is/lsm6dso16is_reg.c ****   ret = lsm6dso16is_read_reg(ctx, LSM6DSO16IS_CTRL3_C, (uint8_t *)&ctrl3_c, 1);
1287:Drivers/BSP/Components/lsm6dso16is/lsm6dso16is_reg.c **** 
1288:Drivers/BSP/Components/lsm6dso16is/lsm6dso16is_reg.c ****   if (ret == 0)
1289:Drivers/BSP/Components/lsm6dso16is/lsm6dso16is_reg.c ****   {
1290:Drivers/BSP/Components/lsm6dso16is/lsm6dso16is_reg.c ****     ctrl3_c.sim = ((uint8_t)val & 0x1U);
1291:Drivers/BSP/Components/lsm6dso16is/lsm6dso16is_reg.c ****     ret = lsm6dso16is_write_reg(ctx, LSM6DSO16IS_CTRL3_C, (uint8_t *)&ctrl3_c, 1);
1292:Drivers/BSP/Components/lsm6dso16is/lsm6dso16is_reg.c ****   }
1293:Drivers/BSP/Components/lsm6dso16is/lsm6dso16is_reg.c **** 
1294:Drivers/BSP/Components/lsm6dso16is/lsm6dso16is_reg.c ****   return ret;
1295:Drivers/BSP/Components/lsm6dso16is/lsm6dso16is_reg.c **** }
1296:Drivers/BSP/Components/lsm6dso16is/lsm6dso16is_reg.c **** 
1297:Drivers/BSP/Components/lsm6dso16is/lsm6dso16is_reg.c **** /**
1298:Drivers/BSP/Components/lsm6dso16is/lsm6dso16is_reg.c ****   * @brief  SPI Serial Interface Mode selection.[get]
1299:Drivers/BSP/Components/lsm6dso16is/lsm6dso16is_reg.c ****   *
1300:Drivers/BSP/Components/lsm6dso16is/lsm6dso16is_reg.c ****   * @param  ctx      read / write interface definitions
1301:Drivers/BSP/Components/lsm6dso16is/lsm6dso16is_reg.c ****   * @param  val      SPI_4_WIRE, SPI_3_WIRE,
1302:Drivers/BSP/Components/lsm6dso16is/lsm6dso16is_reg.c ****   * @retval          interface status (MANDATORY: return 0 -> no Error)
ARM GAS  C:\Users\Nathan\AppData\Local\Temp\ccznllVY.s 			page 26


1303:Drivers/BSP/Components/lsm6dso16is/lsm6dso16is_reg.c ****   *
1304:Drivers/BSP/Components/lsm6dso16is/lsm6dso16is_reg.c ****   */
1305:Drivers/BSP/Components/lsm6dso16is/lsm6dso16is_reg.c **** int32_t lsm6dso16is_spi_mode_get(const stmdev_ctx_t *ctx, lsm6dso16is_spi_mode_t *val)
1306:Drivers/BSP/Components/lsm6dso16is/lsm6dso16is_reg.c **** {
1307:Drivers/BSP/Components/lsm6dso16is/lsm6dso16is_reg.c ****   lsm6dso16is_ctrl3_c_t ctrl3_c;
1308:Drivers/BSP/Components/lsm6dso16is/lsm6dso16is_reg.c ****   int32_t ret;
1309:Drivers/BSP/Components/lsm6dso16is/lsm6dso16is_reg.c **** 
1310:Drivers/BSP/Components/lsm6dso16is/lsm6dso16is_reg.c ****   ret = lsm6dso16is_read_reg(ctx, LSM6DSO16IS_CTRL3_C, (uint8_t *)&ctrl3_c, 1);
1311:Drivers/BSP/Components/lsm6dso16is/lsm6dso16is_reg.c **** 
1312:Drivers/BSP/Components/lsm6dso16is/lsm6dso16is_reg.c ****   switch ((ctrl3_c.sim))
1313:Drivers/BSP/Components/lsm6dso16is/lsm6dso16is_reg.c ****   {
1314:Drivers/BSP/Components/lsm6dso16is/lsm6dso16is_reg.c ****     case LSM6DSO16IS_SPI_4_WIRE:
1315:Drivers/BSP/Components/lsm6dso16is/lsm6dso16is_reg.c ****       *val = LSM6DSO16IS_SPI_4_WIRE;
1316:Drivers/BSP/Components/lsm6dso16is/lsm6dso16is_reg.c ****       break;
1317:Drivers/BSP/Components/lsm6dso16is/lsm6dso16is_reg.c **** 
1318:Drivers/BSP/Components/lsm6dso16is/lsm6dso16is_reg.c ****     case LSM6DSO16IS_SPI_3_WIRE:
1319:Drivers/BSP/Components/lsm6dso16is/lsm6dso16is_reg.c ****       *val = LSM6DSO16IS_SPI_3_WIRE;
1320:Drivers/BSP/Components/lsm6dso16is/lsm6dso16is_reg.c ****       break;
1321:Drivers/BSP/Components/lsm6dso16is/lsm6dso16is_reg.c **** 
1322:Drivers/BSP/Components/lsm6dso16is/lsm6dso16is_reg.c ****     default:
1323:Drivers/BSP/Components/lsm6dso16is/lsm6dso16is_reg.c ****       *val = LSM6DSO16IS_SPI_4_WIRE;
1324:Drivers/BSP/Components/lsm6dso16is/lsm6dso16is_reg.c ****       break;
1325:Drivers/BSP/Components/lsm6dso16is/lsm6dso16is_reg.c ****   }
1326:Drivers/BSP/Components/lsm6dso16is/lsm6dso16is_reg.c ****   return ret;
1327:Drivers/BSP/Components/lsm6dso16is/lsm6dso16is_reg.c **** }
1328:Drivers/BSP/Components/lsm6dso16is/lsm6dso16is_reg.c **** 
1329:Drivers/BSP/Components/lsm6dso16is/lsm6dso16is_reg.c **** /**
1330:Drivers/BSP/Components/lsm6dso16is/lsm6dso16is_reg.c ****   * @brief  Disables I2C on UI (User Interface).[set]
1331:Drivers/BSP/Components/lsm6dso16is/lsm6dso16is_reg.c ****   *
1332:Drivers/BSP/Components/lsm6dso16is/lsm6dso16is_reg.c ****   * @param  ctx      read / write interface definitions
1333:Drivers/BSP/Components/lsm6dso16is/lsm6dso16is_reg.c ****   * @param  val      I2C_ENABLE, I2C_DISABLE,
1334:Drivers/BSP/Components/lsm6dso16is/lsm6dso16is_reg.c ****   * @retval          interface status (MANDATORY: return 0 -> no Error)
1335:Drivers/BSP/Components/lsm6dso16is/lsm6dso16is_reg.c ****   *
1336:Drivers/BSP/Components/lsm6dso16is/lsm6dso16is_reg.c ****   */
1337:Drivers/BSP/Components/lsm6dso16is/lsm6dso16is_reg.c **** int32_t lsm6dso16is_ui_i2c_mode_set(const stmdev_ctx_t *ctx, lsm6dso16is_ui_i2c_mode_t val)
1338:Drivers/BSP/Components/lsm6dso16is/lsm6dso16is_reg.c **** {
1339:Drivers/BSP/Components/lsm6dso16is/lsm6dso16is_reg.c ****   lsm6dso16is_ctrl4_c_t ctrl4_c;
1340:Drivers/BSP/Components/lsm6dso16is/lsm6dso16is_reg.c ****   int32_t ret;
1341:Drivers/BSP/Components/lsm6dso16is/lsm6dso16is_reg.c **** 
1342:Drivers/BSP/Components/lsm6dso16is/lsm6dso16is_reg.c ****   ret = lsm6dso16is_read_reg(ctx, LSM6DSO16IS_CTRL4_C, (uint8_t *)&ctrl4_c, 1);
1343:Drivers/BSP/Components/lsm6dso16is/lsm6dso16is_reg.c **** 
1344:Drivers/BSP/Components/lsm6dso16is/lsm6dso16is_reg.c ****   if (ret == 0)
1345:Drivers/BSP/Components/lsm6dso16is/lsm6dso16is_reg.c ****   {
1346:Drivers/BSP/Components/lsm6dso16is/lsm6dso16is_reg.c ****     ctrl4_c.i2c_disable = ((uint8_t)val & 0x1U);
1347:Drivers/BSP/Components/lsm6dso16is/lsm6dso16is_reg.c ****     ret = lsm6dso16is_write_reg(ctx, LSM6DSO16IS_CTRL4_C, (uint8_t *)&ctrl4_c, 1);
1348:Drivers/BSP/Components/lsm6dso16is/lsm6dso16is_reg.c ****   }
1349:Drivers/BSP/Components/lsm6dso16is/lsm6dso16is_reg.c **** 
1350:Drivers/BSP/Components/lsm6dso16is/lsm6dso16is_reg.c ****   return ret;
1351:Drivers/BSP/Components/lsm6dso16is/lsm6dso16is_reg.c **** }
1352:Drivers/BSP/Components/lsm6dso16is/lsm6dso16is_reg.c **** 
1353:Drivers/BSP/Components/lsm6dso16is/lsm6dso16is_reg.c **** /**
1354:Drivers/BSP/Components/lsm6dso16is/lsm6dso16is_reg.c ****   * @brief  Disables I2C on UI (User Interface).[get]
1355:Drivers/BSP/Components/lsm6dso16is/lsm6dso16is_reg.c ****   *
1356:Drivers/BSP/Components/lsm6dso16is/lsm6dso16is_reg.c ****   * @param  ctx      read / write interface definitions
1357:Drivers/BSP/Components/lsm6dso16is/lsm6dso16is_reg.c ****   * @param  val      I2C_ENABLE, I2C_DISABLE,
1358:Drivers/BSP/Components/lsm6dso16is/lsm6dso16is_reg.c ****   * @retval          interface status (MANDATORY: return 0 -> no Error)
1359:Drivers/BSP/Components/lsm6dso16is/lsm6dso16is_reg.c ****   *
ARM GAS  C:\Users\Nathan\AppData\Local\Temp\ccznllVY.s 			page 27


1360:Drivers/BSP/Components/lsm6dso16is/lsm6dso16is_reg.c ****   */
1361:Drivers/BSP/Components/lsm6dso16is/lsm6dso16is_reg.c **** int32_t lsm6dso16is_ui_i2c_mode_get(const stmdev_ctx_t *ctx, lsm6dso16is_ui_i2c_mode_t *val)
1362:Drivers/BSP/Components/lsm6dso16is/lsm6dso16is_reg.c **** {
1363:Drivers/BSP/Components/lsm6dso16is/lsm6dso16is_reg.c ****   lsm6dso16is_ctrl4_c_t ctrl4_c;
1364:Drivers/BSP/Components/lsm6dso16is/lsm6dso16is_reg.c ****   int32_t ret;
1365:Drivers/BSP/Components/lsm6dso16is/lsm6dso16is_reg.c **** 
1366:Drivers/BSP/Components/lsm6dso16is/lsm6dso16is_reg.c ****   ret = lsm6dso16is_read_reg(ctx, LSM6DSO16IS_CTRL4_C, (uint8_t *)&ctrl4_c, 1);
1367:Drivers/BSP/Components/lsm6dso16is/lsm6dso16is_reg.c **** 
1368:Drivers/BSP/Components/lsm6dso16is/lsm6dso16is_reg.c ****   switch ((ctrl4_c.i2c_disable))
1369:Drivers/BSP/Components/lsm6dso16is/lsm6dso16is_reg.c ****   {
1370:Drivers/BSP/Components/lsm6dso16is/lsm6dso16is_reg.c ****     case LSM6DSO16IS_I2C_ENABLE:
1371:Drivers/BSP/Components/lsm6dso16is/lsm6dso16is_reg.c ****       *val = LSM6DSO16IS_I2C_ENABLE;
1372:Drivers/BSP/Components/lsm6dso16is/lsm6dso16is_reg.c ****       break;
1373:Drivers/BSP/Components/lsm6dso16is/lsm6dso16is_reg.c **** 
1374:Drivers/BSP/Components/lsm6dso16is/lsm6dso16is_reg.c ****     case LSM6DSO16IS_I2C_DISABLE:
1375:Drivers/BSP/Components/lsm6dso16is/lsm6dso16is_reg.c ****       *val = LSM6DSO16IS_I2C_DISABLE;
1376:Drivers/BSP/Components/lsm6dso16is/lsm6dso16is_reg.c ****       break;
1377:Drivers/BSP/Components/lsm6dso16is/lsm6dso16is_reg.c **** 
1378:Drivers/BSP/Components/lsm6dso16is/lsm6dso16is_reg.c ****     default:
1379:Drivers/BSP/Components/lsm6dso16is/lsm6dso16is_reg.c ****       *val = LSM6DSO16IS_I2C_ENABLE;
1380:Drivers/BSP/Components/lsm6dso16is/lsm6dso16is_reg.c ****       break;
1381:Drivers/BSP/Components/lsm6dso16is/lsm6dso16is_reg.c ****   }
1382:Drivers/BSP/Components/lsm6dso16is/lsm6dso16is_reg.c ****   return ret;
1383:Drivers/BSP/Components/lsm6dso16is/lsm6dso16is_reg.c **** }
1384:Drivers/BSP/Components/lsm6dso16is/lsm6dso16is_reg.c **** 
1385:Drivers/BSP/Components/lsm6dso16is/lsm6dso16is_reg.c **** /**
1386:Drivers/BSP/Components/lsm6dso16is/lsm6dso16is_reg.c ****   * @}
1387:Drivers/BSP/Components/lsm6dso16is/lsm6dso16is_reg.c ****   *
1388:Drivers/BSP/Components/lsm6dso16is/lsm6dso16is_reg.c ****   */
1389:Drivers/BSP/Components/lsm6dso16is/lsm6dso16is_reg.c **** 
1390:Drivers/BSP/Components/lsm6dso16is/lsm6dso16is_reg.c **** /**
1391:Drivers/BSP/Components/lsm6dso16is/lsm6dso16is_reg.c ****   * @defgroup Timestamp
1392:Drivers/BSP/Components/lsm6dso16is/lsm6dso16is_reg.c ****   * @brief    Timestamp
1393:Drivers/BSP/Components/lsm6dso16is/lsm6dso16is_reg.c ****   * @{/
1394:Drivers/BSP/Components/lsm6dso16is/lsm6dso16is_reg.c ****   *
1395:Drivers/BSP/Components/lsm6dso16is/lsm6dso16is_reg.c ****   */
1396:Drivers/BSP/Components/lsm6dso16is/lsm6dso16is_reg.c **** /**
1397:Drivers/BSP/Components/lsm6dso16is/lsm6dso16is_reg.c ****   * @brief  Enables timestamp counter.[set]
1398:Drivers/BSP/Components/lsm6dso16is/lsm6dso16is_reg.c ****   *
1399:Drivers/BSP/Components/lsm6dso16is/lsm6dso16is_reg.c ****   * @param  ctx      read / write interface definitions
1400:Drivers/BSP/Components/lsm6dso16is/lsm6dso16is_reg.c ****   * @param  val      Enables timestamp counter.
1401:Drivers/BSP/Components/lsm6dso16is/lsm6dso16is_reg.c ****   * @retval          interface status (MANDATORY: return 0 -> no Error)
1402:Drivers/BSP/Components/lsm6dso16is/lsm6dso16is_reg.c ****   *
1403:Drivers/BSP/Components/lsm6dso16is/lsm6dso16is_reg.c ****   */
1404:Drivers/BSP/Components/lsm6dso16is/lsm6dso16is_reg.c **** int32_t lsm6dso16is_timestamp_set(const stmdev_ctx_t *ctx, uint8_t val)
1405:Drivers/BSP/Components/lsm6dso16is/lsm6dso16is_reg.c **** {
1406:Drivers/BSP/Components/lsm6dso16is/lsm6dso16is_reg.c ****   lsm6dso16is_ctrl10_c_t ctrl10_c;
1407:Drivers/BSP/Components/lsm6dso16is/lsm6dso16is_reg.c ****   int32_t ret;
1408:Drivers/BSP/Components/lsm6dso16is/lsm6dso16is_reg.c **** 
1409:Drivers/BSP/Components/lsm6dso16is/lsm6dso16is_reg.c ****   ret = lsm6dso16is_read_reg(ctx, LSM6DSO16IS_CTRL10_C, (uint8_t *)&ctrl10_c, 1);
1410:Drivers/BSP/Components/lsm6dso16is/lsm6dso16is_reg.c **** 
1411:Drivers/BSP/Components/lsm6dso16is/lsm6dso16is_reg.c ****   if (ret == 0)
1412:Drivers/BSP/Components/lsm6dso16is/lsm6dso16is_reg.c ****   {
1413:Drivers/BSP/Components/lsm6dso16is/lsm6dso16is_reg.c ****     ctrl10_c.timestamp_en = val;
1414:Drivers/BSP/Components/lsm6dso16is/lsm6dso16is_reg.c ****     ret = lsm6dso16is_write_reg(ctx, LSM6DSO16IS_CTRL10_C, (uint8_t *)&ctrl10_c, 1);
1415:Drivers/BSP/Components/lsm6dso16is/lsm6dso16is_reg.c ****   }
1416:Drivers/BSP/Components/lsm6dso16is/lsm6dso16is_reg.c **** 
ARM GAS  C:\Users\Nathan\AppData\Local\Temp\ccznllVY.s 			page 28


1417:Drivers/BSP/Components/lsm6dso16is/lsm6dso16is_reg.c ****   return ret;
1418:Drivers/BSP/Components/lsm6dso16is/lsm6dso16is_reg.c **** }
1419:Drivers/BSP/Components/lsm6dso16is/lsm6dso16is_reg.c **** 
1420:Drivers/BSP/Components/lsm6dso16is/lsm6dso16is_reg.c **** /**
1421:Drivers/BSP/Components/lsm6dso16is/lsm6dso16is_reg.c ****   * @brief  Enables timestamp counter.[get]
1422:Drivers/BSP/Components/lsm6dso16is/lsm6dso16is_reg.c ****   *
1423:Drivers/BSP/Components/lsm6dso16is/lsm6dso16is_reg.c ****   * @param  ctx      read / write interface definitions
1424:Drivers/BSP/Components/lsm6dso16is/lsm6dso16is_reg.c ****   * @param  val      Enables timestamp counter.
1425:Drivers/BSP/Components/lsm6dso16is/lsm6dso16is_reg.c ****   * @retval          interface status (MANDATORY: return 0 -> no Error)
1426:Drivers/BSP/Components/lsm6dso16is/lsm6dso16is_reg.c ****   *
1427:Drivers/BSP/Components/lsm6dso16is/lsm6dso16is_reg.c ****   */
1428:Drivers/BSP/Components/lsm6dso16is/lsm6dso16is_reg.c **** int32_t lsm6dso16is_timestamp_get(const stmdev_ctx_t *ctx, uint8_t *val)
1429:Drivers/BSP/Components/lsm6dso16is/lsm6dso16is_reg.c **** {
1430:Drivers/BSP/Components/lsm6dso16is/lsm6dso16is_reg.c ****   lsm6dso16is_ctrl10_c_t ctrl10_c;
1431:Drivers/BSP/Components/lsm6dso16is/lsm6dso16is_reg.c ****   int32_t ret;
1432:Drivers/BSP/Components/lsm6dso16is/lsm6dso16is_reg.c **** 
1433:Drivers/BSP/Components/lsm6dso16is/lsm6dso16is_reg.c ****   ret = lsm6dso16is_read_reg(ctx, LSM6DSO16IS_CTRL10_C, (uint8_t *)&ctrl10_c, 1);
1434:Drivers/BSP/Components/lsm6dso16is/lsm6dso16is_reg.c **** 
1435:Drivers/BSP/Components/lsm6dso16is/lsm6dso16is_reg.c ****   *val = ctrl10_c.timestamp_en;
1436:Drivers/BSP/Components/lsm6dso16is/lsm6dso16is_reg.c **** 
1437:Drivers/BSP/Components/lsm6dso16is/lsm6dso16is_reg.c ****   return ret;
1438:Drivers/BSP/Components/lsm6dso16is/lsm6dso16is_reg.c **** }
1439:Drivers/BSP/Components/lsm6dso16is/lsm6dso16is_reg.c **** 
1440:Drivers/BSP/Components/lsm6dso16is/lsm6dso16is_reg.c **** /**
1441:Drivers/BSP/Components/lsm6dso16is/lsm6dso16is_reg.c ****   * @brief  Timestamp data output.[get]
1442:Drivers/BSP/Components/lsm6dso16is/lsm6dso16is_reg.c ****   *
1443:Drivers/BSP/Components/lsm6dso16is/lsm6dso16is_reg.c ****   * @param  ctx      read / write interface definitions
1444:Drivers/BSP/Components/lsm6dso16is/lsm6dso16is_reg.c ****   * @param  val      Timestamp data output.
1445:Drivers/BSP/Components/lsm6dso16is/lsm6dso16is_reg.c ****   * @retval          interface status (MANDATORY: return 0 -> no Error)
1446:Drivers/BSP/Components/lsm6dso16is/lsm6dso16is_reg.c ****   *
1447:Drivers/BSP/Components/lsm6dso16is/lsm6dso16is_reg.c ****   */
1448:Drivers/BSP/Components/lsm6dso16is/lsm6dso16is_reg.c **** int32_t lsm6dso16is_timestamp_raw_get(const stmdev_ctx_t *ctx, uint32_t *val)
1449:Drivers/BSP/Components/lsm6dso16is/lsm6dso16is_reg.c **** {
1450:Drivers/BSP/Components/lsm6dso16is/lsm6dso16is_reg.c ****   uint8_t buff[4];
1451:Drivers/BSP/Components/lsm6dso16is/lsm6dso16is_reg.c ****   int32_t ret;
1452:Drivers/BSP/Components/lsm6dso16is/lsm6dso16is_reg.c **** 
1453:Drivers/BSP/Components/lsm6dso16is/lsm6dso16is_reg.c ****   ret = lsm6dso16is_read_reg(ctx, LSM6DSO16IS_TIMESTAMP0, &buff[0], 4);
1454:Drivers/BSP/Components/lsm6dso16is/lsm6dso16is_reg.c **** 
1455:Drivers/BSP/Components/lsm6dso16is/lsm6dso16is_reg.c ****   *val = (uint32_t)buff[3];
1456:Drivers/BSP/Components/lsm6dso16is/lsm6dso16is_reg.c ****   *val = (*val * 256U) + (uint32_t)buff[2];
1457:Drivers/BSP/Components/lsm6dso16is/lsm6dso16is_reg.c ****   *val = (*val * 256U) + (uint32_t)buff[1];
1458:Drivers/BSP/Components/lsm6dso16is/lsm6dso16is_reg.c ****   *val = (*val * 256U) + (uint32_t)buff[0];
1459:Drivers/BSP/Components/lsm6dso16is/lsm6dso16is_reg.c **** 
1460:Drivers/BSP/Components/lsm6dso16is/lsm6dso16is_reg.c ****   return ret;
1461:Drivers/BSP/Components/lsm6dso16is/lsm6dso16is_reg.c **** }
1462:Drivers/BSP/Components/lsm6dso16is/lsm6dso16is_reg.c **** 
1463:Drivers/BSP/Components/lsm6dso16is/lsm6dso16is_reg.c **** /**
1464:Drivers/BSP/Components/lsm6dso16is/lsm6dso16is_reg.c ****   * @}
1465:Drivers/BSP/Components/lsm6dso16is/lsm6dso16is_reg.c ****   *
1466:Drivers/BSP/Components/lsm6dso16is/lsm6dso16is_reg.c ****   */
1467:Drivers/BSP/Components/lsm6dso16is/lsm6dso16is_reg.c **** 
1468:Drivers/BSP/Components/lsm6dso16is/lsm6dso16is_reg.c **** /**
1469:Drivers/BSP/Components/lsm6dso16is/lsm6dso16is_reg.c ****   * @brief  Get the status of all the interrupt sources.[get]
1470:Drivers/BSP/Components/lsm6dso16is/lsm6dso16is_reg.c ****   *
1471:Drivers/BSP/Components/lsm6dso16is/lsm6dso16is_reg.c ****   * @param  ctx      read / write interface definitions
1472:Drivers/BSP/Components/lsm6dso16is/lsm6dso16is_reg.c ****   * @param  val      Get the status of all the interrupt sources.
1473:Drivers/BSP/Components/lsm6dso16is/lsm6dso16is_reg.c ****   * @retval          interface status (MANDATORY: return 0 -> no Error)
ARM GAS  C:\Users\Nathan\AppData\Local\Temp\ccznllVY.s 			page 29


1474:Drivers/BSP/Components/lsm6dso16is/lsm6dso16is_reg.c ****   *
1475:Drivers/BSP/Components/lsm6dso16is/lsm6dso16is_reg.c ****   */
1476:Drivers/BSP/Components/lsm6dso16is/lsm6dso16is_reg.c **** int32_t lsm6dso16is_all_sources_get(const stmdev_ctx_t *ctx, lsm6dso16is_all_sources_t *val)
1477:Drivers/BSP/Components/lsm6dso16is/lsm6dso16is_reg.c **** {
1478:Drivers/BSP/Components/lsm6dso16is/lsm6dso16is_reg.c ****   lsm6dso16is_status_reg_t status_reg;
1479:Drivers/BSP/Components/lsm6dso16is/lsm6dso16is_reg.c ****   lsm6dso16is_status_master_mainpage_t status_sh;
1480:Drivers/BSP/Components/lsm6dso16is/lsm6dso16is_reg.c ****   uint32_t status_ispu;
1481:Drivers/BSP/Components/lsm6dso16is/lsm6dso16is_reg.c ****   int32_t ret;
1482:Drivers/BSP/Components/lsm6dso16is/lsm6dso16is_reg.c **** 
1483:Drivers/BSP/Components/lsm6dso16is/lsm6dso16is_reg.c ****   ret = lsm6dso16is_read_reg(ctx, LSM6DSO16IS_STATUS_REG, (uint8_t *)&status_reg, 1);
1484:Drivers/BSP/Components/lsm6dso16is/lsm6dso16is_reg.c ****   if (ret != 0)
1485:Drivers/BSP/Components/lsm6dso16is/lsm6dso16is_reg.c ****   {
1486:Drivers/BSP/Components/lsm6dso16is/lsm6dso16is_reg.c ****     return ret;
1487:Drivers/BSP/Components/lsm6dso16is/lsm6dso16is_reg.c ****   }
1488:Drivers/BSP/Components/lsm6dso16is/lsm6dso16is_reg.c **** 
1489:Drivers/BSP/Components/lsm6dso16is/lsm6dso16is_reg.c ****   val->drdy_xl = status_reg.xlda;
1490:Drivers/BSP/Components/lsm6dso16is/lsm6dso16is_reg.c ****   val->drdy_gy = status_reg.gda;
1491:Drivers/BSP/Components/lsm6dso16is/lsm6dso16is_reg.c ****   val->drdy_temp = status_reg.tda;
1492:Drivers/BSP/Components/lsm6dso16is/lsm6dso16is_reg.c **** 
1493:Drivers/BSP/Components/lsm6dso16is/lsm6dso16is_reg.c ****   ret = lsm6dso16is_read_reg(ctx, LSM6DSO16IS_STATUS_MASTER_MAINPAGE, (uint8_t *)&status_sh, 1);
1494:Drivers/BSP/Components/lsm6dso16is/lsm6dso16is_reg.c ****   if (ret != 0)
1495:Drivers/BSP/Components/lsm6dso16is/lsm6dso16is_reg.c ****   {
1496:Drivers/BSP/Components/lsm6dso16is/lsm6dso16is_reg.c ****     return ret;
1497:Drivers/BSP/Components/lsm6dso16is/lsm6dso16is_reg.c ****   }
1498:Drivers/BSP/Components/lsm6dso16is/lsm6dso16is_reg.c **** 
1499:Drivers/BSP/Components/lsm6dso16is/lsm6dso16is_reg.c ****   val->sh_endop = status_sh.sens_hub_endop;
1500:Drivers/BSP/Components/lsm6dso16is/lsm6dso16is_reg.c ****   val->sh_slave0_nack = status_sh.sens_hub_endop;
1501:Drivers/BSP/Components/lsm6dso16is/lsm6dso16is_reg.c ****   val->sh_slave1_nack = status_sh.sens_hub_endop;
1502:Drivers/BSP/Components/lsm6dso16is/lsm6dso16is_reg.c ****   val->sh_slave2_nack = status_sh.sens_hub_endop;
1503:Drivers/BSP/Components/lsm6dso16is/lsm6dso16is_reg.c ****   val->sh_slave3_nack = status_sh.sens_hub_endop;
1504:Drivers/BSP/Components/lsm6dso16is/lsm6dso16is_reg.c ****   val->sh_wr_once = status_sh.sens_hub_endop;
1505:Drivers/BSP/Components/lsm6dso16is/lsm6dso16is_reg.c **** 
1506:Drivers/BSP/Components/lsm6dso16is/lsm6dso16is_reg.c ****   ret = lsm6dso16is_read_reg(ctx, LSM6DSO16IS_ISPU_INT_STATUS0_MAINPAGE, (uint8_t *)&status_ispu, 4
1507:Drivers/BSP/Components/lsm6dso16is/lsm6dso16is_reg.c ****   if (ret != 0)
1508:Drivers/BSP/Components/lsm6dso16is/lsm6dso16is_reg.c ****   {
1509:Drivers/BSP/Components/lsm6dso16is/lsm6dso16is_reg.c ****     return ret;
1510:Drivers/BSP/Components/lsm6dso16is/lsm6dso16is_reg.c ****   }
1511:Drivers/BSP/Components/lsm6dso16is/lsm6dso16is_reg.c **** 
1512:Drivers/BSP/Components/lsm6dso16is/lsm6dso16is_reg.c ****   val->ispu = status_ispu;
1513:Drivers/BSP/Components/lsm6dso16is/lsm6dso16is_reg.c **** 
1514:Drivers/BSP/Components/lsm6dso16is/lsm6dso16is_reg.c ****   return ret;
1515:Drivers/BSP/Components/lsm6dso16is/lsm6dso16is_reg.c **** }
1516:Drivers/BSP/Components/lsm6dso16is/lsm6dso16is_reg.c **** 
1517:Drivers/BSP/Components/lsm6dso16is/lsm6dso16is_reg.c **** /**
1518:Drivers/BSP/Components/lsm6dso16is/lsm6dso16is_reg.c ****   * @brief  The STATUS_REG register is read by the primary interface.[get]
1519:Drivers/BSP/Components/lsm6dso16is/lsm6dso16is_reg.c ****   *
1520:Drivers/BSP/Components/lsm6dso16is/lsm6dso16is_reg.c ****   * @param  ctx    Read / write interface definitions.(ptr)
1521:Drivers/BSP/Components/lsm6dso16is/lsm6dso16is_reg.c ****   * @param  val    Get register STATUS_REG
1522:Drivers/BSP/Components/lsm6dso16is/lsm6dso16is_reg.c ****   * @retval        Interface status (MANDATORY: return 0 -> no Error).
1523:Drivers/BSP/Components/lsm6dso16is/lsm6dso16is_reg.c ****   *
1524:Drivers/BSP/Components/lsm6dso16is/lsm6dso16is_reg.c ****   */
1525:Drivers/BSP/Components/lsm6dso16is/lsm6dso16is_reg.c **** int32_t lsm6dso16is_status_reg_get(const stmdev_ctx_t *ctx,
1526:Drivers/BSP/Components/lsm6dso16is/lsm6dso16is_reg.c ****                                    lsm6dso16is_status_reg_t *val)
1527:Drivers/BSP/Components/lsm6dso16is/lsm6dso16is_reg.c **** {
1528:Drivers/BSP/Components/lsm6dso16is/lsm6dso16is_reg.c ****   int32_t ret;
1529:Drivers/BSP/Components/lsm6dso16is/lsm6dso16is_reg.c ****   ret = lsm6dso16is_read_reg(ctx, LSM6DSO16IS_STATUS_REG, (uint8_t *) val, 1);
1530:Drivers/BSP/Components/lsm6dso16is/lsm6dso16is_reg.c **** 
ARM GAS  C:\Users\Nathan\AppData\Local\Temp\ccznllVY.s 			page 30


1531:Drivers/BSP/Components/lsm6dso16is/lsm6dso16is_reg.c ****   return ret;
1532:Drivers/BSP/Components/lsm6dso16is/lsm6dso16is_reg.c **** }
1533:Drivers/BSP/Components/lsm6dso16is/lsm6dso16is_reg.c **** 
1534:Drivers/BSP/Components/lsm6dso16is/lsm6dso16is_reg.c **** /**
1535:Drivers/BSP/Components/lsm6dso16is/lsm6dso16is_reg.c ****   * @brief  Accelerometer new data available.[get]
1536:Drivers/BSP/Components/lsm6dso16is/lsm6dso16is_reg.c ****   *
1537:Drivers/BSP/Components/lsm6dso16is/lsm6dso16is_reg.c ****   * @param  ctx    Read / write interface definitions.(ptr)
1538:Drivers/BSP/Components/lsm6dso16is/lsm6dso16is_reg.c ****   * @param  val    Change the values of xlda in reg STATUS_REG
1539:Drivers/BSP/Components/lsm6dso16is/lsm6dso16is_reg.c ****   * @retval        Interface status (MANDATORY: return 0 -> no Error).
1540:Drivers/BSP/Components/lsm6dso16is/lsm6dso16is_reg.c ****   *
1541:Drivers/BSP/Components/lsm6dso16is/lsm6dso16is_reg.c ****   */
1542:Drivers/BSP/Components/lsm6dso16is/lsm6dso16is_reg.c **** int32_t lsm6dso16is_xl_flag_data_ready_get(const stmdev_ctx_t *ctx,
1543:Drivers/BSP/Components/lsm6dso16is/lsm6dso16is_reg.c ****                                            uint8_t *val)
1544:Drivers/BSP/Components/lsm6dso16is/lsm6dso16is_reg.c **** {
1545:Drivers/BSP/Components/lsm6dso16is/lsm6dso16is_reg.c ****   lsm6dso16is_status_reg_t status_reg;
1546:Drivers/BSP/Components/lsm6dso16is/lsm6dso16is_reg.c ****   int32_t ret;
1547:Drivers/BSP/Components/lsm6dso16is/lsm6dso16is_reg.c ****   ret = lsm6dso16is_read_reg(ctx, LSM6DSO16IS_STATUS_REG,
1548:Drivers/BSP/Components/lsm6dso16is/lsm6dso16is_reg.c ****                              (uint8_t *)&status_reg, 1);
1549:Drivers/BSP/Components/lsm6dso16is/lsm6dso16is_reg.c ****   *val = status_reg.xlda;
1550:Drivers/BSP/Components/lsm6dso16is/lsm6dso16is_reg.c **** 
1551:Drivers/BSP/Components/lsm6dso16is/lsm6dso16is_reg.c ****   return ret;
1552:Drivers/BSP/Components/lsm6dso16is/lsm6dso16is_reg.c **** }
1553:Drivers/BSP/Components/lsm6dso16is/lsm6dso16is_reg.c **** 
1554:Drivers/BSP/Components/lsm6dso16is/lsm6dso16is_reg.c **** /**
1555:Drivers/BSP/Components/lsm6dso16is/lsm6dso16is_reg.c ****   * @brief  Gyroscope new data available.[get]
1556:Drivers/BSP/Components/lsm6dso16is/lsm6dso16is_reg.c ****   *
1557:Drivers/BSP/Components/lsm6dso16is/lsm6dso16is_reg.c ****   * @param  ctx    Read / write interface definitions.(ptr)
1558:Drivers/BSP/Components/lsm6dso16is/lsm6dso16is_reg.c ****   * @param  val    Change the values of gda in reg STATUS_REG
1559:Drivers/BSP/Components/lsm6dso16is/lsm6dso16is_reg.c ****   * @retval        Interface status (MANDATORY: return 0 -> no Error).
1560:Drivers/BSP/Components/lsm6dso16is/lsm6dso16is_reg.c ****   *
1561:Drivers/BSP/Components/lsm6dso16is/lsm6dso16is_reg.c ****   */
1562:Drivers/BSP/Components/lsm6dso16is/lsm6dso16is_reg.c **** int32_t lsm6dso16is_gy_flag_data_ready_get(const stmdev_ctx_t *ctx,
1563:Drivers/BSP/Components/lsm6dso16is/lsm6dso16is_reg.c ****                                            uint8_t *val)
1564:Drivers/BSP/Components/lsm6dso16is/lsm6dso16is_reg.c **** {
1565:Drivers/BSP/Components/lsm6dso16is/lsm6dso16is_reg.c ****   lsm6dso16is_status_reg_t status_reg;
1566:Drivers/BSP/Components/lsm6dso16is/lsm6dso16is_reg.c ****   int32_t ret;
1567:Drivers/BSP/Components/lsm6dso16is/lsm6dso16is_reg.c ****   ret = lsm6dso16is_read_reg(ctx, LSM6DSO16IS_STATUS_REG,
1568:Drivers/BSP/Components/lsm6dso16is/lsm6dso16is_reg.c ****                              (uint8_t *)&status_reg, 1);
1569:Drivers/BSP/Components/lsm6dso16is/lsm6dso16is_reg.c ****   *val = status_reg.gda;
1570:Drivers/BSP/Components/lsm6dso16is/lsm6dso16is_reg.c **** 
1571:Drivers/BSP/Components/lsm6dso16is/lsm6dso16is_reg.c ****   return ret;
1572:Drivers/BSP/Components/lsm6dso16is/lsm6dso16is_reg.c **** }
1573:Drivers/BSP/Components/lsm6dso16is/lsm6dso16is_reg.c **** 
1574:Drivers/BSP/Components/lsm6dso16is/lsm6dso16is_reg.c **** /**
1575:Drivers/BSP/Components/lsm6dso16is/lsm6dso16is_reg.c ****   * @brief  Temperature new data available.[get]
1576:Drivers/BSP/Components/lsm6dso16is/lsm6dso16is_reg.c ****   *
1577:Drivers/BSP/Components/lsm6dso16is/lsm6dso16is_reg.c ****   * @param  ctx    Read / write interface definitions.(ptr)
1578:Drivers/BSP/Components/lsm6dso16is/lsm6dso16is_reg.c ****   * @param  val    Change the values of tda in reg STATUS_REG
1579:Drivers/BSP/Components/lsm6dso16is/lsm6dso16is_reg.c ****   * @retval        Interface status (MANDATORY: return 0 -> no Error).
1580:Drivers/BSP/Components/lsm6dso16is/lsm6dso16is_reg.c ****   *
1581:Drivers/BSP/Components/lsm6dso16is/lsm6dso16is_reg.c ****   */
1582:Drivers/BSP/Components/lsm6dso16is/lsm6dso16is_reg.c **** int32_t lsm6dso16is_temp_flag_data_ready_get(const stmdev_ctx_t *ctx,
1583:Drivers/BSP/Components/lsm6dso16is/lsm6dso16is_reg.c ****                                              uint8_t *val)
1584:Drivers/BSP/Components/lsm6dso16is/lsm6dso16is_reg.c **** {
1585:Drivers/BSP/Components/lsm6dso16is/lsm6dso16is_reg.c ****   lsm6dso16is_status_reg_t status_reg;
1586:Drivers/BSP/Components/lsm6dso16is/lsm6dso16is_reg.c ****   int32_t ret;
1587:Drivers/BSP/Components/lsm6dso16is/lsm6dso16is_reg.c ****   ret = lsm6dso16is_read_reg(ctx, LSM6DSO16IS_STATUS_REG,
ARM GAS  C:\Users\Nathan\AppData\Local\Temp\ccznllVY.s 			page 31


1588:Drivers/BSP/Components/lsm6dso16is/lsm6dso16is_reg.c ****                              (uint8_t *)&status_reg, 1);
1589:Drivers/BSP/Components/lsm6dso16is/lsm6dso16is_reg.c ****   *val = status_reg.tda;
1590:Drivers/BSP/Components/lsm6dso16is/lsm6dso16is_reg.c **** 
1591:Drivers/BSP/Components/lsm6dso16is/lsm6dso16is_reg.c ****   return ret;
1592:Drivers/BSP/Components/lsm6dso16is/lsm6dso16is_reg.c **** }
1593:Drivers/BSP/Components/lsm6dso16is/lsm6dso16is_reg.c **** 
1594:Drivers/BSP/Components/lsm6dso16is/lsm6dso16is_reg.c **** /**
1595:Drivers/BSP/Components/lsm6dso16is/lsm6dso16is_reg.c ****   * @brief  Temperature data output register[get]
1596:Drivers/BSP/Components/lsm6dso16is/lsm6dso16is_reg.c ****   *
1597:Drivers/BSP/Components/lsm6dso16is/lsm6dso16is_reg.c ****   * @param  ctx      read / write interface definitions
1598:Drivers/BSP/Components/lsm6dso16is/lsm6dso16is_reg.c ****   * @param  val      Temperature data output register
1599:Drivers/BSP/Components/lsm6dso16is/lsm6dso16is_reg.c ****   * @retval          interface status (MANDATORY: return 0 -> no Error)
1600:Drivers/BSP/Components/lsm6dso16is/lsm6dso16is_reg.c ****   *
1601:Drivers/BSP/Components/lsm6dso16is/lsm6dso16is_reg.c ****   */
1602:Drivers/BSP/Components/lsm6dso16is/lsm6dso16is_reg.c **** int32_t lsm6dso16is_temperature_raw_get(const stmdev_ctx_t *ctx, int16_t *val)
1603:Drivers/BSP/Components/lsm6dso16is/lsm6dso16is_reg.c **** {
1604:Drivers/BSP/Components/lsm6dso16is/lsm6dso16is_reg.c ****   uint8_t buff[2];
1605:Drivers/BSP/Components/lsm6dso16is/lsm6dso16is_reg.c ****   int32_t ret;
1606:Drivers/BSP/Components/lsm6dso16is/lsm6dso16is_reg.c **** 
1607:Drivers/BSP/Components/lsm6dso16is/lsm6dso16is_reg.c ****   ret = lsm6dso16is_read_reg(ctx, LSM6DSO16IS_OUT_TEMP_L, &buff[0], 2);
1608:Drivers/BSP/Components/lsm6dso16is/lsm6dso16is_reg.c ****   *val = (int16_t)buff[1];
1609:Drivers/BSP/Components/lsm6dso16is/lsm6dso16is_reg.c ****   *val = (*val * 256) + (int16_t)buff[0];
1610:Drivers/BSP/Components/lsm6dso16is/lsm6dso16is_reg.c **** 
1611:Drivers/BSP/Components/lsm6dso16is/lsm6dso16is_reg.c ****   return ret;
1612:Drivers/BSP/Components/lsm6dso16is/lsm6dso16is_reg.c **** }
1613:Drivers/BSP/Components/lsm6dso16is/lsm6dso16is_reg.c **** 
1614:Drivers/BSP/Components/lsm6dso16is/lsm6dso16is_reg.c **** /**
1615:Drivers/BSP/Components/lsm6dso16is/lsm6dso16is_reg.c ****   * @brief  Angular rate sensor.[get]
1616:Drivers/BSP/Components/lsm6dso16is/lsm6dso16is_reg.c ****   *
1617:Drivers/BSP/Components/lsm6dso16is/lsm6dso16is_reg.c ****   * @param  ctx      read / write interface definitions
1618:Drivers/BSP/Components/lsm6dso16is/lsm6dso16is_reg.c ****   * @param  val      Angular rate sensor.
1619:Drivers/BSP/Components/lsm6dso16is/lsm6dso16is_reg.c ****   * @retval          interface status (MANDATORY: return 0 -> no Error)
1620:Drivers/BSP/Components/lsm6dso16is/lsm6dso16is_reg.c ****   *
1621:Drivers/BSP/Components/lsm6dso16is/lsm6dso16is_reg.c ****   */
1622:Drivers/BSP/Components/lsm6dso16is/lsm6dso16is_reg.c **** int32_t lsm6dso16is_angular_rate_raw_get(const stmdev_ctx_t *ctx, int16_t *val)
1623:Drivers/BSP/Components/lsm6dso16is/lsm6dso16is_reg.c **** {
1624:Drivers/BSP/Components/lsm6dso16is/lsm6dso16is_reg.c ****   uint8_t buff[6];
1625:Drivers/BSP/Components/lsm6dso16is/lsm6dso16is_reg.c ****   int32_t ret;
1626:Drivers/BSP/Components/lsm6dso16is/lsm6dso16is_reg.c **** 
1627:Drivers/BSP/Components/lsm6dso16is/lsm6dso16is_reg.c ****   ret = lsm6dso16is_read_reg(ctx, LSM6DSO16IS_OUTX_L_G, buff, 6);
1628:Drivers/BSP/Components/lsm6dso16is/lsm6dso16is_reg.c ****   val[0] = (int16_t)buff[1];
1629:Drivers/BSP/Components/lsm6dso16is/lsm6dso16is_reg.c ****   val[0] = (val[0] * 256) + (int16_t)buff[0];
1630:Drivers/BSP/Components/lsm6dso16is/lsm6dso16is_reg.c ****   val[1] = (int16_t)buff[3];
1631:Drivers/BSP/Components/lsm6dso16is/lsm6dso16is_reg.c ****   val[1] = (val[1] * 256) + (int16_t)buff[2];
1632:Drivers/BSP/Components/lsm6dso16is/lsm6dso16is_reg.c ****   val[2] = (int16_t)buff[5];
1633:Drivers/BSP/Components/lsm6dso16is/lsm6dso16is_reg.c ****   val[2] = (val[2] * 256) + (int16_t)buff[4];
1634:Drivers/BSP/Components/lsm6dso16is/lsm6dso16is_reg.c **** 
1635:Drivers/BSP/Components/lsm6dso16is/lsm6dso16is_reg.c ****   return ret;
1636:Drivers/BSP/Components/lsm6dso16is/lsm6dso16is_reg.c **** }
1637:Drivers/BSP/Components/lsm6dso16is/lsm6dso16is_reg.c **** 
1638:Drivers/BSP/Components/lsm6dso16is/lsm6dso16is_reg.c **** /**
1639:Drivers/BSP/Components/lsm6dso16is/lsm6dso16is_reg.c ****   * @brief  Linear acceleration sensor.[get]
1640:Drivers/BSP/Components/lsm6dso16is/lsm6dso16is_reg.c ****   *
1641:Drivers/BSP/Components/lsm6dso16is/lsm6dso16is_reg.c ****   * @param  ctx      read / write interface definitions
1642:Drivers/BSP/Components/lsm6dso16is/lsm6dso16is_reg.c ****   * @param  val      Linear acceleration sensor.
1643:Drivers/BSP/Components/lsm6dso16is/lsm6dso16is_reg.c ****   * @retval          interface status (MANDATORY: return 0 -> no Error)
1644:Drivers/BSP/Components/lsm6dso16is/lsm6dso16is_reg.c ****   *
ARM GAS  C:\Users\Nathan\AppData\Local\Temp\ccznllVY.s 			page 32


1645:Drivers/BSP/Components/lsm6dso16is/lsm6dso16is_reg.c ****   */
1646:Drivers/BSP/Components/lsm6dso16is/lsm6dso16is_reg.c **** int32_t lsm6dso16is_acceleration_raw_get(const stmdev_ctx_t *ctx, int16_t *val)
1647:Drivers/BSP/Components/lsm6dso16is/lsm6dso16is_reg.c **** {
1648:Drivers/BSP/Components/lsm6dso16is/lsm6dso16is_reg.c ****   uint8_t buff[6];
1649:Drivers/BSP/Components/lsm6dso16is/lsm6dso16is_reg.c ****   int32_t ret;
1650:Drivers/BSP/Components/lsm6dso16is/lsm6dso16is_reg.c **** 
1651:Drivers/BSP/Components/lsm6dso16is/lsm6dso16is_reg.c ****   ret = lsm6dso16is_read_reg(ctx, LSM6DSO16IS_OUTX_L_A, buff, 6);
1652:Drivers/BSP/Components/lsm6dso16is/lsm6dso16is_reg.c ****   val[0] = (int16_t)buff[1];
1653:Drivers/BSP/Components/lsm6dso16is/lsm6dso16is_reg.c ****   val[0] = (val[0] * 256) + (int16_t)buff[0];
1654:Drivers/BSP/Components/lsm6dso16is/lsm6dso16is_reg.c ****   val[1] = (int16_t)buff[3];
1655:Drivers/BSP/Components/lsm6dso16is/lsm6dso16is_reg.c ****   val[1] = (val[1] * 256) + (int16_t)buff[2];
1656:Drivers/BSP/Components/lsm6dso16is/lsm6dso16is_reg.c ****   val[2] = (int16_t)buff[5];
1657:Drivers/BSP/Components/lsm6dso16is/lsm6dso16is_reg.c ****   val[2] = (val[2] * 256) + (int16_t)buff[4];
1658:Drivers/BSP/Components/lsm6dso16is/lsm6dso16is_reg.c **** 
1659:Drivers/BSP/Components/lsm6dso16is/lsm6dso16is_reg.c ****   return ret;
1660:Drivers/BSP/Components/lsm6dso16is/lsm6dso16is_reg.c **** }
1661:Drivers/BSP/Components/lsm6dso16is/lsm6dso16is_reg.c **** 
1662:Drivers/BSP/Components/lsm6dso16is/lsm6dso16is_reg.c **** /**
1663:Drivers/BSP/Components/lsm6dso16is/lsm6dso16is_reg.c ****   * @}
1664:Drivers/BSP/Components/lsm6dso16is/lsm6dso16is_reg.c ****   *
1665:Drivers/BSP/Components/lsm6dso16is/lsm6dso16is_reg.c ****   */
1666:Drivers/BSP/Components/lsm6dso16is/lsm6dso16is_reg.c **** 
1667:Drivers/BSP/Components/lsm6dso16is/lsm6dso16is_reg.c **** /**
1668:Drivers/BSP/Components/lsm6dso16is/lsm6dso16is_reg.c ****   * @defgroup Interrupt PINs
1669:Drivers/BSP/Components/lsm6dso16is/lsm6dso16is_reg.c ****   * @brief    Interrupt PINs
1670:Drivers/BSP/Components/lsm6dso16is/lsm6dso16is_reg.c ****   * @{/
1671:Drivers/BSP/Components/lsm6dso16is/lsm6dso16is_reg.c ****   *
1672:Drivers/BSP/Components/lsm6dso16is/lsm6dso16is_reg.c ****   */
1673:Drivers/BSP/Components/lsm6dso16is/lsm6dso16is_reg.c **** /**
1674:Drivers/BSP/Components/lsm6dso16is/lsm6dso16is_reg.c ****   * @brief  It routes interrupt signals on INT 1 pin.[set]
1675:Drivers/BSP/Components/lsm6dso16is/lsm6dso16is_reg.c ****   *
1676:Drivers/BSP/Components/lsm6dso16is/lsm6dso16is_reg.c ****   * @param  ctx      read / write interface definitions
1677:Drivers/BSP/Components/lsm6dso16is/lsm6dso16is_reg.c ****   * @param  val      It routes interrupt signals on INT 1 pin.
1678:Drivers/BSP/Components/lsm6dso16is/lsm6dso16is_reg.c ****   * @retval          interface status (MANDATORY: return 0 -> no Error)
1679:Drivers/BSP/Components/lsm6dso16is/lsm6dso16is_reg.c ****   *
1680:Drivers/BSP/Components/lsm6dso16is/lsm6dso16is_reg.c ****   */
1681:Drivers/BSP/Components/lsm6dso16is/lsm6dso16is_reg.c **** int32_t lsm6dso16is_pin_int1_route_set(const stmdev_ctx_t *ctx,
1682:Drivers/BSP/Components/lsm6dso16is/lsm6dso16is_reg.c ****                                        lsm6dso16is_pin_int1_route_t val)
1683:Drivers/BSP/Components/lsm6dso16is/lsm6dso16is_reg.c **** {
1684:Drivers/BSP/Components/lsm6dso16is/lsm6dso16is_reg.c ****   lsm6dso16is_int1_ctrl_t int1_ctrl;
1685:Drivers/BSP/Components/lsm6dso16is/lsm6dso16is_reg.c ****   lsm6dso16is_md1_cfg_t md1_cfg;
1686:Drivers/BSP/Components/lsm6dso16is/lsm6dso16is_reg.c ****   int32_t ret;
1687:Drivers/BSP/Components/lsm6dso16is/lsm6dso16is_reg.c **** 
1688:Drivers/BSP/Components/lsm6dso16is/lsm6dso16is_reg.c ****   ret = lsm6dso16is_read_reg(ctx, LSM6DSO16IS_INT1_CTRL, (uint8_t *)&int1_ctrl, 1);
1689:Drivers/BSP/Components/lsm6dso16is/lsm6dso16is_reg.c ****   ret += lsm6dso16is_read_reg(ctx, LSM6DSO16IS_MD1_CFG, (uint8_t *)&md1_cfg, 1);
1690:Drivers/BSP/Components/lsm6dso16is/lsm6dso16is_reg.c ****   if (ret != 0)
1691:Drivers/BSP/Components/lsm6dso16is/lsm6dso16is_reg.c ****   {
1692:Drivers/BSP/Components/lsm6dso16is/lsm6dso16is_reg.c ****     return ret;
1693:Drivers/BSP/Components/lsm6dso16is/lsm6dso16is_reg.c ****   }
1694:Drivers/BSP/Components/lsm6dso16is/lsm6dso16is_reg.c **** 
1695:Drivers/BSP/Components/lsm6dso16is/lsm6dso16is_reg.c ****   int1_ctrl.int1_drdy_xl = val.drdy_xl;
1696:Drivers/BSP/Components/lsm6dso16is/lsm6dso16is_reg.c ****   int1_ctrl.int1_drdy_g = val.drdy_gy;
1697:Drivers/BSP/Components/lsm6dso16is/lsm6dso16is_reg.c ****   int1_ctrl.int1_boot = val.boot;
1698:Drivers/BSP/Components/lsm6dso16is/lsm6dso16is_reg.c ****   ret += lsm6dso16is_write_reg(ctx, LSM6DSO16IS_INT1_CTRL, (uint8_t *)&int1_ctrl,
1699:Drivers/BSP/Components/lsm6dso16is/lsm6dso16is_reg.c ****                                1);
1700:Drivers/BSP/Components/lsm6dso16is/lsm6dso16is_reg.c **** 
1701:Drivers/BSP/Components/lsm6dso16is/lsm6dso16is_reg.c ****   md1_cfg.int1_shub = val.sh_endop;
ARM GAS  C:\Users\Nathan\AppData\Local\Temp\ccznllVY.s 			page 33


1702:Drivers/BSP/Components/lsm6dso16is/lsm6dso16is_reg.c ****   md1_cfg.int1_ispu = val.ispu;
1703:Drivers/BSP/Components/lsm6dso16is/lsm6dso16is_reg.c ****   ret += lsm6dso16is_write_reg(ctx, LSM6DSO16IS_MD1_CFG, (uint8_t *)&md1_cfg, 1);
1704:Drivers/BSP/Components/lsm6dso16is/lsm6dso16is_reg.c **** 
1705:Drivers/BSP/Components/lsm6dso16is/lsm6dso16is_reg.c ****   return ret;
1706:Drivers/BSP/Components/lsm6dso16is/lsm6dso16is_reg.c **** }
1707:Drivers/BSP/Components/lsm6dso16is/lsm6dso16is_reg.c **** 
1708:Drivers/BSP/Components/lsm6dso16is/lsm6dso16is_reg.c **** /**
1709:Drivers/BSP/Components/lsm6dso16is/lsm6dso16is_reg.c ****   * @brief  It routes interrupt signals on INT 1 pin.[get]
1710:Drivers/BSP/Components/lsm6dso16is/lsm6dso16is_reg.c ****   *
1711:Drivers/BSP/Components/lsm6dso16is/lsm6dso16is_reg.c ****   * @param  ctx      read / write interface definitions
1712:Drivers/BSP/Components/lsm6dso16is/lsm6dso16is_reg.c ****   * @param  val      It routes interrupt signals on INT 1 pin.
1713:Drivers/BSP/Components/lsm6dso16is/lsm6dso16is_reg.c ****   * @retval          interface status (MANDATORY: return 0 -> no Error)
1714:Drivers/BSP/Components/lsm6dso16is/lsm6dso16is_reg.c ****   *
1715:Drivers/BSP/Components/lsm6dso16is/lsm6dso16is_reg.c ****   */
1716:Drivers/BSP/Components/lsm6dso16is/lsm6dso16is_reg.c **** int32_t lsm6dso16is_pin_int1_route_get(const stmdev_ctx_t *ctx,
1717:Drivers/BSP/Components/lsm6dso16is/lsm6dso16is_reg.c ****                                        lsm6dso16is_pin_int1_route_t *val)
1718:Drivers/BSP/Components/lsm6dso16is/lsm6dso16is_reg.c **** {
1719:Drivers/BSP/Components/lsm6dso16is/lsm6dso16is_reg.c ****   lsm6dso16is_int1_ctrl_t int1_ctrl;
1720:Drivers/BSP/Components/lsm6dso16is/lsm6dso16is_reg.c ****   lsm6dso16is_md1_cfg_t md1_cfg;
1721:Drivers/BSP/Components/lsm6dso16is/lsm6dso16is_reg.c ****   int32_t ret;
1722:Drivers/BSP/Components/lsm6dso16is/lsm6dso16is_reg.c **** 
1723:Drivers/BSP/Components/lsm6dso16is/lsm6dso16is_reg.c ****   ret = lsm6dso16is_read_reg(ctx, LSM6DSO16IS_INT1_CTRL, (uint8_t *)&int1_ctrl, 1);
1724:Drivers/BSP/Components/lsm6dso16is/lsm6dso16is_reg.c ****   ret += lsm6dso16is_read_reg(ctx, LSM6DSO16IS_MD1_CFG, (uint8_t *)&md1_cfg, 1);
1725:Drivers/BSP/Components/lsm6dso16is/lsm6dso16is_reg.c ****   if (ret != 0)
1726:Drivers/BSP/Components/lsm6dso16is/lsm6dso16is_reg.c ****   {
1727:Drivers/BSP/Components/lsm6dso16is/lsm6dso16is_reg.c ****     return ret;
1728:Drivers/BSP/Components/lsm6dso16is/lsm6dso16is_reg.c ****   }
1729:Drivers/BSP/Components/lsm6dso16is/lsm6dso16is_reg.c **** 
1730:Drivers/BSP/Components/lsm6dso16is/lsm6dso16is_reg.c ****   val->drdy_xl = int1_ctrl.int1_drdy_xl;
1731:Drivers/BSP/Components/lsm6dso16is/lsm6dso16is_reg.c ****   val->drdy_gy = int1_ctrl.int1_drdy_g;
1732:Drivers/BSP/Components/lsm6dso16is/lsm6dso16is_reg.c ****   val->boot = int1_ctrl.int1_boot;
1733:Drivers/BSP/Components/lsm6dso16is/lsm6dso16is_reg.c ****   val->sh_endop = md1_cfg.int1_shub;
1734:Drivers/BSP/Components/lsm6dso16is/lsm6dso16is_reg.c ****   val->ispu = md1_cfg.int1_ispu;
1735:Drivers/BSP/Components/lsm6dso16is/lsm6dso16is_reg.c **** 
1736:Drivers/BSP/Components/lsm6dso16is/lsm6dso16is_reg.c ****   return ret;
1737:Drivers/BSP/Components/lsm6dso16is/lsm6dso16is_reg.c **** }
1738:Drivers/BSP/Components/lsm6dso16is/lsm6dso16is_reg.c **** 
1739:Drivers/BSP/Components/lsm6dso16is/lsm6dso16is_reg.c **** /**
1740:Drivers/BSP/Components/lsm6dso16is/lsm6dso16is_reg.c ****   * @brief  It routes interrupt signals on INT 2 pin.[set]
1741:Drivers/BSP/Components/lsm6dso16is/lsm6dso16is_reg.c ****   *
1742:Drivers/BSP/Components/lsm6dso16is/lsm6dso16is_reg.c ****   * @param  ctx      read / write interface definitions
1743:Drivers/BSP/Components/lsm6dso16is/lsm6dso16is_reg.c ****   * @param  val      It routes interrupt signals on INT 2 pin.
1744:Drivers/BSP/Components/lsm6dso16is/lsm6dso16is_reg.c ****   * @retval          interface status (MANDATORY: return 0 -> no Error)
1745:Drivers/BSP/Components/lsm6dso16is/lsm6dso16is_reg.c ****   *
1746:Drivers/BSP/Components/lsm6dso16is/lsm6dso16is_reg.c ****   */
1747:Drivers/BSP/Components/lsm6dso16is/lsm6dso16is_reg.c **** int32_t lsm6dso16is_pin_int2_route_set(const stmdev_ctx_t *ctx,
1748:Drivers/BSP/Components/lsm6dso16is/lsm6dso16is_reg.c ****                                        lsm6dso16is_pin_int2_route_t val)
1749:Drivers/BSP/Components/lsm6dso16is/lsm6dso16is_reg.c **** {
1750:Drivers/BSP/Components/lsm6dso16is/lsm6dso16is_reg.c ****   lsm6dso16is_int2_ctrl_t int2_ctrl;
1751:Drivers/BSP/Components/lsm6dso16is/lsm6dso16is_reg.c ****   lsm6dso16is_md2_cfg_t md2_cfg;
1752:Drivers/BSP/Components/lsm6dso16is/lsm6dso16is_reg.c ****   int32_t ret;
1753:Drivers/BSP/Components/lsm6dso16is/lsm6dso16is_reg.c **** 
1754:Drivers/BSP/Components/lsm6dso16is/lsm6dso16is_reg.c ****   ret = lsm6dso16is_read_reg(ctx, LSM6DSO16IS_INT2_CTRL, (uint8_t *)&int2_ctrl, 1);
1755:Drivers/BSP/Components/lsm6dso16is/lsm6dso16is_reg.c ****   ret += lsm6dso16is_read_reg(ctx, LSM6DSO16IS_MD2_CFG, (uint8_t *)&md2_cfg, 1);
1756:Drivers/BSP/Components/lsm6dso16is/lsm6dso16is_reg.c ****   if (ret != 0)
1757:Drivers/BSP/Components/lsm6dso16is/lsm6dso16is_reg.c ****   {
1758:Drivers/BSP/Components/lsm6dso16is/lsm6dso16is_reg.c ****     return ret;
ARM GAS  C:\Users\Nathan\AppData\Local\Temp\ccznllVY.s 			page 34


1759:Drivers/BSP/Components/lsm6dso16is/lsm6dso16is_reg.c ****   }
1760:Drivers/BSP/Components/lsm6dso16is/lsm6dso16is_reg.c **** 
1761:Drivers/BSP/Components/lsm6dso16is/lsm6dso16is_reg.c ****   int2_ctrl.int2_drdy_xl = val.drdy_xl;
1762:Drivers/BSP/Components/lsm6dso16is/lsm6dso16is_reg.c ****   int2_ctrl.int2_drdy_g = val.drdy_gy;
1763:Drivers/BSP/Components/lsm6dso16is/lsm6dso16is_reg.c ****   int2_ctrl.int2_drdy_temp = val.drdy_temp;
1764:Drivers/BSP/Components/lsm6dso16is/lsm6dso16is_reg.c ****   int2_ctrl.int2_sleep_ispu = val.ispu_sleep;
1765:Drivers/BSP/Components/lsm6dso16is/lsm6dso16is_reg.c ****   ret += lsm6dso16is_write_reg(ctx, LSM6DSO16IS_INT2_CTRL, (uint8_t *)&int2_ctrl, 1);
1766:Drivers/BSP/Components/lsm6dso16is/lsm6dso16is_reg.c **** 
1767:Drivers/BSP/Components/lsm6dso16is/lsm6dso16is_reg.c ****   md2_cfg.int2_ispu = val.ispu;
1768:Drivers/BSP/Components/lsm6dso16is/lsm6dso16is_reg.c ****   md2_cfg.int2_timestamp = val.timestamp;
1769:Drivers/BSP/Components/lsm6dso16is/lsm6dso16is_reg.c ****   ret += lsm6dso16is_write_reg(ctx, LSM6DSO16IS_MD2_CFG, (uint8_t *)&md2_cfg, 1);
1770:Drivers/BSP/Components/lsm6dso16is/lsm6dso16is_reg.c **** 
1771:Drivers/BSP/Components/lsm6dso16is/lsm6dso16is_reg.c ****   return ret;
1772:Drivers/BSP/Components/lsm6dso16is/lsm6dso16is_reg.c **** }
1773:Drivers/BSP/Components/lsm6dso16is/lsm6dso16is_reg.c **** 
1774:Drivers/BSP/Components/lsm6dso16is/lsm6dso16is_reg.c **** /**
1775:Drivers/BSP/Components/lsm6dso16is/lsm6dso16is_reg.c ****   * @brief  It routes interrupt signals on INT 2 pin.[get]
1776:Drivers/BSP/Components/lsm6dso16is/lsm6dso16is_reg.c ****   *
1777:Drivers/BSP/Components/lsm6dso16is/lsm6dso16is_reg.c ****   * @param  ctx      read / write interface definitions
1778:Drivers/BSP/Components/lsm6dso16is/lsm6dso16is_reg.c ****   * @param  val      It routes interrupt signals on INT 2 pin.
1779:Drivers/BSP/Components/lsm6dso16is/lsm6dso16is_reg.c ****   * @retval          interface status (MANDATORY: return 0 -> no Error)
1780:Drivers/BSP/Components/lsm6dso16is/lsm6dso16is_reg.c ****   *
1781:Drivers/BSP/Components/lsm6dso16is/lsm6dso16is_reg.c ****   */
1782:Drivers/BSP/Components/lsm6dso16is/lsm6dso16is_reg.c **** int32_t lsm6dso16is_pin_int2_route_get(const stmdev_ctx_t *ctx,
1783:Drivers/BSP/Components/lsm6dso16is/lsm6dso16is_reg.c ****                                        lsm6dso16is_pin_int2_route_t *val)
1784:Drivers/BSP/Components/lsm6dso16is/lsm6dso16is_reg.c **** {
1785:Drivers/BSP/Components/lsm6dso16is/lsm6dso16is_reg.c ****   lsm6dso16is_int2_ctrl_t int2_ctrl;
1786:Drivers/BSP/Components/lsm6dso16is/lsm6dso16is_reg.c ****   lsm6dso16is_md2_cfg_t md2_cfg;
1787:Drivers/BSP/Components/lsm6dso16is/lsm6dso16is_reg.c ****   int32_t ret;
1788:Drivers/BSP/Components/lsm6dso16is/lsm6dso16is_reg.c **** 
1789:Drivers/BSP/Components/lsm6dso16is/lsm6dso16is_reg.c ****   ret = lsm6dso16is_read_reg(ctx, LSM6DSO16IS_INT2_CTRL, (uint8_t *)&int2_ctrl, 1);
1790:Drivers/BSP/Components/lsm6dso16is/lsm6dso16is_reg.c ****   ret += lsm6dso16is_read_reg(ctx, LSM6DSO16IS_MD2_CFG, (uint8_t *)&md2_cfg, 1);
1791:Drivers/BSP/Components/lsm6dso16is/lsm6dso16is_reg.c ****   if (ret != 0)
1792:Drivers/BSP/Components/lsm6dso16is/lsm6dso16is_reg.c ****   {
1793:Drivers/BSP/Components/lsm6dso16is/lsm6dso16is_reg.c ****     return ret;
1794:Drivers/BSP/Components/lsm6dso16is/lsm6dso16is_reg.c ****   }
1795:Drivers/BSP/Components/lsm6dso16is/lsm6dso16is_reg.c **** 
1796:Drivers/BSP/Components/lsm6dso16is/lsm6dso16is_reg.c ****   val->drdy_xl = int2_ctrl.int2_drdy_xl;
1797:Drivers/BSP/Components/lsm6dso16is/lsm6dso16is_reg.c ****   val->drdy_gy = int2_ctrl.int2_drdy_g;
1798:Drivers/BSP/Components/lsm6dso16is/lsm6dso16is_reg.c ****   val->drdy_temp = int2_ctrl.int2_drdy_temp;
1799:Drivers/BSP/Components/lsm6dso16is/lsm6dso16is_reg.c ****   val->ispu_sleep = int2_ctrl.int2_sleep_ispu;
1800:Drivers/BSP/Components/lsm6dso16is/lsm6dso16is_reg.c ****   val->ispu = md2_cfg.int2_ispu;
1801:Drivers/BSP/Components/lsm6dso16is/lsm6dso16is_reg.c ****   val->timestamp = md2_cfg.int2_timestamp;
1802:Drivers/BSP/Components/lsm6dso16is/lsm6dso16is_reg.c **** 
1803:Drivers/BSP/Components/lsm6dso16is/lsm6dso16is_reg.c ****   return ret;
1804:Drivers/BSP/Components/lsm6dso16is/lsm6dso16is_reg.c **** }
1805:Drivers/BSP/Components/lsm6dso16is/lsm6dso16is_reg.c **** 
1806:Drivers/BSP/Components/lsm6dso16is/lsm6dso16is_reg.c **** /**
1807:Drivers/BSP/Components/lsm6dso16is/lsm6dso16is_reg.c ****   * @brief  Push-pull/open-drain selection on INT1 and INT2 pins.[set]
1808:Drivers/BSP/Components/lsm6dso16is/lsm6dso16is_reg.c ****   *
1809:Drivers/BSP/Components/lsm6dso16is/lsm6dso16is_reg.c ****   * @param  ctx      read / write interface definitions
1810:Drivers/BSP/Components/lsm6dso16is/lsm6dso16is_reg.c ****   * @param  val      PUSH_PULL, OPEN_DRAIN,
1811:Drivers/BSP/Components/lsm6dso16is/lsm6dso16is_reg.c ****   * @retval          interface status (MANDATORY: return 0 -> no Error)
1812:Drivers/BSP/Components/lsm6dso16is/lsm6dso16is_reg.c ****   *
1813:Drivers/BSP/Components/lsm6dso16is/lsm6dso16is_reg.c ****   */
1814:Drivers/BSP/Components/lsm6dso16is/lsm6dso16is_reg.c **** int32_t lsm6dso16is_int_pin_mode_set(const stmdev_ctx_t *ctx,
1815:Drivers/BSP/Components/lsm6dso16is/lsm6dso16is_reg.c ****                                      lsm6dso16is_int_pin_mode_t val)
ARM GAS  C:\Users\Nathan\AppData\Local\Temp\ccznllVY.s 			page 35


1816:Drivers/BSP/Components/lsm6dso16is/lsm6dso16is_reg.c **** {
1817:Drivers/BSP/Components/lsm6dso16is/lsm6dso16is_reg.c ****   lsm6dso16is_ctrl3_c_t ctrl3_c;
1818:Drivers/BSP/Components/lsm6dso16is/lsm6dso16is_reg.c ****   int32_t ret;
1819:Drivers/BSP/Components/lsm6dso16is/lsm6dso16is_reg.c **** 
1820:Drivers/BSP/Components/lsm6dso16is/lsm6dso16is_reg.c ****   ret = lsm6dso16is_read_reg(ctx, LSM6DSO16IS_CTRL3_C, (uint8_t *)&ctrl3_c, 1);
1821:Drivers/BSP/Components/lsm6dso16is/lsm6dso16is_reg.c **** 
1822:Drivers/BSP/Components/lsm6dso16is/lsm6dso16is_reg.c ****   if (ret == 0)
1823:Drivers/BSP/Components/lsm6dso16is/lsm6dso16is_reg.c ****   {
1824:Drivers/BSP/Components/lsm6dso16is/lsm6dso16is_reg.c ****     ctrl3_c.pp_od = ((uint8_t)val & 0x1U);
1825:Drivers/BSP/Components/lsm6dso16is/lsm6dso16is_reg.c ****     ret = lsm6dso16is_write_reg(ctx, LSM6DSO16IS_CTRL3_C, (uint8_t *)&ctrl3_c, 1);
1826:Drivers/BSP/Components/lsm6dso16is/lsm6dso16is_reg.c ****   }
1827:Drivers/BSP/Components/lsm6dso16is/lsm6dso16is_reg.c **** 
1828:Drivers/BSP/Components/lsm6dso16is/lsm6dso16is_reg.c ****   return ret;
1829:Drivers/BSP/Components/lsm6dso16is/lsm6dso16is_reg.c **** }
1830:Drivers/BSP/Components/lsm6dso16is/lsm6dso16is_reg.c **** 
1831:Drivers/BSP/Components/lsm6dso16is/lsm6dso16is_reg.c **** /**
1832:Drivers/BSP/Components/lsm6dso16is/lsm6dso16is_reg.c ****   * @brief  Push-pull/open-drain selection on INT1 and INT2 pins.[get]
1833:Drivers/BSP/Components/lsm6dso16is/lsm6dso16is_reg.c ****   *
1834:Drivers/BSP/Components/lsm6dso16is/lsm6dso16is_reg.c ****   * @param  ctx      read / write interface definitions
1835:Drivers/BSP/Components/lsm6dso16is/lsm6dso16is_reg.c ****   * @param  val      PUSH_PULL, OPEN_DRAIN,
1836:Drivers/BSP/Components/lsm6dso16is/lsm6dso16is_reg.c ****   * @retval          interface status (MANDATORY: return 0 -> no Error)
1837:Drivers/BSP/Components/lsm6dso16is/lsm6dso16is_reg.c ****   *
1838:Drivers/BSP/Components/lsm6dso16is/lsm6dso16is_reg.c ****   */
1839:Drivers/BSP/Components/lsm6dso16is/lsm6dso16is_reg.c **** int32_t lsm6dso16is_int_pin_mode_get(const stmdev_ctx_t *ctx,
1840:Drivers/BSP/Components/lsm6dso16is/lsm6dso16is_reg.c ****                                      lsm6dso16is_int_pin_mode_t *val)
1841:Drivers/BSP/Components/lsm6dso16is/lsm6dso16is_reg.c **** {
1842:Drivers/BSP/Components/lsm6dso16is/lsm6dso16is_reg.c ****   lsm6dso16is_ctrl3_c_t ctrl3_c;
1843:Drivers/BSP/Components/lsm6dso16is/lsm6dso16is_reg.c ****   int32_t ret;
1844:Drivers/BSP/Components/lsm6dso16is/lsm6dso16is_reg.c **** 
1845:Drivers/BSP/Components/lsm6dso16is/lsm6dso16is_reg.c ****   ret = lsm6dso16is_read_reg(ctx, LSM6DSO16IS_CTRL3_C, (uint8_t *)&ctrl3_c, 1);
1846:Drivers/BSP/Components/lsm6dso16is/lsm6dso16is_reg.c **** 
1847:Drivers/BSP/Components/lsm6dso16is/lsm6dso16is_reg.c ****   switch ((ctrl3_c.pp_od))
1848:Drivers/BSP/Components/lsm6dso16is/lsm6dso16is_reg.c ****   {
1849:Drivers/BSP/Components/lsm6dso16is/lsm6dso16is_reg.c ****     case LSM6DSO16IS_PUSH_PULL:
1850:Drivers/BSP/Components/lsm6dso16is/lsm6dso16is_reg.c ****       *val = LSM6DSO16IS_PUSH_PULL;
1851:Drivers/BSP/Components/lsm6dso16is/lsm6dso16is_reg.c ****       break;
1852:Drivers/BSP/Components/lsm6dso16is/lsm6dso16is_reg.c **** 
1853:Drivers/BSP/Components/lsm6dso16is/lsm6dso16is_reg.c ****     case LSM6DSO16IS_OPEN_DRAIN:
1854:Drivers/BSP/Components/lsm6dso16is/lsm6dso16is_reg.c ****       *val = LSM6DSO16IS_OPEN_DRAIN;
1855:Drivers/BSP/Components/lsm6dso16is/lsm6dso16is_reg.c ****       break;
1856:Drivers/BSP/Components/lsm6dso16is/lsm6dso16is_reg.c **** 
1857:Drivers/BSP/Components/lsm6dso16is/lsm6dso16is_reg.c ****     default:
1858:Drivers/BSP/Components/lsm6dso16is/lsm6dso16is_reg.c ****       *val = LSM6DSO16IS_PUSH_PULL;
1859:Drivers/BSP/Components/lsm6dso16is/lsm6dso16is_reg.c ****       break;
1860:Drivers/BSP/Components/lsm6dso16is/lsm6dso16is_reg.c ****   }
1861:Drivers/BSP/Components/lsm6dso16is/lsm6dso16is_reg.c ****   return ret;
1862:Drivers/BSP/Components/lsm6dso16is/lsm6dso16is_reg.c **** }
1863:Drivers/BSP/Components/lsm6dso16is/lsm6dso16is_reg.c **** 
1864:Drivers/BSP/Components/lsm6dso16is/lsm6dso16is_reg.c **** /**
1865:Drivers/BSP/Components/lsm6dso16is/lsm6dso16is_reg.c ****   * @brief  Interrupt activation level.[set]
1866:Drivers/BSP/Components/lsm6dso16is/lsm6dso16is_reg.c ****   *
1867:Drivers/BSP/Components/lsm6dso16is/lsm6dso16is_reg.c ****   * @param  ctx      read / write interface definitions
1868:Drivers/BSP/Components/lsm6dso16is/lsm6dso16is_reg.c ****   * @param  val      ACTIVE_HIGH, ACTIVE_LOW,
1869:Drivers/BSP/Components/lsm6dso16is/lsm6dso16is_reg.c ****   * @retval          interface status (MANDATORY: return 0 -> no Error)
1870:Drivers/BSP/Components/lsm6dso16is/lsm6dso16is_reg.c ****   *
1871:Drivers/BSP/Components/lsm6dso16is/lsm6dso16is_reg.c ****   */
1872:Drivers/BSP/Components/lsm6dso16is/lsm6dso16is_reg.c **** int32_t lsm6dso16is_pin_polarity_set(const stmdev_ctx_t *ctx,
ARM GAS  C:\Users\Nathan\AppData\Local\Temp\ccznllVY.s 			page 36


1873:Drivers/BSP/Components/lsm6dso16is/lsm6dso16is_reg.c ****                                      lsm6dso16is_pin_polarity_t val)
1874:Drivers/BSP/Components/lsm6dso16is/lsm6dso16is_reg.c **** {
1875:Drivers/BSP/Components/lsm6dso16is/lsm6dso16is_reg.c ****   lsm6dso16is_ctrl3_c_t ctrl3_c;
1876:Drivers/BSP/Components/lsm6dso16is/lsm6dso16is_reg.c ****   int32_t ret;
1877:Drivers/BSP/Components/lsm6dso16is/lsm6dso16is_reg.c **** 
1878:Drivers/BSP/Components/lsm6dso16is/lsm6dso16is_reg.c ****   ret = lsm6dso16is_read_reg(ctx, LSM6DSO16IS_CTRL3_C, (uint8_t *)&ctrl3_c, 1);
1879:Drivers/BSP/Components/lsm6dso16is/lsm6dso16is_reg.c **** 
1880:Drivers/BSP/Components/lsm6dso16is/lsm6dso16is_reg.c ****   if (ret == 0)
1881:Drivers/BSP/Components/lsm6dso16is/lsm6dso16is_reg.c ****   {
1882:Drivers/BSP/Components/lsm6dso16is/lsm6dso16is_reg.c ****     ctrl3_c.h_lactive = ((uint8_t)val & 0x1U);
1883:Drivers/BSP/Components/lsm6dso16is/lsm6dso16is_reg.c ****     ret = lsm6dso16is_write_reg(ctx, LSM6DSO16IS_CTRL3_C, (uint8_t *)&ctrl3_c, 1);
1884:Drivers/BSP/Components/lsm6dso16is/lsm6dso16is_reg.c ****   }
1885:Drivers/BSP/Components/lsm6dso16is/lsm6dso16is_reg.c **** 
1886:Drivers/BSP/Components/lsm6dso16is/lsm6dso16is_reg.c ****   return ret;
1887:Drivers/BSP/Components/lsm6dso16is/lsm6dso16is_reg.c **** }
1888:Drivers/BSP/Components/lsm6dso16is/lsm6dso16is_reg.c **** 
1889:Drivers/BSP/Components/lsm6dso16is/lsm6dso16is_reg.c **** /**
1890:Drivers/BSP/Components/lsm6dso16is/lsm6dso16is_reg.c ****   * @brief  Interrupt activation level.[get]
1891:Drivers/BSP/Components/lsm6dso16is/lsm6dso16is_reg.c ****   *
1892:Drivers/BSP/Components/lsm6dso16is/lsm6dso16is_reg.c ****   * @param  ctx      read / write interface definitions
1893:Drivers/BSP/Components/lsm6dso16is/lsm6dso16is_reg.c ****   * @param  val      ACTIVE_HIGH, ACTIVE_LOW,
1894:Drivers/BSP/Components/lsm6dso16is/lsm6dso16is_reg.c ****   * @retval          interface status (MANDATORY: return 0 -> no Error)
1895:Drivers/BSP/Components/lsm6dso16is/lsm6dso16is_reg.c ****   *
1896:Drivers/BSP/Components/lsm6dso16is/lsm6dso16is_reg.c ****   */
1897:Drivers/BSP/Components/lsm6dso16is/lsm6dso16is_reg.c **** int32_t lsm6dso16is_pin_polarity_get(const stmdev_ctx_t *ctx,
1898:Drivers/BSP/Components/lsm6dso16is/lsm6dso16is_reg.c ****                                      lsm6dso16is_pin_polarity_t *val)
1899:Drivers/BSP/Components/lsm6dso16is/lsm6dso16is_reg.c **** {
1900:Drivers/BSP/Components/lsm6dso16is/lsm6dso16is_reg.c ****   lsm6dso16is_ctrl3_c_t ctrl3_c;
1901:Drivers/BSP/Components/lsm6dso16is/lsm6dso16is_reg.c ****   int32_t ret;
1902:Drivers/BSP/Components/lsm6dso16is/lsm6dso16is_reg.c **** 
1903:Drivers/BSP/Components/lsm6dso16is/lsm6dso16is_reg.c ****   ret = lsm6dso16is_read_reg(ctx, LSM6DSO16IS_CTRL3_C, (uint8_t *)&ctrl3_c, 1);
1904:Drivers/BSP/Components/lsm6dso16is/lsm6dso16is_reg.c **** 
1905:Drivers/BSP/Components/lsm6dso16is/lsm6dso16is_reg.c ****   switch ((ctrl3_c.h_lactive))
1906:Drivers/BSP/Components/lsm6dso16is/lsm6dso16is_reg.c ****   {
1907:Drivers/BSP/Components/lsm6dso16is/lsm6dso16is_reg.c ****     case LSM6DSO16IS_ACTIVE_HIGH:
1908:Drivers/BSP/Components/lsm6dso16is/lsm6dso16is_reg.c ****       *val = LSM6DSO16IS_ACTIVE_HIGH;
1909:Drivers/BSP/Components/lsm6dso16is/lsm6dso16is_reg.c ****       break;
1910:Drivers/BSP/Components/lsm6dso16is/lsm6dso16is_reg.c **** 
1911:Drivers/BSP/Components/lsm6dso16is/lsm6dso16is_reg.c ****     case LSM6DSO16IS_ACTIVE_LOW:
1912:Drivers/BSP/Components/lsm6dso16is/lsm6dso16is_reg.c ****       *val = LSM6DSO16IS_ACTIVE_LOW;
1913:Drivers/BSP/Components/lsm6dso16is/lsm6dso16is_reg.c ****       break;
1914:Drivers/BSP/Components/lsm6dso16is/lsm6dso16is_reg.c **** 
1915:Drivers/BSP/Components/lsm6dso16is/lsm6dso16is_reg.c ****     default:
1916:Drivers/BSP/Components/lsm6dso16is/lsm6dso16is_reg.c ****       *val = LSM6DSO16IS_ACTIVE_HIGH;
1917:Drivers/BSP/Components/lsm6dso16is/lsm6dso16is_reg.c ****       break;
1918:Drivers/BSP/Components/lsm6dso16is/lsm6dso16is_reg.c ****   }
1919:Drivers/BSP/Components/lsm6dso16is/lsm6dso16is_reg.c ****   return ret;
1920:Drivers/BSP/Components/lsm6dso16is/lsm6dso16is_reg.c **** }
1921:Drivers/BSP/Components/lsm6dso16is/lsm6dso16is_reg.c **** 
1922:Drivers/BSP/Components/lsm6dso16is/lsm6dso16is_reg.c **** /**
1923:Drivers/BSP/Components/lsm6dso16is/lsm6dso16is_reg.c ****   * @}
1924:Drivers/BSP/Components/lsm6dso16is/lsm6dso16is_reg.c ****   *
1925:Drivers/BSP/Components/lsm6dso16is/lsm6dso16is_reg.c ****   */
1926:Drivers/BSP/Components/lsm6dso16is/lsm6dso16is_reg.c **** 
1927:Drivers/BSP/Components/lsm6dso16is/lsm6dso16is_reg.c **** /**
1928:Drivers/BSP/Components/lsm6dso16is/lsm6dso16is_reg.c ****   * @defgroup  Sensor hub
1929:Drivers/BSP/Components/lsm6dso16is/lsm6dso16is_reg.c ****   * @brief     This section groups all the functions that manage the
ARM GAS  C:\Users\Nathan\AppData\Local\Temp\ccznllVY.s 			page 37


1930:Drivers/BSP/Components/lsm6dso16is/lsm6dso16is_reg.c ****   *            sensor hub.
1931:Drivers/BSP/Components/lsm6dso16is/lsm6dso16is_reg.c ****   * @{
1932:Drivers/BSP/Components/lsm6dso16is/lsm6dso16is_reg.c ****   *
1933:Drivers/BSP/Components/lsm6dso16is/lsm6dso16is_reg.c ****   */
1934:Drivers/BSP/Components/lsm6dso16is/lsm6dso16is_reg.c **** 
1935:Drivers/BSP/Components/lsm6dso16is/lsm6dso16is_reg.c **** /**
1936:Drivers/BSP/Components/lsm6dso16is/lsm6dso16is_reg.c ****   * @brief  Sensor hub output registers.[get]
1937:Drivers/BSP/Components/lsm6dso16is/lsm6dso16is_reg.c ****   *
1938:Drivers/BSP/Components/lsm6dso16is/lsm6dso16is_reg.c ****   * @param  ctx      read / write interface definitions
1939:Drivers/BSP/Components/lsm6dso16is/lsm6dso16is_reg.c ****   * @param  val      Sensor hub output registers.
1940:Drivers/BSP/Components/lsm6dso16is/lsm6dso16is_reg.c ****   * @retval          interface status (MANDATORY: return 0 -> no Error)
1941:Drivers/BSP/Components/lsm6dso16is/lsm6dso16is_reg.c ****   *
1942:Drivers/BSP/Components/lsm6dso16is/lsm6dso16is_reg.c ****   */
1943:Drivers/BSP/Components/lsm6dso16is/lsm6dso16is_reg.c **** int32_t lsm6dso16is_sh_read_data_raw_get(const stmdev_ctx_t *ctx, uint8_t *val,
1944:Drivers/BSP/Components/lsm6dso16is/lsm6dso16is_reg.c ****                                          uint8_t len)
1945:Drivers/BSP/Components/lsm6dso16is/lsm6dso16is_reg.c **** {
1946:Drivers/BSP/Components/lsm6dso16is/lsm6dso16is_reg.c ****   int32_t ret;
1947:Drivers/BSP/Components/lsm6dso16is/lsm6dso16is_reg.c **** 
1948:Drivers/BSP/Components/lsm6dso16is/lsm6dso16is_reg.c ****   ret = lsm6dso16is_mem_bank_set(ctx, LSM6DSO16IS_SENSOR_HUB_MEM_BANK);
1949:Drivers/BSP/Components/lsm6dso16is/lsm6dso16is_reg.c ****   ret += lsm6dso16is_read_reg(ctx, LSM6DSO16IS_SENSOR_HUB_1, val, len);
1950:Drivers/BSP/Components/lsm6dso16is/lsm6dso16is_reg.c ****   ret += lsm6dso16is_mem_bank_set(ctx, LSM6DSO16IS_MAIN_MEM_BANK);
1951:Drivers/BSP/Components/lsm6dso16is/lsm6dso16is_reg.c **** 
1952:Drivers/BSP/Components/lsm6dso16is/lsm6dso16is_reg.c ****   return ret;
1953:Drivers/BSP/Components/lsm6dso16is/lsm6dso16is_reg.c **** }
1954:Drivers/BSP/Components/lsm6dso16is/lsm6dso16is_reg.c **** 
1955:Drivers/BSP/Components/lsm6dso16is/lsm6dso16is_reg.c **** /**
1956:Drivers/BSP/Components/lsm6dso16is/lsm6dso16is_reg.c ****   * @brief  Number of external sensors to be read by the sensor hub.[set]
1957:Drivers/BSP/Components/lsm6dso16is/lsm6dso16is_reg.c ****   *
1958:Drivers/BSP/Components/lsm6dso16is/lsm6dso16is_reg.c ****   * @param  ctx      read / write interface definitions
1959:Drivers/BSP/Components/lsm6dso16is/lsm6dso16is_reg.c ****   * @param  val      SLV_0, SLV_0_1, SLV_0_1_2, SLV_0_1_2_3,
1960:Drivers/BSP/Components/lsm6dso16is/lsm6dso16is_reg.c ****   * @retval          interface status (MANDATORY: return 0 -> no Error)
1961:Drivers/BSP/Components/lsm6dso16is/lsm6dso16is_reg.c ****   *
1962:Drivers/BSP/Components/lsm6dso16is/lsm6dso16is_reg.c ****   */
1963:Drivers/BSP/Components/lsm6dso16is/lsm6dso16is_reg.c **** int32_t lsm6dso16is_sh_slave_connected_set(const stmdev_ctx_t *ctx,
1964:Drivers/BSP/Components/lsm6dso16is/lsm6dso16is_reg.c ****                                            lsm6dso16is_sh_slave_connected_t val)
1965:Drivers/BSP/Components/lsm6dso16is/lsm6dso16is_reg.c **** {
1966:Drivers/BSP/Components/lsm6dso16is/lsm6dso16is_reg.c ****   lsm6dso16is_master_config_t master_config;
1967:Drivers/BSP/Components/lsm6dso16is/lsm6dso16is_reg.c ****   int32_t ret;
1968:Drivers/BSP/Components/lsm6dso16is/lsm6dso16is_reg.c **** 
1969:Drivers/BSP/Components/lsm6dso16is/lsm6dso16is_reg.c ****   ret = lsm6dso16is_mem_bank_set(ctx, LSM6DSO16IS_SENSOR_HUB_MEM_BANK);
1970:Drivers/BSP/Components/lsm6dso16is/lsm6dso16is_reg.c ****   ret += lsm6dso16is_read_reg(ctx, LSM6DSO16IS_MASTER_CONFIG, (uint8_t *)&master_config, 1);
1971:Drivers/BSP/Components/lsm6dso16is/lsm6dso16is_reg.c ****   if (ret != 0)
1972:Drivers/BSP/Components/lsm6dso16is/lsm6dso16is_reg.c ****   {
1973:Drivers/BSP/Components/lsm6dso16is/lsm6dso16is_reg.c ****     goto exit;
1974:Drivers/BSP/Components/lsm6dso16is/lsm6dso16is_reg.c ****   }
1975:Drivers/BSP/Components/lsm6dso16is/lsm6dso16is_reg.c **** 
1976:Drivers/BSP/Components/lsm6dso16is/lsm6dso16is_reg.c ****   master_config.aux_sens_on = (uint8_t)val & 0x3U;
1977:Drivers/BSP/Components/lsm6dso16is/lsm6dso16is_reg.c ****   ret = lsm6dso16is_write_reg(ctx, LSM6DSO16IS_MASTER_CONFIG, (uint8_t *)&master_config, 1);
1978:Drivers/BSP/Components/lsm6dso16is/lsm6dso16is_reg.c **** 
1979:Drivers/BSP/Components/lsm6dso16is/lsm6dso16is_reg.c **** exit:
1980:Drivers/BSP/Components/lsm6dso16is/lsm6dso16is_reg.c ****   ret += lsm6dso16is_mem_bank_set(ctx, LSM6DSO16IS_MAIN_MEM_BANK);
1981:Drivers/BSP/Components/lsm6dso16is/lsm6dso16is_reg.c **** 
1982:Drivers/BSP/Components/lsm6dso16is/lsm6dso16is_reg.c ****   return ret;
1983:Drivers/BSP/Components/lsm6dso16is/lsm6dso16is_reg.c **** }
1984:Drivers/BSP/Components/lsm6dso16is/lsm6dso16is_reg.c **** 
1985:Drivers/BSP/Components/lsm6dso16is/lsm6dso16is_reg.c **** /**
1986:Drivers/BSP/Components/lsm6dso16is/lsm6dso16is_reg.c ****   * @brief  Number of external sensors to be read by the sensor hub.[get]
ARM GAS  C:\Users\Nathan\AppData\Local\Temp\ccznllVY.s 			page 38


1987:Drivers/BSP/Components/lsm6dso16is/lsm6dso16is_reg.c ****   *
1988:Drivers/BSP/Components/lsm6dso16is/lsm6dso16is_reg.c ****   * @param  ctx      read / write interface definitions
1989:Drivers/BSP/Components/lsm6dso16is/lsm6dso16is_reg.c ****   * @param  val      SLV_0, SLV_0_1, SLV_0_1_2, SLV_0_1_2_3,
1990:Drivers/BSP/Components/lsm6dso16is/lsm6dso16is_reg.c ****   * @retval          interface status (MANDATORY: return 0 -> no Error)
1991:Drivers/BSP/Components/lsm6dso16is/lsm6dso16is_reg.c ****   *
1992:Drivers/BSP/Components/lsm6dso16is/lsm6dso16is_reg.c ****   */
1993:Drivers/BSP/Components/lsm6dso16is/lsm6dso16is_reg.c **** int32_t lsm6dso16is_sh_slave_connected_get(const stmdev_ctx_t *ctx,
1994:Drivers/BSP/Components/lsm6dso16is/lsm6dso16is_reg.c ****                                            lsm6dso16is_sh_slave_connected_t *val)
1995:Drivers/BSP/Components/lsm6dso16is/lsm6dso16is_reg.c **** {
1996:Drivers/BSP/Components/lsm6dso16is/lsm6dso16is_reg.c ****   lsm6dso16is_master_config_t master_config;
1997:Drivers/BSP/Components/lsm6dso16is/lsm6dso16is_reg.c ****   int32_t ret;
1998:Drivers/BSP/Components/lsm6dso16is/lsm6dso16is_reg.c **** 
1999:Drivers/BSP/Components/lsm6dso16is/lsm6dso16is_reg.c ****   ret = lsm6dso16is_mem_bank_set(ctx, LSM6DSO16IS_SENSOR_HUB_MEM_BANK);
2000:Drivers/BSP/Components/lsm6dso16is/lsm6dso16is_reg.c ****   ret += lsm6dso16is_read_reg(ctx, LSM6DSO16IS_MASTER_CONFIG, (uint8_t *)&master_config, 1);
2001:Drivers/BSP/Components/lsm6dso16is/lsm6dso16is_reg.c ****   ret += lsm6dso16is_mem_bank_set(ctx, LSM6DSO16IS_MAIN_MEM_BANK);
2002:Drivers/BSP/Components/lsm6dso16is/lsm6dso16is_reg.c ****   if (ret != 0)
2003:Drivers/BSP/Components/lsm6dso16is/lsm6dso16is_reg.c ****   {
2004:Drivers/BSP/Components/lsm6dso16is/lsm6dso16is_reg.c ****     return ret;
2005:Drivers/BSP/Components/lsm6dso16is/lsm6dso16is_reg.c ****   }
2006:Drivers/BSP/Components/lsm6dso16is/lsm6dso16is_reg.c **** 
2007:Drivers/BSP/Components/lsm6dso16is/lsm6dso16is_reg.c ****   switch (master_config.aux_sens_on)
2008:Drivers/BSP/Components/lsm6dso16is/lsm6dso16is_reg.c ****   {
2009:Drivers/BSP/Components/lsm6dso16is/lsm6dso16is_reg.c ****     case LSM6DSO16IS_SLV_0:
2010:Drivers/BSP/Components/lsm6dso16is/lsm6dso16is_reg.c ****       *val = LSM6DSO16IS_SLV_0;
2011:Drivers/BSP/Components/lsm6dso16is/lsm6dso16is_reg.c ****       break;
2012:Drivers/BSP/Components/lsm6dso16is/lsm6dso16is_reg.c **** 
2013:Drivers/BSP/Components/lsm6dso16is/lsm6dso16is_reg.c ****     case LSM6DSO16IS_SLV_0_1:
2014:Drivers/BSP/Components/lsm6dso16is/lsm6dso16is_reg.c ****       *val = LSM6DSO16IS_SLV_0_1;
2015:Drivers/BSP/Components/lsm6dso16is/lsm6dso16is_reg.c ****       break;
2016:Drivers/BSP/Components/lsm6dso16is/lsm6dso16is_reg.c **** 
2017:Drivers/BSP/Components/lsm6dso16is/lsm6dso16is_reg.c ****     case LSM6DSO16IS_SLV_0_1_2:
2018:Drivers/BSP/Components/lsm6dso16is/lsm6dso16is_reg.c ****       *val = LSM6DSO16IS_SLV_0_1_2;
2019:Drivers/BSP/Components/lsm6dso16is/lsm6dso16is_reg.c ****       break;
2020:Drivers/BSP/Components/lsm6dso16is/lsm6dso16is_reg.c **** 
2021:Drivers/BSP/Components/lsm6dso16is/lsm6dso16is_reg.c ****     case LSM6DSO16IS_SLV_0_1_2_3:
2022:Drivers/BSP/Components/lsm6dso16is/lsm6dso16is_reg.c ****       *val = LSM6DSO16IS_SLV_0_1_2_3;
2023:Drivers/BSP/Components/lsm6dso16is/lsm6dso16is_reg.c ****       break;
2024:Drivers/BSP/Components/lsm6dso16is/lsm6dso16is_reg.c **** 
2025:Drivers/BSP/Components/lsm6dso16is/lsm6dso16is_reg.c ****     default:
2026:Drivers/BSP/Components/lsm6dso16is/lsm6dso16is_reg.c ****       *val = LSM6DSO16IS_SLV_0;
2027:Drivers/BSP/Components/lsm6dso16is/lsm6dso16is_reg.c ****       break;
2028:Drivers/BSP/Components/lsm6dso16is/lsm6dso16is_reg.c ****   }
2029:Drivers/BSP/Components/lsm6dso16is/lsm6dso16is_reg.c **** 
2030:Drivers/BSP/Components/lsm6dso16is/lsm6dso16is_reg.c ****   return ret;
2031:Drivers/BSP/Components/lsm6dso16is/lsm6dso16is_reg.c **** }
2032:Drivers/BSP/Components/lsm6dso16is/lsm6dso16is_reg.c **** 
2033:Drivers/BSP/Components/lsm6dso16is/lsm6dso16is_reg.c **** /**
2034:Drivers/BSP/Components/lsm6dso16is/lsm6dso16is_reg.c ****   * @brief  Sensor hub I2C master enable.[set]
2035:Drivers/BSP/Components/lsm6dso16is/lsm6dso16is_reg.c ****   *
2036:Drivers/BSP/Components/lsm6dso16is/lsm6dso16is_reg.c ****   * @param  ctx      read / write interface definitions
2037:Drivers/BSP/Components/lsm6dso16is/lsm6dso16is_reg.c ****   * @param  val      Sensor hub I2C master enable.
2038:Drivers/BSP/Components/lsm6dso16is/lsm6dso16is_reg.c ****   * @retval          interface status (MANDATORY: return 0 -> no Error)
2039:Drivers/BSP/Components/lsm6dso16is/lsm6dso16is_reg.c ****   *
2040:Drivers/BSP/Components/lsm6dso16is/lsm6dso16is_reg.c ****   */
2041:Drivers/BSP/Components/lsm6dso16is/lsm6dso16is_reg.c **** int32_t lsm6dso16is_sh_master_set(const stmdev_ctx_t *ctx, uint8_t val)
2042:Drivers/BSP/Components/lsm6dso16is/lsm6dso16is_reg.c **** {
2043:Drivers/BSP/Components/lsm6dso16is/lsm6dso16is_reg.c ****   lsm6dso16is_master_config_t master_config;
ARM GAS  C:\Users\Nathan\AppData\Local\Temp\ccznllVY.s 			page 39


2044:Drivers/BSP/Components/lsm6dso16is/lsm6dso16is_reg.c ****   int32_t ret;
2045:Drivers/BSP/Components/lsm6dso16is/lsm6dso16is_reg.c **** 
2046:Drivers/BSP/Components/lsm6dso16is/lsm6dso16is_reg.c ****   ret = lsm6dso16is_mem_bank_set(ctx, LSM6DSO16IS_SENSOR_HUB_MEM_BANK);
2047:Drivers/BSP/Components/lsm6dso16is/lsm6dso16is_reg.c ****   ret += lsm6dso16is_read_reg(ctx, LSM6DSO16IS_MASTER_CONFIG, (uint8_t *)&master_config, 1);
2048:Drivers/BSP/Components/lsm6dso16is/lsm6dso16is_reg.c ****   if (ret != 0)
2049:Drivers/BSP/Components/lsm6dso16is/lsm6dso16is_reg.c ****   {
2050:Drivers/BSP/Components/lsm6dso16is/lsm6dso16is_reg.c ****     goto exit;
2051:Drivers/BSP/Components/lsm6dso16is/lsm6dso16is_reg.c ****   }
2052:Drivers/BSP/Components/lsm6dso16is/lsm6dso16is_reg.c **** 
2053:Drivers/BSP/Components/lsm6dso16is/lsm6dso16is_reg.c ****   master_config.master_on = val;
2054:Drivers/BSP/Components/lsm6dso16is/lsm6dso16is_reg.c ****   ret = lsm6dso16is_write_reg(ctx, LSM6DSO16IS_MASTER_CONFIG, (uint8_t *)&master_config, 1);
2055:Drivers/BSP/Components/lsm6dso16is/lsm6dso16is_reg.c **** 
2056:Drivers/BSP/Components/lsm6dso16is/lsm6dso16is_reg.c **** exit:
2057:Drivers/BSP/Components/lsm6dso16is/lsm6dso16is_reg.c ****   ret += lsm6dso16is_mem_bank_set(ctx, LSM6DSO16IS_MAIN_MEM_BANK);
2058:Drivers/BSP/Components/lsm6dso16is/lsm6dso16is_reg.c **** 
2059:Drivers/BSP/Components/lsm6dso16is/lsm6dso16is_reg.c ****   return ret;
2060:Drivers/BSP/Components/lsm6dso16is/lsm6dso16is_reg.c **** }
2061:Drivers/BSP/Components/lsm6dso16is/lsm6dso16is_reg.c **** 
2062:Drivers/BSP/Components/lsm6dso16is/lsm6dso16is_reg.c **** /**
2063:Drivers/BSP/Components/lsm6dso16is/lsm6dso16is_reg.c ****   * @brief  Sensor hub I2C master enable.[get]
2064:Drivers/BSP/Components/lsm6dso16is/lsm6dso16is_reg.c ****   *
2065:Drivers/BSP/Components/lsm6dso16is/lsm6dso16is_reg.c ****   * @param  ctx      read / write interface definitions
2066:Drivers/BSP/Components/lsm6dso16is/lsm6dso16is_reg.c ****   * @param  val      Sensor hub I2C master enable.
2067:Drivers/BSP/Components/lsm6dso16is/lsm6dso16is_reg.c ****   * @retval          interface status (MANDATORY: return 0 -> no Error)
2068:Drivers/BSP/Components/lsm6dso16is/lsm6dso16is_reg.c ****   *
2069:Drivers/BSP/Components/lsm6dso16is/lsm6dso16is_reg.c ****   */
2070:Drivers/BSP/Components/lsm6dso16is/lsm6dso16is_reg.c **** int32_t lsm6dso16is_sh_master_get(const stmdev_ctx_t *ctx, uint8_t *val)
2071:Drivers/BSP/Components/lsm6dso16is/lsm6dso16is_reg.c **** {
2072:Drivers/BSP/Components/lsm6dso16is/lsm6dso16is_reg.c ****   lsm6dso16is_master_config_t master_config;
2073:Drivers/BSP/Components/lsm6dso16is/lsm6dso16is_reg.c ****   int32_t ret;
2074:Drivers/BSP/Components/lsm6dso16is/lsm6dso16is_reg.c **** 
2075:Drivers/BSP/Components/lsm6dso16is/lsm6dso16is_reg.c ****   ret = lsm6dso16is_mem_bank_set(ctx, LSM6DSO16IS_SENSOR_HUB_MEM_BANK);
2076:Drivers/BSP/Components/lsm6dso16is/lsm6dso16is_reg.c ****   ret += lsm6dso16is_read_reg(ctx, LSM6DSO16IS_MASTER_CONFIG, (uint8_t *)&master_config, 1);
2077:Drivers/BSP/Components/lsm6dso16is/lsm6dso16is_reg.c ****   if (ret != 0)
2078:Drivers/BSP/Components/lsm6dso16is/lsm6dso16is_reg.c ****   {
2079:Drivers/BSP/Components/lsm6dso16is/lsm6dso16is_reg.c ****     return ret;
2080:Drivers/BSP/Components/lsm6dso16is/lsm6dso16is_reg.c ****   }
2081:Drivers/BSP/Components/lsm6dso16is/lsm6dso16is_reg.c **** 
2082:Drivers/BSP/Components/lsm6dso16is/lsm6dso16is_reg.c ****   *val = master_config.master_on;
2083:Drivers/BSP/Components/lsm6dso16is/lsm6dso16is_reg.c **** 
2084:Drivers/BSP/Components/lsm6dso16is/lsm6dso16is_reg.c ****   ret = lsm6dso16is_mem_bank_set(ctx, LSM6DSO16IS_MAIN_MEM_BANK);
2085:Drivers/BSP/Components/lsm6dso16is/lsm6dso16is_reg.c **** 
2086:Drivers/BSP/Components/lsm6dso16is/lsm6dso16is_reg.c ****   return ret;
2087:Drivers/BSP/Components/lsm6dso16is/lsm6dso16is_reg.c **** }
2088:Drivers/BSP/Components/lsm6dso16is/lsm6dso16is_reg.c **** 
2089:Drivers/BSP/Components/lsm6dso16is/lsm6dso16is_reg.c **** /**
2090:Drivers/BSP/Components/lsm6dso16is/lsm6dso16is_reg.c ****   * @brief  Sensor Hub master I2C pull-up enable.[set]
2091:Drivers/BSP/Components/lsm6dso16is/lsm6dso16is_reg.c ****   *
2092:Drivers/BSP/Components/lsm6dso16is/lsm6dso16is_reg.c ****   * @param  ctx      read / write interface definitions
2093:Drivers/BSP/Components/lsm6dso16is/lsm6dso16is_reg.c ****   * @param  val      Sensor Hub master I2C pull-up enable.
2094:Drivers/BSP/Components/lsm6dso16is/lsm6dso16is_reg.c ****   * @retval          interface status (MANDATORY: return 0 -> no Error)
2095:Drivers/BSP/Components/lsm6dso16is/lsm6dso16is_reg.c ****   *
2096:Drivers/BSP/Components/lsm6dso16is/lsm6dso16is_reg.c ****   */
2097:Drivers/BSP/Components/lsm6dso16is/lsm6dso16is_reg.c **** int32_t lsm6dso16is_sh_master_interface_pull_up_set(const stmdev_ctx_t *ctx, uint8_t val)
2098:Drivers/BSP/Components/lsm6dso16is/lsm6dso16is_reg.c **** {
2099:Drivers/BSP/Components/lsm6dso16is/lsm6dso16is_reg.c ****   lsm6dso16is_master_config_t master_config;
2100:Drivers/BSP/Components/lsm6dso16is/lsm6dso16is_reg.c ****   int32_t ret;
ARM GAS  C:\Users\Nathan\AppData\Local\Temp\ccznllVY.s 			page 40


2101:Drivers/BSP/Components/lsm6dso16is/lsm6dso16is_reg.c **** 
2102:Drivers/BSP/Components/lsm6dso16is/lsm6dso16is_reg.c ****   ret = lsm6dso16is_mem_bank_set(ctx, LSM6DSO16IS_SENSOR_HUB_MEM_BANK);
2103:Drivers/BSP/Components/lsm6dso16is/lsm6dso16is_reg.c ****   ret += lsm6dso16is_read_reg(ctx, LSM6DSO16IS_MASTER_CONFIG, (uint8_t *)&master_config, 1);
2104:Drivers/BSP/Components/lsm6dso16is/lsm6dso16is_reg.c ****   if (ret != 0)
2105:Drivers/BSP/Components/lsm6dso16is/lsm6dso16is_reg.c ****   {
2106:Drivers/BSP/Components/lsm6dso16is/lsm6dso16is_reg.c ****     goto exit;
2107:Drivers/BSP/Components/lsm6dso16is/lsm6dso16is_reg.c ****   }
2108:Drivers/BSP/Components/lsm6dso16is/lsm6dso16is_reg.c **** 
2109:Drivers/BSP/Components/lsm6dso16is/lsm6dso16is_reg.c ****   master_config.shub_pu_en = val;
2110:Drivers/BSP/Components/lsm6dso16is/lsm6dso16is_reg.c ****   ret = lsm6dso16is_write_reg(ctx, LSM6DSO16IS_MASTER_CONFIG, (uint8_t *)&master_config, 1);
2111:Drivers/BSP/Components/lsm6dso16is/lsm6dso16is_reg.c **** 
2112:Drivers/BSP/Components/lsm6dso16is/lsm6dso16is_reg.c **** exit:
2113:Drivers/BSP/Components/lsm6dso16is/lsm6dso16is_reg.c ****   ret += lsm6dso16is_mem_bank_set(ctx, LSM6DSO16IS_MAIN_MEM_BANK);
2114:Drivers/BSP/Components/lsm6dso16is/lsm6dso16is_reg.c **** 
2115:Drivers/BSP/Components/lsm6dso16is/lsm6dso16is_reg.c ****   return ret;
2116:Drivers/BSP/Components/lsm6dso16is/lsm6dso16is_reg.c **** }
2117:Drivers/BSP/Components/lsm6dso16is/lsm6dso16is_reg.c **** 
2118:Drivers/BSP/Components/lsm6dso16is/lsm6dso16is_reg.c **** /**
2119:Drivers/BSP/Components/lsm6dso16is/lsm6dso16is_reg.c ****   * @brief  Sensor Hub master I2C pull-up enable.[get]
2120:Drivers/BSP/Components/lsm6dso16is/lsm6dso16is_reg.c ****   *
2121:Drivers/BSP/Components/lsm6dso16is/lsm6dso16is_reg.c ****   * @param  ctx      read / write interface definitions
2122:Drivers/BSP/Components/lsm6dso16is/lsm6dso16is_reg.c ****   * @param  val      Sensor Hub master I2C pull-up enable.
2123:Drivers/BSP/Components/lsm6dso16is/lsm6dso16is_reg.c ****   * @retval          interface status (MANDATORY: return 0 -> no Error)
2124:Drivers/BSP/Components/lsm6dso16is/lsm6dso16is_reg.c ****   *
2125:Drivers/BSP/Components/lsm6dso16is/lsm6dso16is_reg.c ****   */
2126:Drivers/BSP/Components/lsm6dso16is/lsm6dso16is_reg.c **** int32_t lsm6dso16is_sh_master_interface_pull_up_get(const stmdev_ctx_t *ctx,
2127:Drivers/BSP/Components/lsm6dso16is/lsm6dso16is_reg.c ****                                                     uint8_t *val)
2128:Drivers/BSP/Components/lsm6dso16is/lsm6dso16is_reg.c **** {
2129:Drivers/BSP/Components/lsm6dso16is/lsm6dso16is_reg.c ****   lsm6dso16is_master_config_t master_config;
2130:Drivers/BSP/Components/lsm6dso16is/lsm6dso16is_reg.c ****   int32_t ret;
2131:Drivers/BSP/Components/lsm6dso16is/lsm6dso16is_reg.c **** 
2132:Drivers/BSP/Components/lsm6dso16is/lsm6dso16is_reg.c ****   ret = lsm6dso16is_mem_bank_set(ctx, LSM6DSO16IS_SENSOR_HUB_MEM_BANK);
2133:Drivers/BSP/Components/lsm6dso16is/lsm6dso16is_reg.c ****   ret += lsm6dso16is_read_reg(ctx, LSM6DSO16IS_MASTER_CONFIG, (uint8_t *)&master_config, 1);
2134:Drivers/BSP/Components/lsm6dso16is/lsm6dso16is_reg.c ****   if (ret != 0)
2135:Drivers/BSP/Components/lsm6dso16is/lsm6dso16is_reg.c ****   {
2136:Drivers/BSP/Components/lsm6dso16is/lsm6dso16is_reg.c ****     return ret;
2137:Drivers/BSP/Components/lsm6dso16is/lsm6dso16is_reg.c ****   }
2138:Drivers/BSP/Components/lsm6dso16is/lsm6dso16is_reg.c **** 
2139:Drivers/BSP/Components/lsm6dso16is/lsm6dso16is_reg.c ****   *val = master_config.shub_pu_en;
2140:Drivers/BSP/Components/lsm6dso16is/lsm6dso16is_reg.c **** 
2141:Drivers/BSP/Components/lsm6dso16is/lsm6dso16is_reg.c ****   ret = lsm6dso16is_mem_bank_set(ctx, LSM6DSO16IS_MAIN_MEM_BANK);
2142:Drivers/BSP/Components/lsm6dso16is/lsm6dso16is_reg.c **** 
2143:Drivers/BSP/Components/lsm6dso16is/lsm6dso16is_reg.c ****   return ret;
2144:Drivers/BSP/Components/lsm6dso16is/lsm6dso16is_reg.c **** }
2145:Drivers/BSP/Components/lsm6dso16is/lsm6dso16is_reg.c **** 
2146:Drivers/BSP/Components/lsm6dso16is/lsm6dso16is_reg.c **** /**
2147:Drivers/BSP/Components/lsm6dso16is/lsm6dso16is_reg.c ****   * @brief  I2C interface pass-through.[set]
2148:Drivers/BSP/Components/lsm6dso16is/lsm6dso16is_reg.c ****   *
2149:Drivers/BSP/Components/lsm6dso16is/lsm6dso16is_reg.c ****   * @param  ctx    Read / write interface definitions.(ptr)
2150:Drivers/BSP/Components/lsm6dso16is/lsm6dso16is_reg.c ****   * @param  val    Change the values of pass_through_mode in reg MASTER_CONFIG
2151:Drivers/BSP/Components/lsm6dso16is/lsm6dso16is_reg.c ****   * @retval        Interface status (MANDATORY: return 0 -> no Error).
2152:Drivers/BSP/Components/lsm6dso16is/lsm6dso16is_reg.c ****   *
2153:Drivers/BSP/Components/lsm6dso16is/lsm6dso16is_reg.c ****   */
2154:Drivers/BSP/Components/lsm6dso16is/lsm6dso16is_reg.c **** int32_t lsm6dso16is_sh_pass_through_set(const stmdev_ctx_t *ctx, uint8_t val)
2155:Drivers/BSP/Components/lsm6dso16is/lsm6dso16is_reg.c **** {
2156:Drivers/BSP/Components/lsm6dso16is/lsm6dso16is_reg.c ****   lsm6dso16is_master_config_t master_config;
2157:Drivers/BSP/Components/lsm6dso16is/lsm6dso16is_reg.c ****   int32_t ret;
ARM GAS  C:\Users\Nathan\AppData\Local\Temp\ccznllVY.s 			page 41


2158:Drivers/BSP/Components/lsm6dso16is/lsm6dso16is_reg.c **** 
2159:Drivers/BSP/Components/lsm6dso16is/lsm6dso16is_reg.c ****   ret = lsm6dso16is_mem_bank_set(ctx, LSM6DSO16IS_SENSOR_HUB_MEM_BANK);
2160:Drivers/BSP/Components/lsm6dso16is/lsm6dso16is_reg.c ****   ret += lsm6dso16is_read_reg(ctx, LSM6DSO16IS_MASTER_CONFIG, (uint8_t *)&master_config, 1);
2161:Drivers/BSP/Components/lsm6dso16is/lsm6dso16is_reg.c ****   if (ret != 0)
2162:Drivers/BSP/Components/lsm6dso16is/lsm6dso16is_reg.c ****   {
2163:Drivers/BSP/Components/lsm6dso16is/lsm6dso16is_reg.c ****     goto exit;
2164:Drivers/BSP/Components/lsm6dso16is/lsm6dso16is_reg.c ****   }
2165:Drivers/BSP/Components/lsm6dso16is/lsm6dso16is_reg.c **** 
2166:Drivers/BSP/Components/lsm6dso16is/lsm6dso16is_reg.c ****   master_config.pass_through_mode = (uint8_t)val;
2167:Drivers/BSP/Components/lsm6dso16is/lsm6dso16is_reg.c ****   ret = lsm6dso16is_write_reg(ctx, LSM6DSO16IS_MASTER_CONFIG, (uint8_t *)&master_config, 1);
2168:Drivers/BSP/Components/lsm6dso16is/lsm6dso16is_reg.c **** 
2169:Drivers/BSP/Components/lsm6dso16is/lsm6dso16is_reg.c **** exit:
2170:Drivers/BSP/Components/lsm6dso16is/lsm6dso16is_reg.c ****   ret += lsm6dso16is_mem_bank_set(ctx, LSM6DSO16IS_MAIN_MEM_BANK);
2171:Drivers/BSP/Components/lsm6dso16is/lsm6dso16is_reg.c **** 
2172:Drivers/BSP/Components/lsm6dso16is/lsm6dso16is_reg.c ****   return ret;
2173:Drivers/BSP/Components/lsm6dso16is/lsm6dso16is_reg.c **** }
2174:Drivers/BSP/Components/lsm6dso16is/lsm6dso16is_reg.c **** 
2175:Drivers/BSP/Components/lsm6dso16is/lsm6dso16is_reg.c **** /**
2176:Drivers/BSP/Components/lsm6dso16is/lsm6dso16is_reg.c ****   * @brief  I2C interface pass-through.[get]
2177:Drivers/BSP/Components/lsm6dso16is/lsm6dso16is_reg.c ****   *
2178:Drivers/BSP/Components/lsm6dso16is/lsm6dso16is_reg.c ****   * @param  ctx    Read / write interface definitions.(ptr)
2179:Drivers/BSP/Components/lsm6dso16is/lsm6dso16is_reg.c ****   * @param  val    Change the values of pass_through_mode in reg MASTER_CONFIG
2180:Drivers/BSP/Components/lsm6dso16is/lsm6dso16is_reg.c ****   * @retval        Interface status (MANDATORY: return 0 -> no Error).
2181:Drivers/BSP/Components/lsm6dso16is/lsm6dso16is_reg.c ****   *
2182:Drivers/BSP/Components/lsm6dso16is/lsm6dso16is_reg.c ****   */
2183:Drivers/BSP/Components/lsm6dso16is/lsm6dso16is_reg.c **** int32_t lsm6dso16is_sh_pass_through_get(const stmdev_ctx_t *ctx, uint8_t *val)
2184:Drivers/BSP/Components/lsm6dso16is/lsm6dso16is_reg.c **** {
2185:Drivers/BSP/Components/lsm6dso16is/lsm6dso16is_reg.c ****   lsm6dso16is_master_config_t master_config;
2186:Drivers/BSP/Components/lsm6dso16is/lsm6dso16is_reg.c ****   int32_t ret;
2187:Drivers/BSP/Components/lsm6dso16is/lsm6dso16is_reg.c **** 
2188:Drivers/BSP/Components/lsm6dso16is/lsm6dso16is_reg.c ****   ret = lsm6dso16is_mem_bank_set(ctx, LSM6DSO16IS_SENSOR_HUB_MEM_BANK);
2189:Drivers/BSP/Components/lsm6dso16is/lsm6dso16is_reg.c ****   ret += lsm6dso16is_read_reg(ctx, LSM6DSO16IS_MASTER_CONFIG, (uint8_t *)&master_config, 1);
2190:Drivers/BSP/Components/lsm6dso16is/lsm6dso16is_reg.c **** 
2191:Drivers/BSP/Components/lsm6dso16is/lsm6dso16is_reg.c ****   *val = master_config.pass_through_mode;
2192:Drivers/BSP/Components/lsm6dso16is/lsm6dso16is_reg.c ****   ret += lsm6dso16is_mem_bank_set(ctx, LSM6DSO16IS_MAIN_MEM_BANK);
2193:Drivers/BSP/Components/lsm6dso16is/lsm6dso16is_reg.c **** 
2194:Drivers/BSP/Components/lsm6dso16is/lsm6dso16is_reg.c ****   return ret;
2195:Drivers/BSP/Components/lsm6dso16is/lsm6dso16is_reg.c **** }
2196:Drivers/BSP/Components/lsm6dso16is/lsm6dso16is_reg.c **** 
2197:Drivers/BSP/Components/lsm6dso16is/lsm6dso16is_reg.c **** /**
2198:Drivers/BSP/Components/lsm6dso16is/lsm6dso16is_reg.c ****   * @brief  Sensor hub trigger signal selection.[set]
2199:Drivers/BSP/Components/lsm6dso16is/lsm6dso16is_reg.c ****   *
2200:Drivers/BSP/Components/lsm6dso16is/lsm6dso16is_reg.c ****   * @param  ctx      read / write interface definitions
2201:Drivers/BSP/Components/lsm6dso16is/lsm6dso16is_reg.c ****   * @param  val      SH_TRG_XL_GY_DRDY, SH_TRIG_INT2,
2202:Drivers/BSP/Components/lsm6dso16is/lsm6dso16is_reg.c ****   * @retval          interface status (MANDATORY: return 0 -> no Error)
2203:Drivers/BSP/Components/lsm6dso16is/lsm6dso16is_reg.c ****   *
2204:Drivers/BSP/Components/lsm6dso16is/lsm6dso16is_reg.c ****   */
2205:Drivers/BSP/Components/lsm6dso16is/lsm6dso16is_reg.c **** int32_t lsm6dso16is_sh_syncro_mode_set(const stmdev_ctx_t *ctx,
2206:Drivers/BSP/Components/lsm6dso16is/lsm6dso16is_reg.c ****                                        lsm6dso16is_sh_syncro_mode_t val)
2207:Drivers/BSP/Components/lsm6dso16is/lsm6dso16is_reg.c **** {
2208:Drivers/BSP/Components/lsm6dso16is/lsm6dso16is_reg.c ****   lsm6dso16is_master_config_t master_config;
2209:Drivers/BSP/Components/lsm6dso16is/lsm6dso16is_reg.c ****   int32_t ret;
2210:Drivers/BSP/Components/lsm6dso16is/lsm6dso16is_reg.c **** 
2211:Drivers/BSP/Components/lsm6dso16is/lsm6dso16is_reg.c ****   ret = lsm6dso16is_mem_bank_set(ctx, LSM6DSO16IS_SENSOR_HUB_MEM_BANK);
2212:Drivers/BSP/Components/lsm6dso16is/lsm6dso16is_reg.c ****   ret += lsm6dso16is_read_reg(ctx, LSM6DSO16IS_MASTER_CONFIG, (uint8_t *)&master_config, 1);
2213:Drivers/BSP/Components/lsm6dso16is/lsm6dso16is_reg.c ****   if (ret != 0)
2214:Drivers/BSP/Components/lsm6dso16is/lsm6dso16is_reg.c ****   {
ARM GAS  C:\Users\Nathan\AppData\Local\Temp\ccznllVY.s 			page 42


2215:Drivers/BSP/Components/lsm6dso16is/lsm6dso16is_reg.c ****     goto exit;
2216:Drivers/BSP/Components/lsm6dso16is/lsm6dso16is_reg.c ****   }
2217:Drivers/BSP/Components/lsm6dso16is/lsm6dso16is_reg.c **** 
2218:Drivers/BSP/Components/lsm6dso16is/lsm6dso16is_reg.c ****   master_config.start_config = (uint8_t)val & 0x01U;
2219:Drivers/BSP/Components/lsm6dso16is/lsm6dso16is_reg.c ****   ret = lsm6dso16is_write_reg(ctx, LSM6DSO16IS_MASTER_CONFIG, (uint8_t *)&master_config, 1);
2220:Drivers/BSP/Components/lsm6dso16is/lsm6dso16is_reg.c **** 
2221:Drivers/BSP/Components/lsm6dso16is/lsm6dso16is_reg.c **** exit:
2222:Drivers/BSP/Components/lsm6dso16is/lsm6dso16is_reg.c ****   ret += lsm6dso16is_mem_bank_set(ctx, LSM6DSO16IS_MAIN_MEM_BANK);
2223:Drivers/BSP/Components/lsm6dso16is/lsm6dso16is_reg.c **** 
2224:Drivers/BSP/Components/lsm6dso16is/lsm6dso16is_reg.c ****   return ret;
2225:Drivers/BSP/Components/lsm6dso16is/lsm6dso16is_reg.c **** }
2226:Drivers/BSP/Components/lsm6dso16is/lsm6dso16is_reg.c **** 
2227:Drivers/BSP/Components/lsm6dso16is/lsm6dso16is_reg.c **** /**
2228:Drivers/BSP/Components/lsm6dso16is/lsm6dso16is_reg.c ****   * @brief  Sensor hub trigger signal selection.[get]
2229:Drivers/BSP/Components/lsm6dso16is/lsm6dso16is_reg.c ****   *
2230:Drivers/BSP/Components/lsm6dso16is/lsm6dso16is_reg.c ****   * @param  ctx      read / write interface definitions
2231:Drivers/BSP/Components/lsm6dso16is/lsm6dso16is_reg.c ****   * @param  val      SH_TRG_XL_GY_DRDY, SH_TRIG_INT2,
2232:Drivers/BSP/Components/lsm6dso16is/lsm6dso16is_reg.c ****   * @retval          interface status (MANDATORY: return 0 -> no Error)
2233:Drivers/BSP/Components/lsm6dso16is/lsm6dso16is_reg.c ****   *
2234:Drivers/BSP/Components/lsm6dso16is/lsm6dso16is_reg.c ****   */
2235:Drivers/BSP/Components/lsm6dso16is/lsm6dso16is_reg.c **** int32_t lsm6dso16is_sh_syncro_mode_get(const stmdev_ctx_t *ctx,
2236:Drivers/BSP/Components/lsm6dso16is/lsm6dso16is_reg.c ****                                        lsm6dso16is_sh_syncro_mode_t *val)
2237:Drivers/BSP/Components/lsm6dso16is/lsm6dso16is_reg.c **** {
2238:Drivers/BSP/Components/lsm6dso16is/lsm6dso16is_reg.c ****   lsm6dso16is_master_config_t master_config;
2239:Drivers/BSP/Components/lsm6dso16is/lsm6dso16is_reg.c ****   int32_t ret;
2240:Drivers/BSP/Components/lsm6dso16is/lsm6dso16is_reg.c **** 
2241:Drivers/BSP/Components/lsm6dso16is/lsm6dso16is_reg.c ****   ret = lsm6dso16is_mem_bank_set(ctx, LSM6DSO16IS_SENSOR_HUB_MEM_BANK);
2242:Drivers/BSP/Components/lsm6dso16is/lsm6dso16is_reg.c ****   ret += lsm6dso16is_read_reg(ctx, LSM6DSO16IS_MASTER_CONFIG, (uint8_t *)&master_config, 1);
2243:Drivers/BSP/Components/lsm6dso16is/lsm6dso16is_reg.c ****   ret += lsm6dso16is_mem_bank_set(ctx, LSM6DSO16IS_MAIN_MEM_BANK);
2244:Drivers/BSP/Components/lsm6dso16is/lsm6dso16is_reg.c ****   if (ret != 0)
2245:Drivers/BSP/Components/lsm6dso16is/lsm6dso16is_reg.c ****   {
2246:Drivers/BSP/Components/lsm6dso16is/lsm6dso16is_reg.c ****     return ret;
2247:Drivers/BSP/Components/lsm6dso16is/lsm6dso16is_reg.c ****   }
2248:Drivers/BSP/Components/lsm6dso16is/lsm6dso16is_reg.c **** 
2249:Drivers/BSP/Components/lsm6dso16is/lsm6dso16is_reg.c ****   switch (master_config.start_config)
2250:Drivers/BSP/Components/lsm6dso16is/lsm6dso16is_reg.c ****   {
2251:Drivers/BSP/Components/lsm6dso16is/lsm6dso16is_reg.c ****     case LSM6DSO16IS_SH_TRG_XL_GY_DRDY:
2252:Drivers/BSP/Components/lsm6dso16is/lsm6dso16is_reg.c ****       *val = LSM6DSO16IS_SH_TRG_XL_GY_DRDY;
2253:Drivers/BSP/Components/lsm6dso16is/lsm6dso16is_reg.c ****       break;
2254:Drivers/BSP/Components/lsm6dso16is/lsm6dso16is_reg.c **** 
2255:Drivers/BSP/Components/lsm6dso16is/lsm6dso16is_reg.c ****     case LSM6DSO16IS_SH_TRIG_INT2:
2256:Drivers/BSP/Components/lsm6dso16is/lsm6dso16is_reg.c ****       *val = LSM6DSO16IS_SH_TRIG_INT2;
2257:Drivers/BSP/Components/lsm6dso16is/lsm6dso16is_reg.c ****       break;
2258:Drivers/BSP/Components/lsm6dso16is/lsm6dso16is_reg.c **** 
2259:Drivers/BSP/Components/lsm6dso16is/lsm6dso16is_reg.c ****     default:
2260:Drivers/BSP/Components/lsm6dso16is/lsm6dso16is_reg.c ****       *val = LSM6DSO16IS_SH_TRG_XL_GY_DRDY;
2261:Drivers/BSP/Components/lsm6dso16is/lsm6dso16is_reg.c ****       break;
2262:Drivers/BSP/Components/lsm6dso16is/lsm6dso16is_reg.c ****   }
2263:Drivers/BSP/Components/lsm6dso16is/lsm6dso16is_reg.c **** 
2264:Drivers/BSP/Components/lsm6dso16is/lsm6dso16is_reg.c ****   return ret;
2265:Drivers/BSP/Components/lsm6dso16is/lsm6dso16is_reg.c **** }
2266:Drivers/BSP/Components/lsm6dso16is/lsm6dso16is_reg.c **** 
2267:Drivers/BSP/Components/lsm6dso16is/lsm6dso16is_reg.c **** /**
2268:Drivers/BSP/Components/lsm6dso16is/lsm6dso16is_reg.c ****   * @brief  Slave 0 write operation is performed only at the first sensor hub cycle.[set]
2269:Drivers/BSP/Components/lsm6dso16is/lsm6dso16is_reg.c ****   *
2270:Drivers/BSP/Components/lsm6dso16is/lsm6dso16is_reg.c ****   * @param  ctx      read / write interface definitions
2271:Drivers/BSP/Components/lsm6dso16is/lsm6dso16is_reg.c ****   * @param  val      EACH_SH_CYCLE, ONLY_FIRST_CYCLE,
ARM GAS  C:\Users\Nathan\AppData\Local\Temp\ccznllVY.s 			page 43


2272:Drivers/BSP/Components/lsm6dso16is/lsm6dso16is_reg.c ****   * @retval          interface status (MANDATORY: return 0 -> no Error)
2273:Drivers/BSP/Components/lsm6dso16is/lsm6dso16is_reg.c ****   *
2274:Drivers/BSP/Components/lsm6dso16is/lsm6dso16is_reg.c ****   */
2275:Drivers/BSP/Components/lsm6dso16is/lsm6dso16is_reg.c **** int32_t lsm6dso16is_sh_write_mode_set(const stmdev_ctx_t *ctx,
2276:Drivers/BSP/Components/lsm6dso16is/lsm6dso16is_reg.c ****                                       lsm6dso16is_sh_write_mode_t val)
2277:Drivers/BSP/Components/lsm6dso16is/lsm6dso16is_reg.c **** {
2278:Drivers/BSP/Components/lsm6dso16is/lsm6dso16is_reg.c ****   lsm6dso16is_master_config_t master_config;
2279:Drivers/BSP/Components/lsm6dso16is/lsm6dso16is_reg.c ****   int32_t ret;
2280:Drivers/BSP/Components/lsm6dso16is/lsm6dso16is_reg.c **** 
2281:Drivers/BSP/Components/lsm6dso16is/lsm6dso16is_reg.c ****   ret = lsm6dso16is_mem_bank_set(ctx, LSM6DSO16IS_SENSOR_HUB_MEM_BANK);
2282:Drivers/BSP/Components/lsm6dso16is/lsm6dso16is_reg.c ****   ret += lsm6dso16is_read_reg(ctx, LSM6DSO16IS_MASTER_CONFIG, (uint8_t *)&master_config, 1);
2283:Drivers/BSP/Components/lsm6dso16is/lsm6dso16is_reg.c ****   if (ret != 0)
2284:Drivers/BSP/Components/lsm6dso16is/lsm6dso16is_reg.c ****   {
2285:Drivers/BSP/Components/lsm6dso16is/lsm6dso16is_reg.c ****     goto exit;
2286:Drivers/BSP/Components/lsm6dso16is/lsm6dso16is_reg.c ****   }
2287:Drivers/BSP/Components/lsm6dso16is/lsm6dso16is_reg.c **** 
2288:Drivers/BSP/Components/lsm6dso16is/lsm6dso16is_reg.c ****   master_config.write_once = (uint8_t)val & 0x01U;
2289:Drivers/BSP/Components/lsm6dso16is/lsm6dso16is_reg.c ****   ret = lsm6dso16is_write_reg(ctx, LSM6DSO16IS_MASTER_CONFIG, (uint8_t *)&master_config, 1);
2290:Drivers/BSP/Components/lsm6dso16is/lsm6dso16is_reg.c **** 
2291:Drivers/BSP/Components/lsm6dso16is/lsm6dso16is_reg.c **** exit:
2292:Drivers/BSP/Components/lsm6dso16is/lsm6dso16is_reg.c ****   ret += lsm6dso16is_mem_bank_set(ctx, LSM6DSO16IS_MAIN_MEM_BANK);
2293:Drivers/BSP/Components/lsm6dso16is/lsm6dso16is_reg.c **** 
2294:Drivers/BSP/Components/lsm6dso16is/lsm6dso16is_reg.c ****   return ret;
2295:Drivers/BSP/Components/lsm6dso16is/lsm6dso16is_reg.c **** }
2296:Drivers/BSP/Components/lsm6dso16is/lsm6dso16is_reg.c **** 
2297:Drivers/BSP/Components/lsm6dso16is/lsm6dso16is_reg.c **** /**
2298:Drivers/BSP/Components/lsm6dso16is/lsm6dso16is_reg.c ****   * @brief  Slave 0 write operation is performed only at the first sensor hub cycle.[get]
2299:Drivers/BSP/Components/lsm6dso16is/lsm6dso16is_reg.c ****   *
2300:Drivers/BSP/Components/lsm6dso16is/lsm6dso16is_reg.c ****   * @param  ctx      read / write interface definitions
2301:Drivers/BSP/Components/lsm6dso16is/lsm6dso16is_reg.c ****   * @param  val      EACH_SH_CYCLE, ONLY_FIRST_CYCLE,
2302:Drivers/BSP/Components/lsm6dso16is/lsm6dso16is_reg.c ****   * @retval          interface status (MANDATORY: return 0 -> no Error)
2303:Drivers/BSP/Components/lsm6dso16is/lsm6dso16is_reg.c ****   *
2304:Drivers/BSP/Components/lsm6dso16is/lsm6dso16is_reg.c ****   */
2305:Drivers/BSP/Components/lsm6dso16is/lsm6dso16is_reg.c **** int32_t lsm6dso16is_sh_write_mode_get(const stmdev_ctx_t *ctx,
2306:Drivers/BSP/Components/lsm6dso16is/lsm6dso16is_reg.c ****                                       lsm6dso16is_sh_write_mode_t *val)
2307:Drivers/BSP/Components/lsm6dso16is/lsm6dso16is_reg.c **** {
2308:Drivers/BSP/Components/lsm6dso16is/lsm6dso16is_reg.c ****   lsm6dso16is_master_config_t master_config;
2309:Drivers/BSP/Components/lsm6dso16is/lsm6dso16is_reg.c ****   int32_t ret;
2310:Drivers/BSP/Components/lsm6dso16is/lsm6dso16is_reg.c **** 
2311:Drivers/BSP/Components/lsm6dso16is/lsm6dso16is_reg.c ****   ret = lsm6dso16is_mem_bank_set(ctx, LSM6DSO16IS_SENSOR_HUB_MEM_BANK);
2312:Drivers/BSP/Components/lsm6dso16is/lsm6dso16is_reg.c ****   ret += lsm6dso16is_read_reg(ctx, LSM6DSO16IS_MASTER_CONFIG, (uint8_t *)&master_config, 1);
2313:Drivers/BSP/Components/lsm6dso16is/lsm6dso16is_reg.c ****   ret += lsm6dso16is_mem_bank_set(ctx, LSM6DSO16IS_MAIN_MEM_BANK);
2314:Drivers/BSP/Components/lsm6dso16is/lsm6dso16is_reg.c ****   if (ret != 0)
2315:Drivers/BSP/Components/lsm6dso16is/lsm6dso16is_reg.c ****   {
2316:Drivers/BSP/Components/lsm6dso16is/lsm6dso16is_reg.c ****     return ret;
2317:Drivers/BSP/Components/lsm6dso16is/lsm6dso16is_reg.c ****   }
2318:Drivers/BSP/Components/lsm6dso16is/lsm6dso16is_reg.c **** 
2319:Drivers/BSP/Components/lsm6dso16is/lsm6dso16is_reg.c ****   switch (master_config.write_once)
2320:Drivers/BSP/Components/lsm6dso16is/lsm6dso16is_reg.c ****   {
2321:Drivers/BSP/Components/lsm6dso16is/lsm6dso16is_reg.c ****     case LSM6DSO16IS_EACH_SH_CYCLE:
2322:Drivers/BSP/Components/lsm6dso16is/lsm6dso16is_reg.c ****       *val = LSM6DSO16IS_EACH_SH_CYCLE;
2323:Drivers/BSP/Components/lsm6dso16is/lsm6dso16is_reg.c ****       break;
2324:Drivers/BSP/Components/lsm6dso16is/lsm6dso16is_reg.c **** 
2325:Drivers/BSP/Components/lsm6dso16is/lsm6dso16is_reg.c ****     case LSM6DSO16IS_ONLY_FIRST_CYCLE:
2326:Drivers/BSP/Components/lsm6dso16is/lsm6dso16is_reg.c ****       *val = LSM6DSO16IS_ONLY_FIRST_CYCLE;
2327:Drivers/BSP/Components/lsm6dso16is/lsm6dso16is_reg.c ****       break;
2328:Drivers/BSP/Components/lsm6dso16is/lsm6dso16is_reg.c **** 
ARM GAS  C:\Users\Nathan\AppData\Local\Temp\ccznllVY.s 			page 44


2329:Drivers/BSP/Components/lsm6dso16is/lsm6dso16is_reg.c ****     default:
2330:Drivers/BSP/Components/lsm6dso16is/lsm6dso16is_reg.c ****       *val = LSM6DSO16IS_EACH_SH_CYCLE;
2331:Drivers/BSP/Components/lsm6dso16is/lsm6dso16is_reg.c ****       break;
2332:Drivers/BSP/Components/lsm6dso16is/lsm6dso16is_reg.c ****   }
2333:Drivers/BSP/Components/lsm6dso16is/lsm6dso16is_reg.c **** 
2334:Drivers/BSP/Components/lsm6dso16is/lsm6dso16is_reg.c ****   return ret;
2335:Drivers/BSP/Components/lsm6dso16is/lsm6dso16is_reg.c **** }
2336:Drivers/BSP/Components/lsm6dso16is/lsm6dso16is_reg.c **** 
2337:Drivers/BSP/Components/lsm6dso16is/lsm6dso16is_reg.c **** /**
2338:Drivers/BSP/Components/lsm6dso16is/lsm6dso16is_reg.c ****   * @brief  Reset Master logic and output registers. Must be set to 1 and then set it to 0
2339:Drivers/BSP/Components/lsm6dso16is/lsm6dso16is_reg.c ****   *
2340:Drivers/BSP/Components/lsm6dso16is/lsm6dso16is_reg.c ****   * @param  ctx      read / write interface definitions
2341:Drivers/BSP/Components/lsm6dso16is/lsm6dso16is_reg.c ****   * @param  val      Reset Master logic and output registers. Must be set to 1 and then set i
2342:Drivers/BSP/Components/lsm6dso16is/lsm6dso16is_reg.c ****   * @retval          interface status (MANDATORY: return 0 -> no Error)
2343:Drivers/BSP/Components/lsm6dso16is/lsm6dso16is_reg.c ****   *
2344:Drivers/BSP/Components/lsm6dso16is/lsm6dso16is_reg.c ****   */
2345:Drivers/BSP/Components/lsm6dso16is/lsm6dso16is_reg.c **** int32_t lsm6dso16is_sh_reset_set(const stmdev_ctx_t *ctx, uint8_t val)
2346:Drivers/BSP/Components/lsm6dso16is/lsm6dso16is_reg.c **** {
2347:Drivers/BSP/Components/lsm6dso16is/lsm6dso16is_reg.c ****   lsm6dso16is_master_config_t master_config;
2348:Drivers/BSP/Components/lsm6dso16is/lsm6dso16is_reg.c ****   int32_t ret;
2349:Drivers/BSP/Components/lsm6dso16is/lsm6dso16is_reg.c **** 
2350:Drivers/BSP/Components/lsm6dso16is/lsm6dso16is_reg.c ****   ret = lsm6dso16is_mem_bank_set(ctx, LSM6DSO16IS_SENSOR_HUB_MEM_BANK);
2351:Drivers/BSP/Components/lsm6dso16is/lsm6dso16is_reg.c ****   ret += lsm6dso16is_read_reg(ctx, LSM6DSO16IS_MASTER_CONFIG, (uint8_t *)&master_config, 1);
2352:Drivers/BSP/Components/lsm6dso16is/lsm6dso16is_reg.c ****   if (ret != 0)
2353:Drivers/BSP/Components/lsm6dso16is/lsm6dso16is_reg.c ****   {
2354:Drivers/BSP/Components/lsm6dso16is/lsm6dso16is_reg.c ****     goto exit;
2355:Drivers/BSP/Components/lsm6dso16is/lsm6dso16is_reg.c ****   }
2356:Drivers/BSP/Components/lsm6dso16is/lsm6dso16is_reg.c **** 
2357:Drivers/BSP/Components/lsm6dso16is/lsm6dso16is_reg.c ****   master_config.rst_master_regs = val;
2358:Drivers/BSP/Components/lsm6dso16is/lsm6dso16is_reg.c ****   ret = lsm6dso16is_write_reg(ctx, LSM6DSO16IS_MASTER_CONFIG, (uint8_t *)&master_config, 1);
2359:Drivers/BSP/Components/lsm6dso16is/lsm6dso16is_reg.c **** 
2360:Drivers/BSP/Components/lsm6dso16is/lsm6dso16is_reg.c **** exit:
2361:Drivers/BSP/Components/lsm6dso16is/lsm6dso16is_reg.c ****   ret += lsm6dso16is_mem_bank_set(ctx, LSM6DSO16IS_MAIN_MEM_BANK);
2362:Drivers/BSP/Components/lsm6dso16is/lsm6dso16is_reg.c **** 
2363:Drivers/BSP/Components/lsm6dso16is/lsm6dso16is_reg.c ****   return ret;
2364:Drivers/BSP/Components/lsm6dso16is/lsm6dso16is_reg.c **** }
2365:Drivers/BSP/Components/lsm6dso16is/lsm6dso16is_reg.c **** 
2366:Drivers/BSP/Components/lsm6dso16is/lsm6dso16is_reg.c **** /**
2367:Drivers/BSP/Components/lsm6dso16is/lsm6dso16is_reg.c ****   * @brief  Reset Master logic and output registers. Must be set to 1 and then set it to 0
2368:Drivers/BSP/Components/lsm6dso16is/lsm6dso16is_reg.c ****   *
2369:Drivers/BSP/Components/lsm6dso16is/lsm6dso16is_reg.c ****   * @param  ctx      read / write interface definitions
2370:Drivers/BSP/Components/lsm6dso16is/lsm6dso16is_reg.c ****   * @param  val      Reset Master logic and output registers. Must be set to 1 and then set i
2371:Drivers/BSP/Components/lsm6dso16is/lsm6dso16is_reg.c ****   * @retval          interface status (MANDATORY: return 0 -> no Error)
2372:Drivers/BSP/Components/lsm6dso16is/lsm6dso16is_reg.c ****   *
2373:Drivers/BSP/Components/lsm6dso16is/lsm6dso16is_reg.c ****   */
2374:Drivers/BSP/Components/lsm6dso16is/lsm6dso16is_reg.c **** int32_t lsm6dso16is_sh_reset_get(const stmdev_ctx_t *ctx, uint8_t *val)
2375:Drivers/BSP/Components/lsm6dso16is/lsm6dso16is_reg.c **** {
2376:Drivers/BSP/Components/lsm6dso16is/lsm6dso16is_reg.c ****   lsm6dso16is_master_config_t master_config;
2377:Drivers/BSP/Components/lsm6dso16is/lsm6dso16is_reg.c ****   int32_t ret;
2378:Drivers/BSP/Components/lsm6dso16is/lsm6dso16is_reg.c **** 
2379:Drivers/BSP/Components/lsm6dso16is/lsm6dso16is_reg.c ****   ret = lsm6dso16is_mem_bank_set(ctx, LSM6DSO16IS_SENSOR_HUB_MEM_BANK);
2380:Drivers/BSP/Components/lsm6dso16is/lsm6dso16is_reg.c ****   ret += lsm6dso16is_read_reg(ctx, LSM6DSO16IS_MASTER_CONFIG, (uint8_t *)&master_config, 1);
2381:Drivers/BSP/Components/lsm6dso16is/lsm6dso16is_reg.c ****   if (ret != 0)
2382:Drivers/BSP/Components/lsm6dso16is/lsm6dso16is_reg.c ****   {
2383:Drivers/BSP/Components/lsm6dso16is/lsm6dso16is_reg.c ****     return ret;
2384:Drivers/BSP/Components/lsm6dso16is/lsm6dso16is_reg.c ****   }
2385:Drivers/BSP/Components/lsm6dso16is/lsm6dso16is_reg.c **** 
ARM GAS  C:\Users\Nathan\AppData\Local\Temp\ccznllVY.s 			page 45


2386:Drivers/BSP/Components/lsm6dso16is/lsm6dso16is_reg.c ****   *val = master_config.rst_master_regs;
2387:Drivers/BSP/Components/lsm6dso16is/lsm6dso16is_reg.c **** 
2388:Drivers/BSP/Components/lsm6dso16is/lsm6dso16is_reg.c ****   ret = lsm6dso16is_mem_bank_set(ctx, LSM6DSO16IS_MAIN_MEM_BANK);
2389:Drivers/BSP/Components/lsm6dso16is/lsm6dso16is_reg.c **** 
2390:Drivers/BSP/Components/lsm6dso16is/lsm6dso16is_reg.c ****   return ret;
2391:Drivers/BSP/Components/lsm6dso16is/lsm6dso16is_reg.c **** }
2392:Drivers/BSP/Components/lsm6dso16is/lsm6dso16is_reg.c **** 
2393:Drivers/BSP/Components/lsm6dso16is/lsm6dso16is_reg.c **** /**
2394:Drivers/BSP/Components/lsm6dso16is/lsm6dso16is_reg.c ****   * @brief  Configure slave 0 for perform a write.[set]
2395:Drivers/BSP/Components/lsm6dso16is/lsm6dso16is_reg.c ****   *
2396:Drivers/BSP/Components/lsm6dso16is/lsm6dso16is_reg.c ****   * @param  ctx      read / write interface definitions
2397:Drivers/BSP/Components/lsm6dso16is/lsm6dso16is_reg.c ****   * @param  val      a structure that contain
2398:Drivers/BSP/Components/lsm6dso16is/lsm6dso16is_reg.c ****   *                      - uint8_t slv1_add;    8 bit i2c device address
2399:Drivers/BSP/Components/lsm6dso16is/lsm6dso16is_reg.c ****   *                      - uint8_t slv1_subadd; 8 bit register device address
2400:Drivers/BSP/Components/lsm6dso16is/lsm6dso16is_reg.c ****   *                      - uint8_t slv1_data;   8 bit data to write
2401:Drivers/BSP/Components/lsm6dso16is/lsm6dso16is_reg.c ****   * @retval             interface status (MANDATORY: return 0 -> no Error)
2402:Drivers/BSP/Components/lsm6dso16is/lsm6dso16is_reg.c ****   *
2403:Drivers/BSP/Components/lsm6dso16is/lsm6dso16is_reg.c ****   */
2404:Drivers/BSP/Components/lsm6dso16is/lsm6dso16is_reg.c **** int32_t lsm6dso16is_sh_cfg_write(const stmdev_ctx_t *ctx,
2405:Drivers/BSP/Components/lsm6dso16is/lsm6dso16is_reg.c ****                                  lsm6dso16is_sh_cfg_write_t *val)
2406:Drivers/BSP/Components/lsm6dso16is/lsm6dso16is_reg.c **** {
2407:Drivers/BSP/Components/lsm6dso16is/lsm6dso16is_reg.c ****   lsm6dso16is_slv0_add_t reg;
2408:Drivers/BSP/Components/lsm6dso16is/lsm6dso16is_reg.c ****   int32_t ret;
2409:Drivers/BSP/Components/lsm6dso16is/lsm6dso16is_reg.c **** 
2410:Drivers/BSP/Components/lsm6dso16is/lsm6dso16is_reg.c ****   ret = lsm6dso16is_mem_bank_set(ctx, LSM6DSO16IS_SENSOR_HUB_MEM_BANK);
2411:Drivers/BSP/Components/lsm6dso16is/lsm6dso16is_reg.c ****   if (ret != 0)
2412:Drivers/BSP/Components/lsm6dso16is/lsm6dso16is_reg.c ****   {
2413:Drivers/BSP/Components/lsm6dso16is/lsm6dso16is_reg.c ****     return ret;
2414:Drivers/BSP/Components/lsm6dso16is/lsm6dso16is_reg.c ****   }
2415:Drivers/BSP/Components/lsm6dso16is/lsm6dso16is_reg.c **** 
2416:Drivers/BSP/Components/lsm6dso16is/lsm6dso16is_reg.c ****   reg.slave0_add = val->slv0_add;
2417:Drivers/BSP/Components/lsm6dso16is/lsm6dso16is_reg.c ****   reg.rw_0 = 0;
2418:Drivers/BSP/Components/lsm6dso16is/lsm6dso16is_reg.c ****   ret = lsm6dso16is_write_reg(ctx, LSM6DSO16IS_SLV0_ADD, (uint8_t *)&reg, 1);
2419:Drivers/BSP/Components/lsm6dso16is/lsm6dso16is_reg.c ****   if (ret != 0)
2420:Drivers/BSP/Components/lsm6dso16is/lsm6dso16is_reg.c ****   {
2421:Drivers/BSP/Components/lsm6dso16is/lsm6dso16is_reg.c ****     goto exit;
2422:Drivers/BSP/Components/lsm6dso16is/lsm6dso16is_reg.c ****   }
2423:Drivers/BSP/Components/lsm6dso16is/lsm6dso16is_reg.c **** 
2424:Drivers/BSP/Components/lsm6dso16is/lsm6dso16is_reg.c ****   ret = lsm6dso16is_write_reg(ctx, LSM6DSO16IS_SLV0_SUBADD,
2425:Drivers/BSP/Components/lsm6dso16is/lsm6dso16is_reg.c ****                               &(val->slv0_subadd), 1);
2426:Drivers/BSP/Components/lsm6dso16is/lsm6dso16is_reg.c ****   if (ret != 0)
2427:Drivers/BSP/Components/lsm6dso16is/lsm6dso16is_reg.c ****   {
2428:Drivers/BSP/Components/lsm6dso16is/lsm6dso16is_reg.c ****     goto exit;
2429:Drivers/BSP/Components/lsm6dso16is/lsm6dso16is_reg.c ****   }
2430:Drivers/BSP/Components/lsm6dso16is/lsm6dso16is_reg.c **** 
2431:Drivers/BSP/Components/lsm6dso16is/lsm6dso16is_reg.c ****   ret = lsm6dso16is_write_reg(ctx, LSM6DSO16IS_DATAWRITE_SLV0,
2432:Drivers/BSP/Components/lsm6dso16is/lsm6dso16is_reg.c ****                               &(val->slv0_data), 1);
2433:Drivers/BSP/Components/lsm6dso16is/lsm6dso16is_reg.c **** 
2434:Drivers/BSP/Components/lsm6dso16is/lsm6dso16is_reg.c **** exit:
2435:Drivers/BSP/Components/lsm6dso16is/lsm6dso16is_reg.c ****   ret += lsm6dso16is_mem_bank_set(ctx, LSM6DSO16IS_MAIN_MEM_BANK);
2436:Drivers/BSP/Components/lsm6dso16is/lsm6dso16is_reg.c **** 
2437:Drivers/BSP/Components/lsm6dso16is/lsm6dso16is_reg.c ****   return ret;
2438:Drivers/BSP/Components/lsm6dso16is/lsm6dso16is_reg.c **** }
2439:Drivers/BSP/Components/lsm6dso16is/lsm6dso16is_reg.c **** 
2440:Drivers/BSP/Components/lsm6dso16is/lsm6dso16is_reg.c **** /**
2441:Drivers/BSP/Components/lsm6dso16is/lsm6dso16is_reg.c ****   * @brief  Rate at which the master communicates.[set]
2442:Drivers/BSP/Components/lsm6dso16is/lsm6dso16is_reg.c ****   *
ARM GAS  C:\Users\Nathan\AppData\Local\Temp\ccznllVY.s 			page 46


2443:Drivers/BSP/Components/lsm6dso16is/lsm6dso16is_reg.c ****   * @param  ctx      read / write interface definitions
2444:Drivers/BSP/Components/lsm6dso16is/lsm6dso16is_reg.c ****   * @param  val      SH_12_5Hz, SH_26Hz, SH_52Hz, SH_104Hz
2445:Drivers/BSP/Components/lsm6dso16is/lsm6dso16is_reg.c ****   * @retval          interface status (MANDATORY: return 0 -> no Error)
2446:Drivers/BSP/Components/lsm6dso16is/lsm6dso16is_reg.c ****   *
2447:Drivers/BSP/Components/lsm6dso16is/lsm6dso16is_reg.c ****   */
2448:Drivers/BSP/Components/lsm6dso16is/lsm6dso16is_reg.c **** int32_t lsm6dso16is_sh_data_rate_set(const stmdev_ctx_t *ctx,
2449:Drivers/BSP/Components/lsm6dso16is/lsm6dso16is_reg.c ****                                      lsm6dso16is_sh_data_rate_t val)
2450:Drivers/BSP/Components/lsm6dso16is/lsm6dso16is_reg.c **** {
2451:Drivers/BSP/Components/lsm6dso16is/lsm6dso16is_reg.c ****   lsm6dso16is_slv0_config_t slv0_config;
2452:Drivers/BSP/Components/lsm6dso16is/lsm6dso16is_reg.c ****   int32_t ret;
2453:Drivers/BSP/Components/lsm6dso16is/lsm6dso16is_reg.c **** 
2454:Drivers/BSP/Components/lsm6dso16is/lsm6dso16is_reg.c ****   ret = lsm6dso16is_mem_bank_set(ctx, LSM6DSO16IS_SENSOR_HUB_MEM_BANK);
2455:Drivers/BSP/Components/lsm6dso16is/lsm6dso16is_reg.c ****   ret += lsm6dso16is_read_reg(ctx, LSM6DSO16IS_SLV0_CONFIG, (uint8_t *)&slv0_config, 1);
2456:Drivers/BSP/Components/lsm6dso16is/lsm6dso16is_reg.c ****   if (ret != 0)
2457:Drivers/BSP/Components/lsm6dso16is/lsm6dso16is_reg.c ****   {
2458:Drivers/BSP/Components/lsm6dso16is/lsm6dso16is_reg.c ****     goto exit;
2459:Drivers/BSP/Components/lsm6dso16is/lsm6dso16is_reg.c ****   }
2460:Drivers/BSP/Components/lsm6dso16is/lsm6dso16is_reg.c **** 
2461:Drivers/BSP/Components/lsm6dso16is/lsm6dso16is_reg.c ****   slv0_config.shub_odr = (uint8_t)val & 0x07U;
2462:Drivers/BSP/Components/lsm6dso16is/lsm6dso16is_reg.c ****   ret = lsm6dso16is_write_reg(ctx, LSM6DSO16IS_SLV0_CONFIG, (uint8_t *)&slv0_config, 1);
2463:Drivers/BSP/Components/lsm6dso16is/lsm6dso16is_reg.c **** 
2464:Drivers/BSP/Components/lsm6dso16is/lsm6dso16is_reg.c **** exit:
2465:Drivers/BSP/Components/lsm6dso16is/lsm6dso16is_reg.c ****   ret += lsm6dso16is_mem_bank_set(ctx, LSM6DSO16IS_MAIN_MEM_BANK);
2466:Drivers/BSP/Components/lsm6dso16is/lsm6dso16is_reg.c **** 
2467:Drivers/BSP/Components/lsm6dso16is/lsm6dso16is_reg.c ****   return ret;
2468:Drivers/BSP/Components/lsm6dso16is/lsm6dso16is_reg.c **** }
2469:Drivers/BSP/Components/lsm6dso16is/lsm6dso16is_reg.c **** 
2470:Drivers/BSP/Components/lsm6dso16is/lsm6dso16is_reg.c **** /**
2471:Drivers/BSP/Components/lsm6dso16is/lsm6dso16is_reg.c ****   * @brief  Rate at which the master communicates.[get]
2472:Drivers/BSP/Components/lsm6dso16is/lsm6dso16is_reg.c ****   *
2473:Drivers/BSP/Components/lsm6dso16is/lsm6dso16is_reg.c ****   * @param  ctx      read / write interface definitions
2474:Drivers/BSP/Components/lsm6dso16is/lsm6dso16is_reg.c ****   * @param  val      SH_12_5Hz, SH_26Hz, SH_52Hz, SH_104Hz
2475:Drivers/BSP/Components/lsm6dso16is/lsm6dso16is_reg.c ****   * @retval          interface status (MANDATORY: return 0 -> no Error)
2476:Drivers/BSP/Components/lsm6dso16is/lsm6dso16is_reg.c ****   *
2477:Drivers/BSP/Components/lsm6dso16is/lsm6dso16is_reg.c ****   */
2478:Drivers/BSP/Components/lsm6dso16is/lsm6dso16is_reg.c **** int32_t lsm6dso16is_sh_data_rate_get(const stmdev_ctx_t *ctx,
2479:Drivers/BSP/Components/lsm6dso16is/lsm6dso16is_reg.c ****                                      lsm6dso16is_sh_data_rate_t *val)
2480:Drivers/BSP/Components/lsm6dso16is/lsm6dso16is_reg.c **** {
2481:Drivers/BSP/Components/lsm6dso16is/lsm6dso16is_reg.c ****   lsm6dso16is_slv0_config_t slv0_config;
2482:Drivers/BSP/Components/lsm6dso16is/lsm6dso16is_reg.c ****   int32_t ret;
2483:Drivers/BSP/Components/lsm6dso16is/lsm6dso16is_reg.c **** 
2484:Drivers/BSP/Components/lsm6dso16is/lsm6dso16is_reg.c ****   ret = lsm6dso16is_mem_bank_set(ctx, LSM6DSO16IS_SENSOR_HUB_MEM_BANK);
2485:Drivers/BSP/Components/lsm6dso16is/lsm6dso16is_reg.c ****   ret += lsm6dso16is_read_reg(ctx, LSM6DSO16IS_SLV0_CONFIG, (uint8_t *)&slv0_config, 1);
2486:Drivers/BSP/Components/lsm6dso16is/lsm6dso16is_reg.c ****   ret += lsm6dso16is_mem_bank_set(ctx, LSM6DSO16IS_MAIN_MEM_BANK);
2487:Drivers/BSP/Components/lsm6dso16is/lsm6dso16is_reg.c ****   if (ret != 0)
2488:Drivers/BSP/Components/lsm6dso16is/lsm6dso16is_reg.c ****   {
2489:Drivers/BSP/Components/lsm6dso16is/lsm6dso16is_reg.c ****     return ret;
2490:Drivers/BSP/Components/lsm6dso16is/lsm6dso16is_reg.c ****   }
2491:Drivers/BSP/Components/lsm6dso16is/lsm6dso16is_reg.c **** 
2492:Drivers/BSP/Components/lsm6dso16is/lsm6dso16is_reg.c ****   switch (slv0_config.shub_odr)
2493:Drivers/BSP/Components/lsm6dso16is/lsm6dso16is_reg.c ****   {
2494:Drivers/BSP/Components/lsm6dso16is/lsm6dso16is_reg.c ****     case LSM6DSO16IS_SH_12_5Hz:
2495:Drivers/BSP/Components/lsm6dso16is/lsm6dso16is_reg.c ****       *val = LSM6DSO16IS_SH_12_5Hz;
2496:Drivers/BSP/Components/lsm6dso16is/lsm6dso16is_reg.c ****       break;
2497:Drivers/BSP/Components/lsm6dso16is/lsm6dso16is_reg.c **** 
2498:Drivers/BSP/Components/lsm6dso16is/lsm6dso16is_reg.c ****     case LSM6DSO16IS_SH_26Hz:
2499:Drivers/BSP/Components/lsm6dso16is/lsm6dso16is_reg.c ****       *val = LSM6DSO16IS_SH_26Hz;
ARM GAS  C:\Users\Nathan\AppData\Local\Temp\ccznllVY.s 			page 47


2500:Drivers/BSP/Components/lsm6dso16is/lsm6dso16is_reg.c ****       break;
2501:Drivers/BSP/Components/lsm6dso16is/lsm6dso16is_reg.c **** 
2502:Drivers/BSP/Components/lsm6dso16is/lsm6dso16is_reg.c ****     case LSM6DSO16IS_SH_52Hz:
2503:Drivers/BSP/Components/lsm6dso16is/lsm6dso16is_reg.c ****       *val = LSM6DSO16IS_SH_52Hz;
2504:Drivers/BSP/Components/lsm6dso16is/lsm6dso16is_reg.c ****       break;
2505:Drivers/BSP/Components/lsm6dso16is/lsm6dso16is_reg.c **** 
2506:Drivers/BSP/Components/lsm6dso16is/lsm6dso16is_reg.c ****     case LSM6DSO16IS_SH_104Hz:
2507:Drivers/BSP/Components/lsm6dso16is/lsm6dso16is_reg.c ****       *val = LSM6DSO16IS_SH_104Hz;
2508:Drivers/BSP/Components/lsm6dso16is/lsm6dso16is_reg.c ****       break;
2509:Drivers/BSP/Components/lsm6dso16is/lsm6dso16is_reg.c **** 
2510:Drivers/BSP/Components/lsm6dso16is/lsm6dso16is_reg.c ****     default:
2511:Drivers/BSP/Components/lsm6dso16is/lsm6dso16is_reg.c ****       *val = LSM6DSO16IS_SH_12_5Hz;
2512:Drivers/BSP/Components/lsm6dso16is/lsm6dso16is_reg.c ****       break;
2513:Drivers/BSP/Components/lsm6dso16is/lsm6dso16is_reg.c ****   }
2514:Drivers/BSP/Components/lsm6dso16is/lsm6dso16is_reg.c **** 
2515:Drivers/BSP/Components/lsm6dso16is/lsm6dso16is_reg.c ****   return ret;
2516:Drivers/BSP/Components/lsm6dso16is/lsm6dso16is_reg.c **** }
2517:Drivers/BSP/Components/lsm6dso16is/lsm6dso16is_reg.c **** 
2518:Drivers/BSP/Components/lsm6dso16is/lsm6dso16is_reg.c **** /**
2519:Drivers/BSP/Components/lsm6dso16is/lsm6dso16is_reg.c ****   * @brief  Configure slave idx for perform a read.[set]
2520:Drivers/BSP/Components/lsm6dso16is/lsm6dso16is_reg.c ****   *
2521:Drivers/BSP/Components/lsm6dso16is/lsm6dso16is_reg.c ****   * @param  ctx      read / write interface definitions
2522:Drivers/BSP/Components/lsm6dso16is/lsm6dso16is_reg.c ****   * @param  val      Structure that contain
2523:Drivers/BSP/Components/lsm6dso16is/lsm6dso16is_reg.c ****   *                      - uint8_t slv_add;    8 bit i2c device address
2524:Drivers/BSP/Components/lsm6dso16is/lsm6dso16is_reg.c ****   *                      - uint8_t slv_subadd; 8 bit register device address
2525:Drivers/BSP/Components/lsm6dso16is/lsm6dso16is_reg.c ****   *                      - uint8_t slv_len;    num of bit to read
2526:Drivers/BSP/Components/lsm6dso16is/lsm6dso16is_reg.c ****   * @retval             interface status (MANDATORY: return 0 -> no Error)
2527:Drivers/BSP/Components/lsm6dso16is/lsm6dso16is_reg.c ****   *
2528:Drivers/BSP/Components/lsm6dso16is/lsm6dso16is_reg.c ****   */
2529:Drivers/BSP/Components/lsm6dso16is/lsm6dso16is_reg.c **** int32_t lsm6dso16is_sh_slv_cfg_read(const stmdev_ctx_t *ctx, uint8_t idx,
2530:Drivers/BSP/Components/lsm6dso16is/lsm6dso16is_reg.c ****                                     lsm6dso16is_sh_cfg_read_t *val)
2531:Drivers/BSP/Components/lsm6dso16is/lsm6dso16is_reg.c **** {
2532:Drivers/BSP/Components/lsm6dso16is/lsm6dso16is_reg.c ****   lsm6dso16is_slv0_add_t slv_add;
2533:Drivers/BSP/Components/lsm6dso16is/lsm6dso16is_reg.c ****   lsm6dso16is_slv0_config_t slv_config;
2534:Drivers/BSP/Components/lsm6dso16is/lsm6dso16is_reg.c ****   int32_t ret;
2535:Drivers/BSP/Components/lsm6dso16is/lsm6dso16is_reg.c **** 
2536:Drivers/BSP/Components/lsm6dso16is/lsm6dso16is_reg.c ****   ret = lsm6dso16is_mem_bank_set(ctx, LSM6DSO16IS_SENSOR_HUB_MEM_BANK);
2537:Drivers/BSP/Components/lsm6dso16is/lsm6dso16is_reg.c ****   if (ret != 0)
2538:Drivers/BSP/Components/lsm6dso16is/lsm6dso16is_reg.c ****   {
2539:Drivers/BSP/Components/lsm6dso16is/lsm6dso16is_reg.c ****     return ret;
2540:Drivers/BSP/Components/lsm6dso16is/lsm6dso16is_reg.c ****   }
2541:Drivers/BSP/Components/lsm6dso16is/lsm6dso16is_reg.c **** 
2542:Drivers/BSP/Components/lsm6dso16is/lsm6dso16is_reg.c ****   slv_add.slave0_add = val->slv_add;
2543:Drivers/BSP/Components/lsm6dso16is/lsm6dso16is_reg.c ****   slv_add.rw_0 = 1;
2544:Drivers/BSP/Components/lsm6dso16is/lsm6dso16is_reg.c ****   ret = lsm6dso16is_write_reg(ctx, LSM6DSO16IS_SLV0_ADD + idx * 3U,
2545:Drivers/BSP/Components/lsm6dso16is/lsm6dso16is_reg.c ****                               (uint8_t *)&slv_add, 1);
2546:Drivers/BSP/Components/lsm6dso16is/lsm6dso16is_reg.c ****   if (ret != 0)
2547:Drivers/BSP/Components/lsm6dso16is/lsm6dso16is_reg.c ****   {
2548:Drivers/BSP/Components/lsm6dso16is/lsm6dso16is_reg.c ****     goto exit;
2549:Drivers/BSP/Components/lsm6dso16is/lsm6dso16is_reg.c ****   }
2550:Drivers/BSP/Components/lsm6dso16is/lsm6dso16is_reg.c **** 
2551:Drivers/BSP/Components/lsm6dso16is/lsm6dso16is_reg.c ****   ret = lsm6dso16is_write_reg(ctx, LSM6DSO16IS_SLV0_SUBADD + idx * 3U,
2552:Drivers/BSP/Components/lsm6dso16is/lsm6dso16is_reg.c ****                               &(val->slv_subadd), 1);
2553:Drivers/BSP/Components/lsm6dso16is/lsm6dso16is_reg.c ****   if (ret != 0)
2554:Drivers/BSP/Components/lsm6dso16is/lsm6dso16is_reg.c ****   {
2555:Drivers/BSP/Components/lsm6dso16is/lsm6dso16is_reg.c ****     goto exit;
2556:Drivers/BSP/Components/lsm6dso16is/lsm6dso16is_reg.c ****   }
ARM GAS  C:\Users\Nathan\AppData\Local\Temp\ccznllVY.s 			page 48


2557:Drivers/BSP/Components/lsm6dso16is/lsm6dso16is_reg.c **** 
2558:Drivers/BSP/Components/lsm6dso16is/lsm6dso16is_reg.c ****   ret = lsm6dso16is_read_reg(ctx, LSM6DSO16IS_SLV0_CONFIG + idx * 3U,
2559:Drivers/BSP/Components/lsm6dso16is/lsm6dso16is_reg.c ****                              (uint8_t *)&slv_config, 1);
2560:Drivers/BSP/Components/lsm6dso16is/lsm6dso16is_reg.c ****   if (ret != 0)
2561:Drivers/BSP/Components/lsm6dso16is/lsm6dso16is_reg.c ****   {
2562:Drivers/BSP/Components/lsm6dso16is/lsm6dso16is_reg.c ****     goto exit;
2563:Drivers/BSP/Components/lsm6dso16is/lsm6dso16is_reg.c ****   }
2564:Drivers/BSP/Components/lsm6dso16is/lsm6dso16is_reg.c **** 
2565:Drivers/BSP/Components/lsm6dso16is/lsm6dso16is_reg.c ****   slv_config.slave0_numop = val->slv_len;
2566:Drivers/BSP/Components/lsm6dso16is/lsm6dso16is_reg.c ****   ret = lsm6dso16is_write_reg(ctx, LSM6DSO16IS_SLV0_CONFIG + idx * 3U,
2567:Drivers/BSP/Components/lsm6dso16is/lsm6dso16is_reg.c ****                               (uint8_t *)&slv_config, 1);
2568:Drivers/BSP/Components/lsm6dso16is/lsm6dso16is_reg.c **** 
2569:Drivers/BSP/Components/lsm6dso16is/lsm6dso16is_reg.c **** exit:
2570:Drivers/BSP/Components/lsm6dso16is/lsm6dso16is_reg.c ****   ret += lsm6dso16is_mem_bank_set(ctx, LSM6DSO16IS_MAIN_MEM_BANK);
2571:Drivers/BSP/Components/lsm6dso16is/lsm6dso16is_reg.c **** 
2572:Drivers/BSP/Components/lsm6dso16is/lsm6dso16is_reg.c ****   return ret;
2573:Drivers/BSP/Components/lsm6dso16is/lsm6dso16is_reg.c **** }
2574:Drivers/BSP/Components/lsm6dso16is/lsm6dso16is_reg.c **** 
2575:Drivers/BSP/Components/lsm6dso16is/lsm6dso16is_reg.c **** /**
2576:Drivers/BSP/Components/lsm6dso16is/lsm6dso16is_reg.c ****   * @brief  Sensor hub source register.[get]
2577:Drivers/BSP/Components/lsm6dso16is/lsm6dso16is_reg.c ****   *
2578:Drivers/BSP/Components/lsm6dso16is/lsm6dso16is_reg.c ****   * @param  ctx      read / write interface definitions
2579:Drivers/BSP/Components/lsm6dso16is/lsm6dso16is_reg.c ****   * @param  val      union of registers from STATUS_MASTER to
2580:Drivers/BSP/Components/lsm6dso16is/lsm6dso16is_reg.c ****   * @retval          interface status (MANDATORY: return 0 -> no Error)
2581:Drivers/BSP/Components/lsm6dso16is/lsm6dso16is_reg.c ****   *
2582:Drivers/BSP/Components/lsm6dso16is/lsm6dso16is_reg.c ****   */
2583:Drivers/BSP/Components/lsm6dso16is/lsm6dso16is_reg.c **** int32_t lsm6dso16is_sh_status_get(const stmdev_ctx_t *ctx,
2584:Drivers/BSP/Components/lsm6dso16is/lsm6dso16is_reg.c ****                                   lsm6dso16is_status_master_t *val)
2585:Drivers/BSP/Components/lsm6dso16is/lsm6dso16is_reg.c **** {
2586:Drivers/BSP/Components/lsm6dso16is/lsm6dso16is_reg.c ****   int32_t ret;
2587:Drivers/BSP/Components/lsm6dso16is/lsm6dso16is_reg.c **** 
2588:Drivers/BSP/Components/lsm6dso16is/lsm6dso16is_reg.c ****   ret = lsm6dso16is_read_reg(ctx, LSM6DSO16IS_STATUS_MASTER_MAINPAGE, (uint8_t *) val, 1);
2589:Drivers/BSP/Components/lsm6dso16is/lsm6dso16is_reg.c **** 
2590:Drivers/BSP/Components/lsm6dso16is/lsm6dso16is_reg.c ****   return ret;
2591:Drivers/BSP/Components/lsm6dso16is/lsm6dso16is_reg.c **** }
2592:Drivers/BSP/Components/lsm6dso16is/lsm6dso16is_reg.c **** 
2593:Drivers/BSP/Components/lsm6dso16is/lsm6dso16is_reg.c **** /**
2594:Drivers/BSP/Components/lsm6dso16is/lsm6dso16is_reg.c ****   * @}
2595:Drivers/BSP/Components/lsm6dso16is/lsm6dso16is_reg.c ****   *
2596:Drivers/BSP/Components/lsm6dso16is/lsm6dso16is_reg.c ****   */
2597:Drivers/BSP/Components/lsm6dso16is/lsm6dso16is_reg.c **** 
2598:Drivers/BSP/Components/lsm6dso16is/lsm6dso16is_reg.c **** /**
2599:Drivers/BSP/Components/lsm6dso16is/lsm6dso16is_reg.c ****   * @defgroup ispu
2600:Drivers/BSP/Components/lsm6dso16is/lsm6dso16is_reg.c ****   * @brief    ispu
2601:Drivers/BSP/Components/lsm6dso16is/lsm6dso16is_reg.c ****   * @{/
2602:Drivers/BSP/Components/lsm6dso16is/lsm6dso16is_reg.c ****   *
2603:Drivers/BSP/Components/lsm6dso16is/lsm6dso16is_reg.c ****   */
2604:Drivers/BSP/Components/lsm6dso16is/lsm6dso16is_reg.c **** /**
2605:Drivers/BSP/Components/lsm6dso16is/lsm6dso16is_reg.c ****   * @brief  Software reset of ISPU core.[set]
2606:Drivers/BSP/Components/lsm6dso16is/lsm6dso16is_reg.c ****   *
2607:Drivers/BSP/Components/lsm6dso16is/lsm6dso16is_reg.c ****   * @param  ctx      read / write interface definitions
2608:Drivers/BSP/Components/lsm6dso16is/lsm6dso16is_reg.c ****   * @param  val      Software reset of ISPU core.
2609:Drivers/BSP/Components/lsm6dso16is/lsm6dso16is_reg.c ****   * @retval          interface status (MANDATORY: return 0 -> no Error)
2610:Drivers/BSP/Components/lsm6dso16is/lsm6dso16is_reg.c ****   *
2611:Drivers/BSP/Components/lsm6dso16is/lsm6dso16is_reg.c ****   */
2612:Drivers/BSP/Components/lsm6dso16is/lsm6dso16is_reg.c **** int32_t lsm6dso16is_ispu_reset_set(const stmdev_ctx_t *ctx, uint8_t val)
2613:Drivers/BSP/Components/lsm6dso16is/lsm6dso16is_reg.c **** {
ARM GAS  C:\Users\Nathan\AppData\Local\Temp\ccznllVY.s 			page 49


2614:Drivers/BSP/Components/lsm6dso16is/lsm6dso16is_reg.c ****   lsm6dso16is_func_cfg_access_t func_cfg_access;
2615:Drivers/BSP/Components/lsm6dso16is/lsm6dso16is_reg.c ****   int32_t ret;
2616:Drivers/BSP/Components/lsm6dso16is/lsm6dso16is_reg.c **** 
2617:Drivers/BSP/Components/lsm6dso16is/lsm6dso16is_reg.c ****   ret = lsm6dso16is_read_reg(ctx, LSM6DSO16IS_FUNC_CFG_ACCESS, (uint8_t *)&func_cfg_access, 1);
2618:Drivers/BSP/Components/lsm6dso16is/lsm6dso16is_reg.c **** 
2619:Drivers/BSP/Components/lsm6dso16is/lsm6dso16is_reg.c ****   if (ret == 0)
2620:Drivers/BSP/Components/lsm6dso16is/lsm6dso16is_reg.c ****   {
2621:Drivers/BSP/Components/lsm6dso16is/lsm6dso16is_reg.c ****     func_cfg_access.sw_reset_ispu = val;
2622:Drivers/BSP/Components/lsm6dso16is/lsm6dso16is_reg.c ****     ret = lsm6dso16is_write_reg(ctx, LSM6DSO16IS_FUNC_CFG_ACCESS, (uint8_t *)&func_cfg_access, 1);
2623:Drivers/BSP/Components/lsm6dso16is/lsm6dso16is_reg.c ****   }
2624:Drivers/BSP/Components/lsm6dso16is/lsm6dso16is_reg.c **** 
2625:Drivers/BSP/Components/lsm6dso16is/lsm6dso16is_reg.c ****   return ret;
2626:Drivers/BSP/Components/lsm6dso16is/lsm6dso16is_reg.c **** }
2627:Drivers/BSP/Components/lsm6dso16is/lsm6dso16is_reg.c **** 
2628:Drivers/BSP/Components/lsm6dso16is/lsm6dso16is_reg.c **** /**
2629:Drivers/BSP/Components/lsm6dso16is/lsm6dso16is_reg.c ****   * @brief  Software reset of ISPU core.[get]
2630:Drivers/BSP/Components/lsm6dso16is/lsm6dso16is_reg.c ****   *
2631:Drivers/BSP/Components/lsm6dso16is/lsm6dso16is_reg.c ****   * @param  ctx      read / write interface definitions
2632:Drivers/BSP/Components/lsm6dso16is/lsm6dso16is_reg.c ****   * @param  val      Software reset of ISPU core.
2633:Drivers/BSP/Components/lsm6dso16is/lsm6dso16is_reg.c ****   * @retval          interface status (MANDATORY: return 0 -> no Error)
2634:Drivers/BSP/Components/lsm6dso16is/lsm6dso16is_reg.c ****   *
2635:Drivers/BSP/Components/lsm6dso16is/lsm6dso16is_reg.c ****   */
2636:Drivers/BSP/Components/lsm6dso16is/lsm6dso16is_reg.c **** int32_t lsm6dso16is_ispu_reset_get(const stmdev_ctx_t *ctx, uint8_t *val)
2637:Drivers/BSP/Components/lsm6dso16is/lsm6dso16is_reg.c **** {
2638:Drivers/BSP/Components/lsm6dso16is/lsm6dso16is_reg.c ****   lsm6dso16is_func_cfg_access_t func_cfg_access;
2639:Drivers/BSP/Components/lsm6dso16is/lsm6dso16is_reg.c ****   int32_t ret;
2640:Drivers/BSP/Components/lsm6dso16is/lsm6dso16is_reg.c **** 
2641:Drivers/BSP/Components/lsm6dso16is/lsm6dso16is_reg.c ****   ret = lsm6dso16is_read_reg(ctx, LSM6DSO16IS_FUNC_CFG_ACCESS, (uint8_t *)&func_cfg_access, 1);
2642:Drivers/BSP/Components/lsm6dso16is/lsm6dso16is_reg.c **** 
2643:Drivers/BSP/Components/lsm6dso16is/lsm6dso16is_reg.c ****   *val = func_cfg_access.sw_reset_ispu;
2644:Drivers/BSP/Components/lsm6dso16is/lsm6dso16is_reg.c **** 
2645:Drivers/BSP/Components/lsm6dso16is/lsm6dso16is_reg.c **** 
2646:Drivers/BSP/Components/lsm6dso16is/lsm6dso16is_reg.c ****   return ret;
2647:Drivers/BSP/Components/lsm6dso16is/lsm6dso16is_reg.c **** }
2648:Drivers/BSP/Components/lsm6dso16is/lsm6dso16is_reg.c **** 
2649:Drivers/BSP/Components/lsm6dso16is/lsm6dso16is_reg.c **** int32_t lsm6dso16is_ispu_clock_set(const stmdev_ctx_t *ctx,
2650:Drivers/BSP/Components/lsm6dso16is/lsm6dso16is_reg.c ****                                    lsm6dso16is_ispu_clock_sel_t val)
2651:Drivers/BSP/Components/lsm6dso16is/lsm6dso16is_reg.c **** {
2652:Drivers/BSP/Components/lsm6dso16is/lsm6dso16is_reg.c ****   lsm6dso16is_ctrl10_c_t ctrl10_c;
2653:Drivers/BSP/Components/lsm6dso16is/lsm6dso16is_reg.c ****   int32_t ret;
2654:Drivers/BSP/Components/lsm6dso16is/lsm6dso16is_reg.c **** 
2655:Drivers/BSP/Components/lsm6dso16is/lsm6dso16is_reg.c ****   ret = lsm6dso16is_read_reg(ctx, LSM6DSO16IS_CTRL10_C, (uint8_t *)&ctrl10_c, 1);
2656:Drivers/BSP/Components/lsm6dso16is/lsm6dso16is_reg.c **** 
2657:Drivers/BSP/Components/lsm6dso16is/lsm6dso16is_reg.c ****   if (ret == 0)
2658:Drivers/BSP/Components/lsm6dso16is/lsm6dso16is_reg.c ****   {
2659:Drivers/BSP/Components/lsm6dso16is/lsm6dso16is_reg.c ****     ctrl10_c.ispu_clk_sel = (uint8_t)val;
2660:Drivers/BSP/Components/lsm6dso16is/lsm6dso16is_reg.c ****     ret += lsm6dso16is_write_reg(ctx, LSM6DSO16IS_CTRL10_C, (uint8_t *)&ctrl10_c, 1);
2661:Drivers/BSP/Components/lsm6dso16is/lsm6dso16is_reg.c ****   }
2662:Drivers/BSP/Components/lsm6dso16is/lsm6dso16is_reg.c **** 
2663:Drivers/BSP/Components/lsm6dso16is/lsm6dso16is_reg.c ****   return ret;
2664:Drivers/BSP/Components/lsm6dso16is/lsm6dso16is_reg.c **** }
2665:Drivers/BSP/Components/lsm6dso16is/lsm6dso16is_reg.c **** 
2666:Drivers/BSP/Components/lsm6dso16is/lsm6dso16is_reg.c **** int32_t lsm6dso16is_ispu_clock_get(const stmdev_ctx_t *ctx,
2667:Drivers/BSP/Components/lsm6dso16is/lsm6dso16is_reg.c ****                                    lsm6dso16is_ispu_clock_sel_t *val)
2668:Drivers/BSP/Components/lsm6dso16is/lsm6dso16is_reg.c **** {
2669:Drivers/BSP/Components/lsm6dso16is/lsm6dso16is_reg.c ****   lsm6dso16is_ctrl10_c_t ctrl10_c;
2670:Drivers/BSP/Components/lsm6dso16is/lsm6dso16is_reg.c ****   int32_t ret;
ARM GAS  C:\Users\Nathan\AppData\Local\Temp\ccznllVY.s 			page 50


2671:Drivers/BSP/Components/lsm6dso16is/lsm6dso16is_reg.c **** 
2672:Drivers/BSP/Components/lsm6dso16is/lsm6dso16is_reg.c ****   ret = lsm6dso16is_read_reg(ctx, LSM6DSO16IS_CTRL10_C, (uint8_t *)&ctrl10_c, 1);
2673:Drivers/BSP/Components/lsm6dso16is/lsm6dso16is_reg.c **** 
2674:Drivers/BSP/Components/lsm6dso16is/lsm6dso16is_reg.c ****   switch (ctrl10_c.ispu_clk_sel)
2675:Drivers/BSP/Components/lsm6dso16is/lsm6dso16is_reg.c ****   {
2676:Drivers/BSP/Components/lsm6dso16is/lsm6dso16is_reg.c ****     default:
2677:Drivers/BSP/Components/lsm6dso16is/lsm6dso16is_reg.c ****     case 0:
2678:Drivers/BSP/Components/lsm6dso16is/lsm6dso16is_reg.c ****       *val = LSM6DSO16IS_ISPU_CLK_5MHz;
2679:Drivers/BSP/Components/lsm6dso16is/lsm6dso16is_reg.c ****       break;
2680:Drivers/BSP/Components/lsm6dso16is/lsm6dso16is_reg.c ****     case 1:
2681:Drivers/BSP/Components/lsm6dso16is/lsm6dso16is_reg.c ****       *val = LSM6DSO16IS_ISPU_CLK_10MHz;
2682:Drivers/BSP/Components/lsm6dso16is/lsm6dso16is_reg.c ****       break;
2683:Drivers/BSP/Components/lsm6dso16is/lsm6dso16is_reg.c ****   }
2684:Drivers/BSP/Components/lsm6dso16is/lsm6dso16is_reg.c **** 
2685:Drivers/BSP/Components/lsm6dso16is/lsm6dso16is_reg.c ****   return ret;
2686:Drivers/BSP/Components/lsm6dso16is/lsm6dso16is_reg.c **** }
2687:Drivers/BSP/Components/lsm6dso16is/lsm6dso16is_reg.c **** 
2688:Drivers/BSP/Components/lsm6dso16is/lsm6dso16is_reg.c **** /**
2689:Drivers/BSP/Components/lsm6dso16is/lsm6dso16is_reg.c ****   * @brief  ISPU irq rate selection.[set]
2690:Drivers/BSP/Components/lsm6dso16is/lsm6dso16is_reg.c ****   *
2691:Drivers/BSP/Components/lsm6dso16is/lsm6dso16is_reg.c ****   * @param  ctx      read / write interface definitions
