ARM GAS  C:\Users\Nathan\AppData\Local\Temp\ccdIxQaW.s 			page 1


   1              		.cpu cortex-m4
   2              		.arch armv7e-m
   3              		.fpu fpv4-sp-d16
   4              		.eabi_attribute 27, 1
   5              		.eabi_attribute 28, 1
   6              		.eabi_attribute 20, 1
   7              		.eabi_attribute 21, 1
   8              		.eabi_attribute 23, 3
   9              		.eabi_attribute 24, 1
  10              		.eabi_attribute 25, 1
  11              		.eabi_attribute 26, 1
  12              		.eabi_attribute 30, 1
  13              		.eabi_attribute 34, 1
  14              		.eabi_attribute 18, 4
  15              		.file	"lsm6dso16is.c"
  16              		.text
  17              	.Ltext0:
  18              		.cfi_sections	.debug_frame
  19              		.file 1 "Drivers/BSP/Components/lsm6dso16is/lsm6dso16is.c"
  20              		.section	.text.LSM6DSO16IS_GetCapabilities,"ax",%progbits
  21              		.align	1
  22              		.global	LSM6DSO16IS_GetCapabilities
  23              		.syntax unified
  24              		.thumb
  25              		.thumb_func
  27              	LSM6DSO16IS_GetCapabilities:
  28              	.LVL0:
  29              	.LFB4:
   1:Drivers/BSP/Components/lsm6dso16is/lsm6dso16is.c **** /**
   2:Drivers/BSP/Components/lsm6dso16is/lsm6dso16is.c ****   ******************************************************************************
   3:Drivers/BSP/Components/lsm6dso16is/lsm6dso16is.c ****   * @file    lsm6dso16is.c
   4:Drivers/BSP/Components/lsm6dso16is/lsm6dso16is.c ****   * @author  MEMS Software Solutions Team
   5:Drivers/BSP/Components/lsm6dso16is/lsm6dso16is.c ****   * @brief   LSM6DSO16IS driver file
   6:Drivers/BSP/Components/lsm6dso16is/lsm6dso16is.c ****   ******************************************************************************
   7:Drivers/BSP/Components/lsm6dso16is/lsm6dso16is.c ****   * @attention
   8:Drivers/BSP/Components/lsm6dso16is/lsm6dso16is.c ****   *
   9:Drivers/BSP/Components/lsm6dso16is/lsm6dso16is.c ****   * Copyright (c) 2022 STMicroelectronics.
  10:Drivers/BSP/Components/lsm6dso16is/lsm6dso16is.c ****   * All rights reserved.
  11:Drivers/BSP/Components/lsm6dso16is/lsm6dso16is.c ****   *
  12:Drivers/BSP/Components/lsm6dso16is/lsm6dso16is.c ****   * This software is licensed under terms that can be found in the LICENSE file
  13:Drivers/BSP/Components/lsm6dso16is/lsm6dso16is.c ****   * in the root directory of this software component.
  14:Drivers/BSP/Components/lsm6dso16is/lsm6dso16is.c ****   * If no LICENSE file comes with this software, it is provided AS-IS.
  15:Drivers/BSP/Components/lsm6dso16is/lsm6dso16is.c ****   *
  16:Drivers/BSP/Components/lsm6dso16is/lsm6dso16is.c ****   ******************************************************************************
  17:Drivers/BSP/Components/lsm6dso16is/lsm6dso16is.c ****   */
  18:Drivers/BSP/Components/lsm6dso16is/lsm6dso16is.c **** 
  19:Drivers/BSP/Components/lsm6dso16is/lsm6dso16is.c **** /* Includes ------------------------------------------------------------------*/
  20:Drivers/BSP/Components/lsm6dso16is/lsm6dso16is.c **** #include "lsm6dso16is.h"
  21:Drivers/BSP/Components/lsm6dso16is/lsm6dso16is.c **** 
  22:Drivers/BSP/Components/lsm6dso16is/lsm6dso16is.c **** /** @addtogroup BSP BSP
  23:Drivers/BSP/Components/lsm6dso16is/lsm6dso16is.c ****   * @{
  24:Drivers/BSP/Components/lsm6dso16is/lsm6dso16is.c ****   */
  25:Drivers/BSP/Components/lsm6dso16is/lsm6dso16is.c **** 
  26:Drivers/BSP/Components/lsm6dso16is/lsm6dso16is.c **** /** @addtogroup Component Component
  27:Drivers/BSP/Components/lsm6dso16is/lsm6dso16is.c ****   * @{
  28:Drivers/BSP/Components/lsm6dso16is/lsm6dso16is.c ****   */
  29:Drivers/BSP/Components/lsm6dso16is/lsm6dso16is.c **** 
ARM GAS  C:\Users\Nathan\AppData\Local\Temp\ccdIxQaW.s 			page 2


  30:Drivers/BSP/Components/lsm6dso16is/lsm6dso16is.c **** /** @defgroup LSM6DSO16IS LSM6DSO16IS
  31:Drivers/BSP/Components/lsm6dso16is/lsm6dso16is.c ****   * @{
  32:Drivers/BSP/Components/lsm6dso16is/lsm6dso16is.c ****   */
  33:Drivers/BSP/Components/lsm6dso16is/lsm6dso16is.c **** 
  34:Drivers/BSP/Components/lsm6dso16is/lsm6dso16is.c **** /** @defgroup LSM6DSO16IS_Exported_Variables LSM6DSO16IS Exported Variables
  35:Drivers/BSP/Components/lsm6dso16is/lsm6dso16is.c ****   * @{
  36:Drivers/BSP/Components/lsm6dso16is/lsm6dso16is.c ****   */
  37:Drivers/BSP/Components/lsm6dso16is/lsm6dso16is.c **** 
  38:Drivers/BSP/Components/lsm6dso16is/lsm6dso16is.c **** LSM6DSO16IS_CommonDrv_t LSM6DSO16IS_COMMON_Driver =
  39:Drivers/BSP/Components/lsm6dso16is/lsm6dso16is.c **** {
  40:Drivers/BSP/Components/lsm6dso16is/lsm6dso16is.c ****   LSM6DSO16IS_Init,
  41:Drivers/BSP/Components/lsm6dso16is/lsm6dso16is.c ****   LSM6DSO16IS_DeInit,
  42:Drivers/BSP/Components/lsm6dso16is/lsm6dso16is.c ****   LSM6DSO16IS_ReadID,
  43:Drivers/BSP/Components/lsm6dso16is/lsm6dso16is.c ****   LSM6DSO16IS_GetCapabilities,
  44:Drivers/BSP/Components/lsm6dso16is/lsm6dso16is.c **** };
  45:Drivers/BSP/Components/lsm6dso16is/lsm6dso16is.c **** 
  46:Drivers/BSP/Components/lsm6dso16is/lsm6dso16is.c **** LSM6DSO16IS_ACC_Drv_t LSM6DSO16IS_ACC_Driver =
  47:Drivers/BSP/Components/lsm6dso16is/lsm6dso16is.c **** {
  48:Drivers/BSP/Components/lsm6dso16is/lsm6dso16is.c ****   LSM6DSO16IS_ACC_Enable,
  49:Drivers/BSP/Components/lsm6dso16is/lsm6dso16is.c ****   LSM6DSO16IS_ACC_Disable,
  50:Drivers/BSP/Components/lsm6dso16is/lsm6dso16is.c ****   LSM6DSO16IS_ACC_GetSensitivity,
  51:Drivers/BSP/Components/lsm6dso16is/lsm6dso16is.c ****   LSM6DSO16IS_ACC_GetOutputDataRate,
  52:Drivers/BSP/Components/lsm6dso16is/lsm6dso16is.c ****   LSM6DSO16IS_ACC_SetOutputDataRate,
  53:Drivers/BSP/Components/lsm6dso16is/lsm6dso16is.c ****   LSM6DSO16IS_ACC_GetFullScale,
  54:Drivers/BSP/Components/lsm6dso16is/lsm6dso16is.c ****   LSM6DSO16IS_ACC_SetFullScale,
  55:Drivers/BSP/Components/lsm6dso16is/lsm6dso16is.c ****   LSM6DSO16IS_ACC_GetAxes,
  56:Drivers/BSP/Components/lsm6dso16is/lsm6dso16is.c ****   LSM6DSO16IS_ACC_GetAxesRaw,
  57:Drivers/BSP/Components/lsm6dso16is/lsm6dso16is.c **** };
  58:Drivers/BSP/Components/lsm6dso16is/lsm6dso16is.c **** 
  59:Drivers/BSP/Components/lsm6dso16is/lsm6dso16is.c **** LSM6DSO16IS_GYRO_Drv_t LSM6DSO16IS_GYRO_Driver =
  60:Drivers/BSP/Components/lsm6dso16is/lsm6dso16is.c **** {
  61:Drivers/BSP/Components/lsm6dso16is/lsm6dso16is.c ****   LSM6DSO16IS_GYRO_Enable,
  62:Drivers/BSP/Components/lsm6dso16is/lsm6dso16is.c ****   LSM6DSO16IS_GYRO_Disable,
  63:Drivers/BSP/Components/lsm6dso16is/lsm6dso16is.c ****   LSM6DSO16IS_GYRO_GetSensitivity,
  64:Drivers/BSP/Components/lsm6dso16is/lsm6dso16is.c ****   LSM6DSO16IS_GYRO_GetOutputDataRate,
  65:Drivers/BSP/Components/lsm6dso16is/lsm6dso16is.c ****   LSM6DSO16IS_GYRO_SetOutputDataRate,
  66:Drivers/BSP/Components/lsm6dso16is/lsm6dso16is.c ****   LSM6DSO16IS_GYRO_GetFullScale,
  67:Drivers/BSP/Components/lsm6dso16is/lsm6dso16is.c ****   LSM6DSO16IS_GYRO_SetFullScale,
  68:Drivers/BSP/Components/lsm6dso16is/lsm6dso16is.c ****   LSM6DSO16IS_GYRO_GetAxes,
  69:Drivers/BSP/Components/lsm6dso16is/lsm6dso16is.c ****   LSM6DSO16IS_GYRO_GetAxesRaw,
  70:Drivers/BSP/Components/lsm6dso16is/lsm6dso16is.c **** };
  71:Drivers/BSP/Components/lsm6dso16is/lsm6dso16is.c **** 
  72:Drivers/BSP/Components/lsm6dso16is/lsm6dso16is.c **** /**
  73:Drivers/BSP/Components/lsm6dso16is/lsm6dso16is.c ****   * @}
  74:Drivers/BSP/Components/lsm6dso16is/lsm6dso16is.c ****   */
  75:Drivers/BSP/Components/lsm6dso16is/lsm6dso16is.c **** 
  76:Drivers/BSP/Components/lsm6dso16is/lsm6dso16is.c **** /** @defgroup LSM6DSO16IS_Private_Function_Prototypes LSM6DSO16IS Private Function Prototypes
  77:Drivers/BSP/Components/lsm6dso16is/lsm6dso16is.c ****   * @{
  78:Drivers/BSP/Components/lsm6dso16is/lsm6dso16is.c ****   */
  79:Drivers/BSP/Components/lsm6dso16is/lsm6dso16is.c **** 
  80:Drivers/BSP/Components/lsm6dso16is/lsm6dso16is.c **** static int32_t ReadRegWrap(void *Handle, uint8_t Reg, uint8_t *pData, uint16_t Length);
  81:Drivers/BSP/Components/lsm6dso16is/lsm6dso16is.c **** static int32_t WriteRegWrap(void *Handle, uint8_t Reg, uint8_t *pData, uint16_t Length);
  82:Drivers/BSP/Components/lsm6dso16is/lsm6dso16is.c **** static int32_t LSM6DSO16IS_ACC_SetOutputDataRate_When_Enabled(LSM6DSO16IS_Object_t *pObj, float_t O
  83:Drivers/BSP/Components/lsm6dso16is/lsm6dso16is.c **** static int32_t LSM6DSO16IS_ACC_SetOutputDataRate_When_Disabled(LSM6DSO16IS_Object_t *pObj, float_t 
  84:Drivers/BSP/Components/lsm6dso16is/lsm6dso16is.c **** static int32_t LSM6DSO16IS_GYRO_SetOutputDataRate_When_Enabled(LSM6DSO16IS_Object_t *pObj, float_t 
  85:Drivers/BSP/Components/lsm6dso16is/lsm6dso16is.c **** static int32_t LSM6DSO16IS_GYRO_SetOutputDataRate_When_Disabled(LSM6DSO16IS_Object_t *pObj, float_t
  86:Drivers/BSP/Components/lsm6dso16is/lsm6dso16is.c **** 
ARM GAS  C:\Users\Nathan\AppData\Local\Temp\ccdIxQaW.s 			page 3


  87:Drivers/BSP/Components/lsm6dso16is/lsm6dso16is.c **** /**
  88:Drivers/BSP/Components/lsm6dso16is/lsm6dso16is.c ****   * @}
  89:Drivers/BSP/Components/lsm6dso16is/lsm6dso16is.c ****   */
  90:Drivers/BSP/Components/lsm6dso16is/lsm6dso16is.c **** 
  91:Drivers/BSP/Components/lsm6dso16is/lsm6dso16is.c **** /** @defgroup LSM6DSO16IS_Exported_Functions LSM6DSO16IS Exported Functions
  92:Drivers/BSP/Components/lsm6dso16is/lsm6dso16is.c ****   * @{
  93:Drivers/BSP/Components/lsm6dso16is/lsm6dso16is.c ****   */
  94:Drivers/BSP/Components/lsm6dso16is/lsm6dso16is.c **** 
  95:Drivers/BSP/Components/lsm6dso16is/lsm6dso16is.c **** /**
  96:Drivers/BSP/Components/lsm6dso16is/lsm6dso16is.c ****   * @brief  Register Component Bus IO operations
  97:Drivers/BSP/Components/lsm6dso16is/lsm6dso16is.c ****   * @param  pObj the device pObj
  98:Drivers/BSP/Components/lsm6dso16is/lsm6dso16is.c ****   * @retval 0 in case of success, an error code otherwise
  99:Drivers/BSP/Components/lsm6dso16is/lsm6dso16is.c ****   */
 100:Drivers/BSP/Components/lsm6dso16is/lsm6dso16is.c **** int32_t LSM6DSO16IS_RegisterBusIO(LSM6DSO16IS_Object_t *pObj, LSM6DSO16IS_IO_t *pIO)
 101:Drivers/BSP/Components/lsm6dso16is/lsm6dso16is.c **** {
 102:Drivers/BSP/Components/lsm6dso16is/lsm6dso16is.c ****   int32_t ret = LSM6DSO16IS_OK;
 103:Drivers/BSP/Components/lsm6dso16is/lsm6dso16is.c **** 
 104:Drivers/BSP/Components/lsm6dso16is/lsm6dso16is.c ****   if (pObj == NULL)
 105:Drivers/BSP/Components/lsm6dso16is/lsm6dso16is.c ****   {
 106:Drivers/BSP/Components/lsm6dso16is/lsm6dso16is.c ****     ret = LSM6DSO16IS_ERROR;
 107:Drivers/BSP/Components/lsm6dso16is/lsm6dso16is.c ****   }
 108:Drivers/BSP/Components/lsm6dso16is/lsm6dso16is.c ****   else
 109:Drivers/BSP/Components/lsm6dso16is/lsm6dso16is.c ****   {
 110:Drivers/BSP/Components/lsm6dso16is/lsm6dso16is.c ****     pObj->IO.Init      = pIO->Init;
 111:Drivers/BSP/Components/lsm6dso16is/lsm6dso16is.c ****     pObj->IO.DeInit    = pIO->DeInit;
 112:Drivers/BSP/Components/lsm6dso16is/lsm6dso16is.c ****     pObj->IO.BusType   = pIO->BusType;
 113:Drivers/BSP/Components/lsm6dso16is/lsm6dso16is.c ****     pObj->IO.Address   = pIO->Address;
 114:Drivers/BSP/Components/lsm6dso16is/lsm6dso16is.c ****     pObj->IO.WriteReg  = pIO->WriteReg;
 115:Drivers/BSP/Components/lsm6dso16is/lsm6dso16is.c ****     pObj->IO.ReadReg   = pIO->ReadReg;
 116:Drivers/BSP/Components/lsm6dso16is/lsm6dso16is.c ****     pObj->IO.GetTick   = pIO->GetTick;
 117:Drivers/BSP/Components/lsm6dso16is/lsm6dso16is.c **** 
 118:Drivers/BSP/Components/lsm6dso16is/lsm6dso16is.c ****     pObj->Ctx.read_reg  = ReadRegWrap;
 119:Drivers/BSP/Components/lsm6dso16is/lsm6dso16is.c ****     pObj->Ctx.write_reg = WriteRegWrap;
 120:Drivers/BSP/Components/lsm6dso16is/lsm6dso16is.c ****     pObj->Ctx.handle    = pObj;
 121:Drivers/BSP/Components/lsm6dso16is/lsm6dso16is.c **** 
 122:Drivers/BSP/Components/lsm6dso16is/lsm6dso16is.c ****     if (pObj->IO.Init == NULL)
 123:Drivers/BSP/Components/lsm6dso16is/lsm6dso16is.c ****     {
 124:Drivers/BSP/Components/lsm6dso16is/lsm6dso16is.c ****       ret = LSM6DSO16IS_ERROR;
 125:Drivers/BSP/Components/lsm6dso16is/lsm6dso16is.c ****     }
 126:Drivers/BSP/Components/lsm6dso16is/lsm6dso16is.c ****     else if (pObj->IO.Init() != LSM6DSO16IS_OK)
 127:Drivers/BSP/Components/lsm6dso16is/lsm6dso16is.c ****     {
 128:Drivers/BSP/Components/lsm6dso16is/lsm6dso16is.c ****       ret = LSM6DSO16IS_ERROR;
 129:Drivers/BSP/Components/lsm6dso16is/lsm6dso16is.c ****     }
 130:Drivers/BSP/Components/lsm6dso16is/lsm6dso16is.c ****     else
 131:Drivers/BSP/Components/lsm6dso16is/lsm6dso16is.c ****     {
 132:Drivers/BSP/Components/lsm6dso16is/lsm6dso16is.c ****       if (pObj->IO.BusType == LSM6DSO16IS_SPI_3WIRES_BUS) /* SPI 3-Wires */
 133:Drivers/BSP/Components/lsm6dso16is/lsm6dso16is.c ****       {
 134:Drivers/BSP/Components/lsm6dso16is/lsm6dso16is.c ****         /* Enable the SPI 3-Wires support only the first time */
 135:Drivers/BSP/Components/lsm6dso16is/lsm6dso16is.c ****         if (pObj->is_initialized == 0U)
 136:Drivers/BSP/Components/lsm6dso16is/lsm6dso16is.c ****         {
 137:Drivers/BSP/Components/lsm6dso16is/lsm6dso16is.c ****           /* Enable SPI 3-Wires on the component */
 138:Drivers/BSP/Components/lsm6dso16is/lsm6dso16is.c ****           uint8_t data = 0x0C;
 139:Drivers/BSP/Components/lsm6dso16is/lsm6dso16is.c **** 
 140:Drivers/BSP/Components/lsm6dso16is/lsm6dso16is.c ****           if (LSM6DSO16IS_Write_Reg(pObj, LSM6DSO16IS_CTRL3_C, data) != LSM6DSO16IS_OK)
 141:Drivers/BSP/Components/lsm6dso16is/lsm6dso16is.c ****           {
 142:Drivers/BSP/Components/lsm6dso16is/lsm6dso16is.c ****             ret = LSM6DSO16IS_ERROR;
 143:Drivers/BSP/Components/lsm6dso16is/lsm6dso16is.c ****           }
ARM GAS  C:\Users\Nathan\AppData\Local\Temp\ccdIxQaW.s 			page 4


 144:Drivers/BSP/Components/lsm6dso16is/lsm6dso16is.c ****         }
 145:Drivers/BSP/Components/lsm6dso16is/lsm6dso16is.c ****       }
 146:Drivers/BSP/Components/lsm6dso16is/lsm6dso16is.c ****     }
 147:Drivers/BSP/Components/lsm6dso16is/lsm6dso16is.c ****   }
 148:Drivers/BSP/Components/lsm6dso16is/lsm6dso16is.c **** 
 149:Drivers/BSP/Components/lsm6dso16is/lsm6dso16is.c ****   return ret;
 150:Drivers/BSP/Components/lsm6dso16is/lsm6dso16is.c **** }
 151:Drivers/BSP/Components/lsm6dso16is/lsm6dso16is.c **** 
 152:Drivers/BSP/Components/lsm6dso16is/lsm6dso16is.c **** /**
 153:Drivers/BSP/Components/lsm6dso16is/lsm6dso16is.c ****   * @brief  Initialize the LSM6DSO16IS sensor
 154:Drivers/BSP/Components/lsm6dso16is/lsm6dso16is.c ****   * @param  pObj the device pObj
 155:Drivers/BSP/Components/lsm6dso16is/lsm6dso16is.c ****   * @retval 0 in case of success, an error code otherwise
 156:Drivers/BSP/Components/lsm6dso16is/lsm6dso16is.c ****   */
 157:Drivers/BSP/Components/lsm6dso16is/lsm6dso16is.c **** int32_t LSM6DSO16IS_Init(LSM6DSO16IS_Object_t *pObj)
 158:Drivers/BSP/Components/lsm6dso16is/lsm6dso16is.c **** {
 159:Drivers/BSP/Components/lsm6dso16is/lsm6dso16is.c ****   int32_t ret = LSM6DSO16IS_OK;
 160:Drivers/BSP/Components/lsm6dso16is/lsm6dso16is.c **** 
 161:Drivers/BSP/Components/lsm6dso16is/lsm6dso16is.c ****   /* Set main memory bank */
 162:Drivers/BSP/Components/lsm6dso16is/lsm6dso16is.c ****   if (LSM6DSO16IS_Set_Mem_Bank(pObj, (uint8_t)LSM6DSO16IS_MAIN_MEM_BANK) != LSM6DSO16IS_OK)
 163:Drivers/BSP/Components/lsm6dso16is/lsm6dso16is.c ****   {
 164:Drivers/BSP/Components/lsm6dso16is/lsm6dso16is.c ****     ret = LSM6DSO16IS_ERROR;
 165:Drivers/BSP/Components/lsm6dso16is/lsm6dso16is.c ****   }
 166:Drivers/BSP/Components/lsm6dso16is/lsm6dso16is.c **** 
 167:Drivers/BSP/Components/lsm6dso16is/lsm6dso16is.c ****   /* Enable register address automatically incremented during a multiple byte
 168:Drivers/BSP/Components/lsm6dso16is/lsm6dso16is.c ****   access with a serial interface. */
 169:Drivers/BSP/Components/lsm6dso16is/lsm6dso16is.c ****   if (lsm6dso16is_auto_increment_set(&(pObj->Ctx), PROPERTY_ENABLE) != LSM6DSO16IS_OK)
 170:Drivers/BSP/Components/lsm6dso16is/lsm6dso16is.c ****   {
 171:Drivers/BSP/Components/lsm6dso16is/lsm6dso16is.c ****     ret = LSM6DSO16IS_ERROR;
 172:Drivers/BSP/Components/lsm6dso16is/lsm6dso16is.c ****   }
 173:Drivers/BSP/Components/lsm6dso16is/lsm6dso16is.c **** 
 174:Drivers/BSP/Components/lsm6dso16is/lsm6dso16is.c ****   /* Enable BDU */
 175:Drivers/BSP/Components/lsm6dso16is/lsm6dso16is.c ****   if (lsm6dso16is_block_data_update_set(&(pObj->Ctx), PROPERTY_ENABLE) != LSM6DSO16IS_OK)
 176:Drivers/BSP/Components/lsm6dso16is/lsm6dso16is.c ****   {
 177:Drivers/BSP/Components/lsm6dso16is/lsm6dso16is.c ****     ret = LSM6DSO16IS_ERROR;
 178:Drivers/BSP/Components/lsm6dso16is/lsm6dso16is.c ****   }
 179:Drivers/BSP/Components/lsm6dso16is/lsm6dso16is.c **** 
 180:Drivers/BSP/Components/lsm6dso16is/lsm6dso16is.c ****   /* Select default output data rate. */
 181:Drivers/BSP/Components/lsm6dso16is/lsm6dso16is.c ****   pObj->acc_odr = LSM6DSO16IS_XL_ODR_AT_104Hz_HP;
 182:Drivers/BSP/Components/lsm6dso16is/lsm6dso16is.c **** 
 183:Drivers/BSP/Components/lsm6dso16is/lsm6dso16is.c ****   /* Output data rate selection - power down. */
 184:Drivers/BSP/Components/lsm6dso16is/lsm6dso16is.c ****   if (lsm6dso16is_xl_data_rate_set(&(pObj->Ctx), LSM6DSO16IS_XL_ODR_OFF) != LSM6DSO16IS_OK)
 185:Drivers/BSP/Components/lsm6dso16is/lsm6dso16is.c ****   {
 186:Drivers/BSP/Components/lsm6dso16is/lsm6dso16is.c ****     ret = LSM6DSO16IS_ERROR;
 187:Drivers/BSP/Components/lsm6dso16is/lsm6dso16is.c ****   }
 188:Drivers/BSP/Components/lsm6dso16is/lsm6dso16is.c **** 
 189:Drivers/BSP/Components/lsm6dso16is/lsm6dso16is.c ****   /* Full scale selection. */
 190:Drivers/BSP/Components/lsm6dso16is/lsm6dso16is.c ****   if (lsm6dso16is_xl_full_scale_set(&(pObj->Ctx), LSM6DSO16IS_2g) != LSM6DSO16IS_OK)
 191:Drivers/BSP/Components/lsm6dso16is/lsm6dso16is.c ****   {
 192:Drivers/BSP/Components/lsm6dso16is/lsm6dso16is.c ****     ret = LSM6DSO16IS_ERROR;
 193:Drivers/BSP/Components/lsm6dso16is/lsm6dso16is.c ****   }
 194:Drivers/BSP/Components/lsm6dso16is/lsm6dso16is.c **** 
 195:Drivers/BSP/Components/lsm6dso16is/lsm6dso16is.c ****   /* Select default output data rate. */
 196:Drivers/BSP/Components/lsm6dso16is/lsm6dso16is.c ****   pObj->gyro_odr = LSM6DSO16IS_GY_ODR_AT_104Hz_HP;
 197:Drivers/BSP/Components/lsm6dso16is/lsm6dso16is.c **** 
 198:Drivers/BSP/Components/lsm6dso16is/lsm6dso16is.c ****   /* Output data rate selection - power down. */
 199:Drivers/BSP/Components/lsm6dso16is/lsm6dso16is.c ****   if (lsm6dso16is_gy_data_rate_set(&(pObj->Ctx), LSM6DSO16IS_GY_ODR_OFF) != LSM6DSO16IS_OK)
 200:Drivers/BSP/Components/lsm6dso16is/lsm6dso16is.c ****   {
ARM GAS  C:\Users\Nathan\AppData\Local\Temp\ccdIxQaW.s 			page 5


 201:Drivers/BSP/Components/lsm6dso16is/lsm6dso16is.c ****     ret = LSM6DSO16IS_ERROR;
 202:Drivers/BSP/Components/lsm6dso16is/lsm6dso16is.c ****   }
 203:Drivers/BSP/Components/lsm6dso16is/lsm6dso16is.c **** 
 204:Drivers/BSP/Components/lsm6dso16is/lsm6dso16is.c ****   /* Full scale selection. */
 205:Drivers/BSP/Components/lsm6dso16is/lsm6dso16is.c ****   if (lsm6dso16is_gy_full_scale_set(&(pObj->Ctx), LSM6DSO16IS_2000dps) != LSM6DSO16IS_OK)
 206:Drivers/BSP/Components/lsm6dso16is/lsm6dso16is.c ****   {
 207:Drivers/BSP/Components/lsm6dso16is/lsm6dso16is.c ****     ret = LSM6DSO16IS_ERROR;
 208:Drivers/BSP/Components/lsm6dso16is/lsm6dso16is.c ****   }
 209:Drivers/BSP/Components/lsm6dso16is/lsm6dso16is.c **** 
 210:Drivers/BSP/Components/lsm6dso16is/lsm6dso16is.c ****   if (ret == LSM6DSO16IS_OK)
 211:Drivers/BSP/Components/lsm6dso16is/lsm6dso16is.c ****   {
 212:Drivers/BSP/Components/lsm6dso16is/lsm6dso16is.c ****     pObj->is_initialized = 1;
 213:Drivers/BSP/Components/lsm6dso16is/lsm6dso16is.c ****   }
 214:Drivers/BSP/Components/lsm6dso16is/lsm6dso16is.c **** 
 215:Drivers/BSP/Components/lsm6dso16is/lsm6dso16is.c ****   return ret;
 216:Drivers/BSP/Components/lsm6dso16is/lsm6dso16is.c **** }
 217:Drivers/BSP/Components/lsm6dso16is/lsm6dso16is.c **** 
 218:Drivers/BSP/Components/lsm6dso16is/lsm6dso16is.c **** /**
 219:Drivers/BSP/Components/lsm6dso16is/lsm6dso16is.c ****   * @brief  Deinitialize the LSM6DSO16IS sensor
 220:Drivers/BSP/Components/lsm6dso16is/lsm6dso16is.c ****   * @param  pObj the device pObj
 221:Drivers/BSP/Components/lsm6dso16is/lsm6dso16is.c ****   * @retval 0 in case of success, an error code otherwise
 222:Drivers/BSP/Components/lsm6dso16is/lsm6dso16is.c ****   */
 223:Drivers/BSP/Components/lsm6dso16is/lsm6dso16is.c **** int32_t LSM6DSO16IS_DeInit(LSM6DSO16IS_Object_t *pObj)
 224:Drivers/BSP/Components/lsm6dso16is/lsm6dso16is.c **** {
 225:Drivers/BSP/Components/lsm6dso16is/lsm6dso16is.c ****   int32_t ret = LSM6DSO16IS_OK;
 226:Drivers/BSP/Components/lsm6dso16is/lsm6dso16is.c **** 
 227:Drivers/BSP/Components/lsm6dso16is/lsm6dso16is.c ****   /* Disable the component */
 228:Drivers/BSP/Components/lsm6dso16is/lsm6dso16is.c ****   if (LSM6DSO16IS_ACC_Disable(pObj) != LSM6DSO16IS_OK)
 229:Drivers/BSP/Components/lsm6dso16is/lsm6dso16is.c ****   {
 230:Drivers/BSP/Components/lsm6dso16is/lsm6dso16is.c ****     ret = LSM6DSO16IS_ERROR;
 231:Drivers/BSP/Components/lsm6dso16is/lsm6dso16is.c ****   }
 232:Drivers/BSP/Components/lsm6dso16is/lsm6dso16is.c **** 
 233:Drivers/BSP/Components/lsm6dso16is/lsm6dso16is.c ****   if (LSM6DSO16IS_GYRO_Disable(pObj) != LSM6DSO16IS_OK)
 234:Drivers/BSP/Components/lsm6dso16is/lsm6dso16is.c ****   {
 235:Drivers/BSP/Components/lsm6dso16is/lsm6dso16is.c ****     ret = LSM6DSO16IS_ERROR;
 236:Drivers/BSP/Components/lsm6dso16is/lsm6dso16is.c ****   }
 237:Drivers/BSP/Components/lsm6dso16is/lsm6dso16is.c **** 
 238:Drivers/BSP/Components/lsm6dso16is/lsm6dso16is.c ****   if (ret == LSM6DSO16IS_OK)
 239:Drivers/BSP/Components/lsm6dso16is/lsm6dso16is.c ****   {
 240:Drivers/BSP/Components/lsm6dso16is/lsm6dso16is.c ****     /* Reset output data rate. */
 241:Drivers/BSP/Components/lsm6dso16is/lsm6dso16is.c ****     pObj->acc_odr = LSM6DSO16IS_XL_ODR_OFF;
 242:Drivers/BSP/Components/lsm6dso16is/lsm6dso16is.c ****     pObj->gyro_odr = LSM6DSO16IS_GY_ODR_OFF;
 243:Drivers/BSP/Components/lsm6dso16is/lsm6dso16is.c **** 
 244:Drivers/BSP/Components/lsm6dso16is/lsm6dso16is.c ****     pObj->is_initialized = 0;
 245:Drivers/BSP/Components/lsm6dso16is/lsm6dso16is.c ****   }
 246:Drivers/BSP/Components/lsm6dso16is/lsm6dso16is.c **** 
 247:Drivers/BSP/Components/lsm6dso16is/lsm6dso16is.c ****   return ret;
 248:Drivers/BSP/Components/lsm6dso16is/lsm6dso16is.c **** }
 249:Drivers/BSP/Components/lsm6dso16is/lsm6dso16is.c **** 
 250:Drivers/BSP/Components/lsm6dso16is/lsm6dso16is.c **** /**
 251:Drivers/BSP/Components/lsm6dso16is/lsm6dso16is.c ****   * @brief  Read component ID
 252:Drivers/BSP/Components/lsm6dso16is/lsm6dso16is.c ****   * @param  pObj the device pObj
 253:Drivers/BSP/Components/lsm6dso16is/lsm6dso16is.c ****   * @param  Id the WHO_AM_I value
 254:Drivers/BSP/Components/lsm6dso16is/lsm6dso16is.c ****   * @retval 0 in case of success, an error code otherwise
 255:Drivers/BSP/Components/lsm6dso16is/lsm6dso16is.c ****   */
 256:Drivers/BSP/Components/lsm6dso16is/lsm6dso16is.c **** int32_t LSM6DSO16IS_ReadID(LSM6DSO16IS_Object_t *pObj, uint8_t *Id)
 257:Drivers/BSP/Components/lsm6dso16is/lsm6dso16is.c **** {
ARM GAS  C:\Users\Nathan\AppData\Local\Temp\ccdIxQaW.s 			page 6


 258:Drivers/BSP/Components/lsm6dso16is/lsm6dso16is.c ****   int32_t ret = LSM6DSO16IS_OK;
 259:Drivers/BSP/Components/lsm6dso16is/lsm6dso16is.c **** 
 260:Drivers/BSP/Components/lsm6dso16is/lsm6dso16is.c ****   if (lsm6dso16is_device_id_get(&(pObj->Ctx), Id) != LSM6DSO16IS_OK)
 261:Drivers/BSP/Components/lsm6dso16is/lsm6dso16is.c ****   {
 262:Drivers/BSP/Components/lsm6dso16is/lsm6dso16is.c ****     ret = LSM6DSO16IS_ERROR;
 263:Drivers/BSP/Components/lsm6dso16is/lsm6dso16is.c ****   }
 264:Drivers/BSP/Components/lsm6dso16is/lsm6dso16is.c **** 
 265:Drivers/BSP/Components/lsm6dso16is/lsm6dso16is.c ****   return ret;
 266:Drivers/BSP/Components/lsm6dso16is/lsm6dso16is.c **** }
 267:Drivers/BSP/Components/lsm6dso16is/lsm6dso16is.c **** 
 268:Drivers/BSP/Components/lsm6dso16is/lsm6dso16is.c **** /**
 269:Drivers/BSP/Components/lsm6dso16is/lsm6dso16is.c ****   * @brief  Get LSM6DSO16IS sensor capabilities
 270:Drivers/BSP/Components/lsm6dso16is/lsm6dso16is.c ****   * @param  pObj Component object pointer
 271:Drivers/BSP/Components/lsm6dso16is/lsm6dso16is.c ****   * @param  Capabilities pointer to LSM6DSO16IS sensor capabilities
 272:Drivers/BSP/Components/lsm6dso16is/lsm6dso16is.c ****   * @retval 0 in case of success, an error code otherwise
 273:Drivers/BSP/Components/lsm6dso16is/lsm6dso16is.c ****   */
 274:Drivers/BSP/Components/lsm6dso16is/lsm6dso16is.c **** int32_t LSM6DSO16IS_GetCapabilities(LSM6DSO16IS_Object_t *pObj, LSM6DSO16IS_Capabilities_t *Capabil
 275:Drivers/BSP/Components/lsm6dso16is/lsm6dso16is.c **** {
  30              		.loc 1 275 1 view -0
  31              		.cfi_startproc
  32              		@ args = 0, pretend = 0, frame = 0
  33              		@ frame_needed = 0, uses_anonymous_args = 0
  34              		@ link register save eliminated.
 276:Drivers/BSP/Components/lsm6dso16is/lsm6dso16is.c ****   /* Prevent unused argument(s) compilation warning */
 277:Drivers/BSP/Components/lsm6dso16is/lsm6dso16is.c ****   (void)(pObj);
  35              		.loc 1 277 3 view .LVU1
 278:Drivers/BSP/Components/lsm6dso16is/lsm6dso16is.c **** 
 279:Drivers/BSP/Components/lsm6dso16is/lsm6dso16is.c ****   Capabilities->Acc          = 1;
  36              		.loc 1 279 3 view .LVU2
  37              		.loc 1 279 30 is_stmt 0 view .LVU3
  38 0000 0123     		movs	r3, #1
  39 0002 0B70     		strb	r3, [r1]
 280:Drivers/BSP/Components/lsm6dso16is/lsm6dso16is.c ****   Capabilities->Gyro         = 1;
  40              		.loc 1 280 3 is_stmt 1 view .LVU4
  41              		.loc 1 280 30 is_stmt 0 view .LVU5
  42 0004 4B70     		strb	r3, [r1, #1]
 281:Drivers/BSP/Components/lsm6dso16is/lsm6dso16is.c ****   Capabilities->Magneto      = 0;
  43              		.loc 1 281 3 is_stmt 1 view .LVU6
  44              		.loc 1 281 30 is_stmt 0 view .LVU7
  45 0006 0020     		movs	r0, #0
  46              	.LVL1:
  47              		.loc 1 281 30 view .LVU8
  48 0008 8870     		strb	r0, [r1, #2]
 282:Drivers/BSP/Components/lsm6dso16is/lsm6dso16is.c ****   Capabilities->LowPower     = 0;
  49              		.loc 1 282 3 is_stmt 1 view .LVU9
  50              		.loc 1 282 30 is_stmt 0 view .LVU10
  51 000a C870     		strb	r0, [r1, #3]
 283:Drivers/BSP/Components/lsm6dso16is/lsm6dso16is.c ****   Capabilities->GyroMaxFS    = 2000;
  52              		.loc 1 283 3 is_stmt 1 view .LVU11
  53              		.loc 1 283 30 is_stmt 0 view .LVU12
  54 000c 4FF4FA63 		mov	r3, #2000
  55 0010 4B60     		str	r3, [r1, #4]
 284:Drivers/BSP/Components/lsm6dso16is/lsm6dso16is.c ****   Capabilities->AccMaxFS     = 16;
  56              		.loc 1 284 3 is_stmt 1 view .LVU13
  57              		.loc 1 284 30 is_stmt 0 view .LVU14
  58 0012 1023     		movs	r3, #16
  59 0014 8B60     		str	r3, [r1, #8]
ARM GAS  C:\Users\Nathan\AppData\Local\Temp\ccdIxQaW.s 			page 7


 285:Drivers/BSP/Components/lsm6dso16is/lsm6dso16is.c ****   Capabilities->MagMaxFS     = 0;
  60              		.loc 1 285 3 is_stmt 1 view .LVU15
  61              		.loc 1 285 30 is_stmt 0 view .LVU16
  62 0016 C860     		str	r0, [r1, #12]
 286:Drivers/BSP/Components/lsm6dso16is/lsm6dso16is.c ****   Capabilities->GyroMaxOdr   = 3333.0f;
  63              		.loc 1 286 3 is_stmt 1 view .LVU17
  64              		.loc 1 286 30 is_stmt 0 view .LVU18
  65 0018 024B     		ldr	r3, .L2
  66 001a 0B61     		str	r3, [r1, #16]	@ float
 287:Drivers/BSP/Components/lsm6dso16is/lsm6dso16is.c ****   Capabilities->AccMaxOdr    = 3333.0f;
  67              		.loc 1 287 3 is_stmt 1 view .LVU19
  68              		.loc 1 287 30 is_stmt 0 view .LVU20
  69 001c 4B61     		str	r3, [r1, #20]	@ float
 288:Drivers/BSP/Components/lsm6dso16is/lsm6dso16is.c ****   Capabilities->MagMaxOdr    = 0.0f;
  70              		.loc 1 288 3 is_stmt 1 view .LVU21
  71              		.loc 1 288 30 is_stmt 0 view .LVU22
  72 001e 0023     		movs	r3, #0
  73 0020 8B61     		str	r3, [r1, #24]	@ float
 289:Drivers/BSP/Components/lsm6dso16is/lsm6dso16is.c **** 
 290:Drivers/BSP/Components/lsm6dso16is/lsm6dso16is.c ****   return LSM6DSO16IS_OK;
  74              		.loc 1 290 3 is_stmt 1 view .LVU23
 291:Drivers/BSP/Components/lsm6dso16is/lsm6dso16is.c **** }
  75              		.loc 1 291 1 is_stmt 0 view .LVU24
  76 0022 7047     		bx	lr
  77              	.L3:
  78              		.align	2
  79              	.L2:
  80 0024 00505045 		.word	1162891264
  81              		.cfi_endproc
  82              	.LFE4:
  84              		.section	.text.LSM6DSO16IS_ACC_SetOutputDataRate_When_Disabled,"ax",%progbits
  85              		.align	1
  86              		.syntax unified
  87              		.thumb
  88              		.thumb_func
  90              	LSM6DSO16IS_ACC_SetOutputDataRate_When_Disabled:
  91              	.LVL2:
  92              	.LFB36:
 292:Drivers/BSP/Components/lsm6dso16is/lsm6dso16is.c **** 
 293:Drivers/BSP/Components/lsm6dso16is/lsm6dso16is.c **** /**
 294:Drivers/BSP/Components/lsm6dso16is/lsm6dso16is.c ****   * @brief  Enable the LSM6DSO16IS accelerometer sensor
 295:Drivers/BSP/Components/lsm6dso16is/lsm6dso16is.c ****   * @param  pObj the device pObj
 296:Drivers/BSP/Components/lsm6dso16is/lsm6dso16is.c ****   * @retval 0 in case of success, an error code otherwise
 297:Drivers/BSP/Components/lsm6dso16is/lsm6dso16is.c ****   */
 298:Drivers/BSP/Components/lsm6dso16is/lsm6dso16is.c **** int32_t LSM6DSO16IS_ACC_Enable(LSM6DSO16IS_Object_t *pObj)
 299:Drivers/BSP/Components/lsm6dso16is/lsm6dso16is.c **** {
 300:Drivers/BSP/Components/lsm6dso16is/lsm6dso16is.c ****   int32_t ret = LSM6DSO16IS_OK;
 301:Drivers/BSP/Components/lsm6dso16is/lsm6dso16is.c **** 
 302:Drivers/BSP/Components/lsm6dso16is/lsm6dso16is.c ****   /* Check if the component is already enabled */
 303:Drivers/BSP/Components/lsm6dso16is/lsm6dso16is.c ****   if (pObj->acc_is_enabled == 1U)
 304:Drivers/BSP/Components/lsm6dso16is/lsm6dso16is.c ****   {
 305:Drivers/BSP/Components/lsm6dso16is/lsm6dso16is.c ****     ret = LSM6DSO16IS_OK;
 306:Drivers/BSP/Components/lsm6dso16is/lsm6dso16is.c ****   }
 307:Drivers/BSP/Components/lsm6dso16is/lsm6dso16is.c ****   else
 308:Drivers/BSP/Components/lsm6dso16is/lsm6dso16is.c ****   {
 309:Drivers/BSP/Components/lsm6dso16is/lsm6dso16is.c ****     /* Output data rate selection. */
 310:Drivers/BSP/Components/lsm6dso16is/lsm6dso16is.c ****     if (lsm6dso16is_xl_data_rate_set(&(pObj->Ctx), pObj->acc_odr) != LSM6DSO16IS_OK)
ARM GAS  C:\Users\Nathan\AppData\Local\Temp\ccdIxQaW.s 			page 8


 311:Drivers/BSP/Components/lsm6dso16is/lsm6dso16is.c ****     {
 312:Drivers/BSP/Components/lsm6dso16is/lsm6dso16is.c ****       ret = LSM6DSO16IS_ERROR;
 313:Drivers/BSP/Components/lsm6dso16is/lsm6dso16is.c ****     }
 314:Drivers/BSP/Components/lsm6dso16is/lsm6dso16is.c **** 
 315:Drivers/BSP/Components/lsm6dso16is/lsm6dso16is.c ****     pObj->acc_is_enabled = 1;
 316:Drivers/BSP/Components/lsm6dso16is/lsm6dso16is.c ****   }
 317:Drivers/BSP/Components/lsm6dso16is/lsm6dso16is.c **** 
 318:Drivers/BSP/Components/lsm6dso16is/lsm6dso16is.c ****   return ret;
 319:Drivers/BSP/Components/lsm6dso16is/lsm6dso16is.c **** }
 320:Drivers/BSP/Components/lsm6dso16is/lsm6dso16is.c **** 
 321:Drivers/BSP/Components/lsm6dso16is/lsm6dso16is.c **** /**
 322:Drivers/BSP/Components/lsm6dso16is/lsm6dso16is.c ****   * @brief  Disable the LSM6DSO16IS accelerometer sensor
 323:Drivers/BSP/Components/lsm6dso16is/lsm6dso16is.c ****   * @param  pObj the device pObj
 324:Drivers/BSP/Components/lsm6dso16is/lsm6dso16is.c ****   * @retval 0 in case of success, an error code otherwise
 325:Drivers/BSP/Components/lsm6dso16is/lsm6dso16is.c ****   */
 326:Drivers/BSP/Components/lsm6dso16is/lsm6dso16is.c **** int32_t LSM6DSO16IS_ACC_Disable(LSM6DSO16IS_Object_t *pObj)
 327:Drivers/BSP/Components/lsm6dso16is/lsm6dso16is.c **** {
 328:Drivers/BSP/Components/lsm6dso16is/lsm6dso16is.c ****   int32_t ret = LSM6DSO16IS_OK;
 329:Drivers/BSP/Components/lsm6dso16is/lsm6dso16is.c **** 
 330:Drivers/BSP/Components/lsm6dso16is/lsm6dso16is.c ****   /* Check if the component is already disabled */
 331:Drivers/BSP/Components/lsm6dso16is/lsm6dso16is.c ****   if (pObj->acc_is_enabled == 0U)
 332:Drivers/BSP/Components/lsm6dso16is/lsm6dso16is.c ****   {
 333:Drivers/BSP/Components/lsm6dso16is/lsm6dso16is.c ****     ret = LSM6DSO16IS_OK;
 334:Drivers/BSP/Components/lsm6dso16is/lsm6dso16is.c ****   }
 335:Drivers/BSP/Components/lsm6dso16is/lsm6dso16is.c ****   else
 336:Drivers/BSP/Components/lsm6dso16is/lsm6dso16is.c ****   {
 337:Drivers/BSP/Components/lsm6dso16is/lsm6dso16is.c ****     /* Get current output data rate. */
 338:Drivers/BSP/Components/lsm6dso16is/lsm6dso16is.c ****     if (lsm6dso16is_xl_data_rate_get(&(pObj->Ctx), &pObj->acc_odr) != LSM6DSO16IS_OK)
 339:Drivers/BSP/Components/lsm6dso16is/lsm6dso16is.c ****     {
 340:Drivers/BSP/Components/lsm6dso16is/lsm6dso16is.c ****       ret = LSM6DSO16IS_ERROR;
 341:Drivers/BSP/Components/lsm6dso16is/lsm6dso16is.c ****     }
 342:Drivers/BSP/Components/lsm6dso16is/lsm6dso16is.c **** 
 343:Drivers/BSP/Components/lsm6dso16is/lsm6dso16is.c ****     /* Output data rate selection - power down. */
 344:Drivers/BSP/Components/lsm6dso16is/lsm6dso16is.c ****     if (lsm6dso16is_xl_data_rate_set(&(pObj->Ctx), LSM6DSO16IS_XL_ODR_OFF) != LSM6DSO16IS_OK)
 345:Drivers/BSP/Components/lsm6dso16is/lsm6dso16is.c ****     {
 346:Drivers/BSP/Components/lsm6dso16is/lsm6dso16is.c ****       ret = LSM6DSO16IS_ERROR;
 347:Drivers/BSP/Components/lsm6dso16is/lsm6dso16is.c ****     }
 348:Drivers/BSP/Components/lsm6dso16is/lsm6dso16is.c **** 
 349:Drivers/BSP/Components/lsm6dso16is/lsm6dso16is.c ****     pObj->acc_is_enabled = 0;
 350:Drivers/BSP/Components/lsm6dso16is/lsm6dso16is.c ****   }
 351:Drivers/BSP/Components/lsm6dso16is/lsm6dso16is.c **** 
 352:Drivers/BSP/Components/lsm6dso16is/lsm6dso16is.c ****   return ret;
 353:Drivers/BSP/Components/lsm6dso16is/lsm6dso16is.c **** }
 354:Drivers/BSP/Components/lsm6dso16is/lsm6dso16is.c **** 
 355:Drivers/BSP/Components/lsm6dso16is/lsm6dso16is.c **** /**
 356:Drivers/BSP/Components/lsm6dso16is/lsm6dso16is.c ****   * @brief  Get the LSM6DSO16IS accelerometer sensor sensitivity
 357:Drivers/BSP/Components/lsm6dso16is/lsm6dso16is.c ****   * @param  pObj the device pObj
 358:Drivers/BSP/Components/lsm6dso16is/lsm6dso16is.c ****   * @param  Sensitivity pointer
 359:Drivers/BSP/Components/lsm6dso16is/lsm6dso16is.c ****   * @retval 0 in case of success, an error code otherwise
 360:Drivers/BSP/Components/lsm6dso16is/lsm6dso16is.c ****   */
 361:Drivers/BSP/Components/lsm6dso16is/lsm6dso16is.c **** int32_t LSM6DSO16IS_ACC_GetSensitivity(LSM6DSO16IS_Object_t *pObj, float_t *Sensitivity)
 362:Drivers/BSP/Components/lsm6dso16is/lsm6dso16is.c **** {
 363:Drivers/BSP/Components/lsm6dso16is/lsm6dso16is.c ****   int32_t ret = LSM6DSO16IS_OK;
 364:Drivers/BSP/Components/lsm6dso16is/lsm6dso16is.c ****   lsm6dso16is_xl_full_scale_t full_scale;
 365:Drivers/BSP/Components/lsm6dso16is/lsm6dso16is.c **** 
 366:Drivers/BSP/Components/lsm6dso16is/lsm6dso16is.c ****   /* Read actual full scale selection from sensor. */
 367:Drivers/BSP/Components/lsm6dso16is/lsm6dso16is.c ****   if (lsm6dso16is_xl_full_scale_get(&(pObj->Ctx), &full_scale) != LSM6DSO16IS_OK)
ARM GAS  C:\Users\Nathan\AppData\Local\Temp\ccdIxQaW.s 			page 9


 368:Drivers/BSP/Components/lsm6dso16is/lsm6dso16is.c ****   {
 369:Drivers/BSP/Components/lsm6dso16is/lsm6dso16is.c ****     ret = LSM6DSO16IS_ERROR;
 370:Drivers/BSP/Components/lsm6dso16is/lsm6dso16is.c ****   }
 371:Drivers/BSP/Components/lsm6dso16is/lsm6dso16is.c **** 
 372:Drivers/BSP/Components/lsm6dso16is/lsm6dso16is.c ****   /* Store the Sensitivity based on actual full scale. */
 373:Drivers/BSP/Components/lsm6dso16is/lsm6dso16is.c ****   switch (full_scale)
 374:Drivers/BSP/Components/lsm6dso16is/lsm6dso16is.c ****   {
 375:Drivers/BSP/Components/lsm6dso16is/lsm6dso16is.c ****     case LSM6DSO16IS_2g:
 376:Drivers/BSP/Components/lsm6dso16is/lsm6dso16is.c ****       *Sensitivity = LSM6DSO16IS_ACC_SENSITIVITY_FS_2G;
 377:Drivers/BSP/Components/lsm6dso16is/lsm6dso16is.c ****       break;
 378:Drivers/BSP/Components/lsm6dso16is/lsm6dso16is.c **** 
 379:Drivers/BSP/Components/lsm6dso16is/lsm6dso16is.c ****     case LSM6DSO16IS_4g:
 380:Drivers/BSP/Components/lsm6dso16is/lsm6dso16is.c ****       *Sensitivity = LSM6DSO16IS_ACC_SENSITIVITY_FS_4G;
 381:Drivers/BSP/Components/lsm6dso16is/lsm6dso16is.c ****       break;
 382:Drivers/BSP/Components/lsm6dso16is/lsm6dso16is.c **** 
 383:Drivers/BSP/Components/lsm6dso16is/lsm6dso16is.c ****     case LSM6DSO16IS_8g:
 384:Drivers/BSP/Components/lsm6dso16is/lsm6dso16is.c ****       *Sensitivity = LSM6DSO16IS_ACC_SENSITIVITY_FS_8G;
 385:Drivers/BSP/Components/lsm6dso16is/lsm6dso16is.c ****       break;
 386:Drivers/BSP/Components/lsm6dso16is/lsm6dso16is.c **** 
 387:Drivers/BSP/Components/lsm6dso16is/lsm6dso16is.c ****     case LSM6DSO16IS_16g:
 388:Drivers/BSP/Components/lsm6dso16is/lsm6dso16is.c ****       *Sensitivity = LSM6DSO16IS_ACC_SENSITIVITY_FS_16G;
 389:Drivers/BSP/Components/lsm6dso16is/lsm6dso16is.c ****       break;
 390:Drivers/BSP/Components/lsm6dso16is/lsm6dso16is.c **** 
 391:Drivers/BSP/Components/lsm6dso16is/lsm6dso16is.c ****     default:
 392:Drivers/BSP/Components/lsm6dso16is/lsm6dso16is.c ****       ret = LSM6DSO16IS_ERROR;
 393:Drivers/BSP/Components/lsm6dso16is/lsm6dso16is.c ****       break;
 394:Drivers/BSP/Components/lsm6dso16is/lsm6dso16is.c ****   }
 395:Drivers/BSP/Components/lsm6dso16is/lsm6dso16is.c **** 
 396:Drivers/BSP/Components/lsm6dso16is/lsm6dso16is.c ****   return ret;
 397:Drivers/BSP/Components/lsm6dso16is/lsm6dso16is.c **** }
 398:Drivers/BSP/Components/lsm6dso16is/lsm6dso16is.c **** 
 399:Drivers/BSP/Components/lsm6dso16is/lsm6dso16is.c **** /**
 400:Drivers/BSP/Components/lsm6dso16is/lsm6dso16is.c ****   * @brief  Get the LSM6DSO16IS accelerometer sensor output data rate
 401:Drivers/BSP/Components/lsm6dso16is/lsm6dso16is.c ****   * @param  pObj the device pObj
 402:Drivers/BSP/Components/lsm6dso16is/lsm6dso16is.c ****   * @param  Odr pointer where the output data rate is written
 403:Drivers/BSP/Components/lsm6dso16is/lsm6dso16is.c ****   * @retval 0 in case of success, an error code otherwise
 404:Drivers/BSP/Components/lsm6dso16is/lsm6dso16is.c ****   */
 405:Drivers/BSP/Components/lsm6dso16is/lsm6dso16is.c **** int32_t LSM6DSO16IS_ACC_GetOutputDataRate(LSM6DSO16IS_Object_t *pObj, float_t *Odr)
 406:Drivers/BSP/Components/lsm6dso16is/lsm6dso16is.c **** {
 407:Drivers/BSP/Components/lsm6dso16is/lsm6dso16is.c ****   int32_t ret = LSM6DSO16IS_OK;
 408:Drivers/BSP/Components/lsm6dso16is/lsm6dso16is.c ****   lsm6dso16is_xl_data_rate_t odr_low_level;
 409:Drivers/BSP/Components/lsm6dso16is/lsm6dso16is.c **** 
 410:Drivers/BSP/Components/lsm6dso16is/lsm6dso16is.c ****   /* Get current output data rate. */
 411:Drivers/BSP/Components/lsm6dso16is/lsm6dso16is.c ****   if (lsm6dso16is_xl_data_rate_get(&(pObj->Ctx), &odr_low_level) != LSM6DSO16IS_OK)
 412:Drivers/BSP/Components/lsm6dso16is/lsm6dso16is.c ****   {
 413:Drivers/BSP/Components/lsm6dso16is/lsm6dso16is.c ****     ret = LSM6DSO16IS_ERROR;
 414:Drivers/BSP/Components/lsm6dso16is/lsm6dso16is.c ****   }
 415:Drivers/BSP/Components/lsm6dso16is/lsm6dso16is.c **** 
 416:Drivers/BSP/Components/lsm6dso16is/lsm6dso16is.c ****   switch (odr_low_level)
 417:Drivers/BSP/Components/lsm6dso16is/lsm6dso16is.c ****   {
 418:Drivers/BSP/Components/lsm6dso16is/lsm6dso16is.c ****     case LSM6DSO16IS_XL_ODR_OFF:
 419:Drivers/BSP/Components/lsm6dso16is/lsm6dso16is.c ****       *Odr = 0.0f;
 420:Drivers/BSP/Components/lsm6dso16is/lsm6dso16is.c ****       break;
 421:Drivers/BSP/Components/lsm6dso16is/lsm6dso16is.c **** 
 422:Drivers/BSP/Components/lsm6dso16is/lsm6dso16is.c ****     case LSM6DSO16IS_XL_ODR_AT_1Hz6_LP:
 423:Drivers/BSP/Components/lsm6dso16is/lsm6dso16is.c ****       *Odr = 1.6f;
 424:Drivers/BSP/Components/lsm6dso16is/lsm6dso16is.c ****       break;
ARM GAS  C:\Users\Nathan\AppData\Local\Temp\ccdIxQaW.s 			page 10


 425:Drivers/BSP/Components/lsm6dso16is/lsm6dso16is.c **** 
 426:Drivers/BSP/Components/lsm6dso16is/lsm6dso16is.c ****     case LSM6DSO16IS_XL_ODR_AT_12Hz5_LP:
 427:Drivers/BSP/Components/lsm6dso16is/lsm6dso16is.c ****     case LSM6DSO16IS_XL_ODR_AT_12Hz5_HP:
 428:Drivers/BSP/Components/lsm6dso16is/lsm6dso16is.c ****       *Odr = 12.5f;
 429:Drivers/BSP/Components/lsm6dso16is/lsm6dso16is.c ****       break;
 430:Drivers/BSP/Components/lsm6dso16is/lsm6dso16is.c **** 
 431:Drivers/BSP/Components/lsm6dso16is/lsm6dso16is.c ****     case LSM6DSO16IS_XL_ODR_AT_26H_LP:
 432:Drivers/BSP/Components/lsm6dso16is/lsm6dso16is.c ****     case LSM6DSO16IS_XL_ODR_AT_26H_HP:
 433:Drivers/BSP/Components/lsm6dso16is/lsm6dso16is.c ****       *Odr = 26.0f;
 434:Drivers/BSP/Components/lsm6dso16is/lsm6dso16is.c ****       break;
 435:Drivers/BSP/Components/lsm6dso16is/lsm6dso16is.c **** 
 436:Drivers/BSP/Components/lsm6dso16is/lsm6dso16is.c ****     case LSM6DSO16IS_XL_ODR_AT_52Hz_LP:
 437:Drivers/BSP/Components/lsm6dso16is/lsm6dso16is.c ****     case LSM6DSO16IS_XL_ODR_AT_52Hz_HP:
 438:Drivers/BSP/Components/lsm6dso16is/lsm6dso16is.c ****       *Odr = 52.0f;
 439:Drivers/BSP/Components/lsm6dso16is/lsm6dso16is.c ****       break;
 440:Drivers/BSP/Components/lsm6dso16is/lsm6dso16is.c **** 
 441:Drivers/BSP/Components/lsm6dso16is/lsm6dso16is.c ****     case LSM6DSO16IS_XL_ODR_AT_104Hz_LP:
 442:Drivers/BSP/Components/lsm6dso16is/lsm6dso16is.c ****     case LSM6DSO16IS_XL_ODR_AT_104Hz_HP:
 443:Drivers/BSP/Components/lsm6dso16is/lsm6dso16is.c ****       *Odr = 104.0f;
 444:Drivers/BSP/Components/lsm6dso16is/lsm6dso16is.c ****       break;
 445:Drivers/BSP/Components/lsm6dso16is/lsm6dso16is.c **** 
 446:Drivers/BSP/Components/lsm6dso16is/lsm6dso16is.c ****     case LSM6DSO16IS_XL_ODR_AT_208Hz_LP:
 447:Drivers/BSP/Components/lsm6dso16is/lsm6dso16is.c ****     case LSM6DSO16IS_XL_ODR_AT_208Hz_HP:
 448:Drivers/BSP/Components/lsm6dso16is/lsm6dso16is.c ****       *Odr = 208.0f;
 449:Drivers/BSP/Components/lsm6dso16is/lsm6dso16is.c ****       break;
 450:Drivers/BSP/Components/lsm6dso16is/lsm6dso16is.c **** 
 451:Drivers/BSP/Components/lsm6dso16is/lsm6dso16is.c ****     case LSM6DSO16IS_XL_ODR_AT_416Hz_LP:
 452:Drivers/BSP/Components/lsm6dso16is/lsm6dso16is.c ****     case LSM6DSO16IS_XL_ODR_AT_416Hz_HP:
 453:Drivers/BSP/Components/lsm6dso16is/lsm6dso16is.c ****       *Odr = 416.0f;
 454:Drivers/BSP/Components/lsm6dso16is/lsm6dso16is.c ****       break;
 455:Drivers/BSP/Components/lsm6dso16is/lsm6dso16is.c **** 
 456:Drivers/BSP/Components/lsm6dso16is/lsm6dso16is.c ****     case LSM6DSO16IS_XL_ODR_AT_833Hz_LP:
 457:Drivers/BSP/Components/lsm6dso16is/lsm6dso16is.c ****     case LSM6DSO16IS_XL_ODR_AT_833Hz_HP:
 458:Drivers/BSP/Components/lsm6dso16is/lsm6dso16is.c ****       *Odr = 833.0f;
 459:Drivers/BSP/Components/lsm6dso16is/lsm6dso16is.c ****       break;
 460:Drivers/BSP/Components/lsm6dso16is/lsm6dso16is.c **** 
 461:Drivers/BSP/Components/lsm6dso16is/lsm6dso16is.c ****     case LSM6DSO16IS_XL_ODR_AT_1667Hz_LP:
 462:Drivers/BSP/Components/lsm6dso16is/lsm6dso16is.c ****     case LSM6DSO16IS_XL_ODR_AT_1667Hz_HP:
 463:Drivers/BSP/Components/lsm6dso16is/lsm6dso16is.c ****       *Odr = 1667.0f;
 464:Drivers/BSP/Components/lsm6dso16is/lsm6dso16is.c ****       break;
 465:Drivers/BSP/Components/lsm6dso16is/lsm6dso16is.c **** 
 466:Drivers/BSP/Components/lsm6dso16is/lsm6dso16is.c ****     case LSM6DSO16IS_XL_ODR_AT_3333Hz_LP:
 467:Drivers/BSP/Components/lsm6dso16is/lsm6dso16is.c ****     case LSM6DSO16IS_XL_ODR_AT_3333Hz_HP:
 468:Drivers/BSP/Components/lsm6dso16is/lsm6dso16is.c ****       *Odr = 3333.0f;
 469:Drivers/BSP/Components/lsm6dso16is/lsm6dso16is.c ****       break;
 470:Drivers/BSP/Components/lsm6dso16is/lsm6dso16is.c **** 
 471:Drivers/BSP/Components/lsm6dso16is/lsm6dso16is.c ****     case LSM6DSO16IS_XL_ODR_AT_6667Hz_LP:
 472:Drivers/BSP/Components/lsm6dso16is/lsm6dso16is.c ****     case LSM6DSO16IS_XL_ODR_AT_6667Hz_HP:
 473:Drivers/BSP/Components/lsm6dso16is/lsm6dso16is.c ****       *Odr = 6667.0f;
 474:Drivers/BSP/Components/lsm6dso16is/lsm6dso16is.c ****       break;
 475:Drivers/BSP/Components/lsm6dso16is/lsm6dso16is.c **** 
 476:Drivers/BSP/Components/lsm6dso16is/lsm6dso16is.c ****     default:
 477:Drivers/BSP/Components/lsm6dso16is/lsm6dso16is.c ****       ret = LSM6DSO16IS_ERROR;
 478:Drivers/BSP/Components/lsm6dso16is/lsm6dso16is.c ****       break;
 479:Drivers/BSP/Components/lsm6dso16is/lsm6dso16is.c ****   }
 480:Drivers/BSP/Components/lsm6dso16is/lsm6dso16is.c **** 
 481:Drivers/BSP/Components/lsm6dso16is/lsm6dso16is.c ****   return ret;
ARM GAS  C:\Users\Nathan\AppData\Local\Temp\ccdIxQaW.s 			page 11


 482:Drivers/BSP/Components/lsm6dso16is/lsm6dso16is.c **** }
 483:Drivers/BSP/Components/lsm6dso16is/lsm6dso16is.c **** 
 484:Drivers/BSP/Components/lsm6dso16is/lsm6dso16is.c **** /**
 485:Drivers/BSP/Components/lsm6dso16is/lsm6dso16is.c ****   * @brief  Set the LSM6DSO16IS accelerometer sensor output data rate
 486:Drivers/BSP/Components/lsm6dso16is/lsm6dso16is.c ****   * @param  pObj the device pObj
 487:Drivers/BSP/Components/lsm6dso16is/lsm6dso16is.c ****   * @param  Odr the output data rate value to be set
 488:Drivers/BSP/Components/lsm6dso16is/lsm6dso16is.c ****   * @retval 0 in case of success, an error code otherwise
 489:Drivers/BSP/Components/lsm6dso16is/lsm6dso16is.c ****   */
 490:Drivers/BSP/Components/lsm6dso16is/lsm6dso16is.c **** int32_t LSM6DSO16IS_ACC_SetOutputDataRate(LSM6DSO16IS_Object_t *pObj, float_t Odr)
 491:Drivers/BSP/Components/lsm6dso16is/lsm6dso16is.c **** {
 492:Drivers/BSP/Components/lsm6dso16is/lsm6dso16is.c ****   int32_t ret;
 493:Drivers/BSP/Components/lsm6dso16is/lsm6dso16is.c **** 
 494:Drivers/BSP/Components/lsm6dso16is/lsm6dso16is.c ****   /* Check if the component is enabled */
 495:Drivers/BSP/Components/lsm6dso16is/lsm6dso16is.c ****   if (pObj->acc_is_enabled == 1U)
 496:Drivers/BSP/Components/lsm6dso16is/lsm6dso16is.c ****   {
 497:Drivers/BSP/Components/lsm6dso16is/lsm6dso16is.c ****     ret = LSM6DSO16IS_ACC_SetOutputDataRate_When_Enabled(pObj, Odr);
 498:Drivers/BSP/Components/lsm6dso16is/lsm6dso16is.c ****   }
 499:Drivers/BSP/Components/lsm6dso16is/lsm6dso16is.c ****   else
 500:Drivers/BSP/Components/lsm6dso16is/lsm6dso16is.c ****   {
 501:Drivers/BSP/Components/lsm6dso16is/lsm6dso16is.c ****     ret = LSM6DSO16IS_ACC_SetOutputDataRate_When_Disabled(pObj, Odr);
 502:Drivers/BSP/Components/lsm6dso16is/lsm6dso16is.c ****   }
 503:Drivers/BSP/Components/lsm6dso16is/lsm6dso16is.c **** 
 504:Drivers/BSP/Components/lsm6dso16is/lsm6dso16is.c ****   return ret;
 505:Drivers/BSP/Components/lsm6dso16is/lsm6dso16is.c **** }
 506:Drivers/BSP/Components/lsm6dso16is/lsm6dso16is.c **** 
 507:Drivers/BSP/Components/lsm6dso16is/lsm6dso16is.c **** /**
 508:Drivers/BSP/Components/lsm6dso16is/lsm6dso16is.c ****   * @brief  Get the LSM6DSO16IS accelerometer sensor full scale
 509:Drivers/BSP/Components/lsm6dso16is/lsm6dso16is.c ****   * @param  pObj the device pObj
 510:Drivers/BSP/Components/lsm6dso16is/lsm6dso16is.c ****   * @param  FullScale pointer where the full scale is written
 511:Drivers/BSP/Components/lsm6dso16is/lsm6dso16is.c ****   * @retval 0 in case of success, an error code otherwise
 512:Drivers/BSP/Components/lsm6dso16is/lsm6dso16is.c ****   */
 513:Drivers/BSP/Components/lsm6dso16is/lsm6dso16is.c **** int32_t LSM6DSO16IS_ACC_GetFullScale(LSM6DSO16IS_Object_t *pObj, int32_t *FullScale)
 514:Drivers/BSP/Components/lsm6dso16is/lsm6dso16is.c **** {
 515:Drivers/BSP/Components/lsm6dso16is/lsm6dso16is.c ****   int32_t ret = LSM6DSO16IS_OK;
 516:Drivers/BSP/Components/lsm6dso16is/lsm6dso16is.c ****   lsm6dso16is_xl_full_scale_t fs_low_level;
 517:Drivers/BSP/Components/lsm6dso16is/lsm6dso16is.c **** 
 518:Drivers/BSP/Components/lsm6dso16is/lsm6dso16is.c ****   /* Read actual full scale selection from sensor. */
 519:Drivers/BSP/Components/lsm6dso16is/lsm6dso16is.c ****   if (lsm6dso16is_xl_full_scale_get(&(pObj->Ctx), &fs_low_level) != LSM6DSO16IS_OK)
 520:Drivers/BSP/Components/lsm6dso16is/lsm6dso16is.c ****   {
 521:Drivers/BSP/Components/lsm6dso16is/lsm6dso16is.c ****     ret = LSM6DSO16IS_ERROR;
 522:Drivers/BSP/Components/lsm6dso16is/lsm6dso16is.c ****   }
 523:Drivers/BSP/Components/lsm6dso16is/lsm6dso16is.c **** 
 524:Drivers/BSP/Components/lsm6dso16is/lsm6dso16is.c ****   switch (fs_low_level)
 525:Drivers/BSP/Components/lsm6dso16is/lsm6dso16is.c ****   {
 526:Drivers/BSP/Components/lsm6dso16is/lsm6dso16is.c ****     case LSM6DSO16IS_2g:
 527:Drivers/BSP/Components/lsm6dso16is/lsm6dso16is.c ****       *FullScale =  2;
 528:Drivers/BSP/Components/lsm6dso16is/lsm6dso16is.c ****       break;
 529:Drivers/BSP/Components/lsm6dso16is/lsm6dso16is.c **** 
 530:Drivers/BSP/Components/lsm6dso16is/lsm6dso16is.c ****     case LSM6DSO16IS_4g:
 531:Drivers/BSP/Components/lsm6dso16is/lsm6dso16is.c ****       *FullScale =  4;
 532:Drivers/BSP/Components/lsm6dso16is/lsm6dso16is.c ****       break;
 533:Drivers/BSP/Components/lsm6dso16is/lsm6dso16is.c **** 
 534:Drivers/BSP/Components/lsm6dso16is/lsm6dso16is.c ****     case LSM6DSO16IS_8g:
 535:Drivers/BSP/Components/lsm6dso16is/lsm6dso16is.c ****       *FullScale =  8;
 536:Drivers/BSP/Components/lsm6dso16is/lsm6dso16is.c ****       break;
 537:Drivers/BSP/Components/lsm6dso16is/lsm6dso16is.c **** 
 538:Drivers/BSP/Components/lsm6dso16is/lsm6dso16is.c ****     case LSM6DSO16IS_16g:
ARM GAS  C:\Users\Nathan\AppData\Local\Temp\ccdIxQaW.s 			page 12


 539:Drivers/BSP/Components/lsm6dso16is/lsm6dso16is.c ****       *FullScale = 16;
 540:Drivers/BSP/Components/lsm6dso16is/lsm6dso16is.c ****       break;
 541:Drivers/BSP/Components/lsm6dso16is/lsm6dso16is.c **** 
 542:Drivers/BSP/Components/lsm6dso16is/lsm6dso16is.c ****     default:
 543:Drivers/BSP/Components/lsm6dso16is/lsm6dso16is.c ****       ret = LSM6DSO16IS_ERROR;
 544:Drivers/BSP/Components/lsm6dso16is/lsm6dso16is.c ****       break;
 545:Drivers/BSP/Components/lsm6dso16is/lsm6dso16is.c ****   }
 546:Drivers/BSP/Components/lsm6dso16is/lsm6dso16is.c **** 
 547:Drivers/BSP/Components/lsm6dso16is/lsm6dso16is.c ****   return ret;
 548:Drivers/BSP/Components/lsm6dso16is/lsm6dso16is.c **** }
 549:Drivers/BSP/Components/lsm6dso16is/lsm6dso16is.c **** 
 550:Drivers/BSP/Components/lsm6dso16is/lsm6dso16is.c **** /**
 551:Drivers/BSP/Components/lsm6dso16is/lsm6dso16is.c ****   * @brief  Set the LSM6DSO16IS accelerometer sensor full scale
 552:Drivers/BSP/Components/lsm6dso16is/lsm6dso16is.c ****   * @param  pObj the device pObj
 553:Drivers/BSP/Components/lsm6dso16is/lsm6dso16is.c ****   * @param  FullScale the functional full scale to be set
 554:Drivers/BSP/Components/lsm6dso16is/lsm6dso16is.c ****   * @retval 0 in case of success, an error code otherwise
 555:Drivers/BSP/Components/lsm6dso16is/lsm6dso16is.c ****   */
 556:Drivers/BSP/Components/lsm6dso16is/lsm6dso16is.c **** int32_t LSM6DSO16IS_ACC_SetFullScale(LSM6DSO16IS_Object_t *pObj, int32_t FullScale)
 557:Drivers/BSP/Components/lsm6dso16is/lsm6dso16is.c **** {
 558:Drivers/BSP/Components/lsm6dso16is/lsm6dso16is.c ****   int32_t ret = LSM6DSO16IS_OK;
 559:Drivers/BSP/Components/lsm6dso16is/lsm6dso16is.c ****   lsm6dso16is_xl_full_scale_t new_fs;
 560:Drivers/BSP/Components/lsm6dso16is/lsm6dso16is.c **** 
 561:Drivers/BSP/Components/lsm6dso16is/lsm6dso16is.c ****   new_fs = (FullScale <= 2) ? LSM6DSO16IS_2g
 562:Drivers/BSP/Components/lsm6dso16is/lsm6dso16is.c ****            : (FullScale <= 4) ? LSM6DSO16IS_4g
 563:Drivers/BSP/Components/lsm6dso16is/lsm6dso16is.c ****            : (FullScale <= 8) ? LSM6DSO16IS_8g
 564:Drivers/BSP/Components/lsm6dso16is/lsm6dso16is.c ****            :                    LSM6DSO16IS_16g;
 565:Drivers/BSP/Components/lsm6dso16is/lsm6dso16is.c **** 
 566:Drivers/BSP/Components/lsm6dso16is/lsm6dso16is.c ****   if (lsm6dso16is_xl_full_scale_set(&(pObj->Ctx), new_fs) != LSM6DSO16IS_OK)
 567:Drivers/BSP/Components/lsm6dso16is/lsm6dso16is.c ****   {
 568:Drivers/BSP/Components/lsm6dso16is/lsm6dso16is.c ****     ret = LSM6DSO16IS_ERROR;
 569:Drivers/BSP/Components/lsm6dso16is/lsm6dso16is.c ****   }
 570:Drivers/BSP/Components/lsm6dso16is/lsm6dso16is.c **** 
 571:Drivers/BSP/Components/lsm6dso16is/lsm6dso16is.c ****   return ret;
 572:Drivers/BSP/Components/lsm6dso16is/lsm6dso16is.c **** }
 573:Drivers/BSP/Components/lsm6dso16is/lsm6dso16is.c **** 
 574:Drivers/BSP/Components/lsm6dso16is/lsm6dso16is.c **** /**
 575:Drivers/BSP/Components/lsm6dso16is/lsm6dso16is.c ****   * @brief  Get the LSM6DSO16IS accelerometer sensor raw axes
 576:Drivers/BSP/Components/lsm6dso16is/lsm6dso16is.c ****   * @param  pObj the device pObj
 577:Drivers/BSP/Components/lsm6dso16is/lsm6dso16is.c ****   * @param  Value pointer where the raw values of the axes are written
 578:Drivers/BSP/Components/lsm6dso16is/lsm6dso16is.c ****   * @retval 0 in case of success, an error code otherwise
 579:Drivers/BSP/Components/lsm6dso16is/lsm6dso16is.c ****   */
 580:Drivers/BSP/Components/lsm6dso16is/lsm6dso16is.c **** int32_t LSM6DSO16IS_ACC_GetAxesRaw(LSM6DSO16IS_Object_t *pObj, LSM6DSO16IS_AxesRaw_t *Value)
 581:Drivers/BSP/Components/lsm6dso16is/lsm6dso16is.c **** {
 582:Drivers/BSP/Components/lsm6dso16is/lsm6dso16is.c ****   int32_t ret = LSM6DSO16IS_OK;
 583:Drivers/BSP/Components/lsm6dso16is/lsm6dso16is.c ****   int16_t data_raw[3];
 584:Drivers/BSP/Components/lsm6dso16is/lsm6dso16is.c **** 
 585:Drivers/BSP/Components/lsm6dso16is/lsm6dso16is.c ****   /* Read raw data values. */
 586:Drivers/BSP/Components/lsm6dso16is/lsm6dso16is.c ****   if (lsm6dso16is_acceleration_raw_get(&(pObj->Ctx), data_raw) != LSM6DSO16IS_OK)
 587:Drivers/BSP/Components/lsm6dso16is/lsm6dso16is.c ****   {
 588:Drivers/BSP/Components/lsm6dso16is/lsm6dso16is.c ****     ret = LSM6DSO16IS_ERROR;
 589:Drivers/BSP/Components/lsm6dso16is/lsm6dso16is.c ****   }
 590:Drivers/BSP/Components/lsm6dso16is/lsm6dso16is.c **** 
 591:Drivers/BSP/Components/lsm6dso16is/lsm6dso16is.c ****   /* Format the data. */
 592:Drivers/BSP/Components/lsm6dso16is/lsm6dso16is.c ****   Value->x = data_raw[0];
 593:Drivers/BSP/Components/lsm6dso16is/lsm6dso16is.c ****   Value->y = data_raw[1];
 594:Drivers/BSP/Components/lsm6dso16is/lsm6dso16is.c ****   Value->z = data_raw[2];
 595:Drivers/BSP/Components/lsm6dso16is/lsm6dso16is.c **** 
ARM GAS  C:\Users\Nathan\AppData\Local\Temp\ccdIxQaW.s 			page 13


 596:Drivers/BSP/Components/lsm6dso16is/lsm6dso16is.c ****   return ret;
 597:Drivers/BSP/Components/lsm6dso16is/lsm6dso16is.c **** }
 598:Drivers/BSP/Components/lsm6dso16is/lsm6dso16is.c **** 
 599:Drivers/BSP/Components/lsm6dso16is/lsm6dso16is.c **** /**
 600:Drivers/BSP/Components/lsm6dso16is/lsm6dso16is.c ****   * @brief  Get the LSM6DSO16IS accelerometer sensor axes
 601:Drivers/BSP/Components/lsm6dso16is/lsm6dso16is.c ****   * @param  pObj the device pObj
 602:Drivers/BSP/Components/lsm6dso16is/lsm6dso16is.c ****   * @param  Acceleration pointer where the values of the axes are written
 603:Drivers/BSP/Components/lsm6dso16is/lsm6dso16is.c ****   * @retval 0 in case of success, an error code otherwise
 604:Drivers/BSP/Components/lsm6dso16is/lsm6dso16is.c ****   */
 605:Drivers/BSP/Components/lsm6dso16is/lsm6dso16is.c **** int32_t LSM6DSO16IS_ACC_GetAxes(LSM6DSO16IS_Object_t *pObj, LSM6DSO16IS_Axes_t *Acceleration)
 606:Drivers/BSP/Components/lsm6dso16is/lsm6dso16is.c **** {
 607:Drivers/BSP/Components/lsm6dso16is/lsm6dso16is.c ****   int32_t ret = LSM6DSO16IS_OK;
 608:Drivers/BSP/Components/lsm6dso16is/lsm6dso16is.c ****   int16_t data_raw[3];
 609:Drivers/BSP/Components/lsm6dso16is/lsm6dso16is.c ****   float_t sensitivity = 0.0f;
 610:Drivers/BSP/Components/lsm6dso16is/lsm6dso16is.c **** 
 611:Drivers/BSP/Components/lsm6dso16is/lsm6dso16is.c ****   /* Read raw data values. */
 612:Drivers/BSP/Components/lsm6dso16is/lsm6dso16is.c ****   if (lsm6dso16is_acceleration_raw_get(&(pObj->Ctx), data_raw) != LSM6DSO16IS_OK)
 613:Drivers/BSP/Components/lsm6dso16is/lsm6dso16is.c ****   {
 614:Drivers/BSP/Components/lsm6dso16is/lsm6dso16is.c ****     ret = LSM6DSO16IS_ERROR;
 615:Drivers/BSP/Components/lsm6dso16is/lsm6dso16is.c ****   }
 616:Drivers/BSP/Components/lsm6dso16is/lsm6dso16is.c **** 
 617:Drivers/BSP/Components/lsm6dso16is/lsm6dso16is.c ****   /* Get LSM6DSO16IS actual sensitivity. */
 618:Drivers/BSP/Components/lsm6dso16is/lsm6dso16is.c ****   if (LSM6DSO16IS_ACC_GetSensitivity(pObj, &sensitivity) != LSM6DSO16IS_OK)
 619:Drivers/BSP/Components/lsm6dso16is/lsm6dso16is.c ****   {
 620:Drivers/BSP/Components/lsm6dso16is/lsm6dso16is.c ****     ret = LSM6DSO16IS_ERROR;
 621:Drivers/BSP/Components/lsm6dso16is/lsm6dso16is.c ****   }
 622:Drivers/BSP/Components/lsm6dso16is/lsm6dso16is.c **** 
 623:Drivers/BSP/Components/lsm6dso16is/lsm6dso16is.c ****   /* Calculate the data. */
 624:Drivers/BSP/Components/lsm6dso16is/lsm6dso16is.c ****   Acceleration->x = (int32_t)((float_t)((float_t)data_raw[0] * sensitivity));
 625:Drivers/BSP/Components/lsm6dso16is/lsm6dso16is.c ****   Acceleration->y = (int32_t)((float_t)((float_t)data_raw[1] * sensitivity));
 626:Drivers/BSP/Components/lsm6dso16is/lsm6dso16is.c ****   Acceleration->z = (int32_t)((float_t)((float_t)data_raw[2] * sensitivity));
 627:Drivers/BSP/Components/lsm6dso16is/lsm6dso16is.c **** 
 628:Drivers/BSP/Components/lsm6dso16is/lsm6dso16is.c ****   return ret;
 629:Drivers/BSP/Components/lsm6dso16is/lsm6dso16is.c **** }
 630:Drivers/BSP/Components/lsm6dso16is/lsm6dso16is.c **** 
 631:Drivers/BSP/Components/lsm6dso16is/lsm6dso16is.c **** /**
 632:Drivers/BSP/Components/lsm6dso16is/lsm6dso16is.c ****   * @brief  Enable the LSM6DSO16IS gyroscope sensor
 633:Drivers/BSP/Components/lsm6dso16is/lsm6dso16is.c ****   * @param  pObj the device pObj
 634:Drivers/BSP/Components/lsm6dso16is/lsm6dso16is.c ****   * @retval 0 in case of success, an error code otherwise
 635:Drivers/BSP/Components/lsm6dso16is/lsm6dso16is.c ****   */
 636:Drivers/BSP/Components/lsm6dso16is/lsm6dso16is.c **** int32_t LSM6DSO16IS_GYRO_Enable(LSM6DSO16IS_Object_t *pObj)
 637:Drivers/BSP/Components/lsm6dso16is/lsm6dso16is.c **** {
 638:Drivers/BSP/Components/lsm6dso16is/lsm6dso16is.c ****   int32_t ret = LSM6DSO16IS_OK;
 639:Drivers/BSP/Components/lsm6dso16is/lsm6dso16is.c **** 
 640:Drivers/BSP/Components/lsm6dso16is/lsm6dso16is.c ****   /* Check if the component is already enabled */
 641:Drivers/BSP/Components/lsm6dso16is/lsm6dso16is.c ****   if (pObj->gyro_is_enabled == 1U)
 642:Drivers/BSP/Components/lsm6dso16is/lsm6dso16is.c ****   {
 643:Drivers/BSP/Components/lsm6dso16is/lsm6dso16is.c ****     ret = LSM6DSO16IS_OK;
 644:Drivers/BSP/Components/lsm6dso16is/lsm6dso16is.c ****   }
 645:Drivers/BSP/Components/lsm6dso16is/lsm6dso16is.c ****   else
 646:Drivers/BSP/Components/lsm6dso16is/lsm6dso16is.c ****   {
 647:Drivers/BSP/Components/lsm6dso16is/lsm6dso16is.c ****     /* Output data rate selection. */
 648:Drivers/BSP/Components/lsm6dso16is/lsm6dso16is.c ****     if (lsm6dso16is_gy_data_rate_set(&(pObj->Ctx), pObj->gyro_odr) != LSM6DSO16IS_OK)
 649:Drivers/BSP/Components/lsm6dso16is/lsm6dso16is.c ****     {
 650:Drivers/BSP/Components/lsm6dso16is/lsm6dso16is.c ****       ret = LSM6DSO16IS_ERROR;
 651:Drivers/BSP/Components/lsm6dso16is/lsm6dso16is.c ****     }
 652:Drivers/BSP/Components/lsm6dso16is/lsm6dso16is.c **** 
ARM GAS  C:\Users\Nathan\AppData\Local\Temp\ccdIxQaW.s 			page 14


 653:Drivers/BSP/Components/lsm6dso16is/lsm6dso16is.c ****     pObj->gyro_is_enabled = 1;
 654:Drivers/BSP/Components/lsm6dso16is/lsm6dso16is.c ****   }
 655:Drivers/BSP/Components/lsm6dso16is/lsm6dso16is.c **** 
 656:Drivers/BSP/Components/lsm6dso16is/lsm6dso16is.c ****   return ret;
 657:Drivers/BSP/Components/lsm6dso16is/lsm6dso16is.c **** }
 658:Drivers/BSP/Components/lsm6dso16is/lsm6dso16is.c **** 
 659:Drivers/BSP/Components/lsm6dso16is/lsm6dso16is.c **** /**
 660:Drivers/BSP/Components/lsm6dso16is/lsm6dso16is.c ****   * @brief  Disable the LSM6DSO16IS gyroscope sensor
 661:Drivers/BSP/Components/lsm6dso16is/lsm6dso16is.c ****   * @param  pObj the device pObj
 662:Drivers/BSP/Components/lsm6dso16is/lsm6dso16is.c ****   * @retval 0 in case of success, an error code otherwise
 663:Drivers/BSP/Components/lsm6dso16is/lsm6dso16is.c ****   */
 664:Drivers/BSP/Components/lsm6dso16is/lsm6dso16is.c **** int32_t LSM6DSO16IS_GYRO_Disable(LSM6DSO16IS_Object_t *pObj)
 665:Drivers/BSP/Components/lsm6dso16is/lsm6dso16is.c **** {
 666:Drivers/BSP/Components/lsm6dso16is/lsm6dso16is.c ****   int32_t ret = LSM6DSO16IS_OK;
 667:Drivers/BSP/Components/lsm6dso16is/lsm6dso16is.c **** 
 668:Drivers/BSP/Components/lsm6dso16is/lsm6dso16is.c ****   /* Check if the component is already disabled */
 669:Drivers/BSP/Components/lsm6dso16is/lsm6dso16is.c ****   if (pObj->gyro_is_enabled == 0U)
 670:Drivers/BSP/Components/lsm6dso16is/lsm6dso16is.c ****   {
 671:Drivers/BSP/Components/lsm6dso16is/lsm6dso16is.c ****     ret = LSM6DSO16IS_OK;
 672:Drivers/BSP/Components/lsm6dso16is/lsm6dso16is.c ****   }
 673:Drivers/BSP/Components/lsm6dso16is/lsm6dso16is.c ****   else
 674:Drivers/BSP/Components/lsm6dso16is/lsm6dso16is.c ****   {
 675:Drivers/BSP/Components/lsm6dso16is/lsm6dso16is.c ****     /* Get current output data rate. */
 676:Drivers/BSP/Components/lsm6dso16is/lsm6dso16is.c ****     if (lsm6dso16is_gy_data_rate_get(&(pObj->Ctx), &pObj->gyro_odr) != LSM6DSO16IS_OK)
 677:Drivers/BSP/Components/lsm6dso16is/lsm6dso16is.c ****     {
 678:Drivers/BSP/Components/lsm6dso16is/lsm6dso16is.c ****       ret = LSM6DSO16IS_ERROR;
 679:Drivers/BSP/Components/lsm6dso16is/lsm6dso16is.c ****     }
 680:Drivers/BSP/Components/lsm6dso16is/lsm6dso16is.c **** 
 681:Drivers/BSP/Components/lsm6dso16is/lsm6dso16is.c ****     /* Output data rate selection - power down. */
 682:Drivers/BSP/Components/lsm6dso16is/lsm6dso16is.c ****     if (lsm6dso16is_gy_data_rate_set(&(pObj->Ctx), LSM6DSO16IS_GY_ODR_OFF) != LSM6DSO16IS_OK)
 683:Drivers/BSP/Components/lsm6dso16is/lsm6dso16is.c ****     {
 684:Drivers/BSP/Components/lsm6dso16is/lsm6dso16is.c ****       ret = LSM6DSO16IS_ERROR;
 685:Drivers/BSP/Components/lsm6dso16is/lsm6dso16is.c ****     }
 686:Drivers/BSP/Components/lsm6dso16is/lsm6dso16is.c **** 
 687:Drivers/BSP/Components/lsm6dso16is/lsm6dso16is.c ****     pObj->gyro_is_enabled = 0;
 688:Drivers/BSP/Components/lsm6dso16is/lsm6dso16is.c ****   }
 689:Drivers/BSP/Components/lsm6dso16is/lsm6dso16is.c **** 
 690:Drivers/BSP/Components/lsm6dso16is/lsm6dso16is.c ****   return ret;
 691:Drivers/BSP/Components/lsm6dso16is/lsm6dso16is.c **** }
 692:Drivers/BSP/Components/lsm6dso16is/lsm6dso16is.c **** 
 693:Drivers/BSP/Components/lsm6dso16is/lsm6dso16is.c **** /**
 694:Drivers/BSP/Components/lsm6dso16is/lsm6dso16is.c ****   * @brief  Get the LSM6DSO16IS gyroscope sensor sensitivity
 695:Drivers/BSP/Components/lsm6dso16is/lsm6dso16is.c ****   * @param  pObj the device pObj
 696:Drivers/BSP/Components/lsm6dso16is/lsm6dso16is.c ****   * @param  Sensitivity pointer
 697:Drivers/BSP/Components/lsm6dso16is/lsm6dso16is.c ****   * @retval 0 in case of success, an error code otherwise
 698:Drivers/BSP/Components/lsm6dso16is/lsm6dso16is.c ****   */
 699:Drivers/BSP/Components/lsm6dso16is/lsm6dso16is.c **** int32_t LSM6DSO16IS_GYRO_GetSensitivity(LSM6DSO16IS_Object_t *pObj, float_t *Sensitivity)
 700:Drivers/BSP/Components/lsm6dso16is/lsm6dso16is.c **** {
 701:Drivers/BSP/Components/lsm6dso16is/lsm6dso16is.c ****   int32_t ret = LSM6DSO16IS_OK;
 702:Drivers/BSP/Components/lsm6dso16is/lsm6dso16is.c ****   lsm6dso16is_gy_full_scale_t full_scale;
 703:Drivers/BSP/Components/lsm6dso16is/lsm6dso16is.c **** 
 704:Drivers/BSP/Components/lsm6dso16is/lsm6dso16is.c ****   /* Read actual full scale selection from sensor. */
 705:Drivers/BSP/Components/lsm6dso16is/lsm6dso16is.c ****   if (lsm6dso16is_gy_full_scale_get(&(pObj->Ctx), &full_scale) != LSM6DSO16IS_OK)
 706:Drivers/BSP/Components/lsm6dso16is/lsm6dso16is.c ****   {
 707:Drivers/BSP/Components/lsm6dso16is/lsm6dso16is.c ****     ret = LSM6DSO16IS_ERROR;
 708:Drivers/BSP/Components/lsm6dso16is/lsm6dso16is.c ****   }
 709:Drivers/BSP/Components/lsm6dso16is/lsm6dso16is.c **** 
ARM GAS  C:\Users\Nathan\AppData\Local\Temp\ccdIxQaW.s 			page 15


 710:Drivers/BSP/Components/lsm6dso16is/lsm6dso16is.c ****   /* Store the sensitivity based on actual full scale. */
 711:Drivers/BSP/Components/lsm6dso16is/lsm6dso16is.c ****   switch (full_scale)
 712:Drivers/BSP/Components/lsm6dso16is/lsm6dso16is.c ****   {
 713:Drivers/BSP/Components/lsm6dso16is/lsm6dso16is.c ****     case LSM6DSO16IS_125dps:
 714:Drivers/BSP/Components/lsm6dso16is/lsm6dso16is.c ****       *Sensitivity = LSM6DSO16IS_GYRO_SENSITIVITY_FS_125DPS;
 715:Drivers/BSP/Components/lsm6dso16is/lsm6dso16is.c ****       break;
 716:Drivers/BSP/Components/lsm6dso16is/lsm6dso16is.c **** 
 717:Drivers/BSP/Components/lsm6dso16is/lsm6dso16is.c ****     case LSM6DSO16IS_250dps:
 718:Drivers/BSP/Components/lsm6dso16is/lsm6dso16is.c ****       *Sensitivity = LSM6DSO16IS_GYRO_SENSITIVITY_FS_250DPS;
 719:Drivers/BSP/Components/lsm6dso16is/lsm6dso16is.c ****       break;
 720:Drivers/BSP/Components/lsm6dso16is/lsm6dso16is.c **** 
 721:Drivers/BSP/Components/lsm6dso16is/lsm6dso16is.c ****     case LSM6DSO16IS_500dps:
 722:Drivers/BSP/Components/lsm6dso16is/lsm6dso16is.c ****       *Sensitivity = LSM6DSO16IS_GYRO_SENSITIVITY_FS_500DPS;
 723:Drivers/BSP/Components/lsm6dso16is/lsm6dso16is.c ****       break;
 724:Drivers/BSP/Components/lsm6dso16is/lsm6dso16is.c **** 
 725:Drivers/BSP/Components/lsm6dso16is/lsm6dso16is.c ****     case LSM6DSO16IS_1000dps:
 726:Drivers/BSP/Components/lsm6dso16is/lsm6dso16is.c ****       *Sensitivity = LSM6DSO16IS_GYRO_SENSITIVITY_FS_1000DPS;
 727:Drivers/BSP/Components/lsm6dso16is/lsm6dso16is.c ****       break;
 728:Drivers/BSP/Components/lsm6dso16is/lsm6dso16is.c **** 
 729:Drivers/BSP/Components/lsm6dso16is/lsm6dso16is.c ****     case LSM6DSO16IS_2000dps:
 730:Drivers/BSP/Components/lsm6dso16is/lsm6dso16is.c ****       *Sensitivity = LSM6DSO16IS_GYRO_SENSITIVITY_FS_2000DPS;
 731:Drivers/BSP/Components/lsm6dso16is/lsm6dso16is.c ****       break;
 732:Drivers/BSP/Components/lsm6dso16is/lsm6dso16is.c **** 
 733:Drivers/BSP/Components/lsm6dso16is/lsm6dso16is.c ****     default:
 734:Drivers/BSP/Components/lsm6dso16is/lsm6dso16is.c ****       ret = LSM6DSO16IS_ERROR;
 735:Drivers/BSP/Components/lsm6dso16is/lsm6dso16is.c ****       break;
 736:Drivers/BSP/Components/lsm6dso16is/lsm6dso16is.c ****   }
 737:Drivers/BSP/Components/lsm6dso16is/lsm6dso16is.c **** 
 738:Drivers/BSP/Components/lsm6dso16is/lsm6dso16is.c ****   return ret;
 739:Drivers/BSP/Components/lsm6dso16is/lsm6dso16is.c **** }
 740:Drivers/BSP/Components/lsm6dso16is/lsm6dso16is.c **** 
 741:Drivers/BSP/Components/lsm6dso16is/lsm6dso16is.c **** /**
 742:Drivers/BSP/Components/lsm6dso16is/lsm6dso16is.c ****   * @brief  Get the LSM6DSO16IS gyroscope sensor output data rate
 743:Drivers/BSP/Components/lsm6dso16is/lsm6dso16is.c ****   * @param  pObj the device pObj
 744:Drivers/BSP/Components/lsm6dso16is/lsm6dso16is.c ****   * @param  Odr pointer where the output data rate is written
 745:Drivers/BSP/Components/lsm6dso16is/lsm6dso16is.c ****   * @retval 0 in case of success, an error code otherwise
 746:Drivers/BSP/Components/lsm6dso16is/lsm6dso16is.c ****   */
 747:Drivers/BSP/Components/lsm6dso16is/lsm6dso16is.c **** int32_t LSM6DSO16IS_GYRO_GetOutputDataRate(LSM6DSO16IS_Object_t *pObj, float_t *Odr)
 748:Drivers/BSP/Components/lsm6dso16is/lsm6dso16is.c **** {
 749:Drivers/BSP/Components/lsm6dso16is/lsm6dso16is.c ****   int32_t ret = LSM6DSO16IS_OK;
 750:Drivers/BSP/Components/lsm6dso16is/lsm6dso16is.c ****   lsm6dso16is_gy_data_rate_t odr_low_level;
 751:Drivers/BSP/Components/lsm6dso16is/lsm6dso16is.c **** 
 752:Drivers/BSP/Components/lsm6dso16is/lsm6dso16is.c ****   /* Get current output data rate. */
 753:Drivers/BSP/Components/lsm6dso16is/lsm6dso16is.c ****   if (lsm6dso16is_gy_data_rate_get(&(pObj->Ctx), &odr_low_level) != LSM6DSO16IS_OK)
 754:Drivers/BSP/Components/lsm6dso16is/lsm6dso16is.c ****   {
 755:Drivers/BSP/Components/lsm6dso16is/lsm6dso16is.c ****     ret = LSM6DSO16IS_ERROR;
 756:Drivers/BSP/Components/lsm6dso16is/lsm6dso16is.c ****   }
 757:Drivers/BSP/Components/lsm6dso16is/lsm6dso16is.c **** 
 758:Drivers/BSP/Components/lsm6dso16is/lsm6dso16is.c ****   switch (odr_low_level)
 759:Drivers/BSP/Components/lsm6dso16is/lsm6dso16is.c ****   {
 760:Drivers/BSP/Components/lsm6dso16is/lsm6dso16is.c ****     case LSM6DSO16IS_GY_ODR_OFF:
 761:Drivers/BSP/Components/lsm6dso16is/lsm6dso16is.c ****       *Odr = 0.0f;
 762:Drivers/BSP/Components/lsm6dso16is/lsm6dso16is.c ****       break;
 763:Drivers/BSP/Components/lsm6dso16is/lsm6dso16is.c **** 
 764:Drivers/BSP/Components/lsm6dso16is/lsm6dso16is.c ****     case LSM6DSO16IS_GY_ODR_AT_12Hz5_LP:
 765:Drivers/BSP/Components/lsm6dso16is/lsm6dso16is.c ****     case LSM6DSO16IS_GY_ODR_AT_12Hz5_HP:
 766:Drivers/BSP/Components/lsm6dso16is/lsm6dso16is.c ****       *Odr = 12.5f;
ARM GAS  C:\Users\Nathan\AppData\Local\Temp\ccdIxQaW.s 			page 16


 767:Drivers/BSP/Components/lsm6dso16is/lsm6dso16is.c ****       break;
 768:Drivers/BSP/Components/lsm6dso16is/lsm6dso16is.c **** 
 769:Drivers/BSP/Components/lsm6dso16is/lsm6dso16is.c ****     case LSM6DSO16IS_GY_ODR_AT_26H_LP:
 770:Drivers/BSP/Components/lsm6dso16is/lsm6dso16is.c ****     case LSM6DSO16IS_GY_ODR_AT_26H_HP:
 771:Drivers/BSP/Components/lsm6dso16is/lsm6dso16is.c ****       *Odr = 26.0f;
 772:Drivers/BSP/Components/lsm6dso16is/lsm6dso16is.c ****       break;
 773:Drivers/BSP/Components/lsm6dso16is/lsm6dso16is.c **** 
 774:Drivers/BSP/Components/lsm6dso16is/lsm6dso16is.c ****     case LSM6DSO16IS_GY_ODR_AT_52Hz_LP:
 775:Drivers/BSP/Components/lsm6dso16is/lsm6dso16is.c ****     case LSM6DSO16IS_GY_ODR_AT_52Hz_HP:
 776:Drivers/BSP/Components/lsm6dso16is/lsm6dso16is.c ****       *Odr = 52.0f;
 777:Drivers/BSP/Components/lsm6dso16is/lsm6dso16is.c ****       break;
 778:Drivers/BSP/Components/lsm6dso16is/lsm6dso16is.c **** 
 779:Drivers/BSP/Components/lsm6dso16is/lsm6dso16is.c ****     case LSM6DSO16IS_GY_ODR_AT_104Hz_LP:
 780:Drivers/BSP/Components/lsm6dso16is/lsm6dso16is.c ****     case LSM6DSO16IS_GY_ODR_AT_104Hz_HP:
 781:Drivers/BSP/Components/lsm6dso16is/lsm6dso16is.c ****       *Odr = 104.0f;
 782:Drivers/BSP/Components/lsm6dso16is/lsm6dso16is.c ****       break;
 783:Drivers/BSP/Components/lsm6dso16is/lsm6dso16is.c **** 
 784:Drivers/BSP/Components/lsm6dso16is/lsm6dso16is.c ****     case LSM6DSO16IS_GY_ODR_AT_208Hz_LP:
 785:Drivers/BSP/Components/lsm6dso16is/lsm6dso16is.c ****     case LSM6DSO16IS_GY_ODR_AT_208Hz_HP:
 786:Drivers/BSP/Components/lsm6dso16is/lsm6dso16is.c ****       *Odr = 208.0f;
 787:Drivers/BSP/Components/lsm6dso16is/lsm6dso16is.c ****       break;
 788:Drivers/BSP/Components/lsm6dso16is/lsm6dso16is.c **** 
 789:Drivers/BSP/Components/lsm6dso16is/lsm6dso16is.c ****     case LSM6DSO16IS_GY_ODR_AT_416Hz_LP:
 790:Drivers/BSP/Components/lsm6dso16is/lsm6dso16is.c ****     case LSM6DSO16IS_GY_ODR_AT_416Hz_HP:
 791:Drivers/BSP/Components/lsm6dso16is/lsm6dso16is.c ****       *Odr = 416.0f;
 792:Drivers/BSP/Components/lsm6dso16is/lsm6dso16is.c ****       break;
 793:Drivers/BSP/Components/lsm6dso16is/lsm6dso16is.c **** 
 794:Drivers/BSP/Components/lsm6dso16is/lsm6dso16is.c ****     case LSM6DSO16IS_GY_ODR_AT_833Hz_LP:
 795:Drivers/BSP/Components/lsm6dso16is/lsm6dso16is.c ****     case LSM6DSO16IS_GY_ODR_AT_833Hz_HP:
 796:Drivers/BSP/Components/lsm6dso16is/lsm6dso16is.c ****       *Odr = 833.0f;
 797:Drivers/BSP/Components/lsm6dso16is/lsm6dso16is.c ****       break;
 798:Drivers/BSP/Components/lsm6dso16is/lsm6dso16is.c **** 
 799:Drivers/BSP/Components/lsm6dso16is/lsm6dso16is.c ****     case LSM6DSO16IS_GY_ODR_AT_1667Hz_LP:
 800:Drivers/BSP/Components/lsm6dso16is/lsm6dso16is.c ****     case LSM6DSO16IS_GY_ODR_AT_1667Hz_HP:
 801:Drivers/BSP/Components/lsm6dso16is/lsm6dso16is.c ****       *Odr =  1667.0f;
 802:Drivers/BSP/Components/lsm6dso16is/lsm6dso16is.c ****       break;
 803:Drivers/BSP/Components/lsm6dso16is/lsm6dso16is.c **** 
 804:Drivers/BSP/Components/lsm6dso16is/lsm6dso16is.c ****     case LSM6DSO16IS_GY_ODR_AT_3333Hz_LP:
 805:Drivers/BSP/Components/lsm6dso16is/lsm6dso16is.c ****     case LSM6DSO16IS_GY_ODR_AT_3333Hz_HP:
 806:Drivers/BSP/Components/lsm6dso16is/lsm6dso16is.c ****       *Odr =  3333.0f;
 807:Drivers/BSP/Components/lsm6dso16is/lsm6dso16is.c ****       break;
 808:Drivers/BSP/Components/lsm6dso16is/lsm6dso16is.c **** 
 809:Drivers/BSP/Components/lsm6dso16is/lsm6dso16is.c ****     case LSM6DSO16IS_GY_ODR_AT_6667Hz_LP:
 810:Drivers/BSP/Components/lsm6dso16is/lsm6dso16is.c ****     case LSM6DSO16IS_GY_ODR_AT_6667Hz_HP:
 811:Drivers/BSP/Components/lsm6dso16is/lsm6dso16is.c ****       *Odr =  6667.0f;
 812:Drivers/BSP/Components/lsm6dso16is/lsm6dso16is.c ****       break;
 813:Drivers/BSP/Components/lsm6dso16is/lsm6dso16is.c **** 
 814:Drivers/BSP/Components/lsm6dso16is/lsm6dso16is.c ****     default:
 815:Drivers/BSP/Components/lsm6dso16is/lsm6dso16is.c ****       ret = LSM6DSO16IS_ERROR;
 816:Drivers/BSP/Components/lsm6dso16is/lsm6dso16is.c ****       break;
 817:Drivers/BSP/Components/lsm6dso16is/lsm6dso16is.c ****   }
 818:Drivers/BSP/Components/lsm6dso16is/lsm6dso16is.c **** 
 819:Drivers/BSP/Components/lsm6dso16is/lsm6dso16is.c ****   return ret;
 820:Drivers/BSP/Components/lsm6dso16is/lsm6dso16is.c **** }
 821:Drivers/BSP/Components/lsm6dso16is/lsm6dso16is.c **** 
 822:Drivers/BSP/Components/lsm6dso16is/lsm6dso16is.c **** /**
 823:Drivers/BSP/Components/lsm6dso16is/lsm6dso16is.c ****   * @brief  Set the LSM6DSO16IS gyroscope sensor output data rate
ARM GAS  C:\Users\Nathan\AppData\Local\Temp\ccdIxQaW.s 			page 17


 824:Drivers/BSP/Components/lsm6dso16is/lsm6dso16is.c ****   * @param  pObj the device pObj
 825:Drivers/BSP/Components/lsm6dso16is/lsm6dso16is.c ****   * @param  Odr the output data rate value to be set
 826:Drivers/BSP/Components/lsm6dso16is/lsm6dso16is.c ****   * @retval 0 in case of success, an error code otherwise
 827:Drivers/BSP/Components/lsm6dso16is/lsm6dso16is.c ****   */
 828:Drivers/BSP/Components/lsm6dso16is/lsm6dso16is.c **** int32_t LSM6DSO16IS_GYRO_SetOutputDataRate(LSM6DSO16IS_Object_t *pObj, float_t Odr)
 829:Drivers/BSP/Components/lsm6dso16is/lsm6dso16is.c **** {
 830:Drivers/BSP/Components/lsm6dso16is/lsm6dso16is.c ****   int32_t ret;
 831:Drivers/BSP/Components/lsm6dso16is/lsm6dso16is.c **** 
 832:Drivers/BSP/Components/lsm6dso16is/lsm6dso16is.c ****   /* Check if the component is enabled */
 833:Drivers/BSP/Components/lsm6dso16is/lsm6dso16is.c ****   if (pObj->gyro_is_enabled == 1U)
 834:Drivers/BSP/Components/lsm6dso16is/lsm6dso16is.c ****   {
 835:Drivers/BSP/Components/lsm6dso16is/lsm6dso16is.c ****     ret = LSM6DSO16IS_GYRO_SetOutputDataRate_When_Enabled(pObj, Odr);
 836:Drivers/BSP/Components/lsm6dso16is/lsm6dso16is.c ****   }
 837:Drivers/BSP/Components/lsm6dso16is/lsm6dso16is.c ****   else
 838:Drivers/BSP/Components/lsm6dso16is/lsm6dso16is.c ****   {
 839:Drivers/BSP/Components/lsm6dso16is/lsm6dso16is.c ****     ret = LSM6DSO16IS_GYRO_SetOutputDataRate_When_Disabled(pObj, Odr);
 840:Drivers/BSP/Components/lsm6dso16is/lsm6dso16is.c ****   }
 841:Drivers/BSP/Components/lsm6dso16is/lsm6dso16is.c **** 
 842:Drivers/BSP/Components/lsm6dso16is/lsm6dso16is.c ****   return ret;
 843:Drivers/BSP/Components/lsm6dso16is/lsm6dso16is.c **** }
 844:Drivers/BSP/Components/lsm6dso16is/lsm6dso16is.c **** 
 845:Drivers/BSP/Components/lsm6dso16is/lsm6dso16is.c **** /**
 846:Drivers/BSP/Components/lsm6dso16is/lsm6dso16is.c ****   * @brief  Get the LSM6DSO16IS gyroscope sensor full scale
 847:Drivers/BSP/Components/lsm6dso16is/lsm6dso16is.c ****   * @param  pObj the device pObj
 848:Drivers/BSP/Components/lsm6dso16is/lsm6dso16is.c ****   * @param  FullScale pointer where the full scale is written
 849:Drivers/BSP/Components/lsm6dso16is/lsm6dso16is.c ****   * @retval 0 in case of success, an error code otherwise
 850:Drivers/BSP/Components/lsm6dso16is/lsm6dso16is.c ****   */
 851:Drivers/BSP/Components/lsm6dso16is/lsm6dso16is.c **** int32_t LSM6DSO16IS_GYRO_GetFullScale(LSM6DSO16IS_Object_t *pObj, int32_t  *FullScale)
 852:Drivers/BSP/Components/lsm6dso16is/lsm6dso16is.c **** {
 853:Drivers/BSP/Components/lsm6dso16is/lsm6dso16is.c ****   int32_t ret = LSM6DSO16IS_OK;
 854:Drivers/BSP/Components/lsm6dso16is/lsm6dso16is.c ****   lsm6dso16is_gy_full_scale_t fs_low_level;
 855:Drivers/BSP/Components/lsm6dso16is/lsm6dso16is.c **** 
 856:Drivers/BSP/Components/lsm6dso16is/lsm6dso16is.c ****   /* Read actual full scale selection from sensor. */
 857:Drivers/BSP/Components/lsm6dso16is/lsm6dso16is.c ****   if (lsm6dso16is_gy_full_scale_get(&(pObj->Ctx), &fs_low_level) != LSM6DSO16IS_OK)
 858:Drivers/BSP/Components/lsm6dso16is/lsm6dso16is.c ****   {
 859:Drivers/BSP/Components/lsm6dso16is/lsm6dso16is.c ****     ret = LSM6DSO16IS_ERROR;
 860:Drivers/BSP/Components/lsm6dso16is/lsm6dso16is.c ****   }
 861:Drivers/BSP/Components/lsm6dso16is/lsm6dso16is.c **** 
 862:Drivers/BSP/Components/lsm6dso16is/lsm6dso16is.c ****   switch (fs_low_level)
 863:Drivers/BSP/Components/lsm6dso16is/lsm6dso16is.c ****   {
 864:Drivers/BSP/Components/lsm6dso16is/lsm6dso16is.c ****     case LSM6DSO16IS_125dps:
 865:Drivers/BSP/Components/lsm6dso16is/lsm6dso16is.c ****       *FullScale =  125;
 866:Drivers/BSP/Components/lsm6dso16is/lsm6dso16is.c ****       break;
 867:Drivers/BSP/Components/lsm6dso16is/lsm6dso16is.c **** 
 868:Drivers/BSP/Components/lsm6dso16is/lsm6dso16is.c ****     case LSM6DSO16IS_250dps:
 869:Drivers/BSP/Components/lsm6dso16is/lsm6dso16is.c ****       *FullScale =  250;
 870:Drivers/BSP/Components/lsm6dso16is/lsm6dso16is.c ****       break;
 871:Drivers/BSP/Components/lsm6dso16is/lsm6dso16is.c **** 
 872:Drivers/BSP/Components/lsm6dso16is/lsm6dso16is.c ****     case LSM6DSO16IS_500dps:
 873:Drivers/BSP/Components/lsm6dso16is/lsm6dso16is.c ****       *FullScale =  500;
 874:Drivers/BSP/Components/lsm6dso16is/lsm6dso16is.c ****       break;
 875:Drivers/BSP/Components/lsm6dso16is/lsm6dso16is.c **** 
 876:Drivers/BSP/Components/lsm6dso16is/lsm6dso16is.c ****     case LSM6DSO16IS_1000dps:
 877:Drivers/BSP/Components/lsm6dso16is/lsm6dso16is.c ****       *FullScale = 1000;
 878:Drivers/BSP/Components/lsm6dso16is/lsm6dso16is.c ****       break;
 879:Drivers/BSP/Components/lsm6dso16is/lsm6dso16is.c **** 
 880:Drivers/BSP/Components/lsm6dso16is/lsm6dso16is.c ****     case LSM6DSO16IS_2000dps:
ARM GAS  C:\Users\Nathan\AppData\Local\Temp\ccdIxQaW.s 			page 18


 881:Drivers/BSP/Components/lsm6dso16is/lsm6dso16is.c ****       *FullScale = 2000;
 882:Drivers/BSP/Components/lsm6dso16is/lsm6dso16is.c ****       break;
 883:Drivers/BSP/Components/lsm6dso16is/lsm6dso16is.c **** 
 884:Drivers/BSP/Components/lsm6dso16is/lsm6dso16is.c ****     default:
 885:Drivers/BSP/Components/lsm6dso16is/lsm6dso16is.c ****       ret = LSM6DSO16IS_ERROR;
 886:Drivers/BSP/Components/lsm6dso16is/lsm6dso16is.c ****       break;
 887:Drivers/BSP/Components/lsm6dso16is/lsm6dso16is.c ****   }
 888:Drivers/BSP/Components/lsm6dso16is/lsm6dso16is.c **** 
 889:Drivers/BSP/Components/lsm6dso16is/lsm6dso16is.c ****   return ret;
 890:Drivers/BSP/Components/lsm6dso16is/lsm6dso16is.c **** }
 891:Drivers/BSP/Components/lsm6dso16is/lsm6dso16is.c **** 
 892:Drivers/BSP/Components/lsm6dso16is/lsm6dso16is.c **** /**
 893:Drivers/BSP/Components/lsm6dso16is/lsm6dso16is.c ****   * @brief  Set the LSM6DSO16IS gyroscope sensor full scale
 894:Drivers/BSP/Components/lsm6dso16is/lsm6dso16is.c ****   * @param  pObj the device pObj
 895:Drivers/BSP/Components/lsm6dso16is/lsm6dso16is.c ****   * @param  FullScale the functional full scale to be set
 896:Drivers/BSP/Components/lsm6dso16is/lsm6dso16is.c ****   * @retval 0 in case of success, an error code otherwise
 897:Drivers/BSP/Components/lsm6dso16is/lsm6dso16is.c ****   */
 898:Drivers/BSP/Components/lsm6dso16is/lsm6dso16is.c **** int32_t LSM6DSO16IS_GYRO_SetFullScale(LSM6DSO16IS_Object_t *pObj, int32_t FullScale)
 899:Drivers/BSP/Components/lsm6dso16is/lsm6dso16is.c **** {
 900:Drivers/BSP/Components/lsm6dso16is/lsm6dso16is.c ****   int32_t ret = LSM6DSO16IS_OK;
 901:Drivers/BSP/Components/lsm6dso16is/lsm6dso16is.c ****   lsm6dso16is_gy_full_scale_t new_fs;
 902:Drivers/BSP/Components/lsm6dso16is/lsm6dso16is.c **** 
 903:Drivers/BSP/Components/lsm6dso16is/lsm6dso16is.c ****   new_fs = (FullScale <= 125)  ? LSM6DSO16IS_125dps
 904:Drivers/BSP/Components/lsm6dso16is/lsm6dso16is.c ****            : (FullScale <= 250)  ? LSM6DSO16IS_250dps
 905:Drivers/BSP/Components/lsm6dso16is/lsm6dso16is.c ****            : (FullScale <= 500)  ? LSM6DSO16IS_500dps
 906:Drivers/BSP/Components/lsm6dso16is/lsm6dso16is.c ****            : (FullScale <= 1000) ? LSM6DSO16IS_1000dps
 907:Drivers/BSP/Components/lsm6dso16is/lsm6dso16is.c ****            :                       LSM6DSO16IS_2000dps;
 908:Drivers/BSP/Components/lsm6dso16is/lsm6dso16is.c **** 
 909:Drivers/BSP/Components/lsm6dso16is/lsm6dso16is.c ****   if (lsm6dso16is_gy_full_scale_set(&(pObj->Ctx), new_fs) != LSM6DSO16IS_OK)
 910:Drivers/BSP/Components/lsm6dso16is/lsm6dso16is.c ****   {
 911:Drivers/BSP/Components/lsm6dso16is/lsm6dso16is.c ****     ret = LSM6DSO16IS_ERROR;
 912:Drivers/BSP/Components/lsm6dso16is/lsm6dso16is.c ****   }
 913:Drivers/BSP/Components/lsm6dso16is/lsm6dso16is.c **** 
 914:Drivers/BSP/Components/lsm6dso16is/lsm6dso16is.c ****   return ret;
 915:Drivers/BSP/Components/lsm6dso16is/lsm6dso16is.c **** }
 916:Drivers/BSP/Components/lsm6dso16is/lsm6dso16is.c **** 
 917:Drivers/BSP/Components/lsm6dso16is/lsm6dso16is.c **** /**
 918:Drivers/BSP/Components/lsm6dso16is/lsm6dso16is.c ****   * @brief  Get the LSM6DSO16IS gyroscope sensor raw axes
 919:Drivers/BSP/Components/lsm6dso16is/lsm6dso16is.c ****   * @param  pObj the device pObj
 920:Drivers/BSP/Components/lsm6dso16is/lsm6dso16is.c ****   * @param  Value pointer where the raw values of the axes are written
 921:Drivers/BSP/Components/lsm6dso16is/lsm6dso16is.c ****   * @retval 0 in case of success, an error code otherwise
 922:Drivers/BSP/Components/lsm6dso16is/lsm6dso16is.c ****   */
 923:Drivers/BSP/Components/lsm6dso16is/lsm6dso16is.c **** int32_t LSM6DSO16IS_GYRO_GetAxesRaw(LSM6DSO16IS_Object_t *pObj, LSM6DSO16IS_AxesRaw_t *Value)
 924:Drivers/BSP/Components/lsm6dso16is/lsm6dso16is.c **** {
 925:Drivers/BSP/Components/lsm6dso16is/lsm6dso16is.c ****   int32_t ret = LSM6DSO16IS_OK;
 926:Drivers/BSP/Components/lsm6dso16is/lsm6dso16is.c ****   int16_t data_raw[3];
 927:Drivers/BSP/Components/lsm6dso16is/lsm6dso16is.c **** 
 928:Drivers/BSP/Components/lsm6dso16is/lsm6dso16is.c ****   /* Read raw data values. */
 929:Drivers/BSP/Components/lsm6dso16is/lsm6dso16is.c ****   if (lsm6dso16is_angular_rate_raw_get(&(pObj->Ctx), data_raw) != LSM6DSO16IS_OK)
 930:Drivers/BSP/Components/lsm6dso16is/lsm6dso16is.c ****   {
 931:Drivers/BSP/Components/lsm6dso16is/lsm6dso16is.c ****     ret = LSM6DSO16IS_ERROR;
 932:Drivers/BSP/Components/lsm6dso16is/lsm6dso16is.c ****   }
 933:Drivers/BSP/Components/lsm6dso16is/lsm6dso16is.c **** 
 934:Drivers/BSP/Components/lsm6dso16is/lsm6dso16is.c ****   /* Format the data. */
 935:Drivers/BSP/Components/lsm6dso16is/lsm6dso16is.c ****   Value->x = data_raw[0];
 936:Drivers/BSP/Components/lsm6dso16is/lsm6dso16is.c ****   Value->y = data_raw[1];
 937:Drivers/BSP/Components/lsm6dso16is/lsm6dso16is.c ****   Value->z = data_raw[2];
ARM GAS  C:\Users\Nathan\AppData\Local\Temp\ccdIxQaW.s 			page 19


 938:Drivers/BSP/Components/lsm6dso16is/lsm6dso16is.c **** 
 939:Drivers/BSP/Components/lsm6dso16is/lsm6dso16is.c ****   return ret;
 940:Drivers/BSP/Components/lsm6dso16is/lsm6dso16is.c **** }
 941:Drivers/BSP/Components/lsm6dso16is/lsm6dso16is.c **** 
 942:Drivers/BSP/Components/lsm6dso16is/lsm6dso16is.c **** /**
 943:Drivers/BSP/Components/lsm6dso16is/lsm6dso16is.c ****   * @brief  Get the LSM6DSO16IS gyroscope sensor axes
 944:Drivers/BSP/Components/lsm6dso16is/lsm6dso16is.c ****   * @param  pObj the device pObj
 945:Drivers/BSP/Components/lsm6dso16is/lsm6dso16is.c ****   * @param  AngularRate pointer where the values of the axes are written
 946:Drivers/BSP/Components/lsm6dso16is/lsm6dso16is.c ****   * @retval 0 in case of success, an error code otherwise
 947:Drivers/BSP/Components/lsm6dso16is/lsm6dso16is.c ****   */
 948:Drivers/BSP/Components/lsm6dso16is/lsm6dso16is.c **** int32_t LSM6DSO16IS_GYRO_GetAxes(LSM6DSO16IS_Object_t *pObj, LSM6DSO16IS_Axes_t *AngularRate)
 949:Drivers/BSP/Components/lsm6dso16is/lsm6dso16is.c **** {
 950:Drivers/BSP/Components/lsm6dso16is/lsm6dso16is.c ****   int32_t ret = LSM6DSO16IS_OK;
 951:Drivers/BSP/Components/lsm6dso16is/lsm6dso16is.c ****   int16_t data_raw[3];
 952:Drivers/BSP/Components/lsm6dso16is/lsm6dso16is.c ****   float_t sensitivity = 0.0f;
 953:Drivers/BSP/Components/lsm6dso16is/lsm6dso16is.c **** 
 954:Drivers/BSP/Components/lsm6dso16is/lsm6dso16is.c ****   /* Read raw data values. */
 955:Drivers/BSP/Components/lsm6dso16is/lsm6dso16is.c ****   if (lsm6dso16is_angular_rate_raw_get(&(pObj->Ctx), data_raw) != LSM6DSO16IS_OK)
 956:Drivers/BSP/Components/lsm6dso16is/lsm6dso16is.c ****   {
 957:Drivers/BSP/Components/lsm6dso16is/lsm6dso16is.c ****     ret = LSM6DSO16IS_ERROR;
 958:Drivers/BSP/Components/lsm6dso16is/lsm6dso16is.c ****   }
 959:Drivers/BSP/Components/lsm6dso16is/lsm6dso16is.c **** 
 960:Drivers/BSP/Components/lsm6dso16is/lsm6dso16is.c ****   /* Get LSM6DSO16IS actual sensitivity. */
 961:Drivers/BSP/Components/lsm6dso16is/lsm6dso16is.c ****   if (LSM6DSO16IS_GYRO_GetSensitivity(pObj, &sensitivity) != LSM6DSO16IS_OK)
 962:Drivers/BSP/Components/lsm6dso16is/lsm6dso16is.c ****   {
 963:Drivers/BSP/Components/lsm6dso16is/lsm6dso16is.c ****     ret = LSM6DSO16IS_ERROR;
 964:Drivers/BSP/Components/lsm6dso16is/lsm6dso16is.c ****   }
 965:Drivers/BSP/Components/lsm6dso16is/lsm6dso16is.c **** 
 966:Drivers/BSP/Components/lsm6dso16is/lsm6dso16is.c ****   /* Calculate the data. */
 967:Drivers/BSP/Components/lsm6dso16is/lsm6dso16is.c ****   AngularRate->x = (int32_t)((float_t)((float_t)data_raw[0] * sensitivity));
 968:Drivers/BSP/Components/lsm6dso16is/lsm6dso16is.c ****   AngularRate->y = (int32_t)((float_t)((float_t)data_raw[1] * sensitivity));
 969:Drivers/BSP/Components/lsm6dso16is/lsm6dso16is.c ****   AngularRate->z = (int32_t)((float_t)((float_t)data_raw[2] * sensitivity));
 970:Drivers/BSP/Components/lsm6dso16is/lsm6dso16is.c **** 
 971:Drivers/BSP/Components/lsm6dso16is/lsm6dso16is.c ****   return ret;
 972:Drivers/BSP/Components/lsm6dso16is/lsm6dso16is.c **** }
 973:Drivers/BSP/Components/lsm6dso16is/lsm6dso16is.c **** 
 974:Drivers/BSP/Components/lsm6dso16is/lsm6dso16is.c **** /**
 975:Drivers/BSP/Components/lsm6dso16is/lsm6dso16is.c ****   * @brief  Get the LSM6DSO16IS register value
 976:Drivers/BSP/Components/lsm6dso16is/lsm6dso16is.c ****   * @param  pObj the device pObj
 977:Drivers/BSP/Components/lsm6dso16is/lsm6dso16is.c ****   * @param  Reg address to be read
 978:Drivers/BSP/Components/lsm6dso16is/lsm6dso16is.c ****   * @param  Data pointer where the value is written
 979:Drivers/BSP/Components/lsm6dso16is/lsm6dso16is.c ****   * @retval 0 in case of success, an error code otherwise
 980:Drivers/BSP/Components/lsm6dso16is/lsm6dso16is.c ****   */
 981:Drivers/BSP/Components/lsm6dso16is/lsm6dso16is.c **** int32_t LSM6DSO16IS_Read_Reg(LSM6DSO16IS_Object_t *pObj, uint8_t Reg, uint8_t *Data)
 982:Drivers/BSP/Components/lsm6dso16is/lsm6dso16is.c **** {
 983:Drivers/BSP/Components/lsm6dso16is/lsm6dso16is.c ****   int32_t ret = LSM6DSO16IS_OK;
 984:Drivers/BSP/Components/lsm6dso16is/lsm6dso16is.c **** 
 985:Drivers/BSP/Components/lsm6dso16is/lsm6dso16is.c ****   if (lsm6dso16is_read_reg(&(pObj->Ctx), Reg, Data, 1) != LSM6DSO16IS_OK)
 986:Drivers/BSP/Components/lsm6dso16is/lsm6dso16is.c ****   {
 987:Drivers/BSP/Components/lsm6dso16is/lsm6dso16is.c ****     ret = LSM6DSO16IS_ERROR;
 988:Drivers/BSP/Components/lsm6dso16is/lsm6dso16is.c ****   }
 989:Drivers/BSP/Components/lsm6dso16is/lsm6dso16is.c **** 
 990:Drivers/BSP/Components/lsm6dso16is/lsm6dso16is.c ****   return ret;
 991:Drivers/BSP/Components/lsm6dso16is/lsm6dso16is.c **** }
 992:Drivers/BSP/Components/lsm6dso16is/lsm6dso16is.c **** 
 993:Drivers/BSP/Components/lsm6dso16is/lsm6dso16is.c **** /**
 994:Drivers/BSP/Components/lsm6dso16is/lsm6dso16is.c ****   * @brief  Set the LSM6DSO16IS register value
ARM GAS  C:\Users\Nathan\AppData\Local\Temp\ccdIxQaW.s 			page 20


 995:Drivers/BSP/Components/lsm6dso16is/lsm6dso16is.c ****   * @param  pObj the device pObj
 996:Drivers/BSP/Components/lsm6dso16is/lsm6dso16is.c ****   * @param  Reg address to be written
 997:Drivers/BSP/Components/lsm6dso16is/lsm6dso16is.c ****   * @param  Data value to be written
 998:Drivers/BSP/Components/lsm6dso16is/lsm6dso16is.c ****   * @retval 0 in case of success, an error code otherwise
 999:Drivers/BSP/Components/lsm6dso16is/lsm6dso16is.c ****   */
1000:Drivers/BSP/Components/lsm6dso16is/lsm6dso16is.c **** int32_t LSM6DSO16IS_Write_Reg(LSM6DSO16IS_Object_t *pObj, uint8_t Reg, uint8_t Data)
1001:Drivers/BSP/Components/lsm6dso16is/lsm6dso16is.c **** {
1002:Drivers/BSP/Components/lsm6dso16is/lsm6dso16is.c ****   int32_t ret = LSM6DSO16IS_OK;
1003:Drivers/BSP/Components/lsm6dso16is/lsm6dso16is.c **** 
1004:Drivers/BSP/Components/lsm6dso16is/lsm6dso16is.c ****   if (lsm6dso16is_write_reg(&(pObj->Ctx), Reg, &Data, 1) != LSM6DSO16IS_OK)
1005:Drivers/BSP/Components/lsm6dso16is/lsm6dso16is.c ****   {
1006:Drivers/BSP/Components/lsm6dso16is/lsm6dso16is.c ****     ret = LSM6DSO16IS_ERROR;
1007:Drivers/BSP/Components/lsm6dso16is/lsm6dso16is.c ****   }
1008:Drivers/BSP/Components/lsm6dso16is/lsm6dso16is.c **** 
1009:Drivers/BSP/Components/lsm6dso16is/lsm6dso16is.c ****   return ret;
1010:Drivers/BSP/Components/lsm6dso16is/lsm6dso16is.c **** }
1011:Drivers/BSP/Components/lsm6dso16is/lsm6dso16is.c **** 
1012:Drivers/BSP/Components/lsm6dso16is/lsm6dso16is.c **** /**
1013:Drivers/BSP/Components/lsm6dso16is/lsm6dso16is.c ****   * @brief  Set self test
1014:Drivers/BSP/Components/lsm6dso16is/lsm6dso16is.c ****   * @param  pObj the device pObj
1015:Drivers/BSP/Components/lsm6dso16is/lsm6dso16is.c ****   * @param  Val the value of st_xl in reg CTRL5_C
1016:Drivers/BSP/Components/lsm6dso16is/lsm6dso16is.c ****   * @retval 0 in case of success, an error code otherwise
1017:Drivers/BSP/Components/lsm6dso16is/lsm6dso16is.c ****   */
1018:Drivers/BSP/Components/lsm6dso16is/lsm6dso16is.c **** int32_t LSM6DSO16IS_ACC_Set_SelfTest(LSM6DSO16IS_Object_t *pObj, uint8_t Val)
1019:Drivers/BSP/Components/lsm6dso16is/lsm6dso16is.c **** {
1020:Drivers/BSP/Components/lsm6dso16is/lsm6dso16is.c ****   int32_t ret = LSM6DSO16IS_OK;
1021:Drivers/BSP/Components/lsm6dso16is/lsm6dso16is.c ****   lsm6dso16is_xl_self_test_t reg;
1022:Drivers/BSP/Components/lsm6dso16is/lsm6dso16is.c **** 
1023:Drivers/BSP/Components/lsm6dso16is/lsm6dso16is.c ****   reg = (Val == 1U)  ? LSM6DSO16IS_XL_ST_POSITIVE
1024:Drivers/BSP/Components/lsm6dso16is/lsm6dso16is.c ****         : (Val == 2U)  ? LSM6DSO16IS_XL_ST_NEGATIVE
1025:Drivers/BSP/Components/lsm6dso16is/lsm6dso16is.c ****         :                LSM6DSO16IS_XL_ST_DISABLE;
1026:Drivers/BSP/Components/lsm6dso16is/lsm6dso16is.c **** 
1027:Drivers/BSP/Components/lsm6dso16is/lsm6dso16is.c ****   if (lsm6dso16is_xl_self_test_set(&(pObj->Ctx), reg) != LSM6DSO16IS_OK)
1028:Drivers/BSP/Components/lsm6dso16is/lsm6dso16is.c ****   {
1029:Drivers/BSP/Components/lsm6dso16is/lsm6dso16is.c ****     ret = LSM6DSO16IS_ERROR;
1030:Drivers/BSP/Components/lsm6dso16is/lsm6dso16is.c ****   }
1031:Drivers/BSP/Components/lsm6dso16is/lsm6dso16is.c **** 
1032:Drivers/BSP/Components/lsm6dso16is/lsm6dso16is.c ****   return ret;
1033:Drivers/BSP/Components/lsm6dso16is/lsm6dso16is.c **** }
1034:Drivers/BSP/Components/lsm6dso16is/lsm6dso16is.c **** 
1035:Drivers/BSP/Components/lsm6dso16is/lsm6dso16is.c **** /**
1036:Drivers/BSP/Components/lsm6dso16is/lsm6dso16is.c ****   * @brief  Get the LSM6DSO16IS ACC data ready bit value
1037:Drivers/BSP/Components/lsm6dso16is/lsm6dso16is.c ****   * @param  pObj the device pObj
1038:Drivers/BSP/Components/lsm6dso16is/lsm6dso16is.c ****   * @param  Status the status of data ready bit
1039:Drivers/BSP/Components/lsm6dso16is/lsm6dso16is.c ****   * @retval 0 in case of success, an error code otherwise
1040:Drivers/BSP/Components/lsm6dso16is/lsm6dso16is.c ****   */
1041:Drivers/BSP/Components/lsm6dso16is/lsm6dso16is.c **** int32_t LSM6DSO16IS_ACC_Get_DRDY_Status(LSM6DSO16IS_Object_t *pObj, uint8_t *Status)
1042:Drivers/BSP/Components/lsm6dso16is/lsm6dso16is.c **** {
1043:Drivers/BSP/Components/lsm6dso16is/lsm6dso16is.c ****   int32_t ret = LSM6DSO16IS_OK;
1044:Drivers/BSP/Components/lsm6dso16is/lsm6dso16is.c **** 
1045:Drivers/BSP/Components/lsm6dso16is/lsm6dso16is.c ****   if (lsm6dso16is_xl_flag_data_ready_get(&(pObj->Ctx), Status) != LSM6DSO16IS_OK)
1046:Drivers/BSP/Components/lsm6dso16is/lsm6dso16is.c ****   {
1047:Drivers/BSP/Components/lsm6dso16is/lsm6dso16is.c ****     ret = LSM6DSO16IS_ERROR;
1048:Drivers/BSP/Components/lsm6dso16is/lsm6dso16is.c ****   }
1049:Drivers/BSP/Components/lsm6dso16is/lsm6dso16is.c **** 
1050:Drivers/BSP/Components/lsm6dso16is/lsm6dso16is.c ****   return ret;
1051:Drivers/BSP/Components/lsm6dso16is/lsm6dso16is.c **** }
ARM GAS  C:\Users\Nathan\AppData\Local\Temp\ccdIxQaW.s 			page 21


1052:Drivers/BSP/Components/lsm6dso16is/lsm6dso16is.c **** 
1053:Drivers/BSP/Components/lsm6dso16is/lsm6dso16is.c **** /**
1054:Drivers/BSP/Components/lsm6dso16is/lsm6dso16is.c ****   * @brief  Get the LSM6DSO16IS ACC initialization status
1055:Drivers/BSP/Components/lsm6dso16is/lsm6dso16is.c ****   * @param  pObj the device pObj
1056:Drivers/BSP/Components/lsm6dso16is/lsm6dso16is.c ****   * @param  Status 1 if initialized, 0 otherwise
1057:Drivers/BSP/Components/lsm6dso16is/lsm6dso16is.c ****   * @retval 0 in case of success, an error code otherwise
1058:Drivers/BSP/Components/lsm6dso16is/lsm6dso16is.c ****   */
1059:Drivers/BSP/Components/lsm6dso16is/lsm6dso16is.c **** int32_t LSM6DSO16IS_ACC_Get_Init_Status(LSM6DSO16IS_Object_t *pObj, uint8_t *Status)
1060:Drivers/BSP/Components/lsm6dso16is/lsm6dso16is.c **** {
1061:Drivers/BSP/Components/lsm6dso16is/lsm6dso16is.c ****   int32_t ret = LSM6DSO16IS_OK;
1062:Drivers/BSP/Components/lsm6dso16is/lsm6dso16is.c **** 
1063:Drivers/BSP/Components/lsm6dso16is/lsm6dso16is.c ****   if (pObj == NULL)
1064:Drivers/BSP/Components/lsm6dso16is/lsm6dso16is.c ****   {
1065:Drivers/BSP/Components/lsm6dso16is/lsm6dso16is.c ****     ret = LSM6DSO16IS_ERROR;
1066:Drivers/BSP/Components/lsm6dso16is/lsm6dso16is.c ****   }
1067:Drivers/BSP/Components/lsm6dso16is/lsm6dso16is.c **** 
1068:Drivers/BSP/Components/lsm6dso16is/lsm6dso16is.c ****   *Status = pObj->is_initialized;
1069:Drivers/BSP/Components/lsm6dso16is/lsm6dso16is.c **** 
1070:Drivers/BSP/Components/lsm6dso16is/lsm6dso16is.c ****   return ret;
1071:Drivers/BSP/Components/lsm6dso16is/lsm6dso16is.c **** }
1072:Drivers/BSP/Components/lsm6dso16is/lsm6dso16is.c **** 
1073:Drivers/BSP/Components/lsm6dso16is/lsm6dso16is.c **** /**
1074:Drivers/BSP/Components/lsm6dso16is/lsm6dso16is.c ****   * @brief  Set DRDY on INT1
1075:Drivers/BSP/Components/lsm6dso16is/lsm6dso16is.c ****   * @param  pObj the device pObj
1076:Drivers/BSP/Components/lsm6dso16is/lsm6dso16is.c ****   * @param  Val the value of int1_drdy_xl in reg INT1_CTRL
1077:Drivers/BSP/Components/lsm6dso16is/lsm6dso16is.c ****   * @retval 0 in case of success, an error code otherwise
1078:Drivers/BSP/Components/lsm6dso16is/lsm6dso16is.c ****   */
1079:Drivers/BSP/Components/lsm6dso16is/lsm6dso16is.c **** int32_t LSM6DSO16IS_ACC_Set_INT1_DRDY(LSM6DSO16IS_Object_t *pObj, uint8_t Val)
1080:Drivers/BSP/Components/lsm6dso16is/lsm6dso16is.c **** {
1081:Drivers/BSP/Components/lsm6dso16is/lsm6dso16is.c ****   int32_t ret = LSM6DSO16IS_OK;
1082:Drivers/BSP/Components/lsm6dso16is/lsm6dso16is.c ****   lsm6dso16is_pin_int1_route_t reg;
1083:Drivers/BSP/Components/lsm6dso16is/lsm6dso16is.c **** 
1084:Drivers/BSP/Components/lsm6dso16is/lsm6dso16is.c ****   if (lsm6dso16is_pin_int1_route_get(&(pObj->Ctx), &reg) != LSM6DSO16IS_OK)
1085:Drivers/BSP/Components/lsm6dso16is/lsm6dso16is.c ****   {
1086:Drivers/BSP/Components/lsm6dso16is/lsm6dso16is.c ****     ret = LSM6DSO16IS_ERROR;
1087:Drivers/BSP/Components/lsm6dso16is/lsm6dso16is.c ****   }
1088:Drivers/BSP/Components/lsm6dso16is/lsm6dso16is.c **** 
1089:Drivers/BSP/Components/lsm6dso16is/lsm6dso16is.c ****   if (Val <= 1U)
1090:Drivers/BSP/Components/lsm6dso16is/lsm6dso16is.c ****   {
1091:Drivers/BSP/Components/lsm6dso16is/lsm6dso16is.c ****     reg.drdy_xl = Val;
1092:Drivers/BSP/Components/lsm6dso16is/lsm6dso16is.c ****   }
1093:Drivers/BSP/Components/lsm6dso16is/lsm6dso16is.c ****   else
1094:Drivers/BSP/Components/lsm6dso16is/lsm6dso16is.c ****   {
1095:Drivers/BSP/Components/lsm6dso16is/lsm6dso16is.c ****     ret = LSM6DSO16IS_ERROR;
1096:Drivers/BSP/Components/lsm6dso16is/lsm6dso16is.c ****   }
1097:Drivers/BSP/Components/lsm6dso16is/lsm6dso16is.c **** 
1098:Drivers/BSP/Components/lsm6dso16is/lsm6dso16is.c ****   if (lsm6dso16is_pin_int1_route_set(&(pObj->Ctx), reg) != LSM6DSO16IS_OK)
1099:Drivers/BSP/Components/lsm6dso16is/lsm6dso16is.c ****   {
1100:Drivers/BSP/Components/lsm6dso16is/lsm6dso16is.c ****     ret = LSM6DSO16IS_ERROR;
1101:Drivers/BSP/Components/lsm6dso16is/lsm6dso16is.c ****   }
1102:Drivers/BSP/Components/lsm6dso16is/lsm6dso16is.c **** 
1103:Drivers/BSP/Components/lsm6dso16is/lsm6dso16is.c ****   return ret;
1104:Drivers/BSP/Components/lsm6dso16is/lsm6dso16is.c **** }
1105:Drivers/BSP/Components/lsm6dso16is/lsm6dso16is.c **** 
1106:Drivers/BSP/Components/lsm6dso16is/lsm6dso16is.c **** /**
1107:Drivers/BSP/Components/lsm6dso16is/lsm6dso16is.c ****   * @brief  Set self test
1108:Drivers/BSP/Components/lsm6dso16is/lsm6dso16is.c ****   * @param  pObj the device pObj
ARM GAS  C:\Users\Nathan\AppData\Local\Temp\ccdIxQaW.s 			page 22


1109:Drivers/BSP/Components/lsm6dso16is/lsm6dso16is.c ****   * @param  Val the value of st_xl in reg CTRL5_C
1110:Drivers/BSP/Components/lsm6dso16is/lsm6dso16is.c ****   * @retval 0 in case of success, an error code otherwise
1111:Drivers/BSP/Components/lsm6dso16is/lsm6dso16is.c ****   */
1112:Drivers/BSP/Components/lsm6dso16is/lsm6dso16is.c **** int32_t LSM6DSO16IS_GYRO_Set_SelfTest(LSM6DSO16IS_Object_t *pObj, uint8_t Val)
1113:Drivers/BSP/Components/lsm6dso16is/lsm6dso16is.c **** {
1114:Drivers/BSP/Components/lsm6dso16is/lsm6dso16is.c ****   int32_t ret = LSM6DSO16IS_OK;
1115:Drivers/BSP/Components/lsm6dso16is/lsm6dso16is.c ****   lsm6dso16is_gy_self_test_t reg;
1116:Drivers/BSP/Components/lsm6dso16is/lsm6dso16is.c **** 
1117:Drivers/BSP/Components/lsm6dso16is/lsm6dso16is.c ****   reg = (Val == 1U)  ? LSM6DSO16IS_GY_ST_POSITIVE
1118:Drivers/BSP/Components/lsm6dso16is/lsm6dso16is.c ****         : (Val == 2U)  ? LSM6DSO16IS_GY_ST_NEGATIVE
1119:Drivers/BSP/Components/lsm6dso16is/lsm6dso16is.c ****         :                LSM6DSO16IS_GY_ST_DISABLE;
1120:Drivers/BSP/Components/lsm6dso16is/lsm6dso16is.c **** 
1121:Drivers/BSP/Components/lsm6dso16is/lsm6dso16is.c **** 
1122:Drivers/BSP/Components/lsm6dso16is/lsm6dso16is.c ****   if (lsm6dso16is_gy_self_test_set(&(pObj->Ctx), reg) != LSM6DSO16IS_OK)
1123:Drivers/BSP/Components/lsm6dso16is/lsm6dso16is.c ****   {
1124:Drivers/BSP/Components/lsm6dso16is/lsm6dso16is.c ****     ret = LSM6DSO16IS_ERROR;
1125:Drivers/BSP/Components/lsm6dso16is/lsm6dso16is.c ****   }
1126:Drivers/BSP/Components/lsm6dso16is/lsm6dso16is.c **** 
1127:Drivers/BSP/Components/lsm6dso16is/lsm6dso16is.c ****   return ret;
1128:Drivers/BSP/Components/lsm6dso16is/lsm6dso16is.c **** }
1129:Drivers/BSP/Components/lsm6dso16is/lsm6dso16is.c **** 
1130:Drivers/BSP/Components/lsm6dso16is/lsm6dso16is.c **** /**
1131:Drivers/BSP/Components/lsm6dso16is/lsm6dso16is.c ****   * @brief  Get the LSM6DSO16IS GYRO data ready bit value
1132:Drivers/BSP/Components/lsm6dso16is/lsm6dso16is.c ****   * @param  pObj the device pObj
1133:Drivers/BSP/Components/lsm6dso16is/lsm6dso16is.c ****   * @param  Status the status of data ready bit
1134:Drivers/BSP/Components/lsm6dso16is/lsm6dso16is.c ****   * @retval 0 in case of success, an error code otherwise
1135:Drivers/BSP/Components/lsm6dso16is/lsm6dso16is.c ****   */
1136:Drivers/BSP/Components/lsm6dso16is/lsm6dso16is.c **** int32_t LSM6DSO16IS_GYRO_Get_DRDY_Status(LSM6DSO16IS_Object_t *pObj, uint8_t *Status)
1137:Drivers/BSP/Components/lsm6dso16is/lsm6dso16is.c **** {
1138:Drivers/BSP/Components/lsm6dso16is/lsm6dso16is.c ****   int32_t ret = LSM6DSO16IS_OK;
1139:Drivers/BSP/Components/lsm6dso16is/lsm6dso16is.c **** 
1140:Drivers/BSP/Components/lsm6dso16is/lsm6dso16is.c ****   if (lsm6dso16is_gy_flag_data_ready_get(&(pObj->Ctx), Status) != LSM6DSO16IS_OK)
1141:Drivers/BSP/Components/lsm6dso16is/lsm6dso16is.c ****   {
1142:Drivers/BSP/Components/lsm6dso16is/lsm6dso16is.c ****     ret = LSM6DSO16IS_ERROR;
1143:Drivers/BSP/Components/lsm6dso16is/lsm6dso16is.c ****   }
1144:Drivers/BSP/Components/lsm6dso16is/lsm6dso16is.c **** 
1145:Drivers/BSP/Components/lsm6dso16is/lsm6dso16is.c ****   return ret;
1146:Drivers/BSP/Components/lsm6dso16is/lsm6dso16is.c **** }
1147:Drivers/BSP/Components/lsm6dso16is/lsm6dso16is.c **** 
1148:Drivers/BSP/Components/lsm6dso16is/lsm6dso16is.c **** /**
1149:Drivers/BSP/Components/lsm6dso16is/lsm6dso16is.c ****   * @brief  Get the LSM6DSO16IS GYRO initialization status
1150:Drivers/BSP/Components/lsm6dso16is/lsm6dso16is.c ****   * @param  pObj the device pObj
1151:Drivers/BSP/Components/lsm6dso16is/lsm6dso16is.c ****   * @param  Status 1 if initialized, 0 otherwise
1152:Drivers/BSP/Components/lsm6dso16is/lsm6dso16is.c ****   * @retval 0 in case of success, an error code otherwise
1153:Drivers/BSP/Components/lsm6dso16is/lsm6dso16is.c ****   */
1154:Drivers/BSP/Components/lsm6dso16is/lsm6dso16is.c **** int32_t LSM6DSO16IS_GYRO_Get_Init_Status(LSM6DSO16IS_Object_t *pObj, uint8_t *Status)
1155:Drivers/BSP/Components/lsm6dso16is/lsm6dso16is.c **** {
1156:Drivers/BSP/Components/lsm6dso16is/lsm6dso16is.c ****   int32_t ret = LSM6DSO16IS_OK;
1157:Drivers/BSP/Components/lsm6dso16is/lsm6dso16is.c **** 
1158:Drivers/BSP/Components/lsm6dso16is/lsm6dso16is.c ****   if (pObj == NULL)
1159:Drivers/BSP/Components/lsm6dso16is/lsm6dso16is.c ****   {
1160:Drivers/BSP/Components/lsm6dso16is/lsm6dso16is.c ****     ret = LSM6DSO16IS_ERROR;
1161:Drivers/BSP/Components/lsm6dso16is/lsm6dso16is.c ****   }
1162:Drivers/BSP/Components/lsm6dso16is/lsm6dso16is.c **** 
1163:Drivers/BSP/Components/lsm6dso16is/lsm6dso16is.c ****   *Status = pObj->is_initialized;
1164:Drivers/BSP/Components/lsm6dso16is/lsm6dso16is.c **** 
1165:Drivers/BSP/Components/lsm6dso16is/lsm6dso16is.c ****   return ret;
ARM GAS  C:\Users\Nathan\AppData\Local\Temp\ccdIxQaW.s 			page 23


1166:Drivers/BSP/Components/lsm6dso16is/lsm6dso16is.c **** }
1167:Drivers/BSP/Components/lsm6dso16is/lsm6dso16is.c **** 
1168:Drivers/BSP/Components/lsm6dso16is/lsm6dso16is.c **** /**
1169:Drivers/BSP/Components/lsm6dso16is/lsm6dso16is.c ****   * @brief  Set DRDY on INT1
1170:Drivers/BSP/Components/lsm6dso16is/lsm6dso16is.c ****   * @param  pObj the device pObj
1171:Drivers/BSP/Components/lsm6dso16is/lsm6dso16is.c ****   * @param  Val the value of int1_drdy_g in reg INT1_CTRL
1172:Drivers/BSP/Components/lsm6dso16is/lsm6dso16is.c ****   * @retval 0 in case of success, an error code otherwise
1173:Drivers/BSP/Components/lsm6dso16is/lsm6dso16is.c ****   */
1174:Drivers/BSP/Components/lsm6dso16is/lsm6dso16is.c **** int32_t LSM6DSO16IS_GYRO_Set_INT1_DRDY(LSM6DSO16IS_Object_t *pObj, uint8_t Val)
1175:Drivers/BSP/Components/lsm6dso16is/lsm6dso16is.c **** {
1176:Drivers/BSP/Components/lsm6dso16is/lsm6dso16is.c ****   int32_t ret = LSM6DSO16IS_OK;
1177:Drivers/BSP/Components/lsm6dso16is/lsm6dso16is.c ****   lsm6dso16is_pin_int1_route_t reg;
1178:Drivers/BSP/Components/lsm6dso16is/lsm6dso16is.c **** 
1179:Drivers/BSP/Components/lsm6dso16is/lsm6dso16is.c ****   if (lsm6dso16is_pin_int1_route_get(&(pObj->Ctx), &reg) != LSM6DSO16IS_OK)
1180:Drivers/BSP/Components/lsm6dso16is/lsm6dso16is.c ****   {
1181:Drivers/BSP/Components/lsm6dso16is/lsm6dso16is.c ****     ret = LSM6DSO16IS_ERROR;
1182:Drivers/BSP/Components/lsm6dso16is/lsm6dso16is.c ****   }
1183:Drivers/BSP/Components/lsm6dso16is/lsm6dso16is.c **** 
1184:Drivers/BSP/Components/lsm6dso16is/lsm6dso16is.c ****   if (Val <= 1U)
1185:Drivers/BSP/Components/lsm6dso16is/lsm6dso16is.c ****   {
1186:Drivers/BSP/Components/lsm6dso16is/lsm6dso16is.c ****     reg.drdy_gy = Val;
1187:Drivers/BSP/Components/lsm6dso16is/lsm6dso16is.c ****   }
1188:Drivers/BSP/Components/lsm6dso16is/lsm6dso16is.c ****   else
1189:Drivers/BSP/Components/lsm6dso16is/lsm6dso16is.c ****   {
1190:Drivers/BSP/Components/lsm6dso16is/lsm6dso16is.c ****     ret = LSM6DSO16IS_ERROR;
1191:Drivers/BSP/Components/lsm6dso16is/lsm6dso16is.c ****   }
1192:Drivers/BSP/Components/lsm6dso16is/lsm6dso16is.c **** 
1193:Drivers/BSP/Components/lsm6dso16is/lsm6dso16is.c ****   if (lsm6dso16is_pin_int1_route_set(&(pObj->Ctx), reg) != LSM6DSO16IS_OK)
1194:Drivers/BSP/Components/lsm6dso16is/lsm6dso16is.c ****   {
1195:Drivers/BSP/Components/lsm6dso16is/lsm6dso16is.c ****     ret = LSM6DSO16IS_ERROR;
1196:Drivers/BSP/Components/lsm6dso16is/lsm6dso16is.c ****   }
1197:Drivers/BSP/Components/lsm6dso16is/lsm6dso16is.c **** 
1198:Drivers/BSP/Components/lsm6dso16is/lsm6dso16is.c ****   return ret;
1199:Drivers/BSP/Components/lsm6dso16is/lsm6dso16is.c **** }
1200:Drivers/BSP/Components/lsm6dso16is/lsm6dso16is.c **** 
1201:Drivers/BSP/Components/lsm6dso16is/lsm6dso16is.c **** /**
1202:Drivers/BSP/Components/lsm6dso16is/lsm6dso16is.c ****   * @brief  Set DRDY mode
1203:Drivers/BSP/Components/lsm6dso16is/lsm6dso16is.c ****   * @param  pObj the device pObj
1204:Drivers/BSP/Components/lsm6dso16is/lsm6dso16is.c ****   * @param  Val the value of drdy_pulsed in reg LSM6DSO16IS_DRDY_PULSE_CFG_G
1205:Drivers/BSP/Components/lsm6dso16is/lsm6dso16is.c ****   * @retval 0 in case of success, an error code otherwise
1206:Drivers/BSP/Components/lsm6dso16is/lsm6dso16is.c ****   */
1207:Drivers/BSP/Components/lsm6dso16is/lsm6dso16is.c **** int32_t LSM6DSO16IS_Set_DRDY_Mode(LSM6DSO16IS_Object_t *pObj, uint8_t Val)
1208:Drivers/BSP/Components/lsm6dso16is/lsm6dso16is.c **** {
1209:Drivers/BSP/Components/lsm6dso16is/lsm6dso16is.c ****   int32_t ret = LSM6DSO16IS_OK;
1210:Drivers/BSP/Components/lsm6dso16is/lsm6dso16is.c ****   lsm6dso16is_data_ready_mode_t reg;
1211:Drivers/BSP/Components/lsm6dso16is/lsm6dso16is.c **** 
1212:Drivers/BSP/Components/lsm6dso16is/lsm6dso16is.c ****   reg = (Val == 0U)  ? LSM6DSO16IS_DRDY_LATCHED
1213:Drivers/BSP/Components/lsm6dso16is/lsm6dso16is.c ****         :                LSM6DSO16IS_DRDY_PULSED;
1214:Drivers/BSP/Components/lsm6dso16is/lsm6dso16is.c **** 
1215:Drivers/BSP/Components/lsm6dso16is/lsm6dso16is.c ****   if (lsm6dso16is_data_ready_mode_set(&(pObj->Ctx), reg) != LSM6DSO16IS_OK)
1216:Drivers/BSP/Components/lsm6dso16is/lsm6dso16is.c ****   {
1217:Drivers/BSP/Components/lsm6dso16is/lsm6dso16is.c ****     ret = LSM6DSO16IS_ERROR;
1218:Drivers/BSP/Components/lsm6dso16is/lsm6dso16is.c ****   }
1219:Drivers/BSP/Components/lsm6dso16is/lsm6dso16is.c **** 
1220:Drivers/BSP/Components/lsm6dso16is/lsm6dso16is.c ****   return ret;
1221:Drivers/BSP/Components/lsm6dso16is/lsm6dso16is.c **** }
1222:Drivers/BSP/Components/lsm6dso16is/lsm6dso16is.c **** 
ARM GAS  C:\Users\Nathan\AppData\Local\Temp\ccdIxQaW.s 			page 24


1223:Drivers/BSP/Components/lsm6dso16is/lsm6dso16is.c **** /**
1224:Drivers/BSP/Components/lsm6dso16is/lsm6dso16is.c ****   * @brief  Set memory bank
1225:Drivers/BSP/Components/lsm6dso16is/lsm6dso16is.c ****   * @param  pObj the device pObj
1226:Drivers/BSP/Components/lsm6dso16is/lsm6dso16is.c ****   * @param  Val the value of memory bank in reg FUNC_CFG_ACCESS
1227:Drivers/BSP/Components/lsm6dso16is/lsm6dso16is.c ****   *         0 - LSM6DSO16IS_MAIN_MEM_BANK, 2 - LSM6DSO16IS_SENSOR_HUB_MEM_BANK, 3 - LSM6DSO16IS_ISP
1228:Drivers/BSP/Components/lsm6dso16is/lsm6dso16is.c ****   * @retval 0 in case of success, an error code otherwise
1229:Drivers/BSP/Components/lsm6dso16is/lsm6dso16is.c ****   */
1230:Drivers/BSP/Components/lsm6dso16is/lsm6dso16is.c **** int32_t LSM6DSO16IS_Set_Mem_Bank(LSM6DSO16IS_Object_t *pObj, uint8_t Val)
1231:Drivers/BSP/Components/lsm6dso16is/lsm6dso16is.c **** {
1232:Drivers/BSP/Components/lsm6dso16is/lsm6dso16is.c ****   int32_t ret = LSM6DSO16IS_OK;
1233:Drivers/BSP/Components/lsm6dso16is/lsm6dso16is.c ****   lsm6dso16is_mem_bank_t reg;
1234:Drivers/BSP/Components/lsm6dso16is/lsm6dso16is.c **** 
1235:Drivers/BSP/Components/lsm6dso16is/lsm6dso16is.c ****   reg = (Val == 2U) ? LSM6DSO16IS_SENSOR_HUB_MEM_BANK
1236:Drivers/BSP/Components/lsm6dso16is/lsm6dso16is.c ****         : (Val == 3U) ? LSM6DSO16IS_ISPU_MEM_BANK
1237:Drivers/BSP/Components/lsm6dso16is/lsm6dso16is.c ****         :               LSM6DSO16IS_MAIN_MEM_BANK;
1238:Drivers/BSP/Components/lsm6dso16is/lsm6dso16is.c **** 
1239:Drivers/BSP/Components/lsm6dso16is/lsm6dso16is.c ****   if (lsm6dso16is_mem_bank_set(&(pObj->Ctx), reg) != LSM6DSO16IS_OK)
1240:Drivers/BSP/Components/lsm6dso16is/lsm6dso16is.c ****   {
1241:Drivers/BSP/Components/lsm6dso16is/lsm6dso16is.c ****     ret = LSM6DSO16IS_ERROR;
1242:Drivers/BSP/Components/lsm6dso16is/lsm6dso16is.c ****   }
1243:Drivers/BSP/Components/lsm6dso16is/lsm6dso16is.c **** 
1244:Drivers/BSP/Components/lsm6dso16is/lsm6dso16is.c ****   return ret;
1245:Drivers/BSP/Components/lsm6dso16is/lsm6dso16is.c **** }
1246:Drivers/BSP/Components/lsm6dso16is/lsm6dso16is.c **** 
1247:Drivers/BSP/Components/lsm6dso16is/lsm6dso16is.c **** /**
1248:Drivers/BSP/Components/lsm6dso16is/lsm6dso16is.c ****   * @}
1249:Drivers/BSP/Components/lsm6dso16is/lsm6dso16is.c ****   */
1250:Drivers/BSP/Components/lsm6dso16is/lsm6dso16is.c **** 
1251:Drivers/BSP/Components/lsm6dso16is/lsm6dso16is.c **** /** @defgroup LSM6DSO16IS_Private_Functions LSM6DSO16IS Private Functions
1252:Drivers/BSP/Components/lsm6dso16is/lsm6dso16is.c ****   * @{
1253:Drivers/BSP/Components/lsm6dso16is/lsm6dso16is.c ****   */
1254:Drivers/BSP/Components/lsm6dso16is/lsm6dso16is.c **** 
1255:Drivers/BSP/Components/lsm6dso16is/lsm6dso16is.c **** /**
1256:Drivers/BSP/Components/lsm6dso16is/lsm6dso16is.c ****   * @brief  Set the LSM6DSO16IS accelerometer sensor output data rate when enabled
1257:Drivers/BSP/Components/lsm6dso16is/lsm6dso16is.c ****   * @param  pObj the device pObj
1258:Drivers/BSP/Components/lsm6dso16is/lsm6dso16is.c ****   * @param  Odr the functional output data rate to be set
1259:Drivers/BSP/Components/lsm6dso16is/lsm6dso16is.c ****   * @retval 0 in case of success, an error code otherwise
1260:Drivers/BSP/Components/lsm6dso16is/lsm6dso16is.c ****   */
1261:Drivers/BSP/Components/lsm6dso16is/lsm6dso16is.c **** static int32_t LSM6DSO16IS_ACC_SetOutputDataRate_When_Enabled(LSM6DSO16IS_Object_t *pObj, float_t O
1262:Drivers/BSP/Components/lsm6dso16is/lsm6dso16is.c **** {
1263:Drivers/BSP/Components/lsm6dso16is/lsm6dso16is.c ****   int32_t ret = LSM6DSO16IS_OK;
1264:Drivers/BSP/Components/lsm6dso16is/lsm6dso16is.c ****   lsm6dso16is_xl_data_rate_t new_odr;
1265:Drivers/BSP/Components/lsm6dso16is/lsm6dso16is.c **** 
1266:Drivers/BSP/Components/lsm6dso16is/lsm6dso16is.c ****   new_odr = (Odr <=   12.5f) ? LSM6DSO16IS_XL_ODR_AT_12Hz5_HP
1267:Drivers/BSP/Components/lsm6dso16is/lsm6dso16is.c ****             : (Odr <=   26.0f) ? LSM6DSO16IS_XL_ODR_AT_26H_HP
1268:Drivers/BSP/Components/lsm6dso16is/lsm6dso16is.c ****             : (Odr <=   52.0f) ? LSM6DSO16IS_XL_ODR_AT_52Hz_HP
1269:Drivers/BSP/Components/lsm6dso16is/lsm6dso16is.c ****             : (Odr <=  104.0f) ? LSM6DSO16IS_XL_ODR_AT_104Hz_HP
1270:Drivers/BSP/Components/lsm6dso16is/lsm6dso16is.c ****             : (Odr <=  208.0f) ? LSM6DSO16IS_XL_ODR_AT_208Hz_HP
1271:Drivers/BSP/Components/lsm6dso16is/lsm6dso16is.c ****             : (Odr <=  416.0f) ? LSM6DSO16IS_XL_ODR_AT_416Hz_HP
1272:Drivers/BSP/Components/lsm6dso16is/lsm6dso16is.c ****             : (Odr <=  833.0f) ? LSM6DSO16IS_XL_ODR_AT_833Hz_HP
1273:Drivers/BSP/Components/lsm6dso16is/lsm6dso16is.c ****             : (Odr <= 1667.0f) ? LSM6DSO16IS_XL_ODR_AT_1667Hz_HP
1274:Drivers/BSP/Components/lsm6dso16is/lsm6dso16is.c ****             : (Odr <= 3333.0f) ? LSM6DSO16IS_XL_ODR_AT_3333Hz_HP
1275:Drivers/BSP/Components/lsm6dso16is/lsm6dso16is.c ****             :                    LSM6DSO16IS_XL_ODR_AT_6667Hz_HP;
1276:Drivers/BSP/Components/lsm6dso16is/lsm6dso16is.c **** 
1277:Drivers/BSP/Components/lsm6dso16is/lsm6dso16is.c ****   /* Output data rate selection. */
1278:Drivers/BSP/Components/lsm6dso16is/lsm6dso16is.c ****   if (lsm6dso16is_xl_data_rate_set(&(pObj->Ctx), new_odr) != LSM6DSO16IS_OK)
1279:Drivers/BSP/Components/lsm6dso16is/lsm6dso16is.c ****   {
ARM GAS  C:\Users\Nathan\AppData\Local\Temp\ccdIxQaW.s 			page 25


1280:Drivers/BSP/Components/lsm6dso16is/lsm6dso16is.c ****     ret = LSM6DSO16IS_ERROR;
1281:Drivers/BSP/Components/lsm6dso16is/lsm6dso16is.c ****   }
1282:Drivers/BSP/Components/lsm6dso16is/lsm6dso16is.c **** 
1283:Drivers/BSP/Components/lsm6dso16is/lsm6dso16is.c ****   return ret;
1284:Drivers/BSP/Components/lsm6dso16is/lsm6dso16is.c **** }
1285:Drivers/BSP/Components/lsm6dso16is/lsm6dso16is.c **** 
1286:Drivers/BSP/Components/lsm6dso16is/lsm6dso16is.c **** /**
1287:Drivers/BSP/Components/lsm6dso16is/lsm6dso16is.c ****   * @brief  Set the LSM6DSO16IS accelerometer sensor output data rate when disabled
1288:Drivers/BSP/Components/lsm6dso16is/lsm6dso16is.c ****   * @param  pObj the device pObj
1289:Drivers/BSP/Components/lsm6dso16is/lsm6dso16is.c ****   * @param  Odr the functional output data rate to be set
1290:Drivers/BSP/Components/lsm6dso16is/lsm6dso16is.c ****   * @retval 0 in case of success, an error code otherwise
1291:Drivers/BSP/Components/lsm6dso16is/lsm6dso16is.c ****   */
1292:Drivers/BSP/Components/lsm6dso16is/lsm6dso16is.c **** static int32_t LSM6DSO16IS_ACC_SetOutputDataRate_When_Disabled(LSM6DSO16IS_Object_t *pObj, float_t 
1293:Drivers/BSP/Components/lsm6dso16is/lsm6dso16is.c **** {
  93              		.loc 1 1293 1 is_stmt 1 view -0
  94              		.cfi_startproc
  95              		@ args = 0, pretend = 0, frame = 0
  96              		@ frame_needed = 0, uses_anonymous_args = 0
  97              		@ link register save eliminated.
1294:Drivers/BSP/Components/lsm6dso16is/lsm6dso16is.c ****   pObj->acc_odr = (Odr <=   12.5f) ? LSM6DSO16IS_XL_ODR_AT_12Hz5_HP
  98              		.loc 1 1294 3 view .LVU26
1295:Drivers/BSP/Components/lsm6dso16is/lsm6dso16is.c ****                   : (Odr <=   26.0f) ? LSM6DSO16IS_XL_ODR_AT_26H_HP
  99              		.loc 1 1295 19 is_stmt 0 view .LVU27
 100 0000 F2EE097A 		vmov.f32	s15, #1.25e+1
 101 0004 B4EEE70A 		vcmpe.f32	s0, s15
 102 0008 F1EE10FA 		vmrs	APSR_nzcv, FPSCR
 103 000c 39D9     		bls	.L7
 104              		.loc 1 1295 19 discriminator 2 view .LVU28
 105 000e F3EE0A7A 		vmov.f32	s15, #2.6e+1
 106 0012 B4EEE70A 		vcmpe.f32	s0, s15
 107 0016 F1EE10FA 		vmrs	APSR_nzcv, FPSCR
 108 001a 37D9     		bls	.L8
 109              		.loc 1 1295 19 discriminator 4 view .LVU29
 110 001c DFED237A 		vldr.32	s15, .L18
 111 0020 B4EEE70A 		vcmpe.f32	s0, s15
 112 0024 F1EE10FA 		vmrs	APSR_nzcv, FPSCR
 113 0028 32D9     		bls	.L9
 114              		.loc 1 1295 19 discriminator 7 view .LVU30
 115 002a DFED217A 		vldr.32	s15, .L18+4
 116 002e B4EEE70A 		vcmpe.f32	s0, s15
 117 0032 F1EE10FA 		vmrs	APSR_nzcv, FPSCR
 118 0036 2DD9     		bls	.L10
 119              		.loc 1 1295 19 discriminator 10 view .LVU31
 120 0038 DFED1E7A 		vldr.32	s15, .L18+8
 121 003c B4EEE70A 		vcmpe.f32	s0, s15
 122 0040 F1EE10FA 		vmrs	APSR_nzcv, FPSCR
 123 0044 28D9     		bls	.L11
 124              		.loc 1 1295 19 discriminator 13 view .LVU32
 125 0046 DFED1C7A 		vldr.32	s15, .L18+12
 126 004a B4EEE70A 		vcmpe.f32	s0, s15
 127 004e F1EE10FA 		vmrs	APSR_nzcv, FPSCR
 128 0052 23D9     		bls	.L12
 129              		.loc 1 1295 19 discriminator 16 view .LVU33
 130 0054 DFED197A 		vldr.32	s15, .L18+16
 131 0058 B4EEE70A 		vcmpe.f32	s0, s15
 132 005c F1EE10FA 		vmrs	APSR_nzcv, FPSCR
 133 0060 1ED9     		bls	.L13
ARM GAS  C:\Users\Nathan\AppData\Local\Temp\ccdIxQaW.s 			page 26


 134              		.loc 1 1295 19 discriminator 19 view .LVU34
 135 0062 DFED177A 		vldr.32	s15, .L18+20
 136 0066 B4EEE70A 		vcmpe.f32	s0, s15
 137 006a F1EE10FA 		vmrs	APSR_nzcv, FPSCR
 138 006e 19D9     		bls	.L14
 139              		.loc 1 1295 19 discriminator 22 view .LVU35
 140 0070 DFED147A 		vldr.32	s15, .L18+24
 141 0074 B4EEE70A 		vcmpe.f32	s0, s15
 142 0078 F1EE10FA 		vmrs	APSR_nzcv, FPSCR
 143 007c 14D8     		bhi	.L17
 144              		.loc 1 1295 19 discriminator 24 view .LVU36
 145 007e 0923     		movs	r3, #9
 146 0080 00E0     		b	.L5
 147              	.L7:
 148              		.loc 1 1295 19 discriminator 1 view .LVU37
 149 0082 0123     		movs	r3, #1
 150              	.L5:
1294:Drivers/BSP/Components/lsm6dso16is/lsm6dso16is.c ****   pObj->acc_odr = (Odr <=   12.5f) ? LSM6DSO16IS_XL_ODR_AT_12Hz5_HP
 151              		.loc 1 1294 17 view .LVU38
 152 0084 80F83330 		strb	r3, [r0, #51]
1296:Drivers/BSP/Components/lsm6dso16is/lsm6dso16is.c ****                   : (Odr <=   52.0f) ? LSM6DSO16IS_XL_ODR_AT_52Hz_HP
1297:Drivers/BSP/Components/lsm6dso16is/lsm6dso16is.c ****                   : (Odr <=  104.0f) ? LSM6DSO16IS_XL_ODR_AT_104Hz_HP
1298:Drivers/BSP/Components/lsm6dso16is/lsm6dso16is.c ****                   : (Odr <=  208.0f) ? LSM6DSO16IS_XL_ODR_AT_208Hz_HP
1299:Drivers/BSP/Components/lsm6dso16is/lsm6dso16is.c ****                   : (Odr <=  416.0f) ? LSM6DSO16IS_XL_ODR_AT_416Hz_HP
1300:Drivers/BSP/Components/lsm6dso16is/lsm6dso16is.c ****                   : (Odr <=  833.0f) ? LSM6DSO16IS_XL_ODR_AT_833Hz_HP
1301:Drivers/BSP/Components/lsm6dso16is/lsm6dso16is.c ****                   : (Odr <= 1667.0f) ? LSM6DSO16IS_XL_ODR_AT_1667Hz_HP
1302:Drivers/BSP/Components/lsm6dso16is/lsm6dso16is.c ****                   : (Odr <= 3333.0f) ? LSM6DSO16IS_XL_ODR_AT_3333Hz_HP
1303:Drivers/BSP/Components/lsm6dso16is/lsm6dso16is.c ****                   :                    LSM6DSO16IS_XL_ODR_AT_6667Hz_HP;
1304:Drivers/BSP/Components/lsm6dso16is/lsm6dso16is.c **** 
1305:Drivers/BSP/Components/lsm6dso16is/lsm6dso16is.c ****   return LSM6DSO16IS_OK;
 153              		.loc 1 1305 3 is_stmt 1 view .LVU39
1306:Drivers/BSP/Components/lsm6dso16is/lsm6dso16is.c **** }
 154              		.loc 1 1306 1 is_stmt 0 view .LVU40
 155 0088 0020     		movs	r0, #0
 156              	.LVL3:
 157              		.loc 1 1306 1 view .LVU41
 158 008a 7047     		bx	lr
 159              	.LVL4:
 160              	.L8:
1295:Drivers/BSP/Components/lsm6dso16is/lsm6dso16is.c ****                   : (Odr <=   26.0f) ? LSM6DSO16IS_XL_ODR_AT_26H_HP
 161              		.loc 1 1295 19 discriminator 3 view .LVU42
 162 008c 0223     		movs	r3, #2
 163 008e F9E7     		b	.L5
 164              	.L9:
1295:Drivers/BSP/Components/lsm6dso16is/lsm6dso16is.c ****                   : (Odr <=   26.0f) ? LSM6DSO16IS_XL_ODR_AT_26H_HP
 165              		.loc 1 1295 19 discriminator 6 view .LVU43
 166 0090 0323     		movs	r3, #3
 167 0092 F7E7     		b	.L5
 168              	.L10:
1295:Drivers/BSP/Components/lsm6dso16is/lsm6dso16is.c ****                   : (Odr <=   26.0f) ? LSM6DSO16IS_XL_ODR_AT_26H_HP
 169              		.loc 1 1295 19 discriminator 9 view .LVU44
 170 0094 0423     		movs	r3, #4
 171 0096 F5E7     		b	.L5
 172              	.L11:
1295:Drivers/BSP/Components/lsm6dso16is/lsm6dso16is.c ****                   : (Odr <=   26.0f) ? LSM6DSO16IS_XL_ODR_AT_26H_HP
 173              		.loc 1 1295 19 discriminator 12 view .LVU45
 174 0098 0523     		movs	r3, #5
ARM GAS  C:\Users\Nathan\AppData\Local\Temp\ccdIxQaW.s 			page 27


 175 009a F3E7     		b	.L5
 176              	.L12:
1295:Drivers/BSP/Components/lsm6dso16is/lsm6dso16is.c ****                   : (Odr <=   26.0f) ? LSM6DSO16IS_XL_ODR_AT_26H_HP
 177              		.loc 1 1295 19 discriminator 15 view .LVU46
 178 009c 0623     		movs	r3, #6
 179 009e F1E7     		b	.L5
 180              	.L13:
1295:Drivers/BSP/Components/lsm6dso16is/lsm6dso16is.c ****                   : (Odr <=   26.0f) ? LSM6DSO16IS_XL_ODR_AT_26H_HP
 181              		.loc 1 1295 19 discriminator 18 view .LVU47
 182 00a0 0723     		movs	r3, #7
 183 00a2 EFE7     		b	.L5
 184              	.L14:
1295:Drivers/BSP/Components/lsm6dso16is/lsm6dso16is.c ****                   : (Odr <=   26.0f) ? LSM6DSO16IS_XL_ODR_AT_26H_HP
 185              		.loc 1 1295 19 discriminator 21 view .LVU48
 186 00a4 0823     		movs	r3, #8
 187 00a6 EDE7     		b	.L5
 188              	.L17:
1295:Drivers/BSP/Components/lsm6dso16is/lsm6dso16is.c ****                   : (Odr <=   26.0f) ? LSM6DSO16IS_XL_ODR_AT_26H_HP
 189              		.loc 1 1295 19 discriminator 25 view .LVU49
 190 00a8 0A23     		movs	r3, #10
 191 00aa EBE7     		b	.L5
 192              	.L19:
 193              		.align	2
 194              	.L18:
 195 00ac 00005042 		.word	1112539136
 196 00b0 0000D042 		.word	1120927744
 197 00b4 00005043 		.word	1129316352
 198 00b8 0000D043 		.word	1137704960
 199 00bc 00405044 		.word	1146109952
 200 00c0 0060D044 		.word	1154506752
 201 00c4 00505045 		.word	1162891264
 202              		.cfi_endproc
 203              	.LFE36:
 205              		.section	.text.LSM6DSO16IS_GYRO_SetOutputDataRate_When_Disabled,"ax",%progbits
 206              		.align	1
 207              		.syntax unified
 208              		.thumb
 209              		.thumb_func
 211              	LSM6DSO16IS_GYRO_SetOutputDataRate_When_Disabled:
 212              	.LVL5:
 213              	.LFB38:
1307:Drivers/BSP/Components/lsm6dso16is/lsm6dso16is.c **** 
1308:Drivers/BSP/Components/lsm6dso16is/lsm6dso16is.c **** /**
1309:Drivers/BSP/Components/lsm6dso16is/lsm6dso16is.c ****   * @brief  Set the LSM6DSO16IS gyroscope sensor output data rate when enabled
1310:Drivers/BSP/Components/lsm6dso16is/lsm6dso16is.c ****   * @param  pObj the device pObj
1311:Drivers/BSP/Components/lsm6dso16is/lsm6dso16is.c ****   * @param  Odr the functional output data rate to be set
1312:Drivers/BSP/Components/lsm6dso16is/lsm6dso16is.c ****   * @retval 0 in case of success, an error code otherwise
1313:Drivers/BSP/Components/lsm6dso16is/lsm6dso16is.c ****   */
1314:Drivers/BSP/Components/lsm6dso16is/lsm6dso16is.c **** static int32_t LSM6DSO16IS_GYRO_SetOutputDataRate_When_Enabled(LSM6DSO16IS_Object_t *pObj, float_t 
1315:Drivers/BSP/Components/lsm6dso16is/lsm6dso16is.c **** {
1316:Drivers/BSP/Components/lsm6dso16is/lsm6dso16is.c ****   int32_t ret = LSM6DSO16IS_OK;
1317:Drivers/BSP/Components/lsm6dso16is/lsm6dso16is.c ****   lsm6dso16is_gy_data_rate_t new_odr;
1318:Drivers/BSP/Components/lsm6dso16is/lsm6dso16is.c **** 
1319:Drivers/BSP/Components/lsm6dso16is/lsm6dso16is.c ****   new_odr = (Odr <=   12.5f) ? LSM6DSO16IS_GY_ODR_AT_12Hz5_HP
1320:Drivers/BSP/Components/lsm6dso16is/lsm6dso16is.c ****             : (Odr <=   26.0f) ? LSM6DSO16IS_GY_ODR_AT_26H_HP
1321:Drivers/BSP/Components/lsm6dso16is/lsm6dso16is.c ****             : (Odr <=   52.0f) ? LSM6DSO16IS_GY_ODR_AT_52Hz_HP
1322:Drivers/BSP/Components/lsm6dso16is/lsm6dso16is.c ****             : (Odr <=  104.0f) ? LSM6DSO16IS_GY_ODR_AT_104Hz_HP
ARM GAS  C:\Users\Nathan\AppData\Local\Temp\ccdIxQaW.s 			page 28


1323:Drivers/BSP/Components/lsm6dso16is/lsm6dso16is.c ****             : (Odr <=  208.0f) ? LSM6DSO16IS_GY_ODR_AT_208Hz_HP
1324:Drivers/BSP/Components/lsm6dso16is/lsm6dso16is.c ****             : (Odr <=  416.0f) ? LSM6DSO16IS_GY_ODR_AT_416Hz_HP
1325:Drivers/BSP/Components/lsm6dso16is/lsm6dso16is.c ****             : (Odr <=  833.0f) ? LSM6DSO16IS_GY_ODR_AT_833Hz_HP
1326:Drivers/BSP/Components/lsm6dso16is/lsm6dso16is.c ****             : (Odr <= 1667.0f) ? LSM6DSO16IS_GY_ODR_AT_1667Hz_HP
1327:Drivers/BSP/Components/lsm6dso16is/lsm6dso16is.c ****             : (Odr <= 3333.0f) ? LSM6DSO16IS_GY_ODR_AT_3333Hz_HP
1328:Drivers/BSP/Components/lsm6dso16is/lsm6dso16is.c ****             :                    LSM6DSO16IS_GY_ODR_AT_6667Hz_HP;
1329:Drivers/BSP/Components/lsm6dso16is/lsm6dso16is.c **** 
1330:Drivers/BSP/Components/lsm6dso16is/lsm6dso16is.c ****   /* Output data rate selection. */
1331:Drivers/BSP/Components/lsm6dso16is/lsm6dso16is.c ****   if (lsm6dso16is_gy_data_rate_set(&(pObj->Ctx), new_odr) != LSM6DSO16IS_OK)
1332:Drivers/BSP/Components/lsm6dso16is/lsm6dso16is.c ****   {
1333:Drivers/BSP/Components/lsm6dso16is/lsm6dso16is.c ****     ret = LSM6DSO16IS_ERROR;
1334:Drivers/BSP/Components/lsm6dso16is/lsm6dso16is.c ****   }
1335:Drivers/BSP/Components/lsm6dso16is/lsm6dso16is.c **** 
1336:Drivers/BSP/Components/lsm6dso16is/lsm6dso16is.c ****   return ret;
1337:Drivers/BSP/Components/lsm6dso16is/lsm6dso16is.c **** }
1338:Drivers/BSP/Components/lsm6dso16is/lsm6dso16is.c **** 
1339:Drivers/BSP/Components/lsm6dso16is/lsm6dso16is.c **** /**
1340:Drivers/BSP/Components/lsm6dso16is/lsm6dso16is.c ****   * @brief  Set the LSM6DSO16IS gyroscope sensor output data rate when disabled
1341:Drivers/BSP/Components/lsm6dso16is/lsm6dso16is.c ****   * @param  pObj the device pObj
1342:Drivers/BSP/Components/lsm6dso16is/lsm6dso16is.c ****   * @param  Odr the functional output data rate to be set
1343:Drivers/BSP/Components/lsm6dso16is/lsm6dso16is.c ****   * @retval 0 in case of success, an error code otherwise
1344:Drivers/BSP/Components/lsm6dso16is/lsm6dso16is.c ****   */
1345:Drivers/BSP/Components/lsm6dso16is/lsm6dso16is.c **** static int32_t LSM6DSO16IS_GYRO_SetOutputDataRate_When_Disabled(LSM6DSO16IS_Object_t *pObj, float_t
1346:Drivers/BSP/Components/lsm6dso16is/lsm6dso16is.c **** {
 214              		.loc 1 1346 1 is_stmt 1 view -0
 215              		.cfi_startproc
 216              		@ args = 0, pretend = 0, frame = 0
 217              		@ frame_needed = 0, uses_anonymous_args = 0
 218              		@ link register save eliminated.
1347:Drivers/BSP/Components/lsm6dso16is/lsm6dso16is.c ****   pObj->gyro_odr = (Odr <=   12.5f) ? LSM6DSO16IS_GY_ODR_AT_12Hz5_HP
 219              		.loc 1 1347 3 view .LVU51
1348:Drivers/BSP/Components/lsm6dso16is/lsm6dso16is.c ****                    : (Odr <=   26.0f) ? LSM6DSO16IS_GY_ODR_AT_26H_HP
 220              		.loc 1 1348 20 is_stmt 0 view .LVU52
 221 0000 F2EE097A 		vmov.f32	s15, #1.25e+1
 222 0004 B4EEE70A 		vcmpe.f32	s0, s15
 223 0008 F1EE10FA 		vmrs	APSR_nzcv, FPSCR
 224 000c 39D9     		bls	.L23
 225              		.loc 1 1348 20 discriminator 2 view .LVU53
 226 000e F3EE0A7A 		vmov.f32	s15, #2.6e+1
 227 0012 B4EEE70A 		vcmpe.f32	s0, s15
 228 0016 F1EE10FA 		vmrs	APSR_nzcv, FPSCR
 229 001a 37D9     		bls	.L24
 230              		.loc 1 1348 20 discriminator 4 view .LVU54
 231 001c DFED237A 		vldr.32	s15, .L34
 232 0020 B4EEE70A 		vcmpe.f32	s0, s15
 233 0024 F1EE10FA 		vmrs	APSR_nzcv, FPSCR
 234 0028 32D9     		bls	.L25
 235              		.loc 1 1348 20 discriminator 7 view .LVU55
 236 002a DFED217A 		vldr.32	s15, .L34+4
 237 002e B4EEE70A 		vcmpe.f32	s0, s15
 238 0032 F1EE10FA 		vmrs	APSR_nzcv, FPSCR
 239 0036 2DD9     		bls	.L26
 240              		.loc 1 1348 20 discriminator 10 view .LVU56
 241 0038 DFED1E7A 		vldr.32	s15, .L34+8
 242 003c B4EEE70A 		vcmpe.f32	s0, s15
 243 0040 F1EE10FA 		vmrs	APSR_nzcv, FPSCR
 244 0044 28D9     		bls	.L27
ARM GAS  C:\Users\Nathan\AppData\Local\Temp\ccdIxQaW.s 			page 29


 245              		.loc 1 1348 20 discriminator 13 view .LVU57
 246 0046 DFED1C7A 		vldr.32	s15, .L34+12
 247 004a B4EEE70A 		vcmpe.f32	s0, s15
 248 004e F1EE10FA 		vmrs	APSR_nzcv, FPSCR
 249 0052 23D9     		bls	.L28
 250              		.loc 1 1348 20 discriminator 16 view .LVU58
 251 0054 DFED197A 		vldr.32	s15, .L34+16
 252 0058 B4EEE70A 		vcmpe.f32	s0, s15
 253 005c F1EE10FA 		vmrs	APSR_nzcv, FPSCR
 254 0060 1ED9     		bls	.L29
 255              		.loc 1 1348 20 discriminator 19 view .LVU59
 256 0062 DFED177A 		vldr.32	s15, .L34+20
 257 0066 B4EEE70A 		vcmpe.f32	s0, s15
 258 006a F1EE10FA 		vmrs	APSR_nzcv, FPSCR
 259 006e 19D9     		bls	.L30
 260              		.loc 1 1348 20 discriminator 22 view .LVU60
 261 0070 DFED147A 		vldr.32	s15, .L34+24
 262 0074 B4EEE70A 		vcmpe.f32	s0, s15
 263 0078 F1EE10FA 		vmrs	APSR_nzcv, FPSCR
 264 007c 14D8     		bhi	.L33
 265              		.loc 1 1348 20 discriminator 24 view .LVU61
 266 007e 0923     		movs	r3, #9
 267 0080 00E0     		b	.L21
 268              	.L23:
 269              		.loc 1 1348 20 discriminator 1 view .LVU62
 270 0082 0123     		movs	r3, #1
 271              	.L21:
1347:Drivers/BSP/Components/lsm6dso16is/lsm6dso16is.c ****   pObj->gyro_odr = (Odr <=   12.5f) ? LSM6DSO16IS_GY_ODR_AT_12Hz5_HP
 272              		.loc 1 1347 18 view .LVU63
 273 0084 80F83430 		strb	r3, [r0, #52]
1349:Drivers/BSP/Components/lsm6dso16is/lsm6dso16is.c ****                    : (Odr <=   52.0f) ? LSM6DSO16IS_GY_ODR_AT_52Hz_HP
1350:Drivers/BSP/Components/lsm6dso16is/lsm6dso16is.c ****                    : (Odr <=  104.0f) ? LSM6DSO16IS_GY_ODR_AT_104Hz_HP
1351:Drivers/BSP/Components/lsm6dso16is/lsm6dso16is.c ****                    : (Odr <=  208.0f) ? LSM6DSO16IS_GY_ODR_AT_208Hz_HP
1352:Drivers/BSP/Components/lsm6dso16is/lsm6dso16is.c ****                    : (Odr <=  416.0f) ? LSM6DSO16IS_GY_ODR_AT_416Hz_HP
1353:Drivers/BSP/Components/lsm6dso16is/lsm6dso16is.c ****                    : (Odr <=  833.0f) ? LSM6DSO16IS_GY_ODR_AT_833Hz_HP
1354:Drivers/BSP/Components/lsm6dso16is/lsm6dso16is.c ****                    : (Odr <= 1667.0f) ? LSM6DSO16IS_GY_ODR_AT_1667Hz_HP
1355:Drivers/BSP/Components/lsm6dso16is/lsm6dso16is.c ****                    : (Odr <= 3333.0f) ? LSM6DSO16IS_GY_ODR_AT_3333Hz_HP
1356:Drivers/BSP/Components/lsm6dso16is/lsm6dso16is.c ****                    :                    LSM6DSO16IS_GY_ODR_AT_6667Hz_HP;
1357:Drivers/BSP/Components/lsm6dso16is/lsm6dso16is.c **** 
1358:Drivers/BSP/Components/lsm6dso16is/lsm6dso16is.c ****   return LSM6DSO16IS_OK;
 274              		.loc 1 1358 3 is_stmt 1 view .LVU64
1359:Drivers/BSP/Components/lsm6dso16is/lsm6dso16is.c **** }
 275              		.loc 1 1359 1 is_stmt 0 view .LVU65
 276 0088 0020     		movs	r0, #0
 277              	.LVL6:
 278              		.loc 1 1359 1 view .LVU66
 279 008a 7047     		bx	lr
 280              	.LVL7:
 281              	.L24:
1348:Drivers/BSP/Components/lsm6dso16is/lsm6dso16is.c ****                    : (Odr <=   26.0f) ? LSM6DSO16IS_GY_ODR_AT_26H_HP
 282              		.loc 1 1348 20 discriminator 3 view .LVU67
 283 008c 0223     		movs	r3, #2
 284 008e F9E7     		b	.L21
 285              	.L25:
1348:Drivers/BSP/Components/lsm6dso16is/lsm6dso16is.c ****                    : (Odr <=   26.0f) ? LSM6DSO16IS_GY_ODR_AT_26H_HP
 286              		.loc 1 1348 20 discriminator 6 view .LVU68
 287 0090 0323     		movs	r3, #3
ARM GAS  C:\Users\Nathan\AppData\Local\Temp\ccdIxQaW.s 			page 30


 288 0092 F7E7     		b	.L21
 289              	.L26:
1348:Drivers/BSP/Components/lsm6dso16is/lsm6dso16is.c ****                    : (Odr <=   26.0f) ? LSM6DSO16IS_GY_ODR_AT_26H_HP
 290              		.loc 1 1348 20 discriminator 9 view .LVU69
 291 0094 0423     		movs	r3, #4
 292 0096 F5E7     		b	.L21
 293              	.L27:
1348:Drivers/BSP/Components/lsm6dso16is/lsm6dso16is.c ****                    : (Odr <=   26.0f) ? LSM6DSO16IS_GY_ODR_AT_26H_HP
 294              		.loc 1 1348 20 discriminator 12 view .LVU70
 295 0098 0523     		movs	r3, #5
 296 009a F3E7     		b	.L21
 297              	.L28:
1348:Drivers/BSP/Components/lsm6dso16is/lsm6dso16is.c ****                    : (Odr <=   26.0f) ? LSM6DSO16IS_GY_ODR_AT_26H_HP
 298              		.loc 1 1348 20 discriminator 15 view .LVU71
 299 009c 0623     		movs	r3, #6
 300 009e F1E7     		b	.L21
 301              	.L29:
1348:Drivers/BSP/Components/lsm6dso16is/lsm6dso16is.c ****                    : (Odr <=   26.0f) ? LSM6DSO16IS_GY_ODR_AT_26H_HP
 302              		.loc 1 1348 20 discriminator 18 view .LVU72
 303 00a0 0723     		movs	r3, #7
 304 00a2 EFE7     		b	.L21
 305              	.L30:
1348:Drivers/BSP/Components/lsm6dso16is/lsm6dso16is.c ****                    : (Odr <=   26.0f) ? LSM6DSO16IS_GY_ODR_AT_26H_HP
 306              		.loc 1 1348 20 discriminator 21 view .LVU73
 307 00a4 0823     		movs	r3, #8
 308 00a6 EDE7     		b	.L21
 309              	.L33:
1348:Drivers/BSP/Components/lsm6dso16is/lsm6dso16is.c ****                    : (Odr <=   26.0f) ? LSM6DSO16IS_GY_ODR_AT_26H_HP
 310              		.loc 1 1348 20 discriminator 25 view .LVU74
 311 00a8 0A23     		movs	r3, #10
 312 00aa EBE7     		b	.L21
 313              	.L35:
 314              		.align	2
 315              	.L34:
 316 00ac 00005042 		.word	1112539136
 317 00b0 0000D042 		.word	1120927744
 318 00b4 00005043 		.word	1129316352
 319 00b8 0000D043 		.word	1137704960
 320 00bc 00405044 		.word	1146109952
 321 00c0 0060D044 		.word	1154506752
 322 00c4 00505045 		.word	1162891264
 323              		.cfi_endproc
 324              	.LFE38:
 326              		.section	.text.ReadRegWrap,"ax",%progbits
 327              		.align	1
 328              		.syntax unified
 329              		.thumb
 330              		.thumb_func
 332              	ReadRegWrap:
 333              	.LVL8:
 334              	.LFB39:
1360:Drivers/BSP/Components/lsm6dso16is/lsm6dso16is.c **** 
1361:Drivers/BSP/Components/lsm6dso16is/lsm6dso16is.c **** /**
1362:Drivers/BSP/Components/lsm6dso16is/lsm6dso16is.c ****   * @brief  Wrap Read register component function to Bus IO function
1363:Drivers/BSP/Components/lsm6dso16is/lsm6dso16is.c ****   * @param  Handle the device handler
1364:Drivers/BSP/Components/lsm6dso16is/lsm6dso16is.c ****   * @param  Reg the register address
1365:Drivers/BSP/Components/lsm6dso16is/lsm6dso16is.c ****   * @param  pData the stored data pointer
ARM GAS  C:\Users\Nathan\AppData\Local\Temp\ccdIxQaW.s 			page 31


1366:Drivers/BSP/Components/lsm6dso16is/lsm6dso16is.c ****   * @param  Length the length
1367:Drivers/BSP/Components/lsm6dso16is/lsm6dso16is.c ****   * @retval 0 in case of success, an error code otherwise
1368:Drivers/BSP/Components/lsm6dso16is/lsm6dso16is.c ****   */
1369:Drivers/BSP/Components/lsm6dso16is/lsm6dso16is.c **** static int32_t ReadRegWrap(void *Handle, uint8_t Reg, uint8_t *pData, uint16_t Length)
1370:Drivers/BSP/Components/lsm6dso16is/lsm6dso16is.c **** {
 335              		.loc 1 1370 1 is_stmt 1 view -0
 336              		.cfi_startproc
 337              		@ args = 0, pretend = 0, frame = 0
 338              		@ frame_needed = 0, uses_anonymous_args = 0
 339              		.loc 1 1370 1 is_stmt 0 view .LVU76
 340 0000 10B5     		push	{r4, lr}
 341              		.cfi_def_cfa_offset 8
 342              		.cfi_offset 4, -8
 343              		.cfi_offset 14, -4
1371:Drivers/BSP/Components/lsm6dso16is/lsm6dso16is.c ****   LSM6DSO16IS_Object_t *pObj = (LSM6DSO16IS_Object_t *)Handle;
 344              		.loc 1 1371 3 is_stmt 1 view .LVU77
 345              	.LVL9:
1372:Drivers/BSP/Components/lsm6dso16is/lsm6dso16is.c **** 
1373:Drivers/BSP/Components/lsm6dso16is/lsm6dso16is.c ****   return pObj->IO.ReadReg(pObj->IO.Address, Reg, pData, Length);
 346              		.loc 1 1373 3 view .LVU78
 347              		.loc 1 1373 18 is_stmt 0 view .LVU79
 348 0002 4469     		ldr	r4, [r0, #20]
 349              		.loc 1 1373 10 view .LVU80
 350 0004 007B     		ldrb	r0, [r0, #12]	@ zero_extendqisi2
 351              	.LVL10:
 352              		.loc 1 1373 10 view .LVU81
 353 0006 A047     		blx	r4
 354              	.LVL11:
1374:Drivers/BSP/Components/lsm6dso16is/lsm6dso16is.c **** }
 355              		.loc 1 1374 1 view .LVU82
 356 0008 10BD     		pop	{r4, pc}
 357              		.cfi_endproc
 358              	.LFE39:
 360              		.section	.text.WriteRegWrap,"ax",%progbits
 361              		.align	1
 362              		.syntax unified
 363              		.thumb
 364              		.thumb_func
 366              	WriteRegWrap:
 367              	.LVL12:
 368              	.LFB40:
1375:Drivers/BSP/Components/lsm6dso16is/lsm6dso16is.c **** 
1376:Drivers/BSP/Components/lsm6dso16is/lsm6dso16is.c **** /**
1377:Drivers/BSP/Components/lsm6dso16is/lsm6dso16is.c ****   * @brief  Wrap Write register component function to Bus IO function
1378:Drivers/BSP/Components/lsm6dso16is/lsm6dso16is.c ****   * @param  Handle the device handler
1379:Drivers/BSP/Components/lsm6dso16is/lsm6dso16is.c ****   * @param  Reg the register address
1380:Drivers/BSP/Components/lsm6dso16is/lsm6dso16is.c ****   * @param  pData the stored data pointer
1381:Drivers/BSP/Components/lsm6dso16is/lsm6dso16is.c ****   * @param  Length the length
1382:Drivers/BSP/Components/lsm6dso16is/lsm6dso16is.c ****   * @retval 0 in case of success, an error code otherwise
1383:Drivers/BSP/Components/lsm6dso16is/lsm6dso16is.c ****   */
1384:Drivers/BSP/Components/lsm6dso16is/lsm6dso16is.c **** static int32_t WriteRegWrap(void *Handle, uint8_t Reg, uint8_t *pData, uint16_t Length)
1385:Drivers/BSP/Components/lsm6dso16is/lsm6dso16is.c **** {
 369              		.loc 1 1385 1 is_stmt 1 view -0
 370              		.cfi_startproc
 371              		@ args = 0, pretend = 0, frame = 0
 372              		@ frame_needed = 0, uses_anonymous_args = 0
 373              		.loc 1 1385 1 is_stmt 0 view .LVU84
ARM GAS  C:\Users\Nathan\AppData\Local\Temp\ccdIxQaW.s 			page 32


 374 0000 10B5     		push	{r4, lr}
 375              		.cfi_def_cfa_offset 8
 376              		.cfi_offset 4, -8
 377              		.cfi_offset 14, -4
1386:Drivers/BSP/Components/lsm6dso16is/lsm6dso16is.c ****   LSM6DSO16IS_Object_t *pObj = (LSM6DSO16IS_Object_t *)Handle;
 378              		.loc 1 1386 3 is_stmt 1 view .LVU85
 379              	.LVL13:
1387:Drivers/BSP/Components/lsm6dso16is/lsm6dso16is.c **** 
1388:Drivers/BSP/Components/lsm6dso16is/lsm6dso16is.c ****   return pObj->IO.WriteReg(pObj->IO.Address, Reg, pData, Length);
 380              		.loc 1 1388 3 view .LVU86
 381              		.loc 1 1388 18 is_stmt 0 view .LVU87
 382 0002 0469     		ldr	r4, [r0, #16]
 383              		.loc 1 1388 10 view .LVU88
 384 0004 007B     		ldrb	r0, [r0, #12]	@ zero_extendqisi2
 385              	.LVL14:
 386              		.loc 1 1388 10 view .LVU89
 387 0006 A047     		blx	r4
 388              	.LVL15:
1389:Drivers/BSP/Components/lsm6dso16is/lsm6dso16is.c **** }
 389              		.loc 1 1389 1 view .LVU90
 390 0008 10BD     		pop	{r4, pc}
 391              		.cfi_endproc
 392              	.LFE40:
 394              		.section	.text.LSM6DSO16IS_ACC_Enable,"ax",%progbits
 395              		.align	1
 396              		.global	LSM6DSO16IS_ACC_Enable
 397              		.syntax unified
 398              		.thumb
 399              		.thumb_func
 401              	LSM6DSO16IS_ACC_Enable:
 402              	.LVL16:
 403              	.LFB5:
 299:Drivers/BSP/Components/lsm6dso16is/lsm6dso16is.c ****   int32_t ret = LSM6DSO16IS_OK;
 404              		.loc 1 299 1 is_stmt 1 view -0
 405              		.cfi_startproc
 406              		@ args = 0, pretend = 0, frame = 0
 407              		@ frame_needed = 0, uses_anonymous_args = 0
 300:Drivers/BSP/Components/lsm6dso16is/lsm6dso16is.c **** 
 408              		.loc 1 300 3 view .LVU92
 303:Drivers/BSP/Components/lsm6dso16is/lsm6dso16is.c ****   {
 409              		.loc 1 303 3 view .LVU93
 303:Drivers/BSP/Components/lsm6dso16is/lsm6dso16is.c ****   {
 410              		.loc 1 303 11 is_stmt 0 view .LVU94
 411 0000 90F83130 		ldrb	r3, [r0, #49]	@ zero_extendqisi2
 303:Drivers/BSP/Components/lsm6dso16is/lsm6dso16is.c ****   {
 412              		.loc 1 303 6 view .LVU95
 413 0004 012B     		cmp	r3, #1
 414 0006 01D1     		bne	.L49
 305:Drivers/BSP/Components/lsm6dso16is/lsm6dso16is.c ****   }
 415              		.loc 1 305 9 view .LVU96
 416 0008 0020     		movs	r0, #0
 417              	.LVL17:
 318:Drivers/BSP/Components/lsm6dso16is/lsm6dso16is.c **** }
 418              		.loc 1 318 3 is_stmt 1 view .LVU97
 319:Drivers/BSP/Components/lsm6dso16is/lsm6dso16is.c **** 
 419              		.loc 1 319 1 is_stmt 0 view .LVU98
 420 000a 7047     		bx	lr
ARM GAS  C:\Users\Nathan\AppData\Local\Temp\ccdIxQaW.s 			page 33


 421              	.LVL18:
 422              	.L49:
 299:Drivers/BSP/Components/lsm6dso16is/lsm6dso16is.c ****   int32_t ret = LSM6DSO16IS_OK;
 423              		.loc 1 299 1 view .LVU99
 424 000c 10B5     		push	{r4, lr}
 425              		.cfi_def_cfa_offset 8
 426              		.cfi_offset 4, -8
 427              		.cfi_offset 14, -4
 428 000e 0446     		mov	r4, r0
 310:Drivers/BSP/Components/lsm6dso16is/lsm6dso16is.c ****     {
 429              		.loc 1 310 5 is_stmt 1 view .LVU100
 310:Drivers/BSP/Components/lsm6dso16is/lsm6dso16is.c ****     {
 430              		.loc 1 310 9 is_stmt 0 view .LVU101
 431 0010 90F83310 		ldrb	r1, [r0, #51]	@ zero_extendqisi2
 432 0014 2030     		adds	r0, r0, #32
 433              	.LVL19:
 310:Drivers/BSP/Components/lsm6dso16is/lsm6dso16is.c ****     {
 434              		.loc 1 310 9 view .LVU102
 435 0016 FFF7FEFF 		bl	lsm6dso16is_xl_data_rate_set
 436              	.LVL20:
 310:Drivers/BSP/Components/lsm6dso16is/lsm6dso16is.c ****     {
 437              		.loc 1 310 8 discriminator 1 view .LVU103
 438 001a 08B1     		cbz	r0, .L42
 312:Drivers/BSP/Components/lsm6dso16is/lsm6dso16is.c ****     }
 439              		.loc 1 312 11 view .LVU104
 440 001c 4FF0FF30 		mov	r0, #-1
 441              	.L42:
 442              	.LVL21:
 315:Drivers/BSP/Components/lsm6dso16is/lsm6dso16is.c ****   }
 443              		.loc 1 315 5 is_stmt 1 view .LVU105
 315:Drivers/BSP/Components/lsm6dso16is/lsm6dso16is.c ****   }
 444              		.loc 1 315 26 is_stmt 0 view .LVU106
 445 0020 0123     		movs	r3, #1
 446 0022 84F83130 		strb	r3, [r4, #49]
 319:Drivers/BSP/Components/lsm6dso16is/lsm6dso16is.c **** 
 447              		.loc 1 319 1 view .LVU107
 448 0026 10BD     		pop	{r4, pc}
 319:Drivers/BSP/Components/lsm6dso16is/lsm6dso16is.c **** 
 449              		.loc 1 319 1 view .LVU108
 450              		.cfi_endproc
 451              	.LFE5:
 453              		.section	.text.LSM6DSO16IS_ACC_SetOutputDataRate_When_Enabled,"ax",%progbits
 454              		.align	1
 455              		.syntax unified
 456              		.thumb
 457              		.thumb_func
 459              	LSM6DSO16IS_ACC_SetOutputDataRate_When_Enabled:
 460              	.LVL22:
 461              	.LFB35:
1262:Drivers/BSP/Components/lsm6dso16is/lsm6dso16is.c ****   int32_t ret = LSM6DSO16IS_OK;
 462              		.loc 1 1262 1 is_stmt 1 view -0
 463              		.cfi_startproc
 464              		@ args = 0, pretend = 0, frame = 0
 465              		@ frame_needed = 0, uses_anonymous_args = 0
1262:Drivers/BSP/Components/lsm6dso16is/lsm6dso16is.c ****   int32_t ret = LSM6DSO16IS_OK;
 466              		.loc 1 1262 1 is_stmt 0 view .LVU110
 467 0000 08B5     		push	{r3, lr}
ARM GAS  C:\Users\Nathan\AppData\Local\Temp\ccdIxQaW.s 			page 34


 468              		.cfi_def_cfa_offset 8
 469              		.cfi_offset 3, -8
 470              		.cfi_offset 14, -4
1263:Drivers/BSP/Components/lsm6dso16is/lsm6dso16is.c ****   lsm6dso16is_xl_data_rate_t new_odr;
 471              		.loc 1 1263 3 is_stmt 1 view .LVU111
 472              	.LVL23:
1264:Drivers/BSP/Components/lsm6dso16is/lsm6dso16is.c **** 
 473              		.loc 1 1264 3 view .LVU112
1266:Drivers/BSP/Components/lsm6dso16is/lsm6dso16is.c ****             : (Odr <=   26.0f) ? LSM6DSO16IS_XL_ODR_AT_26H_HP
 474              		.loc 1 1266 3 view .LVU113
1267:Drivers/BSP/Components/lsm6dso16is/lsm6dso16is.c ****             : (Odr <=   52.0f) ? LSM6DSO16IS_XL_ODR_AT_52Hz_HP
 475              		.loc 1 1267 13 is_stmt 0 view .LVU114
 476 0002 F2EE097A 		vmov.f32	s15, #1.25e+1
 477 0006 B4EEE70A 		vcmpe.f32	s0, s15
 478 000a F1EE10FA 		vmrs	APSR_nzcv, FPSCR
 479 000e 39D9     		bls	.L54
1267:Drivers/BSP/Components/lsm6dso16is/lsm6dso16is.c ****             : (Odr <=   52.0f) ? LSM6DSO16IS_XL_ODR_AT_52Hz_HP
 480              		.loc 1 1267 13 discriminator 2 view .LVU115
 481 0010 F3EE0A7A 		vmov.f32	s15, #2.6e+1
 482 0014 B4EEE70A 		vcmpe.f32	s0, s15
 483 0018 F1EE10FA 		vmrs	APSR_nzcv, FPSCR
 484 001c 38D9     		bls	.L55
1267:Drivers/BSP/Components/lsm6dso16is/lsm6dso16is.c ****             : (Odr <=   52.0f) ? LSM6DSO16IS_XL_ODR_AT_52Hz_HP
 485              		.loc 1 1267 13 discriminator 4 view .LVU116
 486 001e DFED267A 		vldr.32	s15, .L68
 487 0022 B4EEE70A 		vcmpe.f32	s0, s15
 488 0026 F1EE10FA 		vmrs	APSR_nzcv, FPSCR
 489 002a 33D9     		bls	.L56
1267:Drivers/BSP/Components/lsm6dso16is/lsm6dso16is.c ****             : (Odr <=   52.0f) ? LSM6DSO16IS_XL_ODR_AT_52Hz_HP
 490              		.loc 1 1267 13 discriminator 7 view .LVU117
 491 002c DFED237A 		vldr.32	s15, .L68+4
 492 0030 B4EEE70A 		vcmpe.f32	s0, s15
 493 0034 F1EE10FA 		vmrs	APSR_nzcv, FPSCR
 494 0038 2ED9     		bls	.L57
1267:Drivers/BSP/Components/lsm6dso16is/lsm6dso16is.c ****             : (Odr <=   52.0f) ? LSM6DSO16IS_XL_ODR_AT_52Hz_HP
 495              		.loc 1 1267 13 discriminator 10 view .LVU118
 496 003a DFED217A 		vldr.32	s15, .L68+8
 497 003e B4EEE70A 		vcmpe.f32	s0, s15
 498 0042 F1EE10FA 		vmrs	APSR_nzcv, FPSCR
 499 0046 29D9     		bls	.L58
1267:Drivers/BSP/Components/lsm6dso16is/lsm6dso16is.c ****             : (Odr <=   52.0f) ? LSM6DSO16IS_XL_ODR_AT_52Hz_HP
 500              		.loc 1 1267 13 discriminator 13 view .LVU119
 501 0048 DFED1E7A 		vldr.32	s15, .L68+12
 502 004c B4EEE70A 		vcmpe.f32	s0, s15
 503 0050 F1EE10FA 		vmrs	APSR_nzcv, FPSCR
 504 0054 24D9     		bls	.L59
1267:Drivers/BSP/Components/lsm6dso16is/lsm6dso16is.c ****             : (Odr <=   52.0f) ? LSM6DSO16IS_XL_ODR_AT_52Hz_HP
 505              		.loc 1 1267 13 discriminator 16 view .LVU120
 506 0056 DFED1C7A 		vldr.32	s15, .L68+16
 507 005a B4EEE70A 		vcmpe.f32	s0, s15
 508 005e F1EE10FA 		vmrs	APSR_nzcv, FPSCR
 509 0062 1FD9     		bls	.L60
1267:Drivers/BSP/Components/lsm6dso16is/lsm6dso16is.c ****             : (Odr <=   52.0f) ? LSM6DSO16IS_XL_ODR_AT_52Hz_HP
 510              		.loc 1 1267 13 discriminator 19 view .LVU121
 511 0064 DFED197A 		vldr.32	s15, .L68+20
 512 0068 B4EEE70A 		vcmpe.f32	s0, s15
 513 006c F1EE10FA 		vmrs	APSR_nzcv, FPSCR
ARM GAS  C:\Users\Nathan\AppData\Local\Temp\ccdIxQaW.s 			page 35


 514 0070 1AD9     		bls	.L61
1267:Drivers/BSP/Components/lsm6dso16is/lsm6dso16is.c ****             : (Odr <=   52.0f) ? LSM6DSO16IS_XL_ODR_AT_52Hz_HP
 515              		.loc 1 1267 13 discriminator 22 view .LVU122
 516 0072 DFED177A 		vldr.32	s15, .L68+24
 517 0076 B4EEE70A 		vcmpe.f32	s0, s15
 518 007a F1EE10FA 		vmrs	APSR_nzcv, FPSCR
 519 007e 15D8     		bhi	.L65
1267:Drivers/BSP/Components/lsm6dso16is/lsm6dso16is.c ****             : (Odr <=   52.0f) ? LSM6DSO16IS_XL_ODR_AT_52Hz_HP
 520              		.loc 1 1267 13 discriminator 24 view .LVU123
 521 0080 0921     		movs	r1, #9
 522 0082 00E0     		b	.L51
 523              	.L54:
1267:Drivers/BSP/Components/lsm6dso16is/lsm6dso16is.c ****             : (Odr <=   52.0f) ? LSM6DSO16IS_XL_ODR_AT_52Hz_HP
 524              		.loc 1 1267 13 discriminator 1 view .LVU124
 525 0084 0121     		movs	r1, #1
 526              	.L51:
 527              	.LVL24:
1278:Drivers/BSP/Components/lsm6dso16is/lsm6dso16is.c ****   {
 528              		.loc 1 1278 3 is_stmt 1 view .LVU125
1278:Drivers/BSP/Components/lsm6dso16is/lsm6dso16is.c ****   {
 529              		.loc 1 1278 7 is_stmt 0 view .LVU126
 530 0086 2030     		adds	r0, r0, #32
 531              	.LVL25:
1278:Drivers/BSP/Components/lsm6dso16is/lsm6dso16is.c ****   {
 532              		.loc 1 1278 7 view .LVU127
 533 0088 FFF7FEFF 		bl	lsm6dso16is_xl_data_rate_set
 534              	.LVL26:
1278:Drivers/BSP/Components/lsm6dso16is/lsm6dso16is.c ****   {
 535              		.loc 1 1278 6 discriminator 1 view .LVU128
 536 008c 80B9     		cbnz	r0, .L67
 537              	.LVL27:
 538              	.L50:
1284:Drivers/BSP/Components/lsm6dso16is/lsm6dso16is.c **** 
 539              		.loc 1 1284 1 view .LVU129
 540 008e 08BD     		pop	{r3, pc}
 541              	.LVL28:
 542              	.L55:
1267:Drivers/BSP/Components/lsm6dso16is/lsm6dso16is.c ****             : (Odr <=   52.0f) ? LSM6DSO16IS_XL_ODR_AT_52Hz_HP
 543              		.loc 1 1267 13 discriminator 3 view .LVU130
 544 0090 0221     		movs	r1, #2
 545 0092 F8E7     		b	.L51
 546              	.L56:
1267:Drivers/BSP/Components/lsm6dso16is/lsm6dso16is.c ****             : (Odr <=   52.0f) ? LSM6DSO16IS_XL_ODR_AT_52Hz_HP
 547              		.loc 1 1267 13 discriminator 6 view .LVU131
 548 0094 0321     		movs	r1, #3
 549 0096 F6E7     		b	.L51
 550              	.L57:
1267:Drivers/BSP/Components/lsm6dso16is/lsm6dso16is.c ****             : (Odr <=   52.0f) ? LSM6DSO16IS_XL_ODR_AT_52Hz_HP
 551              		.loc 1 1267 13 discriminator 9 view .LVU132
 552 0098 0421     		movs	r1, #4
 553 009a F4E7     		b	.L51
 554              	.L58:
1267:Drivers/BSP/Components/lsm6dso16is/lsm6dso16is.c ****             : (Odr <=   52.0f) ? LSM6DSO16IS_XL_ODR_AT_52Hz_HP
 555              		.loc 1 1267 13 discriminator 12 view .LVU133
 556 009c 0521     		movs	r1, #5
 557 009e F2E7     		b	.L51
 558              	.L59:
ARM GAS  C:\Users\Nathan\AppData\Local\Temp\ccdIxQaW.s 			page 36


1267:Drivers/BSP/Components/lsm6dso16is/lsm6dso16is.c ****             : (Odr <=   52.0f) ? LSM6DSO16IS_XL_ODR_AT_52Hz_HP
 559              		.loc 1 1267 13 discriminator 15 view .LVU134
 560 00a0 0621     		movs	r1, #6
 561 00a2 F0E7     		b	.L51
 562              	.L60:
1267:Drivers/BSP/Components/lsm6dso16is/lsm6dso16is.c ****             : (Odr <=   52.0f) ? LSM6DSO16IS_XL_ODR_AT_52Hz_HP
 563              		.loc 1 1267 13 discriminator 18 view .LVU135
 564 00a4 0721     		movs	r1, #7
 565 00a6 EEE7     		b	.L51
 566              	.L61:
1267:Drivers/BSP/Components/lsm6dso16is/lsm6dso16is.c ****             : (Odr <=   52.0f) ? LSM6DSO16IS_XL_ODR_AT_52Hz_HP
 567              		.loc 1 1267 13 discriminator 21 view .LVU136
 568 00a8 0821     		movs	r1, #8
 569 00aa ECE7     		b	.L51
 570              	.L65:
1267:Drivers/BSP/Components/lsm6dso16is/lsm6dso16is.c ****             : (Odr <=   52.0f) ? LSM6DSO16IS_XL_ODR_AT_52Hz_HP
 571              		.loc 1 1267 13 discriminator 25 view .LVU137
 572 00ac 0A21     		movs	r1, #10
 573 00ae EAE7     		b	.L51
 574              	.LVL29:
 575              	.L67:
1280:Drivers/BSP/Components/lsm6dso16is/lsm6dso16is.c ****   }
 576              		.loc 1 1280 9 view .LVU138
 577 00b0 4FF0FF30 		mov	r0, #-1
 578              	.LVL30:
1283:Drivers/BSP/Components/lsm6dso16is/lsm6dso16is.c **** }
 579              		.loc 1 1283 3 is_stmt 1 view .LVU139
1283:Drivers/BSP/Components/lsm6dso16is/lsm6dso16is.c **** }
 580              		.loc 1 1283 10 is_stmt 0 view .LVU140
 581 00b4 EBE7     		b	.L50
 582              	.L69:
 583 00b6 00BF     		.align	2
 584              	.L68:
 585 00b8 00005042 		.word	1112539136
 586 00bc 0000D042 		.word	1120927744
 587 00c0 00005043 		.word	1129316352
 588 00c4 0000D043 		.word	1137704960
 589 00c8 00405044 		.word	1146109952
 590 00cc 0060D044 		.word	1154506752
 591 00d0 00505045 		.word	1162891264
 592              		.cfi_endproc
 593              	.LFE35:
 595              		.section	.text.LSM6DSO16IS_ACC_SetOutputDataRate,"ax",%progbits
 596              		.align	1
 597              		.global	LSM6DSO16IS_ACC_SetOutputDataRate
 598              		.syntax unified
 599              		.thumb
 600              		.thumb_func
 602              	LSM6DSO16IS_ACC_SetOutputDataRate:
 603              	.LVL31:
 604              	.LFB9:
 491:Drivers/BSP/Components/lsm6dso16is/lsm6dso16is.c ****   int32_t ret;
 605              		.loc 1 491 1 is_stmt 1 view -0
 606              		.cfi_startproc
 607              		@ args = 0, pretend = 0, frame = 0
 608              		@ frame_needed = 0, uses_anonymous_args = 0
 491:Drivers/BSP/Components/lsm6dso16is/lsm6dso16is.c ****   int32_t ret;
ARM GAS  C:\Users\Nathan\AppData\Local\Temp\ccdIxQaW.s 			page 37


 609              		.loc 1 491 1 is_stmt 0 view .LVU142
 610 0000 08B5     		push	{r3, lr}
 611              		.cfi_def_cfa_offset 8
 612              		.cfi_offset 3, -8
 613              		.cfi_offset 14, -4
 492:Drivers/BSP/Components/lsm6dso16is/lsm6dso16is.c **** 
 614              		.loc 1 492 3 is_stmt 1 view .LVU143
 495:Drivers/BSP/Components/lsm6dso16is/lsm6dso16is.c ****   {
 615              		.loc 1 495 3 view .LVU144
 495:Drivers/BSP/Components/lsm6dso16is/lsm6dso16is.c ****   {
 616              		.loc 1 495 11 is_stmt 0 view .LVU145
 617 0002 90F83130 		ldrb	r3, [r0, #49]	@ zero_extendqisi2
 495:Drivers/BSP/Components/lsm6dso16is/lsm6dso16is.c ****   {
 618              		.loc 1 495 6 view .LVU146
 619 0006 012B     		cmp	r3, #1
 620 0008 02D0     		beq	.L74
 501:Drivers/BSP/Components/lsm6dso16is/lsm6dso16is.c ****   }
 621              		.loc 1 501 5 is_stmt 1 view .LVU147
 501:Drivers/BSP/Components/lsm6dso16is/lsm6dso16is.c ****   }
 622              		.loc 1 501 11 is_stmt 0 view .LVU148
 623 000a FFF7FEFF 		bl	LSM6DSO16IS_ACC_SetOutputDataRate_When_Disabled
 624              	.LVL32:
 504:Drivers/BSP/Components/lsm6dso16is/lsm6dso16is.c **** }
 625              		.loc 1 504 3 is_stmt 1 view .LVU149
 626              	.L70:
 505:Drivers/BSP/Components/lsm6dso16is/lsm6dso16is.c **** 
 627              		.loc 1 505 1 is_stmt 0 view .LVU150
 628 000e 08BD     		pop	{r3, pc}
 629              	.LVL33:
 630              	.L74:
 497:Drivers/BSP/Components/lsm6dso16is/lsm6dso16is.c ****   }
 631              		.loc 1 497 5 is_stmt 1 view .LVU151
 497:Drivers/BSP/Components/lsm6dso16is/lsm6dso16is.c ****   }
 632              		.loc 1 497 11 is_stmt 0 view .LVU152
 633 0010 FFF7FEFF 		bl	LSM6DSO16IS_ACC_SetOutputDataRate_When_Enabled
 634              	.LVL34:
 497:Drivers/BSP/Components/lsm6dso16is/lsm6dso16is.c ****   }
 635              		.loc 1 497 11 view .LVU153
 636 0014 FBE7     		b	.L70
 637              		.cfi_endproc
 638              	.LFE9:
 640              		.section	.text.LSM6DSO16IS_ACC_SetFullScale,"ax",%progbits
 641              		.align	1
 642              		.global	LSM6DSO16IS_ACC_SetFullScale
 643              		.syntax unified
 644              		.thumb
 645              		.thumb_func
 647              	LSM6DSO16IS_ACC_SetFullScale:
 648              	.LVL35:
 649              	.LFB11:
 557:Drivers/BSP/Components/lsm6dso16is/lsm6dso16is.c ****   int32_t ret = LSM6DSO16IS_OK;
 650              		.loc 1 557 1 is_stmt 1 view -0
 651              		.cfi_startproc
 652              		@ args = 0, pretend = 0, frame = 0
 653              		@ frame_needed = 0, uses_anonymous_args = 0
 557:Drivers/BSP/Components/lsm6dso16is/lsm6dso16is.c ****   int32_t ret = LSM6DSO16IS_OK;
 654              		.loc 1 557 1 is_stmt 0 view .LVU155
ARM GAS  C:\Users\Nathan\AppData\Local\Temp\ccdIxQaW.s 			page 38


 655 0000 08B5     		push	{r3, lr}
 656              		.cfi_def_cfa_offset 8
 657              		.cfi_offset 3, -8
 658              		.cfi_offset 14, -4
 558:Drivers/BSP/Components/lsm6dso16is/lsm6dso16is.c ****   lsm6dso16is_xl_full_scale_t new_fs;
 659              		.loc 1 558 3 is_stmt 1 view .LVU156
 660              	.LVL36:
 559:Drivers/BSP/Components/lsm6dso16is/lsm6dso16is.c **** 
 661              		.loc 1 559 3 view .LVU157
 561:Drivers/BSP/Components/lsm6dso16is/lsm6dso16is.c ****            : (FullScale <= 4) ? LSM6DSO16IS_4g
 662              		.loc 1 561 3 view .LVU158
 562:Drivers/BSP/Components/lsm6dso16is/lsm6dso16is.c ****            : (FullScale <= 8) ? LSM6DSO16IS_8g
 663              		.loc 1 562 12 is_stmt 0 view .LVU159
 664 0002 0229     		cmp	r1, #2
 665 0004 05DD     		ble	.L78
 562:Drivers/BSP/Components/lsm6dso16is/lsm6dso16is.c ****            : (FullScale <= 8) ? LSM6DSO16IS_8g
 666              		.loc 1 562 12 discriminator 1 view .LVU160
 667 0006 0429     		cmp	r1, #4
 668 0008 09DD     		ble	.L79
 562:Drivers/BSP/Components/lsm6dso16is/lsm6dso16is.c ****            : (FullScale <= 8) ? LSM6DSO16IS_8g
 669              		.loc 1 562 12 discriminator 3 view .LVU161
 670 000a 0829     		cmp	r1, #8
 671 000c 09DC     		bgt	.L80
 562:Drivers/BSP/Components/lsm6dso16is/lsm6dso16is.c ****            : (FullScale <= 8) ? LSM6DSO16IS_8g
 672              		.loc 1 562 12 discriminator 5 view .LVU162
 673 000e 0321     		movs	r1, #3
 674              	.LVL37:
 562:Drivers/BSP/Components/lsm6dso16is/lsm6dso16is.c ****            : (FullScale <= 8) ? LSM6DSO16IS_8g
 675              		.loc 1 562 12 discriminator 5 view .LVU163
 676 0010 00E0     		b	.L76
 677              	.LVL38:
 678              	.L78:
 562:Drivers/BSP/Components/lsm6dso16is/lsm6dso16is.c ****            : (FullScale <= 8) ? LSM6DSO16IS_8g
 679              		.loc 1 562 12 discriminator 2 view .LVU164
 680 0012 0021     		movs	r1, #0
 681              	.LVL39:
 682              	.L76:
 566:Drivers/BSP/Components/lsm6dso16is/lsm6dso16is.c ****   {
 683              		.loc 1 566 3 is_stmt 1 view .LVU165
 566:Drivers/BSP/Components/lsm6dso16is/lsm6dso16is.c ****   {
 684              		.loc 1 566 7 is_stmt 0 view .LVU166
 685 0014 2030     		adds	r0, r0, #32
 686              	.LVL40:
 566:Drivers/BSP/Components/lsm6dso16is/lsm6dso16is.c ****   {
 687              		.loc 1 566 7 view .LVU167
 688 0016 FFF7FEFF 		bl	lsm6dso16is_xl_full_scale_set
 689              	.LVL41:
 566:Drivers/BSP/Components/lsm6dso16is/lsm6dso16is.c ****   {
 690              		.loc 1 566 6 discriminator 1 view .LVU168
 691 001a 20B9     		cbnz	r0, .L83
 692              	.LVL42:
 693              	.L75:
 572:Drivers/BSP/Components/lsm6dso16is/lsm6dso16is.c **** 
 694              		.loc 1 572 1 view .LVU169
 695 001c 08BD     		pop	{r3, pc}
 696              	.LVL43:
 697              	.L79:
ARM GAS  C:\Users\Nathan\AppData\Local\Temp\ccdIxQaW.s 			page 39


 562:Drivers/BSP/Components/lsm6dso16is/lsm6dso16is.c ****            : (FullScale <= 8) ? LSM6DSO16IS_8g
 698              		.loc 1 562 12 discriminator 4 view .LVU170
 699 001e 0221     		movs	r1, #2
 700              	.LVL44:
 562:Drivers/BSP/Components/lsm6dso16is/lsm6dso16is.c ****            : (FullScale <= 8) ? LSM6DSO16IS_8g
 701              		.loc 1 562 12 discriminator 4 view .LVU171
 702 0020 F8E7     		b	.L76
 703              	.LVL45:
 704              	.L80:
 562:Drivers/BSP/Components/lsm6dso16is/lsm6dso16is.c ****            : (FullScale <= 8) ? LSM6DSO16IS_8g
 705              		.loc 1 562 12 discriminator 6 view .LVU172
 706 0022 0121     		movs	r1, #1
 707              	.LVL46:
 562:Drivers/BSP/Components/lsm6dso16is/lsm6dso16is.c ****            : (FullScale <= 8) ? LSM6DSO16IS_8g
 708              		.loc 1 562 12 discriminator 6 view .LVU173
 709 0024 F6E7     		b	.L76
 710              	.LVL47:
 711              	.L83:
 568:Drivers/BSP/Components/lsm6dso16is/lsm6dso16is.c ****   }
 712              		.loc 1 568 9 view .LVU174
 713 0026 4FF0FF30 		mov	r0, #-1
 714              	.LVL48:
 571:Drivers/BSP/Components/lsm6dso16is/lsm6dso16is.c **** }
 715              		.loc 1 571 3 is_stmt 1 view .LVU175
 571:Drivers/BSP/Components/lsm6dso16is/lsm6dso16is.c **** }
 716              		.loc 1 571 10 is_stmt 0 view .LVU176
 717 002a F7E7     		b	.L75
 718              		.cfi_endproc
 719              	.LFE11:
 721              		.section	.text.LSM6DSO16IS_GYRO_Enable,"ax",%progbits
 722              		.align	1
 723              		.global	LSM6DSO16IS_GYRO_Enable
 724              		.syntax unified
 725              		.thumb
 726              		.thumb_func
 728              	LSM6DSO16IS_GYRO_Enable:
 729              	.LVL49:
 730              	.LFB14:
 637:Drivers/BSP/Components/lsm6dso16is/lsm6dso16is.c ****   int32_t ret = LSM6DSO16IS_OK;
 731              		.loc 1 637 1 is_stmt 1 view -0
 732              		.cfi_startproc
 733              		@ args = 0, pretend = 0, frame = 0
 734              		@ frame_needed = 0, uses_anonymous_args = 0
 638:Drivers/BSP/Components/lsm6dso16is/lsm6dso16is.c **** 
 735              		.loc 1 638 3 view .LVU178
 641:Drivers/BSP/Components/lsm6dso16is/lsm6dso16is.c ****   {
 736              		.loc 1 641 3 view .LVU179
 641:Drivers/BSP/Components/lsm6dso16is/lsm6dso16is.c ****   {
 737              		.loc 1 641 11 is_stmt 0 view .LVU180
 738 0000 90F83230 		ldrb	r3, [r0, #50]	@ zero_extendqisi2
 641:Drivers/BSP/Components/lsm6dso16is/lsm6dso16is.c ****   {
 739              		.loc 1 641 6 view .LVU181
 740 0004 012B     		cmp	r3, #1
 741 0006 01D1     		bne	.L93
 643:Drivers/BSP/Components/lsm6dso16is/lsm6dso16is.c ****   }
 742              		.loc 1 643 9 view .LVU182
 743 0008 0020     		movs	r0, #0
ARM GAS  C:\Users\Nathan\AppData\Local\Temp\ccdIxQaW.s 			page 40


 744              	.LVL50:
 656:Drivers/BSP/Components/lsm6dso16is/lsm6dso16is.c **** }
 745              		.loc 1 656 3 is_stmt 1 view .LVU183
 657:Drivers/BSP/Components/lsm6dso16is/lsm6dso16is.c **** 
 746              		.loc 1 657 1 is_stmt 0 view .LVU184
 747 000a 7047     		bx	lr
 748              	.LVL51:
 749              	.L93:
 637:Drivers/BSP/Components/lsm6dso16is/lsm6dso16is.c ****   int32_t ret = LSM6DSO16IS_OK;
 750              		.loc 1 637 1 view .LVU185
 751 000c 10B5     		push	{r4, lr}
 752              		.cfi_def_cfa_offset 8
 753              		.cfi_offset 4, -8
 754              		.cfi_offset 14, -4
 755 000e 0446     		mov	r4, r0
 648:Drivers/BSP/Components/lsm6dso16is/lsm6dso16is.c ****     {
 756              		.loc 1 648 5 is_stmt 1 view .LVU186
 648:Drivers/BSP/Components/lsm6dso16is/lsm6dso16is.c ****     {
 757              		.loc 1 648 9 is_stmt 0 view .LVU187
 758 0010 90F83410 		ldrb	r1, [r0, #52]	@ zero_extendqisi2
 759 0014 2030     		adds	r0, r0, #32
 760              	.LVL52:
 648:Drivers/BSP/Components/lsm6dso16is/lsm6dso16is.c ****     {
 761              		.loc 1 648 9 view .LVU188
 762 0016 FFF7FEFF 		bl	lsm6dso16is_gy_data_rate_set
 763              	.LVL53:
 648:Drivers/BSP/Components/lsm6dso16is/lsm6dso16is.c ****     {
 764              		.loc 1 648 8 discriminator 1 view .LVU189
 765 001a 08B1     		cbz	r0, .L86
 650:Drivers/BSP/Components/lsm6dso16is/lsm6dso16is.c ****     }
 766              		.loc 1 650 11 view .LVU190
 767 001c 4FF0FF30 		mov	r0, #-1
 768              	.L86:
 769              	.LVL54:
 653:Drivers/BSP/Components/lsm6dso16is/lsm6dso16is.c ****   }
 770              		.loc 1 653 5 is_stmt 1 view .LVU191
 653:Drivers/BSP/Components/lsm6dso16is/lsm6dso16is.c ****   }
 771              		.loc 1 653 27 is_stmt 0 view .LVU192
 772 0020 0123     		movs	r3, #1
 773 0022 84F83230 		strb	r3, [r4, #50]
 657:Drivers/BSP/Components/lsm6dso16is/lsm6dso16is.c **** 
 774              		.loc 1 657 1 view .LVU193
 775 0026 10BD     		pop	{r4, pc}
 657:Drivers/BSP/Components/lsm6dso16is/lsm6dso16is.c **** 
 776              		.loc 1 657 1 view .LVU194
 777              		.cfi_endproc
 778              	.LFE14:
 780              		.section	.text.LSM6DSO16IS_GYRO_SetOutputDataRate_When_Enabled,"ax",%progbits
 781              		.align	1
 782              		.syntax unified
 783              		.thumb
 784              		.thumb_func
 786              	LSM6DSO16IS_GYRO_SetOutputDataRate_When_Enabled:
 787              	.LVL55:
 788              	.LFB37:
1315:Drivers/BSP/Components/lsm6dso16is/lsm6dso16is.c ****   int32_t ret = LSM6DSO16IS_OK;
 789              		.loc 1 1315 1 is_stmt 1 view -0
ARM GAS  C:\Users\Nathan\AppData\Local\Temp\ccdIxQaW.s 			page 41


 790              		.cfi_startproc
 791              		@ args = 0, pretend = 0, frame = 0
 792              		@ frame_needed = 0, uses_anonymous_args = 0
1315:Drivers/BSP/Components/lsm6dso16is/lsm6dso16is.c ****   int32_t ret = LSM6DSO16IS_OK;
 793              		.loc 1 1315 1 is_stmt 0 view .LVU196
 794 0000 08B5     		push	{r3, lr}
 795              		.cfi_def_cfa_offset 8
 796              		.cfi_offset 3, -8
 797              		.cfi_offset 14, -4
1316:Drivers/BSP/Components/lsm6dso16is/lsm6dso16is.c ****   lsm6dso16is_gy_data_rate_t new_odr;
 798              		.loc 1 1316 3 is_stmt 1 view .LVU197
 799              	.LVL56:
1317:Drivers/BSP/Components/lsm6dso16is/lsm6dso16is.c **** 
 800              		.loc 1 1317 3 view .LVU198
1319:Drivers/BSP/Components/lsm6dso16is/lsm6dso16is.c ****             : (Odr <=   26.0f) ? LSM6DSO16IS_GY_ODR_AT_26H_HP
 801              		.loc 1 1319 3 view .LVU199
1320:Drivers/BSP/Components/lsm6dso16is/lsm6dso16is.c ****             : (Odr <=   52.0f) ? LSM6DSO16IS_GY_ODR_AT_52Hz_HP
 802              		.loc 1 1320 13 is_stmt 0 view .LVU200
 803 0002 F2EE097A 		vmov.f32	s15, #1.25e+1
 804 0006 B4EEE70A 		vcmpe.f32	s0, s15
 805 000a F1EE10FA 		vmrs	APSR_nzcv, FPSCR
 806 000e 39D9     		bls	.L98
1320:Drivers/BSP/Components/lsm6dso16is/lsm6dso16is.c ****             : (Odr <=   52.0f) ? LSM6DSO16IS_GY_ODR_AT_52Hz_HP
 807              		.loc 1 1320 13 discriminator 2 view .LVU201
 808 0010 F3EE0A7A 		vmov.f32	s15, #2.6e+1
 809 0014 B4EEE70A 		vcmpe.f32	s0, s15
 810 0018 F1EE10FA 		vmrs	APSR_nzcv, FPSCR
 811 001c 38D9     		bls	.L99
1320:Drivers/BSP/Components/lsm6dso16is/lsm6dso16is.c ****             : (Odr <=   52.0f) ? LSM6DSO16IS_GY_ODR_AT_52Hz_HP
 812              		.loc 1 1320 13 discriminator 4 view .LVU202
 813 001e DFED267A 		vldr.32	s15, .L112
 814 0022 B4EEE70A 		vcmpe.f32	s0, s15
 815 0026 F1EE10FA 		vmrs	APSR_nzcv, FPSCR
 816 002a 33D9     		bls	.L100
1320:Drivers/BSP/Components/lsm6dso16is/lsm6dso16is.c ****             : (Odr <=   52.0f) ? LSM6DSO16IS_GY_ODR_AT_52Hz_HP
 817              		.loc 1 1320 13 discriminator 7 view .LVU203
 818 002c DFED237A 		vldr.32	s15, .L112+4
 819 0030 B4EEE70A 		vcmpe.f32	s0, s15
 820 0034 F1EE10FA 		vmrs	APSR_nzcv, FPSCR
 821 0038 2ED9     		bls	.L101
1320:Drivers/BSP/Components/lsm6dso16is/lsm6dso16is.c ****             : (Odr <=   52.0f) ? LSM6DSO16IS_GY_ODR_AT_52Hz_HP
 822              		.loc 1 1320 13 discriminator 10 view .LVU204
 823 003a DFED217A 		vldr.32	s15, .L112+8
 824 003e B4EEE70A 		vcmpe.f32	s0, s15
 825 0042 F1EE10FA 		vmrs	APSR_nzcv, FPSCR
 826 0046 29D9     		bls	.L102
1320:Drivers/BSP/Components/lsm6dso16is/lsm6dso16is.c ****             : (Odr <=   52.0f) ? LSM6DSO16IS_GY_ODR_AT_52Hz_HP
 827              		.loc 1 1320 13 discriminator 13 view .LVU205
 828 0048 DFED1E7A 		vldr.32	s15, .L112+12
 829 004c B4EEE70A 		vcmpe.f32	s0, s15
 830 0050 F1EE10FA 		vmrs	APSR_nzcv, FPSCR
 831 0054 24D9     		bls	.L103
1320:Drivers/BSP/Components/lsm6dso16is/lsm6dso16is.c ****             : (Odr <=   52.0f) ? LSM6DSO16IS_GY_ODR_AT_52Hz_HP
 832              		.loc 1 1320 13 discriminator 16 view .LVU206
 833 0056 DFED1C7A 		vldr.32	s15, .L112+16
 834 005a B4EEE70A 		vcmpe.f32	s0, s15
 835 005e F1EE10FA 		vmrs	APSR_nzcv, FPSCR
ARM GAS  C:\Users\Nathan\AppData\Local\Temp\ccdIxQaW.s 			page 42


 836 0062 1FD9     		bls	.L104
1320:Drivers/BSP/Components/lsm6dso16is/lsm6dso16is.c ****             : (Odr <=   52.0f) ? LSM6DSO16IS_GY_ODR_AT_52Hz_HP
 837              		.loc 1 1320 13 discriminator 19 view .LVU207
 838 0064 DFED197A 		vldr.32	s15, .L112+20
 839 0068 B4EEE70A 		vcmpe.f32	s0, s15
 840 006c F1EE10FA 		vmrs	APSR_nzcv, FPSCR
 841 0070 1AD9     		bls	.L105
1320:Drivers/BSP/Components/lsm6dso16is/lsm6dso16is.c ****             : (Odr <=   52.0f) ? LSM6DSO16IS_GY_ODR_AT_52Hz_HP
 842              		.loc 1 1320 13 discriminator 22 view .LVU208
 843 0072 DFED177A 		vldr.32	s15, .L112+24
 844 0076 B4EEE70A 		vcmpe.f32	s0, s15
 845 007a F1EE10FA 		vmrs	APSR_nzcv, FPSCR
 846 007e 15D8     		bhi	.L109
1320:Drivers/BSP/Components/lsm6dso16is/lsm6dso16is.c ****             : (Odr <=   52.0f) ? LSM6DSO16IS_GY_ODR_AT_52Hz_HP
 847              		.loc 1 1320 13 discriminator 24 view .LVU209
 848 0080 0921     		movs	r1, #9
 849 0082 00E0     		b	.L95
 850              	.L98:
1320:Drivers/BSP/Components/lsm6dso16is/lsm6dso16is.c ****             : (Odr <=   52.0f) ? LSM6DSO16IS_GY_ODR_AT_52Hz_HP
 851              		.loc 1 1320 13 discriminator 1 view .LVU210
 852 0084 0121     		movs	r1, #1
 853              	.L95:
 854              	.LVL57:
1331:Drivers/BSP/Components/lsm6dso16is/lsm6dso16is.c ****   {
 855              		.loc 1 1331 3 is_stmt 1 view .LVU211
1331:Drivers/BSP/Components/lsm6dso16is/lsm6dso16is.c ****   {
 856              		.loc 1 1331 7 is_stmt 0 view .LVU212
 857 0086 2030     		adds	r0, r0, #32
 858              	.LVL58:
1331:Drivers/BSP/Components/lsm6dso16is/lsm6dso16is.c ****   {
 859              		.loc 1 1331 7 view .LVU213
 860 0088 FFF7FEFF 		bl	lsm6dso16is_gy_data_rate_set
 861              	.LVL59:
1331:Drivers/BSP/Components/lsm6dso16is/lsm6dso16is.c ****   {
 862              		.loc 1 1331 6 discriminator 1 view .LVU214
 863 008c 80B9     		cbnz	r0, .L111
 864              	.LVL60:
 865              	.L94:
1337:Drivers/BSP/Components/lsm6dso16is/lsm6dso16is.c **** 
 866              		.loc 1 1337 1 view .LVU215
 867 008e 08BD     		pop	{r3, pc}
 868              	.LVL61:
 869              	.L99:
1320:Drivers/BSP/Components/lsm6dso16is/lsm6dso16is.c ****             : (Odr <=   52.0f) ? LSM6DSO16IS_GY_ODR_AT_52Hz_HP
 870              		.loc 1 1320 13 discriminator 3 view .LVU216
 871 0090 0221     		movs	r1, #2
 872 0092 F8E7     		b	.L95
 873              	.L100:
1320:Drivers/BSP/Components/lsm6dso16is/lsm6dso16is.c ****             : (Odr <=   52.0f) ? LSM6DSO16IS_GY_ODR_AT_52Hz_HP
 874              		.loc 1 1320 13 discriminator 6 view .LVU217
 875 0094 0321     		movs	r1, #3
 876 0096 F6E7     		b	.L95
 877              	.L101:
1320:Drivers/BSP/Components/lsm6dso16is/lsm6dso16is.c ****             : (Odr <=   52.0f) ? LSM6DSO16IS_GY_ODR_AT_52Hz_HP
 878              		.loc 1 1320 13 discriminator 9 view .LVU218
 879 0098 0421     		movs	r1, #4
 880 009a F4E7     		b	.L95
ARM GAS  C:\Users\Nathan\AppData\Local\Temp\ccdIxQaW.s 			page 43


 881              	.L102:
1320:Drivers/BSP/Components/lsm6dso16is/lsm6dso16is.c ****             : (Odr <=   52.0f) ? LSM6DSO16IS_GY_ODR_AT_52Hz_HP
 882              		.loc 1 1320 13 discriminator 12 view .LVU219
 883 009c 0521     		movs	r1, #5
 884 009e F2E7     		b	.L95
 885              	.L103:
1320:Drivers/BSP/Components/lsm6dso16is/lsm6dso16is.c ****             : (Odr <=   52.0f) ? LSM6DSO16IS_GY_ODR_AT_52Hz_HP
 886              		.loc 1 1320 13 discriminator 15 view .LVU220
 887 00a0 0621     		movs	r1, #6
 888 00a2 F0E7     		b	.L95
 889              	.L104:
1320:Drivers/BSP/Components/lsm6dso16is/lsm6dso16is.c ****             : (Odr <=   52.0f) ? LSM6DSO16IS_GY_ODR_AT_52Hz_HP
 890              		.loc 1 1320 13 discriminator 18 view .LVU221
 891 00a4 0721     		movs	r1, #7
 892 00a6 EEE7     		b	.L95
 893              	.L105:
1320:Drivers/BSP/Components/lsm6dso16is/lsm6dso16is.c ****             : (Odr <=   52.0f) ? LSM6DSO16IS_GY_ODR_AT_52Hz_HP
 894              		.loc 1 1320 13 discriminator 21 view .LVU222
 895 00a8 0821     		movs	r1, #8
 896 00aa ECE7     		b	.L95
 897              	.L109:
1320:Drivers/BSP/Components/lsm6dso16is/lsm6dso16is.c ****             : (Odr <=   52.0f) ? LSM6DSO16IS_GY_ODR_AT_52Hz_HP
 898              		.loc 1 1320 13 discriminator 25 view .LVU223
 899 00ac 0A21     		movs	r1, #10
 900 00ae EAE7     		b	.L95
 901              	.LVL62:
 902              	.L111:
1333:Drivers/BSP/Components/lsm6dso16is/lsm6dso16is.c ****   }
 903              		.loc 1 1333 9 view .LVU224
 904 00b0 4FF0FF30 		mov	r0, #-1
 905              	.LVL63:
1336:Drivers/BSP/Components/lsm6dso16is/lsm6dso16is.c **** }
 906              		.loc 1 1336 3 is_stmt 1 view .LVU225
1336:Drivers/BSP/Components/lsm6dso16is/lsm6dso16is.c **** }
 907              		.loc 1 1336 10 is_stmt 0 view .LVU226
 908 00b4 EBE7     		b	.L94
 909              	.L113:
 910 00b6 00BF     		.align	2
 911              	.L112:
 912 00b8 00005042 		.word	1112539136
 913 00bc 0000D042 		.word	1120927744
 914 00c0 00005043 		.word	1129316352
 915 00c4 0000D043 		.word	1137704960
 916 00c8 00405044 		.word	1146109952
 917 00cc 0060D044 		.word	1154506752
 918 00d0 00505045 		.word	1162891264
 919              		.cfi_endproc
 920              	.LFE37:
 922              		.section	.text.LSM6DSO16IS_GYRO_SetOutputDataRate,"ax",%progbits
 923              		.align	1
 924              		.global	LSM6DSO16IS_GYRO_SetOutputDataRate
 925              		.syntax unified
 926              		.thumb
 927              		.thumb_func
 929              	LSM6DSO16IS_GYRO_SetOutputDataRate:
 930              	.LVL64:
 931              	.LFB18:
ARM GAS  C:\Users\Nathan\AppData\Local\Temp\ccdIxQaW.s 			page 44


 829:Drivers/BSP/Components/lsm6dso16is/lsm6dso16is.c ****   int32_t ret;
 932              		.loc 1 829 1 is_stmt 1 view -0
 933              		.cfi_startproc
 934              		@ args = 0, pretend = 0, frame = 0
 935              		@ frame_needed = 0, uses_anonymous_args = 0
 829:Drivers/BSP/Components/lsm6dso16is/lsm6dso16is.c ****   int32_t ret;
 936              		.loc 1 829 1 is_stmt 0 view .LVU228
 937 0000 08B5     		push	{r3, lr}
 938              		.cfi_def_cfa_offset 8
 939              		.cfi_offset 3, -8
 940              		.cfi_offset 14, -4
 830:Drivers/BSP/Components/lsm6dso16is/lsm6dso16is.c **** 
 941              		.loc 1 830 3 is_stmt 1 view .LVU229
 833:Drivers/BSP/Components/lsm6dso16is/lsm6dso16is.c ****   {
 942              		.loc 1 833 3 view .LVU230
 833:Drivers/BSP/Components/lsm6dso16is/lsm6dso16is.c ****   {
 943              		.loc 1 833 11 is_stmt 0 view .LVU231
 944 0002 90F83230 		ldrb	r3, [r0, #50]	@ zero_extendqisi2
 833:Drivers/BSP/Components/lsm6dso16is/lsm6dso16is.c ****   {
 945              		.loc 1 833 6 view .LVU232
 946 0006 012B     		cmp	r3, #1
 947 0008 02D0     		beq	.L118
 839:Drivers/BSP/Components/lsm6dso16is/lsm6dso16is.c ****   }
 948              		.loc 1 839 5 is_stmt 1 view .LVU233
 839:Drivers/BSP/Components/lsm6dso16is/lsm6dso16is.c ****   }
 949              		.loc 1 839 11 is_stmt 0 view .LVU234
 950 000a FFF7FEFF 		bl	LSM6DSO16IS_GYRO_SetOutputDataRate_When_Disabled
 951              	.LVL65:
 842:Drivers/BSP/Components/lsm6dso16is/lsm6dso16is.c **** }
 952              		.loc 1 842 3 is_stmt 1 view .LVU235
 953              	.L114:
 843:Drivers/BSP/Components/lsm6dso16is/lsm6dso16is.c **** 
 954              		.loc 1 843 1 is_stmt 0 view .LVU236
 955 000e 08BD     		pop	{r3, pc}
 956              	.LVL66:
 957              	.L118:
 835:Drivers/BSP/Components/lsm6dso16is/lsm6dso16is.c ****   }
 958              		.loc 1 835 5 is_stmt 1 view .LVU237
 835:Drivers/BSP/Components/lsm6dso16is/lsm6dso16is.c ****   }
 959              		.loc 1 835 11 is_stmt 0 view .LVU238
 960 0010 FFF7FEFF 		bl	LSM6DSO16IS_GYRO_SetOutputDataRate_When_Enabled
 961              	.LVL67:
 835:Drivers/BSP/Components/lsm6dso16is/lsm6dso16is.c ****   }
 962              		.loc 1 835 11 view .LVU239
 963 0014 FBE7     		b	.L114
 964              		.cfi_endproc
 965              	.LFE18:
 967              		.section	.text.LSM6DSO16IS_GYRO_SetFullScale,"ax",%progbits
 968              		.align	1
 969              		.global	LSM6DSO16IS_GYRO_SetFullScale
 970              		.syntax unified
 971              		.thumb
 972              		.thumb_func
 974              	LSM6DSO16IS_GYRO_SetFullScale:
 975              	.LVL68:
 976              	.LFB20:
 899:Drivers/BSP/Components/lsm6dso16is/lsm6dso16is.c ****   int32_t ret = LSM6DSO16IS_OK;
ARM GAS  C:\Users\Nathan\AppData\Local\Temp\ccdIxQaW.s 			page 45


 977              		.loc 1 899 1 is_stmt 1 view -0
 978              		.cfi_startproc
 979              		@ args = 0, pretend = 0, frame = 0
 980              		@ frame_needed = 0, uses_anonymous_args = 0
 899:Drivers/BSP/Components/lsm6dso16is/lsm6dso16is.c ****   int32_t ret = LSM6DSO16IS_OK;
 981              		.loc 1 899 1 is_stmt 0 view .LVU241
 982 0000 08B5     		push	{r3, lr}
 983              		.cfi_def_cfa_offset 8
 984              		.cfi_offset 3, -8
 985              		.cfi_offset 14, -4
 900:Drivers/BSP/Components/lsm6dso16is/lsm6dso16is.c ****   lsm6dso16is_gy_full_scale_t new_fs;
 986              		.loc 1 900 3 is_stmt 1 view .LVU242
 987              	.LVL69:
 901:Drivers/BSP/Components/lsm6dso16is/lsm6dso16is.c **** 
 988              		.loc 1 901 3 view .LVU243
 903:Drivers/BSP/Components/lsm6dso16is/lsm6dso16is.c ****            : (FullScale <= 250)  ? LSM6DSO16IS_250dps
 989              		.loc 1 903 3 view .LVU244
 904:Drivers/BSP/Components/lsm6dso16is/lsm6dso16is.c ****            : (FullScale <= 500)  ? LSM6DSO16IS_500dps
 990              		.loc 1 904 12 is_stmt 0 view .LVU245
 991 0002 7D29     		cmp	r1, #125
 992 0004 09DD     		ble	.L122
 904:Drivers/BSP/Components/lsm6dso16is/lsm6dso16is.c ****            : (FullScale <= 500)  ? LSM6DSO16IS_500dps
 993              		.loc 1 904 12 discriminator 1 view .LVU246
 994 0006 FA29     		cmp	r1, #250
 995 0008 0DDD     		ble	.L123
 904:Drivers/BSP/Components/lsm6dso16is/lsm6dso16is.c ****            : (FullScale <= 500)  ? LSM6DSO16IS_500dps
 996              		.loc 1 904 12 discriminator 3 view .LVU247
 997 000a B1F5FA7F 		cmp	r1, #500
 998 000e 0CDD     		ble	.L124
 904:Drivers/BSP/Components/lsm6dso16is/lsm6dso16is.c ****            : (FullScale <= 500)  ? LSM6DSO16IS_500dps
 999              		.loc 1 904 12 discriminator 5 view .LVU248
 1000 0010 B1F57A7F 		cmp	r1, #1000
 1001 0014 0BDC     		bgt	.L125
 904:Drivers/BSP/Components/lsm6dso16is/lsm6dso16is.c ****            : (FullScale <= 500)  ? LSM6DSO16IS_500dps
 1002              		.loc 1 904 12 discriminator 7 view .LVU249
 1003 0016 0221     		movs	r1, #2
 1004              	.LVL70:
 904:Drivers/BSP/Components/lsm6dso16is/lsm6dso16is.c ****            : (FullScale <= 500)  ? LSM6DSO16IS_500dps
 1005              		.loc 1 904 12 discriminator 7 view .LVU250
 1006 0018 00E0     		b	.L120
 1007              	.LVL71:
 1008              	.L122:
 904:Drivers/BSP/Components/lsm6dso16is/lsm6dso16is.c ****            : (FullScale <= 500)  ? LSM6DSO16IS_500dps
 1009              		.loc 1 904 12 discriminator 2 view .LVU251
 1010 001a 1021     		movs	r1, #16
 1011              	.LVL72:
 1012              	.L120:
 909:Drivers/BSP/Components/lsm6dso16is/lsm6dso16is.c ****   {
 1013              		.loc 1 909 3 is_stmt 1 view .LVU252
 909:Drivers/BSP/Components/lsm6dso16is/lsm6dso16is.c ****   {
 1014              		.loc 1 909 7 is_stmt 0 view .LVU253
 1015 001c 2030     		adds	r0, r0, #32
 1016              	.LVL73:
 909:Drivers/BSP/Components/lsm6dso16is/lsm6dso16is.c ****   {
 1017              		.loc 1 909 7 view .LVU254
 1018 001e FFF7FEFF 		bl	lsm6dso16is_gy_full_scale_set
 1019              	.LVL74:
ARM GAS  C:\Users\Nathan\AppData\Local\Temp\ccdIxQaW.s 			page 46


 909:Drivers/BSP/Components/lsm6dso16is/lsm6dso16is.c ****   {
 1020              		.loc 1 909 6 discriminator 1 view .LVU255
 1021 0022 30B9     		cbnz	r0, .L128
 1022              	.LVL75:
 1023              	.L119:
 915:Drivers/BSP/Components/lsm6dso16is/lsm6dso16is.c **** 
 1024              		.loc 1 915 1 view .LVU256
 1025 0024 08BD     		pop	{r3, pc}
 1026              	.LVL76:
 1027              	.L123:
 904:Drivers/BSP/Components/lsm6dso16is/lsm6dso16is.c ****            : (FullScale <= 500)  ? LSM6DSO16IS_500dps
 1028              		.loc 1 904 12 discriminator 4 view .LVU257
 1029 0026 0021     		movs	r1, #0
 1030              	.LVL77:
 904:Drivers/BSP/Components/lsm6dso16is/lsm6dso16is.c ****            : (FullScale <= 500)  ? LSM6DSO16IS_500dps
 1031              		.loc 1 904 12 discriminator 4 view .LVU258
 1032 0028 F8E7     		b	.L120
 1033              	.LVL78:
 1034              	.L124:
 904:Drivers/BSP/Components/lsm6dso16is/lsm6dso16is.c ****            : (FullScale <= 500)  ? LSM6DSO16IS_500dps
 1035              		.loc 1 904 12 discriminator 6 view .LVU259
 1036 002a 0121     		movs	r1, #1
 1037              	.LVL79:
 904:Drivers/BSP/Components/lsm6dso16is/lsm6dso16is.c ****            : (FullScale <= 500)  ? LSM6DSO16IS_500dps
 1038              		.loc 1 904 12 discriminator 6 view .LVU260
 1039 002c F6E7     		b	.L120
 1040              	.LVL80:
 1041              	.L125:
 904:Drivers/BSP/Components/lsm6dso16is/lsm6dso16is.c ****            : (FullScale <= 500)  ? LSM6DSO16IS_500dps
 1042              		.loc 1 904 12 discriminator 8 view .LVU261
 1043 002e 0321     		movs	r1, #3
 1044              	.LVL81:
 904:Drivers/BSP/Components/lsm6dso16is/lsm6dso16is.c ****            : (FullScale <= 500)  ? LSM6DSO16IS_500dps
 1045              		.loc 1 904 12 discriminator 8 view .LVU262
 1046 0030 F4E7     		b	.L120
 1047              	.LVL82:
 1048              	.L128:
 911:Drivers/BSP/Components/lsm6dso16is/lsm6dso16is.c ****   }
 1049              		.loc 1 911 9 view .LVU263
 1050 0032 4FF0FF30 		mov	r0, #-1
 1051              	.LVL83:
 914:Drivers/BSP/Components/lsm6dso16is/lsm6dso16is.c **** }
 1052              		.loc 1 914 3 is_stmt 1 view .LVU264
 914:Drivers/BSP/Components/lsm6dso16is/lsm6dso16is.c **** }
 1053              		.loc 1 914 10 is_stmt 0 view .LVU265
 1054 0036 F5E7     		b	.L119
 1055              		.cfi_endproc
 1056              	.LFE20:
 1058              		.section	.text.LSM6DSO16IS_ReadID,"ax",%progbits
 1059              		.align	1
 1060              		.global	LSM6DSO16IS_ReadID
 1061              		.syntax unified
 1062              		.thumb
 1063              		.thumb_func
 1065              	LSM6DSO16IS_ReadID:
 1066              	.LVL84:
 1067              	.LFB3:
ARM GAS  C:\Users\Nathan\AppData\Local\Temp\ccdIxQaW.s 			page 47


 257:Drivers/BSP/Components/lsm6dso16is/lsm6dso16is.c ****   int32_t ret = LSM6DSO16IS_OK;
 1068              		.loc 1 257 1 is_stmt 1 view -0
 1069              		.cfi_startproc
 1070              		@ args = 0, pretend = 0, frame = 0
 1071              		@ frame_needed = 0, uses_anonymous_args = 0
 257:Drivers/BSP/Components/lsm6dso16is/lsm6dso16is.c ****   int32_t ret = LSM6DSO16IS_OK;
 1072              		.loc 1 257 1 is_stmt 0 view .LVU267
 1073 0000 08B5     		push	{r3, lr}
 1074              		.cfi_def_cfa_offset 8
 1075              		.cfi_offset 3, -8
 1076              		.cfi_offset 14, -4
 258:Drivers/BSP/Components/lsm6dso16is/lsm6dso16is.c **** 
 1077              		.loc 1 258 3 is_stmt 1 view .LVU268
 1078              	.LVL85:
 260:Drivers/BSP/Components/lsm6dso16is/lsm6dso16is.c ****   {
 1079              		.loc 1 260 3 view .LVU269
 260:Drivers/BSP/Components/lsm6dso16is/lsm6dso16is.c ****   {
 1080              		.loc 1 260 7 is_stmt 0 view .LVU270
 1081 0002 2030     		adds	r0, r0, #32
 1082              	.LVL86:
 260:Drivers/BSP/Components/lsm6dso16is/lsm6dso16is.c ****   {
 1083              		.loc 1 260 7 view .LVU271
 1084 0004 FFF7FEFF 		bl	lsm6dso16is_device_id_get
 1085              	.LVL87:
 260:Drivers/BSP/Components/lsm6dso16is/lsm6dso16is.c ****   {
 1086              		.loc 1 260 6 discriminator 1 view .LVU272
 1087 0008 00B9     		cbnz	r0, .L133
 1088              	.LVL88:
 1089              	.L129:
 266:Drivers/BSP/Components/lsm6dso16is/lsm6dso16is.c **** 
 1090              		.loc 1 266 1 view .LVU273
 1091 000a 08BD     		pop	{r3, pc}
 1092              	.LVL89:
 1093              	.L133:
 262:Drivers/BSP/Components/lsm6dso16is/lsm6dso16is.c ****   }
 1094              		.loc 1 262 9 view .LVU274
 1095 000c 4FF0FF30 		mov	r0, #-1
 1096              	.LVL90:
 265:Drivers/BSP/Components/lsm6dso16is/lsm6dso16is.c **** }
 1097              		.loc 1 265 3 is_stmt 1 view .LVU275
 265:Drivers/BSP/Components/lsm6dso16is/lsm6dso16is.c **** }
 1098              		.loc 1 265 10 is_stmt 0 view .LVU276
 1099 0010 FBE7     		b	.L129
 1100              		.cfi_endproc
 1101              	.LFE3:
 1103              		.section	.text.LSM6DSO16IS_ACC_Disable,"ax",%progbits
 1104              		.align	1
 1105              		.global	LSM6DSO16IS_ACC_Disable
 1106              		.syntax unified
 1107              		.thumb
 1108              		.thumb_func
 1110              	LSM6DSO16IS_ACC_Disable:
 1111              	.LVL91:
 1112              	.LFB6:
 327:Drivers/BSP/Components/lsm6dso16is/lsm6dso16is.c ****   int32_t ret = LSM6DSO16IS_OK;
 1113              		.loc 1 327 1 is_stmt 1 view -0
 1114              		.cfi_startproc
ARM GAS  C:\Users\Nathan\AppData\Local\Temp\ccdIxQaW.s 			page 48


 1115              		@ args = 0, pretend = 0, frame = 0
 1116              		@ frame_needed = 0, uses_anonymous_args = 0
 327:Drivers/BSP/Components/lsm6dso16is/lsm6dso16is.c ****   int32_t ret = LSM6DSO16IS_OK;
 1117              		.loc 1 327 1 is_stmt 0 view .LVU278
 1118 0000 70B5     		push	{r4, r5, r6, lr}
 1119              		.cfi_def_cfa_offset 16
 1120              		.cfi_offset 4, -16
 1121              		.cfi_offset 5, -12
 1122              		.cfi_offset 6, -8
 1123              		.cfi_offset 14, -4
 328:Drivers/BSP/Components/lsm6dso16is/lsm6dso16is.c **** 
 1124              		.loc 1 328 3 is_stmt 1 view .LVU279
 1125              	.LVL92:
 331:Drivers/BSP/Components/lsm6dso16is/lsm6dso16is.c ****   {
 1126              		.loc 1 331 3 view .LVU280
 331:Drivers/BSP/Components/lsm6dso16is/lsm6dso16is.c ****   {
 1127              		.loc 1 331 11 is_stmt 0 view .LVU281
 1128 0002 90F83130 		ldrb	r3, [r0, #49]	@ zero_extendqisi2
 331:Drivers/BSP/Components/lsm6dso16is/lsm6dso16is.c ****   {
 1129              		.loc 1 331 6 view .LVU282
 1130 0006 13B9     		cbnz	r3, .L142
 333:Drivers/BSP/Components/lsm6dso16is/lsm6dso16is.c ****   }
 1131              		.loc 1 333 9 view .LVU283
 1132 0008 0025     		movs	r5, #0
 352:Drivers/BSP/Components/lsm6dso16is/lsm6dso16is.c **** }
 1133              		.loc 1 352 3 is_stmt 1 view .LVU284
 1134              	.LVL93:
 1135              	.L134:
 353:Drivers/BSP/Components/lsm6dso16is/lsm6dso16is.c **** 
 1136              		.loc 1 353 1 is_stmt 0 view .LVU285
 1137 000a 2846     		mov	r0, r5
 1138 000c 70BD     		pop	{r4, r5, r6, pc}
 1139              	.LVL94:
 1140              	.L142:
 353:Drivers/BSP/Components/lsm6dso16is/lsm6dso16is.c **** 
 1141              		.loc 1 353 1 view .LVU286
 1142 000e 0446     		mov	r4, r0
 338:Drivers/BSP/Components/lsm6dso16is/lsm6dso16is.c ****     {
 1143              		.loc 1 338 5 is_stmt 1 view .LVU287
 338:Drivers/BSP/Components/lsm6dso16is/lsm6dso16is.c ****     {
 1144              		.loc 1 338 38 is_stmt 0 view .LVU288
 1145 0010 00F12006 		add	r6, r0, #32
 338:Drivers/BSP/Components/lsm6dso16is/lsm6dso16is.c ****     {
 1146              		.loc 1 338 9 view .LVU289
 1147 0014 00F13301 		add	r1, r0, #51
 1148 0018 3046     		mov	r0, r6
 1149              	.LVL95:
 338:Drivers/BSP/Components/lsm6dso16is/lsm6dso16is.c ****     {
 1150              		.loc 1 338 9 view .LVU290
 1151 001a FFF7FEFF 		bl	lsm6dso16is_xl_data_rate_get
 1152              	.LVL96:
 338:Drivers/BSP/Components/lsm6dso16is/lsm6dso16is.c ****     {
 1153              		.loc 1 338 8 discriminator 1 view .LVU291
 1154 001e 0546     		mov	r5, r0
 1155 0020 08B1     		cbz	r0, .L136
 340:Drivers/BSP/Components/lsm6dso16is/lsm6dso16is.c ****     }
 1156              		.loc 1 340 11 view .LVU292
ARM GAS  C:\Users\Nathan\AppData\Local\Temp\ccdIxQaW.s 			page 49


 1157 0022 4FF0FF35 		mov	r5, #-1
 1158              	.L136:
 1159              	.LVL97:
 344:Drivers/BSP/Components/lsm6dso16is/lsm6dso16is.c ****     {
 1160              		.loc 1 344 5 is_stmt 1 view .LVU293
 344:Drivers/BSP/Components/lsm6dso16is/lsm6dso16is.c ****     {
 1161              		.loc 1 344 9 is_stmt 0 view .LVU294
 1162 0026 0021     		movs	r1, #0
 1163 0028 3046     		mov	r0, r6
 1164 002a FFF7FEFF 		bl	lsm6dso16is_xl_data_rate_set
 1165              	.LVL98:
 344:Drivers/BSP/Components/lsm6dso16is/lsm6dso16is.c ****     {
 1166              		.loc 1 344 8 discriminator 1 view .LVU295
 1167 002e 08B1     		cbz	r0, .L137
 346:Drivers/BSP/Components/lsm6dso16is/lsm6dso16is.c ****     }
 1168              		.loc 1 346 11 view .LVU296
 1169 0030 4FF0FF35 		mov	r5, #-1
 1170              	.LVL99:
 1171              	.L137:
 349:Drivers/BSP/Components/lsm6dso16is/lsm6dso16is.c ****   }
 1172              		.loc 1 349 5 is_stmt 1 view .LVU297
 349:Drivers/BSP/Components/lsm6dso16is/lsm6dso16is.c ****   }
 1173              		.loc 1 349 26 is_stmt 0 view .LVU298
 1174 0034 0023     		movs	r3, #0
 1175 0036 84F83130 		strb	r3, [r4, #49]
 1176 003a E6E7     		b	.L134
 1177              		.cfi_endproc
 1178              	.LFE6:
 1180              		.section	.text.LSM6DSO16IS_ACC_GetOutputDataRate,"ax",%progbits
 1181              		.align	1
 1182              		.global	LSM6DSO16IS_ACC_GetOutputDataRate
 1183              		.syntax unified
 1184              		.thumb
 1185              		.thumb_func
 1187              	LSM6DSO16IS_ACC_GetOutputDataRate:
 1188              	.LVL100:
 1189              	.LFB8:
 406:Drivers/BSP/Components/lsm6dso16is/lsm6dso16is.c ****   int32_t ret = LSM6DSO16IS_OK;
 1190              		.loc 1 406 1 is_stmt 1 view -0
 1191              		.cfi_startproc
 1192              		@ args = 0, pretend = 0, frame = 8
 1193              		@ frame_needed = 0, uses_anonymous_args = 0
 406:Drivers/BSP/Components/lsm6dso16is/lsm6dso16is.c ****   int32_t ret = LSM6DSO16IS_OK;
 1194              		.loc 1 406 1 is_stmt 0 view .LVU300
 1195 0000 10B5     		push	{r4, lr}
 1196              		.cfi_def_cfa_offset 8
 1197              		.cfi_offset 4, -8
 1198              		.cfi_offset 14, -4
 1199 0002 82B0     		sub	sp, sp, #8
 1200              		.cfi_def_cfa_offset 16
 1201 0004 0C46     		mov	r4, r1
 407:Drivers/BSP/Components/lsm6dso16is/lsm6dso16is.c ****   lsm6dso16is_xl_data_rate_t odr_low_level;
 1202              		.loc 1 407 3 is_stmt 1 view .LVU301
 1203              	.LVL101:
 408:Drivers/BSP/Components/lsm6dso16is/lsm6dso16is.c **** 
 1204              		.loc 1 408 3 view .LVU302
 411:Drivers/BSP/Components/lsm6dso16is/lsm6dso16is.c ****   {
ARM GAS  C:\Users\Nathan\AppData\Local\Temp\ccdIxQaW.s 			page 50


 1205              		.loc 1 411 3 view .LVU303
 411:Drivers/BSP/Components/lsm6dso16is/lsm6dso16is.c ****   {
 1206              		.loc 1 411 7 is_stmt 0 view .LVU304
 1207 0006 0DF10701 		add	r1, sp, #7
 1208              	.LVL102:
 411:Drivers/BSP/Components/lsm6dso16is/lsm6dso16is.c ****   {
 1209              		.loc 1 411 7 view .LVU305
 1210 000a 2030     		adds	r0, r0, #32
 1211              	.LVL103:
 411:Drivers/BSP/Components/lsm6dso16is/lsm6dso16is.c ****   {
 1212              		.loc 1 411 7 view .LVU306
 1213 000c FFF7FEFF 		bl	lsm6dso16is_xl_data_rate_get
 1214              	.LVL104:
 411:Drivers/BSP/Components/lsm6dso16is/lsm6dso16is.c ****   {
 1215              		.loc 1 411 6 discriminator 1 view .LVU307
 1216 0010 08B1     		cbz	r0, .L144
 413:Drivers/BSP/Components/lsm6dso16is/lsm6dso16is.c ****   }
 1217              		.loc 1 413 9 view .LVU308
 1218 0012 4FF0FF30 		mov	r0, #-1
 1219              	.L144:
 1220              	.LVL105:
 416:Drivers/BSP/Components/lsm6dso16is/lsm6dso16is.c ****   {
 1221              		.loc 1 416 3 is_stmt 1 view .LVU309
 1222 0016 9DF80730 		ldrb	r3, [sp, #7]	@ zero_extendqisi2
 1223 001a 1B2B     		cmp	r3, #27
 1224 001c 33D8     		bhi	.L160
 1225 001e DFE803F0 		tbb	[pc, r3]
 1226              	.L147:
 1227 0022 0E       		.byte	(.L158-.L147)/2
 1228 0023 14       		.byte	(.L157-.L147)/2
 1229 0024 17       		.byte	(.L156-.L147)/2
 1230 0025 1A       		.byte	(.L155-.L147)/2
 1231 0026 1D       		.byte	(.L154-.L147)/2
 1232 0027 20       		.byte	(.L153-.L147)/2
 1233 0028 23       		.byte	(.L152-.L147)/2
 1234 0029 26       		.byte	(.L151-.L147)/2
 1235 002a 29       		.byte	(.L150-.L147)/2
 1236 002b 2C       		.byte	(.L149-.L147)/2
 1237 002c 2F       		.byte	(.L148-.L147)/2
 1238 002d 32       		.byte	(.L160-.L147)/2
 1239 002e 32       		.byte	(.L160-.L147)/2
 1240 002f 32       		.byte	(.L160-.L147)/2
 1241 0030 32       		.byte	(.L160-.L147)/2
 1242 0031 32       		.byte	(.L160-.L147)/2
 1243 0032 32       		.byte	(.L160-.L147)/2
 1244 0033 14       		.byte	(.L157-.L147)/2
 1245 0034 17       		.byte	(.L156-.L147)/2
 1246 0035 1A       		.byte	(.L155-.L147)/2
 1247 0036 1D       		.byte	(.L154-.L147)/2
 1248 0037 20       		.byte	(.L153-.L147)/2
 1249 0038 23       		.byte	(.L152-.L147)/2
 1250 0039 26       		.byte	(.L151-.L147)/2
 1251 003a 29       		.byte	(.L150-.L147)/2
 1252 003b 2C       		.byte	(.L149-.L147)/2
 1253 003c 2F       		.byte	(.L148-.L147)/2
 1254 003d 11       		.byte	(.L146-.L147)/2
 1255              		.p2align 1
ARM GAS  C:\Users\Nathan\AppData\Local\Temp\ccdIxQaW.s 			page 51


 1256              	.L158:
 419:Drivers/BSP/Components/lsm6dso16is/lsm6dso16is.c ****       break;
 1257              		.loc 1 419 7 view .LVU310
 419:Drivers/BSP/Components/lsm6dso16is/lsm6dso16is.c ****       break;
 1258              		.loc 1 419 12 is_stmt 0 view .LVU311
 1259 003e 0023     		movs	r3, #0
 1260 0040 2360     		str	r3, [r4]	@ float
 420:Drivers/BSP/Components/lsm6dso16is/lsm6dso16is.c **** 
 1261              		.loc 1 420 7 is_stmt 1 view .LVU312
 1262 0042 22E0     		b	.L143
 1263              	.L146:
 423:Drivers/BSP/Components/lsm6dso16is/lsm6dso16is.c ****       break;
 1264              		.loc 1 423 7 view .LVU313
 423:Drivers/BSP/Components/lsm6dso16is/lsm6dso16is.c ****       break;
 1265              		.loc 1 423 12 is_stmt 0 view .LVU314
 1266 0044 124B     		ldr	r3, .L162
 1267 0046 2360     		str	r3, [r4]	@ float
 424:Drivers/BSP/Components/lsm6dso16is/lsm6dso16is.c **** 
 1268              		.loc 1 424 7 is_stmt 1 view .LVU315
 1269 0048 1FE0     		b	.L143
 1270              	.L157:
 428:Drivers/BSP/Components/lsm6dso16is/lsm6dso16is.c ****       break;
 1271              		.loc 1 428 7 view .LVU316
 428:Drivers/BSP/Components/lsm6dso16is/lsm6dso16is.c ****       break;
 1272              		.loc 1 428 12 is_stmt 0 view .LVU317
 1273 004a 124B     		ldr	r3, .L162+4
 1274 004c 2360     		str	r3, [r4]	@ float
 429:Drivers/BSP/Components/lsm6dso16is/lsm6dso16is.c **** 
 1275              		.loc 1 429 7 is_stmt 1 view .LVU318
 1276 004e 1CE0     		b	.L143
 1277              	.L156:
 433:Drivers/BSP/Components/lsm6dso16is/lsm6dso16is.c ****       break;
 1278              		.loc 1 433 7 view .LVU319
 433:Drivers/BSP/Components/lsm6dso16is/lsm6dso16is.c ****       break;
 1279              		.loc 1 433 12 is_stmt 0 view .LVU320
 1280 0050 114B     		ldr	r3, .L162+8
 1281 0052 2360     		str	r3, [r4]	@ float
 434:Drivers/BSP/Components/lsm6dso16is/lsm6dso16is.c **** 
 1282              		.loc 1 434 7 is_stmt 1 view .LVU321
 1283 0054 19E0     		b	.L143
 1284              	.L155:
 438:Drivers/BSP/Components/lsm6dso16is/lsm6dso16is.c ****       break;
 1285              		.loc 1 438 7 view .LVU322
 438:Drivers/BSP/Components/lsm6dso16is/lsm6dso16is.c ****       break;
 1286              		.loc 1 438 12 is_stmt 0 view .LVU323
 1287 0056 114B     		ldr	r3, .L162+12
 1288 0058 2360     		str	r3, [r4]	@ float
 439:Drivers/BSP/Components/lsm6dso16is/lsm6dso16is.c **** 
 1289              		.loc 1 439 7 is_stmt 1 view .LVU324
 1290 005a 16E0     		b	.L143
 1291              	.L154:
 443:Drivers/BSP/Components/lsm6dso16is/lsm6dso16is.c ****       break;
 1292              		.loc 1 443 7 view .LVU325
 443:Drivers/BSP/Components/lsm6dso16is/lsm6dso16is.c ****       break;
 1293              		.loc 1 443 12 is_stmt 0 view .LVU326
 1294 005c 104B     		ldr	r3, .L162+16
 1295 005e 2360     		str	r3, [r4]	@ float
ARM GAS  C:\Users\Nathan\AppData\Local\Temp\ccdIxQaW.s 			page 52


 444:Drivers/BSP/Components/lsm6dso16is/lsm6dso16is.c **** 
 1296              		.loc 1 444 7 is_stmt 1 view .LVU327
 1297 0060 13E0     		b	.L143
 1298              	.L153:
 448:Drivers/BSP/Components/lsm6dso16is/lsm6dso16is.c ****       break;
 1299              		.loc 1 448 7 view .LVU328
 448:Drivers/BSP/Components/lsm6dso16is/lsm6dso16is.c ****       break;
 1300              		.loc 1 448 12 is_stmt 0 view .LVU329
 1301 0062 104B     		ldr	r3, .L162+20
 1302 0064 2360     		str	r3, [r4]	@ float
 449:Drivers/BSP/Components/lsm6dso16is/lsm6dso16is.c **** 
 1303              		.loc 1 449 7 is_stmt 1 view .LVU330
 1304 0066 10E0     		b	.L143
 1305              	.L152:
 453:Drivers/BSP/Components/lsm6dso16is/lsm6dso16is.c ****       break;
 1306              		.loc 1 453 7 view .LVU331
 453:Drivers/BSP/Components/lsm6dso16is/lsm6dso16is.c ****       break;
 1307              		.loc 1 453 12 is_stmt 0 view .LVU332
 1308 0068 0F4B     		ldr	r3, .L162+24
 1309 006a 2360     		str	r3, [r4]	@ float
 454:Drivers/BSP/Components/lsm6dso16is/lsm6dso16is.c **** 
 1310              		.loc 1 454 7 is_stmt 1 view .LVU333
 1311 006c 0DE0     		b	.L143
 1312              	.L151:
 458:Drivers/BSP/Components/lsm6dso16is/lsm6dso16is.c ****       break;
 1313              		.loc 1 458 7 view .LVU334
 458:Drivers/BSP/Components/lsm6dso16is/lsm6dso16is.c ****       break;
 1314              		.loc 1 458 12 is_stmt 0 view .LVU335
 1315 006e 0F4B     		ldr	r3, .L162+28
 1316 0070 2360     		str	r3, [r4]	@ float
 459:Drivers/BSP/Components/lsm6dso16is/lsm6dso16is.c **** 
 1317              		.loc 1 459 7 is_stmt 1 view .LVU336
 1318 0072 0AE0     		b	.L143
 1319              	.L150:
 463:Drivers/BSP/Components/lsm6dso16is/lsm6dso16is.c ****       break;
 1320              		.loc 1 463 7 view .LVU337
 463:Drivers/BSP/Components/lsm6dso16is/lsm6dso16is.c ****       break;
 1321              		.loc 1 463 12 is_stmt 0 view .LVU338
 1322 0074 0E4B     		ldr	r3, .L162+32
 1323 0076 2360     		str	r3, [r4]	@ float
 464:Drivers/BSP/Components/lsm6dso16is/lsm6dso16is.c **** 
 1324              		.loc 1 464 7 is_stmt 1 view .LVU339
 1325 0078 07E0     		b	.L143
 1326              	.L149:
 468:Drivers/BSP/Components/lsm6dso16is/lsm6dso16is.c ****       break;
 1327              		.loc 1 468 7 view .LVU340
 468:Drivers/BSP/Components/lsm6dso16is/lsm6dso16is.c ****       break;
 1328              		.loc 1 468 12 is_stmt 0 view .LVU341
 1329 007a 0E4B     		ldr	r3, .L162+36
 1330 007c 2360     		str	r3, [r4]	@ float
 469:Drivers/BSP/Components/lsm6dso16is/lsm6dso16is.c **** 
 1331              		.loc 1 469 7 is_stmt 1 view .LVU342
 1332 007e 04E0     		b	.L143
 1333              	.L148:
 473:Drivers/BSP/Components/lsm6dso16is/lsm6dso16is.c ****       break;
 1334              		.loc 1 473 7 view .LVU343
 473:Drivers/BSP/Components/lsm6dso16is/lsm6dso16is.c ****       break;
ARM GAS  C:\Users\Nathan\AppData\Local\Temp\ccdIxQaW.s 			page 53


 1335              		.loc 1 473 12 is_stmt 0 view .LVU344
 1336 0080 0D4B     		ldr	r3, .L162+40
 1337 0082 2360     		str	r3, [r4]	@ float
 474:Drivers/BSP/Components/lsm6dso16is/lsm6dso16is.c **** 
 1338              		.loc 1 474 7 is_stmt 1 view .LVU345
 1339 0084 01E0     		b	.L143
 1340              	.L160:
 416:Drivers/BSP/Components/lsm6dso16is/lsm6dso16is.c ****   {
 1341              		.loc 1 416 3 is_stmt 0 view .LVU346
 1342 0086 4FF0FF30 		mov	r0, #-1
 1343              	.LVL106:
 481:Drivers/BSP/Components/lsm6dso16is/lsm6dso16is.c **** }
 1344              		.loc 1 481 3 is_stmt 1 view .LVU347
 1345              	.L143:
 482:Drivers/BSP/Components/lsm6dso16is/lsm6dso16is.c **** 
 1346              		.loc 1 482 1 is_stmt 0 view .LVU348
 1347 008a 02B0     		add	sp, sp, #8
 1348              		.cfi_def_cfa_offset 8
 1349              		@ sp needed
 1350 008c 10BD     		pop	{r4, pc}
 1351              	.LVL107:
 1352              	.L163:
 482:Drivers/BSP/Components/lsm6dso16is/lsm6dso16is.c **** 
 1353              		.loc 1 482 1 view .LVU349
 1354 008e 00BF     		.align	2
 1355              	.L162:
 1356 0090 CDCCCC3F 		.word	1070386381
 1357 0094 00004841 		.word	1095237632
 1358 0098 0000D041 		.word	1104150528
 1359 009c 00005042 		.word	1112539136
 1360 00a0 0000D042 		.word	1120927744
 1361 00a4 00005043 		.word	1129316352
 1362 00a8 0000D043 		.word	1137704960
 1363 00ac 00405044 		.word	1146109952
 1364 00b0 0060D044 		.word	1154506752
 1365 00b4 00505045 		.word	1162891264
 1366 00b8 0058D045 		.word	1171281920
 1367              		.cfi_endproc
 1368              	.LFE8:
 1370              		.section	.text.LSM6DSO16IS_ACC_GetSensitivity,"ax",%progbits
 1371              		.align	1
 1372              		.global	LSM6DSO16IS_ACC_GetSensitivity
 1373              		.syntax unified
 1374              		.thumb
 1375              		.thumb_func
 1377              	LSM6DSO16IS_ACC_GetSensitivity:
 1378              	.LVL108:
 1379              	.LFB7:
 362:Drivers/BSP/Components/lsm6dso16is/lsm6dso16is.c ****   int32_t ret = LSM6DSO16IS_OK;
 1380              		.loc 1 362 1 is_stmt 1 view -0
 1381              		.cfi_startproc
 1382              		@ args = 0, pretend = 0, frame = 8
 1383              		@ frame_needed = 0, uses_anonymous_args = 0
 362:Drivers/BSP/Components/lsm6dso16is/lsm6dso16is.c ****   int32_t ret = LSM6DSO16IS_OK;
 1384              		.loc 1 362 1 is_stmt 0 view .LVU351
 1385 0000 10B5     		push	{r4, lr}
 1386              		.cfi_def_cfa_offset 8
ARM GAS  C:\Users\Nathan\AppData\Local\Temp\ccdIxQaW.s 			page 54


 1387              		.cfi_offset 4, -8
 1388              		.cfi_offset 14, -4
 1389 0002 82B0     		sub	sp, sp, #8
 1390              		.cfi_def_cfa_offset 16
 1391 0004 0C46     		mov	r4, r1
 363:Drivers/BSP/Components/lsm6dso16is/lsm6dso16is.c ****   lsm6dso16is_xl_full_scale_t full_scale;
 1392              		.loc 1 363 3 is_stmt 1 view .LVU352
 1393              	.LVL109:
 364:Drivers/BSP/Components/lsm6dso16is/lsm6dso16is.c **** 
 1394              		.loc 1 364 3 view .LVU353
 367:Drivers/BSP/Components/lsm6dso16is/lsm6dso16is.c ****   {
 1395              		.loc 1 367 3 view .LVU354
 367:Drivers/BSP/Components/lsm6dso16is/lsm6dso16is.c ****   {
 1396              		.loc 1 367 7 is_stmt 0 view .LVU355
 1397 0006 0DF10701 		add	r1, sp, #7
 1398              	.LVL110:
 367:Drivers/BSP/Components/lsm6dso16is/lsm6dso16is.c ****   {
 1399              		.loc 1 367 7 view .LVU356
 1400 000a 2030     		adds	r0, r0, #32
 1401              	.LVL111:
 367:Drivers/BSP/Components/lsm6dso16is/lsm6dso16is.c ****   {
 1402              		.loc 1 367 7 view .LVU357
 1403 000c FFF7FEFF 		bl	lsm6dso16is_xl_full_scale_get
 1404              	.LVL112:
 367:Drivers/BSP/Components/lsm6dso16is/lsm6dso16is.c ****   {
 1405              		.loc 1 367 6 discriminator 1 view .LVU358
 1406 0010 08B1     		cbz	r0, .L165
 369:Drivers/BSP/Components/lsm6dso16is/lsm6dso16is.c ****   }
 1407              		.loc 1 369 9 view .LVU359
 1408 0012 4FF0FF30 		mov	r0, #-1
 1409              	.L165:
 1410              	.LVL113:
 373:Drivers/BSP/Components/lsm6dso16is/lsm6dso16is.c ****   {
 1411              		.loc 1 373 3 is_stmt 1 view .LVU360
 1412 0016 9DF80730 		ldrb	r3, [sp, #7]	@ zero_extendqisi2
 1413 001a 032B     		cmp	r3, #3
 1414 001c 10D8     		bhi	.L173
 1415 001e DFE803F0 		tbb	[pc, r3]
 1416              	.L168:
 1417 0022 02       		.byte	(.L171-.L168)/2
 1418 0023 0C       		.byte	(.L170-.L168)/2
 1419 0024 06       		.byte	(.L169-.L168)/2
 1420 0025 09       		.byte	(.L167-.L168)/2
 1421              		.p2align 1
 1422              	.L171:
 376:Drivers/BSP/Components/lsm6dso16is/lsm6dso16is.c ****       break;
 1423              		.loc 1 376 7 view .LVU361
 376:Drivers/BSP/Components/lsm6dso16is/lsm6dso16is.c ****       break;
 1424              		.loc 1 376 20 is_stmt 0 view .LVU362
 1425 0026 084B     		ldr	r3, .L175
 1426 0028 2360     		str	r3, [r4]	@ float
 377:Drivers/BSP/Components/lsm6dso16is/lsm6dso16is.c **** 
 1427              		.loc 1 377 7 is_stmt 1 view .LVU363
 1428              	.LVL114:
 1429              	.L164:
 397:Drivers/BSP/Components/lsm6dso16is/lsm6dso16is.c **** 
 1430              		.loc 1 397 1 is_stmt 0 view .LVU364
ARM GAS  C:\Users\Nathan\AppData\Local\Temp\ccdIxQaW.s 			page 55


 1431 002a 02B0     		add	sp, sp, #8
 1432              		.cfi_remember_state
 1433              		.cfi_def_cfa_offset 8
 1434              		@ sp needed
 1435 002c 10BD     		pop	{r4, pc}
 1436              	.LVL115:
 1437              	.L169:
 1438              		.cfi_restore_state
 380:Drivers/BSP/Components/lsm6dso16is/lsm6dso16is.c ****       break;
 1439              		.loc 1 380 7 is_stmt 1 view .LVU365
 380:Drivers/BSP/Components/lsm6dso16is/lsm6dso16is.c ****       break;
 1440              		.loc 1 380 20 is_stmt 0 view .LVU366
 1441 002e 074B     		ldr	r3, .L175+4
 1442 0030 2360     		str	r3, [r4]	@ float
 381:Drivers/BSP/Components/lsm6dso16is/lsm6dso16is.c **** 
 1443              		.loc 1 381 7 is_stmt 1 view .LVU367
 1444 0032 FAE7     		b	.L164
 1445              	.L167:
 384:Drivers/BSP/Components/lsm6dso16is/lsm6dso16is.c ****       break;
 1446              		.loc 1 384 7 view .LVU368
 384:Drivers/BSP/Components/lsm6dso16is/lsm6dso16is.c ****       break;
 1447              		.loc 1 384 20 is_stmt 0 view .LVU369
 1448 0034 064B     		ldr	r3, .L175+8
 1449 0036 2360     		str	r3, [r4]	@ float
 385:Drivers/BSP/Components/lsm6dso16is/lsm6dso16is.c **** 
 1450              		.loc 1 385 7 is_stmt 1 view .LVU370
 1451 0038 F7E7     		b	.L164
 1452              	.L170:
 388:Drivers/BSP/Components/lsm6dso16is/lsm6dso16is.c ****       break;
 1453              		.loc 1 388 7 view .LVU371
 388:Drivers/BSP/Components/lsm6dso16is/lsm6dso16is.c ****       break;
 1454              		.loc 1 388 20 is_stmt 0 view .LVU372
 1455 003a 064B     		ldr	r3, .L175+12
 1456 003c 2360     		str	r3, [r4]	@ float
 389:Drivers/BSP/Components/lsm6dso16is/lsm6dso16is.c **** 
 1457              		.loc 1 389 7 is_stmt 1 view .LVU373
 1458 003e F4E7     		b	.L164
 1459              	.L173:
 373:Drivers/BSP/Components/lsm6dso16is/lsm6dso16is.c ****   {
 1460              		.loc 1 373 3 is_stmt 0 view .LVU374
 1461 0040 4FF0FF30 		mov	r0, #-1
 1462              	.LVL116:
 396:Drivers/BSP/Components/lsm6dso16is/lsm6dso16is.c **** }
 1463              		.loc 1 396 3 is_stmt 1 view .LVU375
 396:Drivers/BSP/Components/lsm6dso16is/lsm6dso16is.c **** }
 1464              		.loc 1 396 10 is_stmt 0 view .LVU376
 1465 0044 F1E7     		b	.L164
 1466              	.L176:
 1467 0046 00BF     		.align	2
 1468              	.L175:
 1469 0048 23DB793D 		.word	1031396131
 1470 004c 23DBF93D 		.word	1039784739
 1471 0050 23DB793E 		.word	1048173347
 1472 0054 23DBF93E 		.word	1056561955
 1473              		.cfi_endproc
 1474              	.LFE7:
 1476              		.section	.text.LSM6DSO16IS_ACC_GetFullScale,"ax",%progbits
ARM GAS  C:\Users\Nathan\AppData\Local\Temp\ccdIxQaW.s 			page 56


 1477              		.align	1
 1478              		.global	LSM6DSO16IS_ACC_GetFullScale
 1479              		.syntax unified
 1480              		.thumb
 1481              		.thumb_func
 1483              	LSM6DSO16IS_ACC_GetFullScale:
 1484              	.LVL117:
 1485              	.LFB10:
 514:Drivers/BSP/Components/lsm6dso16is/lsm6dso16is.c ****   int32_t ret = LSM6DSO16IS_OK;
 1486              		.loc 1 514 1 is_stmt 1 view -0
 1487              		.cfi_startproc
 1488              		@ args = 0, pretend = 0, frame = 8
 1489              		@ frame_needed = 0, uses_anonymous_args = 0
 514:Drivers/BSP/Components/lsm6dso16is/lsm6dso16is.c ****   int32_t ret = LSM6DSO16IS_OK;
 1490              		.loc 1 514 1 is_stmt 0 view .LVU378
 1491 0000 10B5     		push	{r4, lr}
 1492              		.cfi_def_cfa_offset 8
 1493              		.cfi_offset 4, -8
 1494              		.cfi_offset 14, -4
 1495 0002 82B0     		sub	sp, sp, #8
 1496              		.cfi_def_cfa_offset 16
 1497 0004 0C46     		mov	r4, r1
 515:Drivers/BSP/Components/lsm6dso16is/lsm6dso16is.c ****   lsm6dso16is_xl_full_scale_t fs_low_level;
 1498              		.loc 1 515 3 is_stmt 1 view .LVU379
 1499              	.LVL118:
 516:Drivers/BSP/Components/lsm6dso16is/lsm6dso16is.c **** 
 1500              		.loc 1 516 3 view .LVU380
 519:Drivers/BSP/Components/lsm6dso16is/lsm6dso16is.c ****   {
 1501              		.loc 1 519 3 view .LVU381
 519:Drivers/BSP/Components/lsm6dso16is/lsm6dso16is.c ****   {
 1502              		.loc 1 519 7 is_stmt 0 view .LVU382
 1503 0006 0DF10701 		add	r1, sp, #7
 1504              	.LVL119:
 519:Drivers/BSP/Components/lsm6dso16is/lsm6dso16is.c ****   {
 1505              		.loc 1 519 7 view .LVU383
 1506 000a 2030     		adds	r0, r0, #32
 1507              	.LVL120:
 519:Drivers/BSP/Components/lsm6dso16is/lsm6dso16is.c ****   {
 1508              		.loc 1 519 7 view .LVU384
 1509 000c FFF7FEFF 		bl	lsm6dso16is_xl_full_scale_get
 1510              	.LVL121:
 519:Drivers/BSP/Components/lsm6dso16is/lsm6dso16is.c ****   {
 1511              		.loc 1 519 6 discriminator 1 view .LVU385
 1512 0010 08B1     		cbz	r0, .L178
 521:Drivers/BSP/Components/lsm6dso16is/lsm6dso16is.c ****   }
 1513              		.loc 1 521 9 view .LVU386
 1514 0012 4FF0FF30 		mov	r0, #-1
 1515              	.L178:
 1516              	.LVL122:
 524:Drivers/BSP/Components/lsm6dso16is/lsm6dso16is.c ****   {
 1517              		.loc 1 524 3 is_stmt 1 view .LVU387
 1518 0016 9DF80730 		ldrb	r3, [sp, #7]	@ zero_extendqisi2
 1519 001a 032B     		cmp	r3, #3
 1520 001c 10D8     		bhi	.L186
 1521 001e DFE803F0 		tbb	[pc, r3]
 1522              	.L181:
 1523 0022 02       		.byte	(.L184-.L181)/2
ARM GAS  C:\Users\Nathan\AppData\Local\Temp\ccdIxQaW.s 			page 57


 1524 0023 0C       		.byte	(.L183-.L181)/2
 1525 0024 06       		.byte	(.L182-.L181)/2
 1526 0025 09       		.byte	(.L180-.L181)/2
 1527              		.p2align 1
 1528              	.L184:
 527:Drivers/BSP/Components/lsm6dso16is/lsm6dso16is.c ****       break;
 1529              		.loc 1 527 7 view .LVU388
 527:Drivers/BSP/Components/lsm6dso16is/lsm6dso16is.c ****       break;
 1530              		.loc 1 527 18 is_stmt 0 view .LVU389
 1531 0026 0223     		movs	r3, #2
 1532 0028 2360     		str	r3, [r4]
 528:Drivers/BSP/Components/lsm6dso16is/lsm6dso16is.c **** 
 1533              		.loc 1 528 7 is_stmt 1 view .LVU390
 1534              	.LVL123:
 1535              	.L177:
 548:Drivers/BSP/Components/lsm6dso16is/lsm6dso16is.c **** 
 1536              		.loc 1 548 1 is_stmt 0 view .LVU391
 1537 002a 02B0     		add	sp, sp, #8
 1538              		.cfi_remember_state
 1539              		.cfi_def_cfa_offset 8
 1540              		@ sp needed
 1541 002c 10BD     		pop	{r4, pc}
 1542              	.LVL124:
 1543              	.L182:
 1544              		.cfi_restore_state
 531:Drivers/BSP/Components/lsm6dso16is/lsm6dso16is.c ****       break;
 1545              		.loc 1 531 7 is_stmt 1 view .LVU392
 531:Drivers/BSP/Components/lsm6dso16is/lsm6dso16is.c ****       break;
 1546              		.loc 1 531 18 is_stmt 0 view .LVU393
 1547 002e 0423     		movs	r3, #4
 1548 0030 2360     		str	r3, [r4]
 532:Drivers/BSP/Components/lsm6dso16is/lsm6dso16is.c **** 
 1549              		.loc 1 532 7 is_stmt 1 view .LVU394
 1550 0032 FAE7     		b	.L177
 1551              	.L180:
 535:Drivers/BSP/Components/lsm6dso16is/lsm6dso16is.c ****       break;
 1552              		.loc 1 535 7 view .LVU395
 535:Drivers/BSP/Components/lsm6dso16is/lsm6dso16is.c ****       break;
 1553              		.loc 1 535 18 is_stmt 0 view .LVU396
 1554 0034 0823     		movs	r3, #8
 1555 0036 2360     		str	r3, [r4]
 536:Drivers/BSP/Components/lsm6dso16is/lsm6dso16is.c **** 
 1556              		.loc 1 536 7 is_stmt 1 view .LVU397
 1557 0038 F7E7     		b	.L177
 1558              	.L183:
 539:Drivers/BSP/Components/lsm6dso16is/lsm6dso16is.c ****       break;
 1559              		.loc 1 539 7 view .LVU398
 539:Drivers/BSP/Components/lsm6dso16is/lsm6dso16is.c ****       break;
 1560              		.loc 1 539 18 is_stmt 0 view .LVU399
 1561 003a 1023     		movs	r3, #16
 1562 003c 2360     		str	r3, [r4]
 540:Drivers/BSP/Components/lsm6dso16is/lsm6dso16is.c **** 
 1563              		.loc 1 540 7 is_stmt 1 view .LVU400
 1564 003e F4E7     		b	.L177
 1565              	.L186:
 524:Drivers/BSP/Components/lsm6dso16is/lsm6dso16is.c ****   {
 1566              		.loc 1 524 3 is_stmt 0 view .LVU401
ARM GAS  C:\Users\Nathan\AppData\Local\Temp\ccdIxQaW.s 			page 58


 1567 0040 4FF0FF30 		mov	r0, #-1
 1568              	.LVL125:
 547:Drivers/BSP/Components/lsm6dso16is/lsm6dso16is.c **** }
 1569              		.loc 1 547 3 is_stmt 1 view .LVU402
 547:Drivers/BSP/Components/lsm6dso16is/lsm6dso16is.c **** }
 1570              		.loc 1 547 10 is_stmt 0 view .LVU403
 1571 0044 F1E7     		b	.L177
 1572              		.cfi_endproc
 1573              	.LFE10:
 1575              		.section	.text.LSM6DSO16IS_ACC_GetAxesRaw,"ax",%progbits
 1576              		.align	1
 1577              		.global	LSM6DSO16IS_ACC_GetAxesRaw
 1578              		.syntax unified
 1579              		.thumb
 1580              		.thumb_func
 1582              	LSM6DSO16IS_ACC_GetAxesRaw:
 1583              	.LVL126:
 1584              	.LFB12:
 581:Drivers/BSP/Components/lsm6dso16is/lsm6dso16is.c ****   int32_t ret = LSM6DSO16IS_OK;
 1585              		.loc 1 581 1 is_stmt 1 view -0
 1586              		.cfi_startproc
 1587              		@ args = 0, pretend = 0, frame = 8
 1588              		@ frame_needed = 0, uses_anonymous_args = 0
 581:Drivers/BSP/Components/lsm6dso16is/lsm6dso16is.c ****   int32_t ret = LSM6DSO16IS_OK;
 1589              		.loc 1 581 1 is_stmt 0 view .LVU405
 1590 0000 10B5     		push	{r4, lr}
 1591              		.cfi_def_cfa_offset 8
 1592              		.cfi_offset 4, -8
 1593              		.cfi_offset 14, -4
 1594 0002 82B0     		sub	sp, sp, #8
 1595              		.cfi_def_cfa_offset 16
 1596 0004 0C46     		mov	r4, r1
 582:Drivers/BSP/Components/lsm6dso16is/lsm6dso16is.c ****   int16_t data_raw[3];
 1597              		.loc 1 582 3 is_stmt 1 view .LVU406
 1598              	.LVL127:
 583:Drivers/BSP/Components/lsm6dso16is/lsm6dso16is.c **** 
 1599              		.loc 1 583 3 view .LVU407
 586:Drivers/BSP/Components/lsm6dso16is/lsm6dso16is.c ****   {
 1600              		.loc 1 586 3 view .LVU408
 586:Drivers/BSP/Components/lsm6dso16is/lsm6dso16is.c ****   {
 1601              		.loc 1 586 7 is_stmt 0 view .LVU409
 1602 0006 6946     		mov	r1, sp
 1603              	.LVL128:
 586:Drivers/BSP/Components/lsm6dso16is/lsm6dso16is.c ****   {
 1604              		.loc 1 586 7 view .LVU410
 1605 0008 2030     		adds	r0, r0, #32
 1606              	.LVL129:
 586:Drivers/BSP/Components/lsm6dso16is/lsm6dso16is.c ****   {
 1607              		.loc 1 586 7 view .LVU411
 1608 000a FFF7FEFF 		bl	lsm6dso16is_acceleration_raw_get
 1609              	.LVL130:
 586:Drivers/BSP/Components/lsm6dso16is/lsm6dso16is.c ****   {
 1610              		.loc 1 586 6 discriminator 1 view .LVU412
 1611 000e 50B9     		cbnz	r0, .L192
 1612              	.L189:
 1613              	.LVL131:
 592:Drivers/BSP/Components/lsm6dso16is/lsm6dso16is.c ****   Value->y = data_raw[1];
ARM GAS  C:\Users\Nathan\AppData\Local\Temp\ccdIxQaW.s 			page 59


 1614              		.loc 1 592 3 is_stmt 1 view .LVU413
 592:Drivers/BSP/Components/lsm6dso16is/lsm6dso16is.c ****   Value->y = data_raw[1];
 1615              		.loc 1 592 22 is_stmt 0 view .LVU414
 1616 0010 BDF90030 		ldrsh	r3, [sp]
 592:Drivers/BSP/Components/lsm6dso16is/lsm6dso16is.c ****   Value->y = data_raw[1];
 1617              		.loc 1 592 12 view .LVU415
 1618 0014 2380     		strh	r3, [r4]	@ movhi
 593:Drivers/BSP/Components/lsm6dso16is/lsm6dso16is.c ****   Value->z = data_raw[2];
 1619              		.loc 1 593 3 is_stmt 1 view .LVU416
 593:Drivers/BSP/Components/lsm6dso16is/lsm6dso16is.c ****   Value->z = data_raw[2];
 1620              		.loc 1 593 22 is_stmt 0 view .LVU417
 1621 0016 BDF90230 		ldrsh	r3, [sp, #2]
 593:Drivers/BSP/Components/lsm6dso16is/lsm6dso16is.c ****   Value->z = data_raw[2];
 1622              		.loc 1 593 12 view .LVU418
 1623 001a 6380     		strh	r3, [r4, #2]	@ movhi
 594:Drivers/BSP/Components/lsm6dso16is/lsm6dso16is.c **** 
 1624              		.loc 1 594 3 is_stmt 1 view .LVU419
 594:Drivers/BSP/Components/lsm6dso16is/lsm6dso16is.c **** 
 1625              		.loc 1 594 22 is_stmt 0 view .LVU420
 1626 001c BDF90430 		ldrsh	r3, [sp, #4]
 594:Drivers/BSP/Components/lsm6dso16is/lsm6dso16is.c **** 
 1627              		.loc 1 594 12 view .LVU421
 1628 0020 A380     		strh	r3, [r4, #4]	@ movhi
 596:Drivers/BSP/Components/lsm6dso16is/lsm6dso16is.c **** }
 1629              		.loc 1 596 3 is_stmt 1 view .LVU422
 597:Drivers/BSP/Components/lsm6dso16is/lsm6dso16is.c **** 
 1630              		.loc 1 597 1 is_stmt 0 view .LVU423
 1631 0022 02B0     		add	sp, sp, #8
 1632              		.cfi_remember_state
 1633              		.cfi_def_cfa_offset 8
 1634              		@ sp needed
 1635 0024 10BD     		pop	{r4, pc}
 1636              	.LVL132:
 1637              	.L192:
 1638              		.cfi_restore_state
 588:Drivers/BSP/Components/lsm6dso16is/lsm6dso16is.c ****   }
 1639              		.loc 1 588 9 view .LVU424
 1640 0026 4FF0FF30 		mov	r0, #-1
 1641 002a F1E7     		b	.L189
 1642              		.cfi_endproc
 1643              	.LFE12:
 1645              		.section	.text.LSM6DSO16IS_ACC_GetAxes,"ax",%progbits
 1646              		.align	1
 1647              		.global	LSM6DSO16IS_ACC_GetAxes
 1648              		.syntax unified
 1649              		.thumb
 1650              		.thumb_func
 1652              	LSM6DSO16IS_ACC_GetAxes:
 1653              	.LVL133:
 1654              	.LFB13:
 606:Drivers/BSP/Components/lsm6dso16is/lsm6dso16is.c ****   int32_t ret = LSM6DSO16IS_OK;
 1655              		.loc 1 606 1 is_stmt 1 view -0
 1656              		.cfi_startproc
 1657              		@ args = 0, pretend = 0, frame = 16
 1658              		@ frame_needed = 0, uses_anonymous_args = 0
 606:Drivers/BSP/Components/lsm6dso16is/lsm6dso16is.c ****   int32_t ret = LSM6DSO16IS_OK;
 1659              		.loc 1 606 1 is_stmt 0 view .LVU426
ARM GAS  C:\Users\Nathan\AppData\Local\Temp\ccdIxQaW.s 			page 60


 1660 0000 70B5     		push	{r4, r5, r6, lr}
 1661              		.cfi_def_cfa_offset 16
 1662              		.cfi_offset 4, -16
 1663              		.cfi_offset 5, -12
 1664              		.cfi_offset 6, -8
 1665              		.cfi_offset 14, -4
 1666 0002 84B0     		sub	sp, sp, #16
 1667              		.cfi_def_cfa_offset 32
 1668 0004 0546     		mov	r5, r0
 1669 0006 0C46     		mov	r4, r1
 607:Drivers/BSP/Components/lsm6dso16is/lsm6dso16is.c ****   int16_t data_raw[3];
 1670              		.loc 1 607 3 is_stmt 1 view .LVU427
 1671              	.LVL134:
 608:Drivers/BSP/Components/lsm6dso16is/lsm6dso16is.c ****   float_t sensitivity = 0.0f;
 1672              		.loc 1 608 3 view .LVU428
 609:Drivers/BSP/Components/lsm6dso16is/lsm6dso16is.c **** 
 1673              		.loc 1 609 3 view .LVU429
 609:Drivers/BSP/Components/lsm6dso16is/lsm6dso16is.c **** 
 1674              		.loc 1 609 11 is_stmt 0 view .LVU430
 1675 0008 0023     		movs	r3, #0
 1676 000a 0193     		str	r3, [sp, #4]	@ float
 612:Drivers/BSP/Components/lsm6dso16is/lsm6dso16is.c ****   {
 1677              		.loc 1 612 3 is_stmt 1 view .LVU431
 612:Drivers/BSP/Components/lsm6dso16is/lsm6dso16is.c ****   {
 1678              		.loc 1 612 7 is_stmt 0 view .LVU432
 1679 000c 02A9     		add	r1, sp, #8
 1680              	.LVL135:
 612:Drivers/BSP/Components/lsm6dso16is/lsm6dso16is.c ****   {
 1681              		.loc 1 612 7 view .LVU433
 1682 000e 2030     		adds	r0, r0, #32
 1683              	.LVL136:
 612:Drivers/BSP/Components/lsm6dso16is/lsm6dso16is.c ****   {
 1684              		.loc 1 612 7 view .LVU434
 1685 0010 FFF7FEFF 		bl	lsm6dso16is_acceleration_raw_get
 1686              	.LVL137:
 612:Drivers/BSP/Components/lsm6dso16is/lsm6dso16is.c ****   {
 1687              		.loc 1 612 6 discriminator 1 view .LVU435
 1688 0014 0646     		mov	r6, r0
 1689 0016 08B1     		cbz	r0, .L194
 614:Drivers/BSP/Components/lsm6dso16is/lsm6dso16is.c ****   }
 1690              		.loc 1 614 9 view .LVU436
 1691 0018 4FF0FF36 		mov	r6, #-1
 1692              	.L194:
 1693              	.LVL138:
 618:Drivers/BSP/Components/lsm6dso16is/lsm6dso16is.c ****   {
 1694              		.loc 1 618 3 is_stmt 1 view .LVU437
 618:Drivers/BSP/Components/lsm6dso16is/lsm6dso16is.c ****   {
 1695              		.loc 1 618 7 is_stmt 0 view .LVU438
 1696 001c 01A9     		add	r1, sp, #4
 1697 001e 2846     		mov	r0, r5
 1698 0020 FFF7FEFF 		bl	LSM6DSO16IS_ACC_GetSensitivity
 1699              	.LVL139:
 618:Drivers/BSP/Components/lsm6dso16is/lsm6dso16is.c ****   {
 1700              		.loc 1 618 6 discriminator 1 view .LVU439
 1701 0024 40BB     		cbnz	r0, .L199
 1702              	.LVL140:
 1703              	.L195:
ARM GAS  C:\Users\Nathan\AppData\Local\Temp\ccdIxQaW.s 			page 61


 624:Drivers/BSP/Components/lsm6dso16is/lsm6dso16is.c ****   Acceleration->y = (int32_t)((float_t)((float_t)data_raw[1] * sensitivity));
 1704              		.loc 1 624 3 is_stmt 1 view .LVU440
 624:Drivers/BSP/Components/lsm6dso16is/lsm6dso16is.c ****   Acceleration->y = (int32_t)((float_t)((float_t)data_raw[1] * sensitivity));
 1705              		.loc 1 624 58 is_stmt 0 view .LVU441
 1706 0026 BDF90830 		ldrsh	r3, [sp, #8]
 1707 002a 07EE103A 		vmov	s14, r3	@ int
 624:Drivers/BSP/Components/lsm6dso16is/lsm6dso16is.c ****   Acceleration->y = (int32_t)((float_t)((float_t)data_raw[1] * sensitivity));
 1708              		.loc 1 624 41 view .LVU442
 1709 002e B8EEC77A 		vcvt.f32.s32	s14, s14
 624:Drivers/BSP/Components/lsm6dso16is/lsm6dso16is.c ****   Acceleration->y = (int32_t)((float_t)((float_t)data_raw[1] * sensitivity));
 1710              		.loc 1 624 31 view .LVU443
 1711 0032 DDED017A 		vldr.32	s15, [sp, #4]
 1712 0036 27EE277A 		vmul.f32	s14, s14, s15
 624:Drivers/BSP/Components/lsm6dso16is/lsm6dso16is.c ****   Acceleration->y = (int32_t)((float_t)((float_t)data_raw[1] * sensitivity));
 1713              		.loc 1 624 21 view .LVU444
 1714 003a BDEEC77A 		vcvt.s32.f32	s14, s14
 624:Drivers/BSP/Components/lsm6dso16is/lsm6dso16is.c ****   Acceleration->y = (int32_t)((float_t)((float_t)data_raw[1] * sensitivity));
 1715              		.loc 1 624 19 view .LVU445
 1716 003e 84ED007A 		vstr.32	s14, [r4]	@ int
 625:Drivers/BSP/Components/lsm6dso16is/lsm6dso16is.c ****   Acceleration->z = (int32_t)((float_t)((float_t)data_raw[2] * sensitivity));
 1717              		.loc 1 625 3 is_stmt 1 view .LVU446
 625:Drivers/BSP/Components/lsm6dso16is/lsm6dso16is.c ****   Acceleration->z = (int32_t)((float_t)((float_t)data_raw[2] * sensitivity));
 1718              		.loc 1 625 58 is_stmt 0 view .LVU447
 1719 0042 BDF90A30 		ldrsh	r3, [sp, #10]
 1720 0046 07EE103A 		vmov	s14, r3	@ int
 625:Drivers/BSP/Components/lsm6dso16is/lsm6dso16is.c ****   Acceleration->z = (int32_t)((float_t)((float_t)data_raw[2] * sensitivity));
 1721              		.loc 1 625 41 view .LVU448
 1722 004a B8EEC77A 		vcvt.f32.s32	s14, s14
 625:Drivers/BSP/Components/lsm6dso16is/lsm6dso16is.c ****   Acceleration->z = (int32_t)((float_t)((float_t)data_raw[2] * sensitivity));
 1723              		.loc 1 625 31 view .LVU449
 1724 004e 27EE277A 		vmul.f32	s14, s14, s15
 625:Drivers/BSP/Components/lsm6dso16is/lsm6dso16is.c ****   Acceleration->z = (int32_t)((float_t)((float_t)data_raw[2] * sensitivity));
 1725              		.loc 1 625 21 view .LVU450
 1726 0052 BDEEC77A 		vcvt.s32.f32	s14, s14
 625:Drivers/BSP/Components/lsm6dso16is/lsm6dso16is.c ****   Acceleration->z = (int32_t)((float_t)((float_t)data_raw[2] * sensitivity));
 1727              		.loc 1 625 19 view .LVU451
 1728 0056 84ED017A 		vstr.32	s14, [r4, #4]	@ int
 626:Drivers/BSP/Components/lsm6dso16is/lsm6dso16is.c **** 
 1729              		.loc 1 626 3 is_stmt 1 view .LVU452
 626:Drivers/BSP/Components/lsm6dso16is/lsm6dso16is.c **** 
 1730              		.loc 1 626 58 is_stmt 0 view .LVU453
 1731 005a BDF90C30 		ldrsh	r3, [sp, #12]
 1732 005e 07EE103A 		vmov	s14, r3	@ int
 626:Drivers/BSP/Components/lsm6dso16is/lsm6dso16is.c **** 
 1733              		.loc 1 626 41 view .LVU454
 1734 0062 B8EEC77A 		vcvt.f32.s32	s14, s14
 626:Drivers/BSP/Components/lsm6dso16is/lsm6dso16is.c **** 
 1735              		.loc 1 626 31 view .LVU455
 1736 0066 67EE877A 		vmul.f32	s15, s15, s14
 626:Drivers/BSP/Components/lsm6dso16is/lsm6dso16is.c **** 
 1737              		.loc 1 626 21 view .LVU456
 1738 006a FDEEE77A 		vcvt.s32.f32	s15, s15
 626:Drivers/BSP/Components/lsm6dso16is/lsm6dso16is.c **** 
 1739              		.loc 1 626 19 view .LVU457
 1740 006e C4ED027A 		vstr.32	s15, [r4, #8]	@ int
 628:Drivers/BSP/Components/lsm6dso16is/lsm6dso16is.c **** }
 1741              		.loc 1 628 3 is_stmt 1 view .LVU458
ARM GAS  C:\Users\Nathan\AppData\Local\Temp\ccdIxQaW.s 			page 62


 629:Drivers/BSP/Components/lsm6dso16is/lsm6dso16is.c **** 
 1742              		.loc 1 629 1 is_stmt 0 view .LVU459
 1743 0072 3046     		mov	r0, r6
 1744 0074 04B0     		add	sp, sp, #16
 1745              		.cfi_remember_state
 1746              		.cfi_def_cfa_offset 16
 1747              		@ sp needed
 1748 0076 70BD     		pop	{r4, r5, r6, pc}
 1749              	.LVL141:
 1750              	.L199:
 1751              		.cfi_restore_state
 620:Drivers/BSP/Components/lsm6dso16is/lsm6dso16is.c ****   }
 1752              		.loc 1 620 9 view .LVU460
 1753 0078 4FF0FF36 		mov	r6, #-1
 1754              	.LVL142:
 620:Drivers/BSP/Components/lsm6dso16is/lsm6dso16is.c ****   }
 1755              		.loc 1 620 9 view .LVU461
 1756 007c D3E7     		b	.L195
 1757              		.cfi_endproc
 1758              	.LFE13:
 1760              		.section	.text.LSM6DSO16IS_GYRO_Disable,"ax",%progbits
 1761              		.align	1
 1762              		.global	LSM6DSO16IS_GYRO_Disable
 1763              		.syntax unified
 1764              		.thumb
 1765              		.thumb_func
 1767              	LSM6DSO16IS_GYRO_Disable:
 1768              	.LVL143:
 1769              	.LFB15:
 665:Drivers/BSP/Components/lsm6dso16is/lsm6dso16is.c ****   int32_t ret = LSM6DSO16IS_OK;
 1770              		.loc 1 665 1 is_stmt 1 view -0
 1771              		.cfi_startproc
 1772              		@ args = 0, pretend = 0, frame = 0
 1773              		@ frame_needed = 0, uses_anonymous_args = 0
 665:Drivers/BSP/Components/lsm6dso16is/lsm6dso16is.c ****   int32_t ret = LSM6DSO16IS_OK;
 1774              		.loc 1 665 1 is_stmt 0 view .LVU463
 1775 0000 70B5     		push	{r4, r5, r6, lr}
 1776              		.cfi_def_cfa_offset 16
 1777              		.cfi_offset 4, -16
 1778              		.cfi_offset 5, -12
 1779              		.cfi_offset 6, -8
 1780              		.cfi_offset 14, -4
 666:Drivers/BSP/Components/lsm6dso16is/lsm6dso16is.c **** 
 1781              		.loc 1 666 3 is_stmt 1 view .LVU464
 1782              	.LVL144:
 669:Drivers/BSP/Components/lsm6dso16is/lsm6dso16is.c ****   {
 1783              		.loc 1 669 3 view .LVU465
 669:Drivers/BSP/Components/lsm6dso16is/lsm6dso16is.c ****   {
 1784              		.loc 1 669 11 is_stmt 0 view .LVU466
 1785 0002 90F83230 		ldrb	r3, [r0, #50]	@ zero_extendqisi2
 669:Drivers/BSP/Components/lsm6dso16is/lsm6dso16is.c ****   {
 1786              		.loc 1 669 6 view .LVU467
 1787 0006 13B9     		cbnz	r3, .L208
 671:Drivers/BSP/Components/lsm6dso16is/lsm6dso16is.c ****   }
 1788              		.loc 1 671 9 view .LVU468
 1789 0008 0025     		movs	r5, #0
 690:Drivers/BSP/Components/lsm6dso16is/lsm6dso16is.c **** }
ARM GAS  C:\Users\Nathan\AppData\Local\Temp\ccdIxQaW.s 			page 63


 1790              		.loc 1 690 3 is_stmt 1 view .LVU469
 1791              	.LVL145:
 1792              	.L200:
 691:Drivers/BSP/Components/lsm6dso16is/lsm6dso16is.c **** 
 1793              		.loc 1 691 1 is_stmt 0 view .LVU470
 1794 000a 2846     		mov	r0, r5
 1795 000c 70BD     		pop	{r4, r5, r6, pc}
 1796              	.LVL146:
 1797              	.L208:
 691:Drivers/BSP/Components/lsm6dso16is/lsm6dso16is.c **** 
 1798              		.loc 1 691 1 view .LVU471
 1799 000e 0446     		mov	r4, r0
 676:Drivers/BSP/Components/lsm6dso16is/lsm6dso16is.c ****     {
 1800              		.loc 1 676 5 is_stmt 1 view .LVU472
 676:Drivers/BSP/Components/lsm6dso16is/lsm6dso16is.c ****     {
 1801              		.loc 1 676 38 is_stmt 0 view .LVU473
 1802 0010 00F12006 		add	r6, r0, #32
 676:Drivers/BSP/Components/lsm6dso16is/lsm6dso16is.c ****     {
 1803              		.loc 1 676 9 view .LVU474
 1804 0014 00F13401 		add	r1, r0, #52
 1805 0018 3046     		mov	r0, r6
 1806              	.LVL147:
 676:Drivers/BSP/Components/lsm6dso16is/lsm6dso16is.c ****     {
 1807              		.loc 1 676 9 view .LVU475
 1808 001a FFF7FEFF 		bl	lsm6dso16is_gy_data_rate_get
 1809              	.LVL148:
 676:Drivers/BSP/Components/lsm6dso16is/lsm6dso16is.c ****     {
 1810              		.loc 1 676 8 discriminator 1 view .LVU476
 1811 001e 0546     		mov	r5, r0
 1812 0020 08B1     		cbz	r0, .L202
 678:Drivers/BSP/Components/lsm6dso16is/lsm6dso16is.c ****     }
 1813              		.loc 1 678 11 view .LVU477
 1814 0022 4FF0FF35 		mov	r5, #-1
 1815              	.L202:
 1816              	.LVL149:
 682:Drivers/BSP/Components/lsm6dso16is/lsm6dso16is.c ****     {
 1817              		.loc 1 682 5 is_stmt 1 view .LVU478
 682:Drivers/BSP/Components/lsm6dso16is/lsm6dso16is.c ****     {
 1818              		.loc 1 682 9 is_stmt 0 view .LVU479
 1819 0026 0021     		movs	r1, #0
 1820 0028 3046     		mov	r0, r6
 1821 002a FFF7FEFF 		bl	lsm6dso16is_gy_data_rate_set
 1822              	.LVL150:
 682:Drivers/BSP/Components/lsm6dso16is/lsm6dso16is.c ****     {
 1823              		.loc 1 682 8 discriminator 1 view .LVU480
 1824 002e 08B1     		cbz	r0, .L203
 684:Drivers/BSP/Components/lsm6dso16is/lsm6dso16is.c ****     }
 1825              		.loc 1 684 11 view .LVU481
 1826 0030 4FF0FF35 		mov	r5, #-1
 1827              	.LVL151:
 1828              	.L203:
 687:Drivers/BSP/Components/lsm6dso16is/lsm6dso16is.c ****   }
 1829              		.loc 1 687 5 is_stmt 1 view .LVU482
 687:Drivers/BSP/Components/lsm6dso16is/lsm6dso16is.c ****   }
 1830              		.loc 1 687 27 is_stmt 0 view .LVU483
 1831 0034 0023     		movs	r3, #0
 1832 0036 84F83230 		strb	r3, [r4, #50]
ARM GAS  C:\Users\Nathan\AppData\Local\Temp\ccdIxQaW.s 			page 64


 1833 003a E6E7     		b	.L200
 1834              		.cfi_endproc
 1835              	.LFE15:
 1837              		.section	.text.LSM6DSO16IS_DeInit,"ax",%progbits
 1838              		.align	1
 1839              		.global	LSM6DSO16IS_DeInit
 1840              		.syntax unified
 1841              		.thumb
 1842              		.thumb_func
 1844              	LSM6DSO16IS_DeInit:
 1845              	.LVL152:
 1846              	.LFB2:
 224:Drivers/BSP/Components/lsm6dso16is/lsm6dso16is.c ****   int32_t ret = LSM6DSO16IS_OK;
 1847              		.loc 1 224 1 is_stmt 1 view -0
 1848              		.cfi_startproc
 1849              		@ args = 0, pretend = 0, frame = 0
 1850              		@ frame_needed = 0, uses_anonymous_args = 0
 224:Drivers/BSP/Components/lsm6dso16is/lsm6dso16is.c ****   int32_t ret = LSM6DSO16IS_OK;
 1851              		.loc 1 224 1 is_stmt 0 view .LVU485
 1852 0000 38B5     		push	{r3, r4, r5, lr}
 1853              		.cfi_def_cfa_offset 16
 1854              		.cfi_offset 3, -16
 1855              		.cfi_offset 4, -12
 1856              		.cfi_offset 5, -8
 1857              		.cfi_offset 14, -4
 1858 0002 0446     		mov	r4, r0
 225:Drivers/BSP/Components/lsm6dso16is/lsm6dso16is.c **** 
 1859              		.loc 1 225 3 is_stmt 1 view .LVU486
 1860              	.LVL153:
 228:Drivers/BSP/Components/lsm6dso16is/lsm6dso16is.c ****   {
 1861              		.loc 1 228 3 view .LVU487
 228:Drivers/BSP/Components/lsm6dso16is/lsm6dso16is.c ****   {
 1862              		.loc 1 228 7 is_stmt 0 view .LVU488
 1863 0004 FFF7FEFF 		bl	LSM6DSO16IS_ACC_Disable
 1864              	.LVL154:
 228:Drivers/BSP/Components/lsm6dso16is/lsm6dso16is.c ****   {
 1865              		.loc 1 228 6 discriminator 1 view .LVU489
 1866 0008 0546     		mov	r5, r0
 1867 000a 08B1     		cbz	r0, .L210
 230:Drivers/BSP/Components/lsm6dso16is/lsm6dso16is.c ****   }
 1868              		.loc 1 230 9 view .LVU490
 1869 000c 4FF0FF35 		mov	r5, #-1
 1870              	.L210:
 1871              	.LVL155:
 233:Drivers/BSP/Components/lsm6dso16is/lsm6dso16is.c ****   {
 1872              		.loc 1 233 3 is_stmt 1 view .LVU491
 233:Drivers/BSP/Components/lsm6dso16is/lsm6dso16is.c ****   {
 1873              		.loc 1 233 7 is_stmt 0 view .LVU492
 1874 0010 2046     		mov	r0, r4
 1875 0012 FFF7FEFF 		bl	LSM6DSO16IS_GYRO_Disable
 1876              	.LVL156:
 233:Drivers/BSP/Components/lsm6dso16is/lsm6dso16is.c ****   {
 1877              		.loc 1 233 6 discriminator 1 view .LVU493
 1878 0016 48B9     		cbnz	r0, .L213
 238:Drivers/BSP/Components/lsm6dso16is/lsm6dso16is.c ****   {
 1879              		.loc 1 238 3 is_stmt 1 view .LVU494
 238:Drivers/BSP/Components/lsm6dso16is/lsm6dso16is.c ****   {
ARM GAS  C:\Users\Nathan\AppData\Local\Temp\ccdIxQaW.s 			page 65


 1880              		.loc 1 238 6 is_stmt 0 view .LVU495
 1881 0018 35B9     		cbnz	r5, .L209
 241:Drivers/BSP/Components/lsm6dso16is/lsm6dso16is.c ****     pObj->gyro_odr = LSM6DSO16IS_GY_ODR_OFF;
 1882              		.loc 1 241 5 is_stmt 1 view .LVU496
 241:Drivers/BSP/Components/lsm6dso16is/lsm6dso16is.c ****     pObj->gyro_odr = LSM6DSO16IS_GY_ODR_OFF;
 1883              		.loc 1 241 19 is_stmt 0 view .LVU497
 1884 001a 0023     		movs	r3, #0
 1885 001c 84F83330 		strb	r3, [r4, #51]
 242:Drivers/BSP/Components/lsm6dso16is/lsm6dso16is.c **** 
 1886              		.loc 1 242 5 is_stmt 1 view .LVU498
 242:Drivers/BSP/Components/lsm6dso16is/lsm6dso16is.c **** 
 1887              		.loc 1 242 20 is_stmt 0 view .LVU499
 1888 0020 84F83430 		strb	r3, [r4, #52]
 244:Drivers/BSP/Components/lsm6dso16is/lsm6dso16is.c ****   }
 1889              		.loc 1 244 5 is_stmt 1 view .LVU500
 244:Drivers/BSP/Components/lsm6dso16is/lsm6dso16is.c ****   }
 1890              		.loc 1 244 26 is_stmt 0 view .LVU501
 1891 0024 84F83030 		strb	r3, [r4, #48]
 1892              	.LVL157:
 1893              	.L209:
 248:Drivers/BSP/Components/lsm6dso16is/lsm6dso16is.c **** 
 1894              		.loc 1 248 1 view .LVU502
 1895 0028 2846     		mov	r0, r5
 1896 002a 38BD     		pop	{r3, r4, r5, pc}
 1897              	.LVL158:
 1898              	.L213:
 235:Drivers/BSP/Components/lsm6dso16is/lsm6dso16is.c ****   }
 1899              		.loc 1 235 9 view .LVU503
 1900 002c 4FF0FF35 		mov	r5, #-1
 1901              	.LVL159:
 247:Drivers/BSP/Components/lsm6dso16is/lsm6dso16is.c **** }
 1902              		.loc 1 247 3 is_stmt 1 view .LVU504
 247:Drivers/BSP/Components/lsm6dso16is/lsm6dso16is.c **** }
 1903              		.loc 1 247 10 is_stmt 0 view .LVU505
 1904 0030 FAE7     		b	.L209
 1905              		.cfi_endproc
 1906              	.LFE2:
 1908              		.section	.text.LSM6DSO16IS_GYRO_GetOutputDataRate,"ax",%progbits
 1909              		.align	1
 1910              		.global	LSM6DSO16IS_GYRO_GetOutputDataRate
 1911              		.syntax unified
 1912              		.thumb
 1913              		.thumb_func
 1915              	LSM6DSO16IS_GYRO_GetOutputDataRate:
 1916              	.LVL160:
 1917              	.LFB17:
 748:Drivers/BSP/Components/lsm6dso16is/lsm6dso16is.c ****   int32_t ret = LSM6DSO16IS_OK;
 1918              		.loc 1 748 1 is_stmt 1 view -0
 1919              		.cfi_startproc
 1920              		@ args = 0, pretend = 0, frame = 8
 1921              		@ frame_needed = 0, uses_anonymous_args = 0
 748:Drivers/BSP/Components/lsm6dso16is/lsm6dso16is.c ****   int32_t ret = LSM6DSO16IS_OK;
 1922              		.loc 1 748 1 is_stmt 0 view .LVU507
 1923 0000 10B5     		push	{r4, lr}
 1924              		.cfi_def_cfa_offset 8
 1925              		.cfi_offset 4, -8
 1926              		.cfi_offset 14, -4
ARM GAS  C:\Users\Nathan\AppData\Local\Temp\ccdIxQaW.s 			page 66


 1927 0002 82B0     		sub	sp, sp, #8
 1928              		.cfi_def_cfa_offset 16
 1929 0004 0C46     		mov	r4, r1
 749:Drivers/BSP/Components/lsm6dso16is/lsm6dso16is.c ****   lsm6dso16is_gy_data_rate_t odr_low_level;
 1930              		.loc 1 749 3 is_stmt 1 view .LVU508
 1931              	.LVL161:
 750:Drivers/BSP/Components/lsm6dso16is/lsm6dso16is.c **** 
 1932              		.loc 1 750 3 view .LVU509
 753:Drivers/BSP/Components/lsm6dso16is/lsm6dso16is.c ****   {
 1933              		.loc 1 753 3 view .LVU510
 753:Drivers/BSP/Components/lsm6dso16is/lsm6dso16is.c ****   {
 1934              		.loc 1 753 7 is_stmt 0 view .LVU511
 1935 0006 0DF10701 		add	r1, sp, #7
 1936              	.LVL162:
 753:Drivers/BSP/Components/lsm6dso16is/lsm6dso16is.c ****   {
 1937              		.loc 1 753 7 view .LVU512
 1938 000a 2030     		adds	r0, r0, #32
 1939              	.LVL163:
 753:Drivers/BSP/Components/lsm6dso16is/lsm6dso16is.c ****   {
 1940              		.loc 1 753 7 view .LVU513
 1941 000c FFF7FEFF 		bl	lsm6dso16is_gy_data_rate_get
 1942              	.LVL164:
 753:Drivers/BSP/Components/lsm6dso16is/lsm6dso16is.c ****   {
 1943              		.loc 1 753 6 discriminator 1 view .LVU514
 1944 0010 08B1     		cbz	r0, .L216
 755:Drivers/BSP/Components/lsm6dso16is/lsm6dso16is.c ****   }
 1945              		.loc 1 755 9 view .LVU515
 1946 0012 4FF0FF30 		mov	r0, #-1
 1947              	.L216:
 1948              	.LVL165:
 758:Drivers/BSP/Components/lsm6dso16is/lsm6dso16is.c ****   {
 1949              		.loc 1 758 3 is_stmt 1 view .LVU516
 1950 0016 9DF80730 		ldrb	r3, [sp, #7]	@ zero_extendqisi2
 1951 001a 1A2B     		cmp	r3, #26
 1952 001c 30D8     		bhi	.L231
 1953 001e DFE803F0 		tbb	[pc, r3]
 1954              	.L219:
 1955 0022 0E       		.byte	(.L229-.L219)/2
 1956 0023 11       		.byte	(.L228-.L219)/2
 1957 0024 14       		.byte	(.L227-.L219)/2
 1958 0025 17       		.byte	(.L226-.L219)/2
 1959 0026 1A       		.byte	(.L225-.L219)/2
 1960 0027 1D       		.byte	(.L224-.L219)/2
 1961 0028 20       		.byte	(.L223-.L219)/2
 1962 0029 23       		.byte	(.L222-.L219)/2
 1963 002a 26       		.byte	(.L221-.L219)/2
 1964 002b 29       		.byte	(.L220-.L219)/2
 1965 002c 2C       		.byte	(.L218-.L219)/2
 1966 002d 2F       		.byte	(.L231-.L219)/2
 1967 002e 2F       		.byte	(.L231-.L219)/2
 1968 002f 2F       		.byte	(.L231-.L219)/2
 1969 0030 2F       		.byte	(.L231-.L219)/2
 1970 0031 2F       		.byte	(.L231-.L219)/2
 1971 0032 2F       		.byte	(.L231-.L219)/2
 1972 0033 11       		.byte	(.L228-.L219)/2
 1973 0034 14       		.byte	(.L227-.L219)/2
 1974 0035 17       		.byte	(.L226-.L219)/2
ARM GAS  C:\Users\Nathan\AppData\Local\Temp\ccdIxQaW.s 			page 67


 1975 0036 1A       		.byte	(.L225-.L219)/2
 1976 0037 1D       		.byte	(.L224-.L219)/2
 1977 0038 20       		.byte	(.L223-.L219)/2
 1978 0039 23       		.byte	(.L222-.L219)/2
 1979 003a 26       		.byte	(.L221-.L219)/2
 1980 003b 29       		.byte	(.L220-.L219)/2
 1981 003c 2C       		.byte	(.L218-.L219)/2
 1982 003d 00       		.p2align 1
 1983              	.L229:
 761:Drivers/BSP/Components/lsm6dso16is/lsm6dso16is.c ****       break;
 1984              		.loc 1 761 7 view .LVU517
 761:Drivers/BSP/Components/lsm6dso16is/lsm6dso16is.c ****       break;
 1985              		.loc 1 761 12 is_stmt 0 view .LVU518
 1986 003e 0023     		movs	r3, #0
 1987 0040 2360     		str	r3, [r4]	@ float
 762:Drivers/BSP/Components/lsm6dso16is/lsm6dso16is.c **** 
 1988              		.loc 1 762 7 is_stmt 1 view .LVU519
 1989 0042 1FE0     		b	.L215
 1990              	.L228:
 766:Drivers/BSP/Components/lsm6dso16is/lsm6dso16is.c ****       break;
 1991              		.loc 1 766 7 view .LVU520
 766:Drivers/BSP/Components/lsm6dso16is/lsm6dso16is.c ****       break;
 1992              		.loc 1 766 12 is_stmt 0 view .LVU521
 1993 0044 104B     		ldr	r3, .L233
 1994 0046 2360     		str	r3, [r4]	@ float
 767:Drivers/BSP/Components/lsm6dso16is/lsm6dso16is.c **** 
 1995              		.loc 1 767 7 is_stmt 1 view .LVU522
 1996 0048 1CE0     		b	.L215
 1997              	.L227:
 771:Drivers/BSP/Components/lsm6dso16is/lsm6dso16is.c ****       break;
 1998              		.loc 1 771 7 view .LVU523
 771:Drivers/BSP/Components/lsm6dso16is/lsm6dso16is.c ****       break;
 1999              		.loc 1 771 12 is_stmt 0 view .LVU524
 2000 004a 104B     		ldr	r3, .L233+4
 2001 004c 2360     		str	r3, [r4]	@ float
 772:Drivers/BSP/Components/lsm6dso16is/lsm6dso16is.c **** 
 2002              		.loc 1 772 7 is_stmt 1 view .LVU525
 2003 004e 19E0     		b	.L215
 2004              	.L226:
 776:Drivers/BSP/Components/lsm6dso16is/lsm6dso16is.c ****       break;
 2005              		.loc 1 776 7 view .LVU526
 776:Drivers/BSP/Components/lsm6dso16is/lsm6dso16is.c ****       break;
 2006              		.loc 1 776 12 is_stmt 0 view .LVU527
 2007 0050 0F4B     		ldr	r3, .L233+8
 2008 0052 2360     		str	r3, [r4]	@ float
 777:Drivers/BSP/Components/lsm6dso16is/lsm6dso16is.c **** 
 2009              		.loc 1 777 7 is_stmt 1 view .LVU528
 2010 0054 16E0     		b	.L215
 2011              	.L225:
 781:Drivers/BSP/Components/lsm6dso16is/lsm6dso16is.c ****       break;
 2012              		.loc 1 781 7 view .LVU529
 781:Drivers/BSP/Components/lsm6dso16is/lsm6dso16is.c ****       break;
 2013              		.loc 1 781 12 is_stmt 0 view .LVU530
 2014 0056 0F4B     		ldr	r3, .L233+12
 2015 0058 2360     		str	r3, [r4]	@ float
 782:Drivers/BSP/Components/lsm6dso16is/lsm6dso16is.c **** 
 2016              		.loc 1 782 7 is_stmt 1 view .LVU531
ARM GAS  C:\Users\Nathan\AppData\Local\Temp\ccdIxQaW.s 			page 68


 2017 005a 13E0     		b	.L215
 2018              	.L224:
 786:Drivers/BSP/Components/lsm6dso16is/lsm6dso16is.c ****       break;
 2019              		.loc 1 786 7 view .LVU532
 786:Drivers/BSP/Components/lsm6dso16is/lsm6dso16is.c ****       break;
 2020              		.loc 1 786 12 is_stmt 0 view .LVU533
 2021 005c 0E4B     		ldr	r3, .L233+16
 2022 005e 2360     		str	r3, [r4]	@ float
 787:Drivers/BSP/Components/lsm6dso16is/lsm6dso16is.c **** 
 2023              		.loc 1 787 7 is_stmt 1 view .LVU534
 2024 0060 10E0     		b	.L215
 2025              	.L223:
 791:Drivers/BSP/Components/lsm6dso16is/lsm6dso16is.c ****       break;
 2026              		.loc 1 791 7 view .LVU535
 791:Drivers/BSP/Components/lsm6dso16is/lsm6dso16is.c ****       break;
 2027              		.loc 1 791 12 is_stmt 0 view .LVU536
 2028 0062 0E4B     		ldr	r3, .L233+20
 2029 0064 2360     		str	r3, [r4]	@ float
 792:Drivers/BSP/Components/lsm6dso16is/lsm6dso16is.c **** 
 2030              		.loc 1 792 7 is_stmt 1 view .LVU537
 2031 0066 0DE0     		b	.L215
 2032              	.L222:
 796:Drivers/BSP/Components/lsm6dso16is/lsm6dso16is.c ****       break;
 2033              		.loc 1 796 7 view .LVU538
 796:Drivers/BSP/Components/lsm6dso16is/lsm6dso16is.c ****       break;
 2034              		.loc 1 796 12 is_stmt 0 view .LVU539
 2035 0068 0D4B     		ldr	r3, .L233+24
 2036 006a 2360     		str	r3, [r4]	@ float
 797:Drivers/BSP/Components/lsm6dso16is/lsm6dso16is.c **** 
 2037              		.loc 1 797 7 is_stmt 1 view .LVU540
 2038 006c 0AE0     		b	.L215
 2039              	.L221:
 801:Drivers/BSP/Components/lsm6dso16is/lsm6dso16is.c ****       break;
 2040              		.loc 1 801 7 view .LVU541
 801:Drivers/BSP/Components/lsm6dso16is/lsm6dso16is.c ****       break;
 2041              		.loc 1 801 12 is_stmt 0 view .LVU542
 2042 006e 0D4B     		ldr	r3, .L233+28
 2043 0070 2360     		str	r3, [r4]	@ float
 802:Drivers/BSP/Components/lsm6dso16is/lsm6dso16is.c **** 
 2044              		.loc 1 802 7 is_stmt 1 view .LVU543
 2045 0072 07E0     		b	.L215
 2046              	.L220:
 806:Drivers/BSP/Components/lsm6dso16is/lsm6dso16is.c ****       break;
 2047              		.loc 1 806 7 view .LVU544
 806:Drivers/BSP/Components/lsm6dso16is/lsm6dso16is.c ****       break;
 2048              		.loc 1 806 12 is_stmt 0 view .LVU545
 2049 0074 0C4B     		ldr	r3, .L233+32
 2050 0076 2360     		str	r3, [r4]	@ float
 807:Drivers/BSP/Components/lsm6dso16is/lsm6dso16is.c **** 
 2051              		.loc 1 807 7 is_stmt 1 view .LVU546
 2052 0078 04E0     		b	.L215
 2053              	.L218:
 811:Drivers/BSP/Components/lsm6dso16is/lsm6dso16is.c ****       break;
 2054              		.loc 1 811 7 view .LVU547
 811:Drivers/BSP/Components/lsm6dso16is/lsm6dso16is.c ****       break;
 2055              		.loc 1 811 12 is_stmt 0 view .LVU548
 2056 007a 0C4B     		ldr	r3, .L233+36
ARM GAS  C:\Users\Nathan\AppData\Local\Temp\ccdIxQaW.s 			page 69


 2057 007c 2360     		str	r3, [r4]	@ float
 812:Drivers/BSP/Components/lsm6dso16is/lsm6dso16is.c **** 
 2058              		.loc 1 812 7 is_stmt 1 view .LVU549
 2059 007e 01E0     		b	.L215
 2060              	.L231:
 758:Drivers/BSP/Components/lsm6dso16is/lsm6dso16is.c ****   {
 2061              		.loc 1 758 3 is_stmt 0 view .LVU550
 2062 0080 4FF0FF30 		mov	r0, #-1
 2063              	.LVL166:
 819:Drivers/BSP/Components/lsm6dso16is/lsm6dso16is.c **** }
 2064              		.loc 1 819 3 is_stmt 1 view .LVU551
 2065              	.L215:
 820:Drivers/BSP/Components/lsm6dso16is/lsm6dso16is.c **** 
 2066              		.loc 1 820 1 is_stmt 0 view .LVU552
 2067 0084 02B0     		add	sp, sp, #8
 2068              		.cfi_def_cfa_offset 8
 2069              		@ sp needed
 2070 0086 10BD     		pop	{r4, pc}
 2071              	.LVL167:
 2072              	.L234:
 820:Drivers/BSP/Components/lsm6dso16is/lsm6dso16is.c **** 
 2073              		.loc 1 820 1 view .LVU553
 2074              		.align	2
 2075              	.L233:
 2076 0088 00004841 		.word	1095237632
 2077 008c 0000D041 		.word	1104150528
 2078 0090 00005042 		.word	1112539136
 2079 0094 0000D042 		.word	1120927744
 2080 0098 00005043 		.word	1129316352
 2081 009c 0000D043 		.word	1137704960
 2082 00a0 00405044 		.word	1146109952
 2083 00a4 0060D044 		.word	1154506752
 2084 00a8 00505045 		.word	1162891264
 2085 00ac 0058D045 		.word	1171281920
 2086              		.cfi_endproc
 2087              	.LFE17:
 2089              		.section	.text.LSM6DSO16IS_GYRO_GetSensitivity,"ax",%progbits
 2090              		.align	1
 2091              		.global	LSM6DSO16IS_GYRO_GetSensitivity
 2092              		.syntax unified
 2093              		.thumb
 2094              		.thumb_func
 2096              	LSM6DSO16IS_GYRO_GetSensitivity:
 2097              	.LVL168:
 2098              	.LFB16:
 700:Drivers/BSP/Components/lsm6dso16is/lsm6dso16is.c ****   int32_t ret = LSM6DSO16IS_OK;
 2099              		.loc 1 700 1 is_stmt 1 view -0
 2100              		.cfi_startproc
 2101              		@ args = 0, pretend = 0, frame = 8
 2102              		@ frame_needed = 0, uses_anonymous_args = 0
 700:Drivers/BSP/Components/lsm6dso16is/lsm6dso16is.c ****   int32_t ret = LSM6DSO16IS_OK;
 2103              		.loc 1 700 1 is_stmt 0 view .LVU555
 2104 0000 10B5     		push	{r4, lr}
 2105              		.cfi_def_cfa_offset 8
 2106              		.cfi_offset 4, -8
 2107              		.cfi_offset 14, -4
 2108 0002 82B0     		sub	sp, sp, #8
ARM GAS  C:\Users\Nathan\AppData\Local\Temp\ccdIxQaW.s 			page 70


 2109              		.cfi_def_cfa_offset 16
 2110 0004 0C46     		mov	r4, r1
 701:Drivers/BSP/Components/lsm6dso16is/lsm6dso16is.c ****   lsm6dso16is_gy_full_scale_t full_scale;
 2111              		.loc 1 701 3 is_stmt 1 view .LVU556
 2112              	.LVL169:
 702:Drivers/BSP/Components/lsm6dso16is/lsm6dso16is.c **** 
 2113              		.loc 1 702 3 view .LVU557
 705:Drivers/BSP/Components/lsm6dso16is/lsm6dso16is.c ****   {
 2114              		.loc 1 705 3 view .LVU558
 705:Drivers/BSP/Components/lsm6dso16is/lsm6dso16is.c ****   {
 2115              		.loc 1 705 7 is_stmt 0 view .LVU559
 2116 0006 0DF10701 		add	r1, sp, #7
 2117              	.LVL170:
 705:Drivers/BSP/Components/lsm6dso16is/lsm6dso16is.c ****   {
 2118              		.loc 1 705 7 view .LVU560
 2119 000a 2030     		adds	r0, r0, #32
 2120              	.LVL171:
 705:Drivers/BSP/Components/lsm6dso16is/lsm6dso16is.c ****   {
 2121              		.loc 1 705 7 view .LVU561
 2122 000c FFF7FEFF 		bl	lsm6dso16is_gy_full_scale_get
 2123              	.LVL172:
 705:Drivers/BSP/Components/lsm6dso16is/lsm6dso16is.c ****   {
 2124              		.loc 1 705 6 discriminator 1 view .LVU562
 2125 0010 0346     		mov	r3, r0
 2126 0012 08B1     		cbz	r0, .L236
 707:Drivers/BSP/Components/lsm6dso16is/lsm6dso16is.c ****   }
 2127              		.loc 1 707 9 view .LVU563
 2128 0014 4FF0FF33 		mov	r3, #-1
 2129              	.L236:
 2130              	.LVL173:
 711:Drivers/BSP/Components/lsm6dso16is/lsm6dso16is.c ****   {
 2131              		.loc 1 711 3 is_stmt 1 view .LVU564
 2132 0018 9DF80720 		ldrb	r2, [sp, #7]	@ zero_extendqisi2
 2133 001c 102A     		cmp	r2, #16
 2134 001e 19D8     		bhi	.L245
 2135 0020 DFE802F0 		tbb	[pc, r2]
 2136              	.L239:
 2137 0024 0C       		.byte	(.L243-.L239)/2
 2138 0025 0F       		.byte	(.L242-.L239)/2
 2139 0026 12       		.byte	(.L241-.L239)/2
 2140 0027 15       		.byte	(.L240-.L239)/2
 2141 0028 18       		.byte	(.L245-.L239)/2
 2142 0029 18       		.byte	(.L245-.L239)/2
 2143 002a 18       		.byte	(.L245-.L239)/2
 2144 002b 18       		.byte	(.L245-.L239)/2
 2145 002c 18       		.byte	(.L245-.L239)/2
 2146 002d 18       		.byte	(.L245-.L239)/2
 2147 002e 18       		.byte	(.L245-.L239)/2
 2148 002f 18       		.byte	(.L245-.L239)/2
 2149 0030 18       		.byte	(.L245-.L239)/2
 2150 0031 18       		.byte	(.L245-.L239)/2
 2151 0032 18       		.byte	(.L245-.L239)/2
 2152 0033 18       		.byte	(.L245-.L239)/2
 2153 0034 09       		.byte	(.L238-.L239)/2
 2154 0035 00       		.p2align 1
 2155              	.L238:
 714:Drivers/BSP/Components/lsm6dso16is/lsm6dso16is.c ****       break;
ARM GAS  C:\Users\Nathan\AppData\Local\Temp\ccdIxQaW.s 			page 71


 2156              		.loc 1 714 7 view .LVU565
 714:Drivers/BSP/Components/lsm6dso16is/lsm6dso16is.c ****       break;
 2157              		.loc 1 714 20 is_stmt 0 view .LVU566
 2158 0036 0A4A     		ldr	r2, .L247
 2159 0038 2260     		str	r2, [r4]	@ float
 715:Drivers/BSP/Components/lsm6dso16is/lsm6dso16is.c **** 
 2160              		.loc 1 715 7 is_stmt 1 view .LVU567
 2161 003a 0DE0     		b	.L235
 2162              	.L243:
 718:Drivers/BSP/Components/lsm6dso16is/lsm6dso16is.c ****       break;
 2163              		.loc 1 718 7 view .LVU568
 718:Drivers/BSP/Components/lsm6dso16is/lsm6dso16is.c ****       break;
 2164              		.loc 1 718 20 is_stmt 0 view .LVU569
 2165 003c 094A     		ldr	r2, .L247+4
 2166 003e 2260     		str	r2, [r4]	@ float
 719:Drivers/BSP/Components/lsm6dso16is/lsm6dso16is.c **** 
 2167              		.loc 1 719 7 is_stmt 1 view .LVU570
 2168 0040 0AE0     		b	.L235
 2169              	.L242:
 722:Drivers/BSP/Components/lsm6dso16is/lsm6dso16is.c ****       break;
 2170              		.loc 1 722 7 view .LVU571
 722:Drivers/BSP/Components/lsm6dso16is/lsm6dso16is.c ****       break;
 2171              		.loc 1 722 20 is_stmt 0 view .LVU572
 2172 0042 094A     		ldr	r2, .L247+8
 2173 0044 2260     		str	r2, [r4]	@ float
 723:Drivers/BSP/Components/lsm6dso16is/lsm6dso16is.c **** 
 2174              		.loc 1 723 7 is_stmt 1 view .LVU573
 2175 0046 07E0     		b	.L235
 2176              	.L241:
 726:Drivers/BSP/Components/lsm6dso16is/lsm6dso16is.c ****       break;
 2177              		.loc 1 726 7 view .LVU574
 726:Drivers/BSP/Components/lsm6dso16is/lsm6dso16is.c ****       break;
 2178              		.loc 1 726 20 is_stmt 0 view .LVU575
 2179 0048 084A     		ldr	r2, .L247+12
 2180 004a 2260     		str	r2, [r4]	@ float
 727:Drivers/BSP/Components/lsm6dso16is/lsm6dso16is.c **** 
 2181              		.loc 1 727 7 is_stmt 1 view .LVU576
 2182 004c 04E0     		b	.L235
 2183              	.L240:
 730:Drivers/BSP/Components/lsm6dso16is/lsm6dso16is.c ****       break;
 2184              		.loc 1 730 7 view .LVU577
 730:Drivers/BSP/Components/lsm6dso16is/lsm6dso16is.c ****       break;
 2185              		.loc 1 730 20 is_stmt 0 view .LVU578
 2186 004e 084A     		ldr	r2, .L247+16
 2187 0050 2260     		str	r2, [r4]	@ float
 731:Drivers/BSP/Components/lsm6dso16is/lsm6dso16is.c **** 
 2188              		.loc 1 731 7 is_stmt 1 view .LVU579
 2189 0052 01E0     		b	.L235
 2190              	.L245:
 711:Drivers/BSP/Components/lsm6dso16is/lsm6dso16is.c ****   {
 2191              		.loc 1 711 3 is_stmt 0 view .LVU580
 2192 0054 4FF0FF33 		mov	r3, #-1
 2193              	.LVL174:
 738:Drivers/BSP/Components/lsm6dso16is/lsm6dso16is.c **** }
 2194              		.loc 1 738 3 is_stmt 1 view .LVU581
 2195              	.L235:
 739:Drivers/BSP/Components/lsm6dso16is/lsm6dso16is.c **** 
ARM GAS  C:\Users\Nathan\AppData\Local\Temp\ccdIxQaW.s 			page 72


 2196              		.loc 1 739 1 is_stmt 0 view .LVU582
 2197 0058 1846     		mov	r0, r3
 2198 005a 02B0     		add	sp, sp, #8
 2199              		.cfi_def_cfa_offset 8
 2200              		@ sp needed
 2201 005c 10BD     		pop	{r4, pc}
 2202              	.LVL175:
 2203              	.L248:
 739:Drivers/BSP/Components/lsm6dso16is/lsm6dso16is.c **** 
 2204              		.loc 1 739 1 view .LVU583
 2205 005e 00BF     		.align	2
 2206              	.L247:
 2207 0060 00008C40 		.word	1082916864
 2208 0064 00000C41 		.word	1091305472
 2209 0068 00008C41 		.word	1099694080
 2210 006c 00000C42 		.word	1108082688
 2211 0070 00008C42 		.word	1116471296
 2212              		.cfi_endproc
 2213              	.LFE16:
 2215              		.section	.text.LSM6DSO16IS_GYRO_GetFullScale,"ax",%progbits
 2216              		.align	1
 2217              		.global	LSM6DSO16IS_GYRO_GetFullScale
 2218              		.syntax unified
 2219              		.thumb
 2220              		.thumb_func
 2222              	LSM6DSO16IS_GYRO_GetFullScale:
 2223              	.LVL176:
 2224              	.LFB19:
 852:Drivers/BSP/Components/lsm6dso16is/lsm6dso16is.c ****   int32_t ret = LSM6DSO16IS_OK;
 2225              		.loc 1 852 1 is_stmt 1 view -0
 2226              		.cfi_startproc
 2227              		@ args = 0, pretend = 0, frame = 8
 2228              		@ frame_needed = 0, uses_anonymous_args = 0
 852:Drivers/BSP/Components/lsm6dso16is/lsm6dso16is.c ****   int32_t ret = LSM6DSO16IS_OK;
 2229              		.loc 1 852 1 is_stmt 0 view .LVU585
 2230 0000 10B5     		push	{r4, lr}
 2231              		.cfi_def_cfa_offset 8
 2232              		.cfi_offset 4, -8
 2233              		.cfi_offset 14, -4
 2234 0002 82B0     		sub	sp, sp, #8
 2235              		.cfi_def_cfa_offset 16
 2236 0004 0C46     		mov	r4, r1
 853:Drivers/BSP/Components/lsm6dso16is/lsm6dso16is.c ****   lsm6dso16is_gy_full_scale_t fs_low_level;
 2237              		.loc 1 853 3 is_stmt 1 view .LVU586
 2238              	.LVL177:
 854:Drivers/BSP/Components/lsm6dso16is/lsm6dso16is.c **** 
 2239              		.loc 1 854 3 view .LVU587
 857:Drivers/BSP/Components/lsm6dso16is/lsm6dso16is.c ****   {
 2240              		.loc 1 857 3 view .LVU588
 857:Drivers/BSP/Components/lsm6dso16is/lsm6dso16is.c ****   {
 2241              		.loc 1 857 7 is_stmt 0 view .LVU589
 2242 0006 0DF10701 		add	r1, sp, #7
 2243              	.LVL178:
 857:Drivers/BSP/Components/lsm6dso16is/lsm6dso16is.c ****   {
 2244              		.loc 1 857 7 view .LVU590
 2245 000a 2030     		adds	r0, r0, #32
 2246              	.LVL179:
ARM GAS  C:\Users\Nathan\AppData\Local\Temp\ccdIxQaW.s 			page 73


 857:Drivers/BSP/Components/lsm6dso16is/lsm6dso16is.c ****   {
 2247              		.loc 1 857 7 view .LVU591
 2248 000c FFF7FEFF 		bl	lsm6dso16is_gy_full_scale_get
 2249              	.LVL180:
 857:Drivers/BSP/Components/lsm6dso16is/lsm6dso16is.c ****   {
 2250              		.loc 1 857 6 discriminator 1 view .LVU592
 2251 0010 0346     		mov	r3, r0
 2252 0012 08B1     		cbz	r0, .L250
 859:Drivers/BSP/Components/lsm6dso16is/lsm6dso16is.c ****   }
 2253              		.loc 1 859 9 view .LVU593
 2254 0014 4FF0FF33 		mov	r3, #-1
 2255              	.L250:
 2256              	.LVL181:
 862:Drivers/BSP/Components/lsm6dso16is/lsm6dso16is.c ****   {
 2257              		.loc 1 862 3 is_stmt 1 view .LVU594
 2258 0018 9DF80720 		ldrb	r2, [sp, #7]	@ zero_extendqisi2
 2259 001c 102A     		cmp	r2, #16
 2260 001e 1CD8     		bhi	.L259
 2261 0020 DFE802F0 		tbb	[pc, r2]
 2262              	.L253:
 2263 0024 0C       		.byte	(.L257-.L253)/2
 2264 0025 0F       		.byte	(.L256-.L253)/2
 2265 0026 13       		.byte	(.L255-.L253)/2
 2266 0027 17       		.byte	(.L254-.L253)/2
 2267 0028 1B       		.byte	(.L259-.L253)/2
 2268 0029 1B       		.byte	(.L259-.L253)/2
 2269 002a 1B       		.byte	(.L259-.L253)/2
 2270 002b 1B       		.byte	(.L259-.L253)/2
 2271 002c 1B       		.byte	(.L259-.L253)/2
 2272 002d 1B       		.byte	(.L259-.L253)/2
 2273 002e 1B       		.byte	(.L259-.L253)/2
 2274 002f 1B       		.byte	(.L259-.L253)/2
 2275 0030 1B       		.byte	(.L259-.L253)/2
 2276 0031 1B       		.byte	(.L259-.L253)/2
 2277 0032 1B       		.byte	(.L259-.L253)/2
 2278 0033 1B       		.byte	(.L259-.L253)/2
 2279 0034 09       		.byte	(.L252-.L253)/2
 2280 0035 00       		.p2align 1
 2281              	.L252:
 865:Drivers/BSP/Components/lsm6dso16is/lsm6dso16is.c ****       break;
 2282              		.loc 1 865 7 view .LVU595
 865:Drivers/BSP/Components/lsm6dso16is/lsm6dso16is.c ****       break;
 2283              		.loc 1 865 18 is_stmt 0 view .LVU596
 2284 0036 7D22     		movs	r2, #125
 2285 0038 2260     		str	r2, [r4]
 866:Drivers/BSP/Components/lsm6dso16is/lsm6dso16is.c **** 
 2286              		.loc 1 866 7 is_stmt 1 view .LVU597
 2287 003a 10E0     		b	.L249
 2288              	.L257:
 869:Drivers/BSP/Components/lsm6dso16is/lsm6dso16is.c ****       break;
 2289              		.loc 1 869 7 view .LVU598
 869:Drivers/BSP/Components/lsm6dso16is/lsm6dso16is.c ****       break;
 2290              		.loc 1 869 18 is_stmt 0 view .LVU599
 2291 003c FA22     		movs	r2, #250
 2292 003e 2260     		str	r2, [r4]
 870:Drivers/BSP/Components/lsm6dso16is/lsm6dso16is.c **** 
 2293              		.loc 1 870 7 is_stmt 1 view .LVU600
ARM GAS  C:\Users\Nathan\AppData\Local\Temp\ccdIxQaW.s 			page 74


 2294 0040 0DE0     		b	.L249
 2295              	.L256:
 873:Drivers/BSP/Components/lsm6dso16is/lsm6dso16is.c ****       break;
 2296              		.loc 1 873 7 view .LVU601
 873:Drivers/BSP/Components/lsm6dso16is/lsm6dso16is.c ****       break;
 2297              		.loc 1 873 18 is_stmt 0 view .LVU602
 2298 0042 4FF4FA72 		mov	r2, #500
 2299 0046 2260     		str	r2, [r4]
 874:Drivers/BSP/Components/lsm6dso16is/lsm6dso16is.c **** 
 2300              		.loc 1 874 7 is_stmt 1 view .LVU603
 2301 0048 09E0     		b	.L249
 2302              	.L255:
 877:Drivers/BSP/Components/lsm6dso16is/lsm6dso16is.c ****       break;
 2303              		.loc 1 877 7 view .LVU604
 877:Drivers/BSP/Components/lsm6dso16is/lsm6dso16is.c ****       break;
 2304              		.loc 1 877 18 is_stmt 0 view .LVU605
 2305 004a 4FF47A72 		mov	r2, #1000
 2306 004e 2260     		str	r2, [r4]
 878:Drivers/BSP/Components/lsm6dso16is/lsm6dso16is.c **** 
 2307              		.loc 1 878 7 is_stmt 1 view .LVU606
 2308 0050 05E0     		b	.L249
 2309              	.L254:
 881:Drivers/BSP/Components/lsm6dso16is/lsm6dso16is.c ****       break;
 2310              		.loc 1 881 7 view .LVU607
 881:Drivers/BSP/Components/lsm6dso16is/lsm6dso16is.c ****       break;
 2311              		.loc 1 881 18 is_stmt 0 view .LVU608
 2312 0052 4FF4FA62 		mov	r2, #2000
 2313 0056 2260     		str	r2, [r4]
 882:Drivers/BSP/Components/lsm6dso16is/lsm6dso16is.c **** 
 2314              		.loc 1 882 7 is_stmt 1 view .LVU609
 2315 0058 01E0     		b	.L249
 2316              	.L259:
 862:Drivers/BSP/Components/lsm6dso16is/lsm6dso16is.c ****   {
 2317              		.loc 1 862 3 is_stmt 0 view .LVU610
 2318 005a 4FF0FF33 		mov	r3, #-1
 2319              	.LVL182:
 889:Drivers/BSP/Components/lsm6dso16is/lsm6dso16is.c **** }
 2320              		.loc 1 889 3 is_stmt 1 view .LVU611
 2321              	.L249:
 890:Drivers/BSP/Components/lsm6dso16is/lsm6dso16is.c **** 
 2322              		.loc 1 890 1 is_stmt 0 view .LVU612
 2323 005e 1846     		mov	r0, r3
 2324 0060 02B0     		add	sp, sp, #8
 2325              		.cfi_def_cfa_offset 8
 2326              		@ sp needed
 2327 0062 10BD     		pop	{r4, pc}
 890:Drivers/BSP/Components/lsm6dso16is/lsm6dso16is.c **** 
 2328              		.loc 1 890 1 view .LVU613
 2329              		.cfi_endproc
 2330              	.LFE19:
 2332              		.section	.text.LSM6DSO16IS_GYRO_GetAxesRaw,"ax",%progbits
 2333              		.align	1
 2334              		.global	LSM6DSO16IS_GYRO_GetAxesRaw
 2335              		.syntax unified
 2336              		.thumb
 2337              		.thumb_func
 2339              	LSM6DSO16IS_GYRO_GetAxesRaw:
ARM GAS  C:\Users\Nathan\AppData\Local\Temp\ccdIxQaW.s 			page 75


 2340              	.LVL183:
 2341              	.LFB21:
 924:Drivers/BSP/Components/lsm6dso16is/lsm6dso16is.c ****   int32_t ret = LSM6DSO16IS_OK;
 2342              		.loc 1 924 1 is_stmt 1 view -0
 2343              		.cfi_startproc
 2344              		@ args = 0, pretend = 0, frame = 8
 2345              		@ frame_needed = 0, uses_anonymous_args = 0
 924:Drivers/BSP/Components/lsm6dso16is/lsm6dso16is.c ****   int32_t ret = LSM6DSO16IS_OK;
 2346              		.loc 1 924 1 is_stmt 0 view .LVU615
 2347 0000 10B5     		push	{r4, lr}
 2348              		.cfi_def_cfa_offset 8
 2349              		.cfi_offset 4, -8
 2350              		.cfi_offset 14, -4
 2351 0002 82B0     		sub	sp, sp, #8
 2352              		.cfi_def_cfa_offset 16
 2353 0004 0C46     		mov	r4, r1
 925:Drivers/BSP/Components/lsm6dso16is/lsm6dso16is.c ****   int16_t data_raw[3];
 2354              		.loc 1 925 3 is_stmt 1 view .LVU616
 2355              	.LVL184:
 926:Drivers/BSP/Components/lsm6dso16is/lsm6dso16is.c **** 
 2356              		.loc 1 926 3 view .LVU617
 929:Drivers/BSP/Components/lsm6dso16is/lsm6dso16is.c ****   {
 2357              		.loc 1 929 3 view .LVU618
 929:Drivers/BSP/Components/lsm6dso16is/lsm6dso16is.c ****   {
 2358              		.loc 1 929 7 is_stmt 0 view .LVU619
 2359 0006 6946     		mov	r1, sp
 2360              	.LVL185:
 929:Drivers/BSP/Components/lsm6dso16is/lsm6dso16is.c ****   {
 2361              		.loc 1 929 7 view .LVU620
 2362 0008 2030     		adds	r0, r0, #32
 2363              	.LVL186:
 929:Drivers/BSP/Components/lsm6dso16is/lsm6dso16is.c ****   {
 2364              		.loc 1 929 7 view .LVU621
 2365 000a FFF7FEFF 		bl	lsm6dso16is_angular_rate_raw_get
 2366              	.LVL187:
 929:Drivers/BSP/Components/lsm6dso16is/lsm6dso16is.c ****   {
 2367              		.loc 1 929 6 discriminator 1 view .LVU622
 2368 000e 50B9     		cbnz	r0, .L265
 2369              	.L262:
 2370              	.LVL188:
 935:Drivers/BSP/Components/lsm6dso16is/lsm6dso16is.c ****   Value->y = data_raw[1];
 2371              		.loc 1 935 3 is_stmt 1 view .LVU623
 935:Drivers/BSP/Components/lsm6dso16is/lsm6dso16is.c ****   Value->y = data_raw[1];
 2372              		.loc 1 935 22 is_stmt 0 view .LVU624
 2373 0010 BDF90030 		ldrsh	r3, [sp]
 935:Drivers/BSP/Components/lsm6dso16is/lsm6dso16is.c ****   Value->y = data_raw[1];
 2374              		.loc 1 935 12 view .LVU625
 2375 0014 2380     		strh	r3, [r4]	@ movhi
 936:Drivers/BSP/Components/lsm6dso16is/lsm6dso16is.c ****   Value->z = data_raw[2];
 2376              		.loc 1 936 3 is_stmt 1 view .LVU626
 936:Drivers/BSP/Components/lsm6dso16is/lsm6dso16is.c ****   Value->z = data_raw[2];
 2377              		.loc 1 936 22 is_stmt 0 view .LVU627
 2378 0016 BDF90230 		ldrsh	r3, [sp, #2]
 936:Drivers/BSP/Components/lsm6dso16is/lsm6dso16is.c ****   Value->z = data_raw[2];
 2379              		.loc 1 936 12 view .LVU628
 2380 001a 6380     		strh	r3, [r4, #2]	@ movhi
 937:Drivers/BSP/Components/lsm6dso16is/lsm6dso16is.c **** 
ARM GAS  C:\Users\Nathan\AppData\Local\Temp\ccdIxQaW.s 			page 76


 2381              		.loc 1 937 3 is_stmt 1 view .LVU629
 937:Drivers/BSP/Components/lsm6dso16is/lsm6dso16is.c **** 
 2382              		.loc 1 937 22 is_stmt 0 view .LVU630
 2383 001c BDF90430 		ldrsh	r3, [sp, #4]
 937:Drivers/BSP/Components/lsm6dso16is/lsm6dso16is.c **** 
 2384              		.loc 1 937 12 view .LVU631
 2385 0020 A380     		strh	r3, [r4, #4]	@ movhi
 939:Drivers/BSP/Components/lsm6dso16is/lsm6dso16is.c **** }
 2386              		.loc 1 939 3 is_stmt 1 view .LVU632
 940:Drivers/BSP/Components/lsm6dso16is/lsm6dso16is.c **** 
 2387              		.loc 1 940 1 is_stmt 0 view .LVU633
 2388 0022 02B0     		add	sp, sp, #8
 2389              		.cfi_remember_state
 2390              		.cfi_def_cfa_offset 8
 2391              		@ sp needed
 2392 0024 10BD     		pop	{r4, pc}
 2393              	.LVL189:
 2394              	.L265:
 2395              		.cfi_restore_state
 931:Drivers/BSP/Components/lsm6dso16is/lsm6dso16is.c ****   }
 2396              		.loc 1 931 9 view .LVU634
 2397 0026 4FF0FF30 		mov	r0, #-1
 2398 002a F1E7     		b	.L262
 2399              		.cfi_endproc
 2400              	.LFE21:
 2402              		.section	.text.LSM6DSO16IS_GYRO_GetAxes,"ax",%progbits
 2403              		.align	1
 2404              		.global	LSM6DSO16IS_GYRO_GetAxes
 2405              		.syntax unified
 2406              		.thumb
 2407              		.thumb_func
 2409              	LSM6DSO16IS_GYRO_GetAxes:
 2410              	.LVL190:
 2411              	.LFB22:
 949:Drivers/BSP/Components/lsm6dso16is/lsm6dso16is.c ****   int32_t ret = LSM6DSO16IS_OK;
 2412              		.loc 1 949 1 is_stmt 1 view -0
 2413              		.cfi_startproc
 2414              		@ args = 0, pretend = 0, frame = 16
 2415              		@ frame_needed = 0, uses_anonymous_args = 0
 949:Drivers/BSP/Components/lsm6dso16is/lsm6dso16is.c ****   int32_t ret = LSM6DSO16IS_OK;
 2416              		.loc 1 949 1 is_stmt 0 view .LVU636
 2417 0000 70B5     		push	{r4, r5, r6, lr}
 2418              		.cfi_def_cfa_offset 16
 2419              		.cfi_offset 4, -16
 2420              		.cfi_offset 5, -12
 2421              		.cfi_offset 6, -8
 2422              		.cfi_offset 14, -4
 2423 0002 84B0     		sub	sp, sp, #16
 2424              		.cfi_def_cfa_offset 32
 2425 0004 0546     		mov	r5, r0
 2426 0006 0C46     		mov	r4, r1
 950:Drivers/BSP/Components/lsm6dso16is/lsm6dso16is.c ****   int16_t data_raw[3];
 2427              		.loc 1 950 3 is_stmt 1 view .LVU637
 2428              	.LVL191:
 951:Drivers/BSP/Components/lsm6dso16is/lsm6dso16is.c ****   float_t sensitivity = 0.0f;
 2429              		.loc 1 951 3 view .LVU638
 952:Drivers/BSP/Components/lsm6dso16is/lsm6dso16is.c **** 
ARM GAS  C:\Users\Nathan\AppData\Local\Temp\ccdIxQaW.s 			page 77


 2430              		.loc 1 952 3 view .LVU639
 952:Drivers/BSP/Components/lsm6dso16is/lsm6dso16is.c **** 
 2431              		.loc 1 952 11 is_stmt 0 view .LVU640
 2432 0008 0023     		movs	r3, #0
 2433 000a 0193     		str	r3, [sp, #4]	@ float
 955:Drivers/BSP/Components/lsm6dso16is/lsm6dso16is.c ****   {
 2434              		.loc 1 955 3 is_stmt 1 view .LVU641
 955:Drivers/BSP/Components/lsm6dso16is/lsm6dso16is.c ****   {
 2435              		.loc 1 955 7 is_stmt 0 view .LVU642
 2436 000c 02A9     		add	r1, sp, #8
 2437              	.LVL192:
 955:Drivers/BSP/Components/lsm6dso16is/lsm6dso16is.c ****   {
 2438              		.loc 1 955 7 view .LVU643
 2439 000e 2030     		adds	r0, r0, #32
 2440              	.LVL193:
 955:Drivers/BSP/Components/lsm6dso16is/lsm6dso16is.c ****   {
 2441              		.loc 1 955 7 view .LVU644
 2442 0010 FFF7FEFF 		bl	lsm6dso16is_angular_rate_raw_get
 2443              	.LVL194:
 955:Drivers/BSP/Components/lsm6dso16is/lsm6dso16is.c ****   {
 2444              		.loc 1 955 6 discriminator 1 view .LVU645
 2445 0014 0646     		mov	r6, r0
 2446 0016 08B1     		cbz	r0, .L267
 957:Drivers/BSP/Components/lsm6dso16is/lsm6dso16is.c ****   }
 2447              		.loc 1 957 9 view .LVU646
 2448 0018 4FF0FF36 		mov	r6, #-1
 2449              	.L267:
 2450              	.LVL195:
 961:Drivers/BSP/Components/lsm6dso16is/lsm6dso16is.c ****   {
 2451              		.loc 1 961 3 is_stmt 1 view .LVU647
 961:Drivers/BSP/Components/lsm6dso16is/lsm6dso16is.c ****   {
 2452              		.loc 1 961 7 is_stmt 0 view .LVU648
 2453 001c 01A9     		add	r1, sp, #4
 2454 001e 2846     		mov	r0, r5
 2455 0020 FFF7FEFF 		bl	LSM6DSO16IS_GYRO_GetSensitivity
 2456              	.LVL196:
 961:Drivers/BSP/Components/lsm6dso16is/lsm6dso16is.c ****   {
 2457              		.loc 1 961 6 discriminator 1 view .LVU649
 2458 0024 40BB     		cbnz	r0, .L272
 2459              	.LVL197:
 2460              	.L268:
 967:Drivers/BSP/Components/lsm6dso16is/lsm6dso16is.c ****   AngularRate->y = (int32_t)((float_t)((float_t)data_raw[1] * sensitivity));
 2461              		.loc 1 967 3 is_stmt 1 view .LVU650
 967:Drivers/BSP/Components/lsm6dso16is/lsm6dso16is.c ****   AngularRate->y = (int32_t)((float_t)((float_t)data_raw[1] * sensitivity));
 2462              		.loc 1 967 57 is_stmt 0 view .LVU651
 2463 0026 BDF90830 		ldrsh	r3, [sp, #8]
 2464 002a 07EE103A 		vmov	s14, r3	@ int
 967:Drivers/BSP/Components/lsm6dso16is/lsm6dso16is.c ****   AngularRate->y = (int32_t)((float_t)((float_t)data_raw[1] * sensitivity));
 2465              		.loc 1 967 40 view .LVU652
 2466 002e B8EEC77A 		vcvt.f32.s32	s14, s14
 967:Drivers/BSP/Components/lsm6dso16is/lsm6dso16is.c ****   AngularRate->y = (int32_t)((float_t)((float_t)data_raw[1] * sensitivity));
 2467              		.loc 1 967 30 view .LVU653
 2468 0032 DDED017A 		vldr.32	s15, [sp, #4]
 2469 0036 27EE277A 		vmul.f32	s14, s14, s15
 967:Drivers/BSP/Components/lsm6dso16is/lsm6dso16is.c ****   AngularRate->y = (int32_t)((float_t)((float_t)data_raw[1] * sensitivity));
 2470              		.loc 1 967 20 view .LVU654
 2471 003a BDEEC77A 		vcvt.s32.f32	s14, s14
ARM GAS  C:\Users\Nathan\AppData\Local\Temp\ccdIxQaW.s 			page 78


 967:Drivers/BSP/Components/lsm6dso16is/lsm6dso16is.c ****   AngularRate->y = (int32_t)((float_t)((float_t)data_raw[1] * sensitivity));
 2472              		.loc 1 967 18 view .LVU655
 2473 003e 84ED007A 		vstr.32	s14, [r4]	@ int
 968:Drivers/BSP/Components/lsm6dso16is/lsm6dso16is.c ****   AngularRate->z = (int32_t)((float_t)((float_t)data_raw[2] * sensitivity));
 2474              		.loc 1 968 3 is_stmt 1 view .LVU656
 968:Drivers/BSP/Components/lsm6dso16is/lsm6dso16is.c ****   AngularRate->z = (int32_t)((float_t)((float_t)data_raw[2] * sensitivity));
 2475              		.loc 1 968 57 is_stmt 0 view .LVU657
 2476 0042 BDF90A30 		ldrsh	r3, [sp, #10]
 2477 0046 07EE103A 		vmov	s14, r3	@ int
 968:Drivers/BSP/Components/lsm6dso16is/lsm6dso16is.c ****   AngularRate->z = (int32_t)((float_t)((float_t)data_raw[2] * sensitivity));
 2478              		.loc 1 968 40 view .LVU658
 2479 004a B8EEC77A 		vcvt.f32.s32	s14, s14
 968:Drivers/BSP/Components/lsm6dso16is/lsm6dso16is.c ****   AngularRate->z = (int32_t)((float_t)((float_t)data_raw[2] * sensitivity));
 2480              		.loc 1 968 30 view .LVU659
 2481 004e 27EE277A 		vmul.f32	s14, s14, s15
 968:Drivers/BSP/Components/lsm6dso16is/lsm6dso16is.c ****   AngularRate->z = (int32_t)((float_t)((float_t)data_raw[2] * sensitivity));
 2482              		.loc 1 968 20 view .LVU660
 2483 0052 BDEEC77A 		vcvt.s32.f32	s14, s14
 968:Drivers/BSP/Components/lsm6dso16is/lsm6dso16is.c ****   AngularRate->z = (int32_t)((float_t)((float_t)data_raw[2] * sensitivity));
 2484              		.loc 1 968 18 view .LVU661
 2485 0056 84ED017A 		vstr.32	s14, [r4, #4]	@ int
 969:Drivers/BSP/Components/lsm6dso16is/lsm6dso16is.c **** 
 2486              		.loc 1 969 3 is_stmt 1 view .LVU662
 969:Drivers/BSP/Components/lsm6dso16is/lsm6dso16is.c **** 
 2487              		.loc 1 969 57 is_stmt 0 view .LVU663
 2488 005a BDF90C30 		ldrsh	r3, [sp, #12]
 2489 005e 07EE103A 		vmov	s14, r3	@ int
 969:Drivers/BSP/Components/lsm6dso16is/lsm6dso16is.c **** 
 2490              		.loc 1 969 40 view .LVU664
 2491 0062 B8EEC77A 		vcvt.f32.s32	s14, s14
 969:Drivers/BSP/Components/lsm6dso16is/lsm6dso16is.c **** 
 2492              		.loc 1 969 30 view .LVU665
 2493 0066 67EE877A 		vmul.f32	s15, s15, s14
 969:Drivers/BSP/Components/lsm6dso16is/lsm6dso16is.c **** 
 2494              		.loc 1 969 20 view .LVU666
 2495 006a FDEEE77A 		vcvt.s32.f32	s15, s15
 969:Drivers/BSP/Components/lsm6dso16is/lsm6dso16is.c **** 
 2496              		.loc 1 969 18 view .LVU667
 2497 006e C4ED027A 		vstr.32	s15, [r4, #8]	@ int
 971:Drivers/BSP/Components/lsm6dso16is/lsm6dso16is.c **** }
 2498              		.loc 1 971 3 is_stmt 1 view .LVU668
 972:Drivers/BSP/Components/lsm6dso16is/lsm6dso16is.c **** 
 2499              		.loc 1 972 1 is_stmt 0 view .LVU669
 2500 0072 3046     		mov	r0, r6
 2501 0074 04B0     		add	sp, sp, #16
 2502              		.cfi_remember_state
 2503              		.cfi_def_cfa_offset 16
 2504              		@ sp needed
 2505 0076 70BD     		pop	{r4, r5, r6, pc}
 2506              	.LVL198:
 2507              	.L272:
 2508              		.cfi_restore_state
 963:Drivers/BSP/Components/lsm6dso16is/lsm6dso16is.c ****   }
 2509              		.loc 1 963 9 view .LVU670
 2510 0078 4FF0FF36 		mov	r6, #-1
 2511              	.LVL199:
 963:Drivers/BSP/Components/lsm6dso16is/lsm6dso16is.c ****   }
ARM GAS  C:\Users\Nathan\AppData\Local\Temp\ccdIxQaW.s 			page 79


 2512              		.loc 1 963 9 view .LVU671
 2513 007c D3E7     		b	.L268
 2514              		.cfi_endproc
 2515              	.LFE22:
 2517              		.section	.text.LSM6DSO16IS_Read_Reg,"ax",%progbits
 2518              		.align	1
 2519              		.global	LSM6DSO16IS_Read_Reg
 2520              		.syntax unified
 2521              		.thumb
 2522              		.thumb_func
 2524              	LSM6DSO16IS_Read_Reg:
 2525              	.LVL200:
 2526              	.LFB23:
 982:Drivers/BSP/Components/lsm6dso16is/lsm6dso16is.c ****   int32_t ret = LSM6DSO16IS_OK;
 2527              		.loc 1 982 1 is_stmt 1 view -0
 2528              		.cfi_startproc
 2529              		@ args = 0, pretend = 0, frame = 0
 2530              		@ frame_needed = 0, uses_anonymous_args = 0
 982:Drivers/BSP/Components/lsm6dso16is/lsm6dso16is.c ****   int32_t ret = LSM6DSO16IS_OK;
 2531              		.loc 1 982 1 is_stmt 0 view .LVU673
 2532 0000 08B5     		push	{r3, lr}
 2533              		.cfi_def_cfa_offset 8
 2534              		.cfi_offset 3, -8
 2535              		.cfi_offset 14, -4
 983:Drivers/BSP/Components/lsm6dso16is/lsm6dso16is.c **** 
 2536              		.loc 1 983 3 is_stmt 1 view .LVU674
 2537              	.LVL201:
 985:Drivers/BSP/Components/lsm6dso16is/lsm6dso16is.c ****   {
 2538              		.loc 1 985 3 view .LVU675
 985:Drivers/BSP/Components/lsm6dso16is/lsm6dso16is.c ****   {
 2539              		.loc 1 985 7 is_stmt 0 view .LVU676
 2540 0002 0123     		movs	r3, #1
 2541 0004 2030     		adds	r0, r0, #32
 2542              	.LVL202:
 985:Drivers/BSP/Components/lsm6dso16is/lsm6dso16is.c ****   {
 2543              		.loc 1 985 7 view .LVU677
 2544 0006 FFF7FEFF 		bl	lsm6dso16is_read_reg
 2545              	.LVL203:
 985:Drivers/BSP/Components/lsm6dso16is/lsm6dso16is.c ****   {
 2546              		.loc 1 985 6 discriminator 1 view .LVU678
 2547 000a 00B9     		cbnz	r0, .L277
 2548              	.LVL204:
 2549              	.L273:
 991:Drivers/BSP/Components/lsm6dso16is/lsm6dso16is.c **** 
 2550              		.loc 1 991 1 view .LVU679
 2551 000c 08BD     		pop	{r3, pc}
 2552              	.LVL205:
 2553              	.L277:
 987:Drivers/BSP/Components/lsm6dso16is/lsm6dso16is.c ****   }
 2554              		.loc 1 987 9 view .LVU680
 2555 000e 4FF0FF30 		mov	r0, #-1
 2556              	.LVL206:
 990:Drivers/BSP/Components/lsm6dso16is/lsm6dso16is.c **** }
 2557              		.loc 1 990 3 is_stmt 1 view .LVU681
 990:Drivers/BSP/Components/lsm6dso16is/lsm6dso16is.c **** }
 2558              		.loc 1 990 10 is_stmt 0 view .LVU682
 2559 0012 FBE7     		b	.L273
ARM GAS  C:\Users\Nathan\AppData\Local\Temp\ccdIxQaW.s 			page 80


 2560              		.cfi_endproc
 2561              	.LFE23:
 2563              		.section	.text.LSM6DSO16IS_Write_Reg,"ax",%progbits
 2564              		.align	1
 2565              		.global	LSM6DSO16IS_Write_Reg
 2566              		.syntax unified
 2567              		.thumb
 2568              		.thumb_func
 2570              	LSM6DSO16IS_Write_Reg:
 2571              	.LVL207:
 2572              	.LFB24:
1001:Drivers/BSP/Components/lsm6dso16is/lsm6dso16is.c ****   int32_t ret = LSM6DSO16IS_OK;
 2573              		.loc 1 1001 1 is_stmt 1 view -0
 2574              		.cfi_startproc
 2575              		@ args = 0, pretend = 0, frame = 8
 2576              		@ frame_needed = 0, uses_anonymous_args = 0
1001:Drivers/BSP/Components/lsm6dso16is/lsm6dso16is.c ****   int32_t ret = LSM6DSO16IS_OK;
 2577              		.loc 1 1001 1 is_stmt 0 view .LVU684
 2578 0000 00B5     		push	{lr}
 2579              		.cfi_def_cfa_offset 4
 2580              		.cfi_offset 14, -4
 2581 0002 83B0     		sub	sp, sp, #12
 2582              		.cfi_def_cfa_offset 16
 2583 0004 8DF80720 		strb	r2, [sp, #7]
1002:Drivers/BSP/Components/lsm6dso16is/lsm6dso16is.c **** 
 2584              		.loc 1 1002 3 is_stmt 1 view .LVU685
 2585              	.LVL208:
1004:Drivers/BSP/Components/lsm6dso16is/lsm6dso16is.c ****   {
 2586              		.loc 1 1004 3 view .LVU686
1004:Drivers/BSP/Components/lsm6dso16is/lsm6dso16is.c ****   {
 2587              		.loc 1 1004 7 is_stmt 0 view .LVU687
 2588 0008 0123     		movs	r3, #1
 2589 000a 0DF10702 		add	r2, sp, #7
 2590              	.LVL209:
1004:Drivers/BSP/Components/lsm6dso16is/lsm6dso16is.c ****   {
 2591              		.loc 1 1004 7 view .LVU688
 2592 000e 2030     		adds	r0, r0, #32
 2593              	.LVL210:
1004:Drivers/BSP/Components/lsm6dso16is/lsm6dso16is.c ****   {
 2594              		.loc 1 1004 7 view .LVU689
 2595 0010 FFF7FEFF 		bl	lsm6dso16is_write_reg
 2596              	.LVL211:
1004:Drivers/BSP/Components/lsm6dso16is/lsm6dso16is.c ****   {
 2597              		.loc 1 1004 6 discriminator 1 view .LVU690
 2598 0014 10B9     		cbnz	r0, .L282
 2599              	.LVL212:
 2600              	.L278:
1010:Drivers/BSP/Components/lsm6dso16is/lsm6dso16is.c **** 
 2601              		.loc 1 1010 1 view .LVU691
 2602 0016 03B0     		add	sp, sp, #12
 2603              		.cfi_remember_state
 2604              		.cfi_def_cfa_offset 4
 2605              		@ sp needed
 2606 0018 5DF804FB 		ldr	pc, [sp], #4
 2607              	.LVL213:
 2608              	.L282:
 2609              		.cfi_restore_state
ARM GAS  C:\Users\Nathan\AppData\Local\Temp\ccdIxQaW.s 			page 81


1006:Drivers/BSP/Components/lsm6dso16is/lsm6dso16is.c ****   }
 2610              		.loc 1 1006 9 view .LVU692
 2611 001c 4FF0FF30 		mov	r0, #-1
 2612              	.LVL214:
1009:Drivers/BSP/Components/lsm6dso16is/lsm6dso16is.c **** }
 2613              		.loc 1 1009 3 is_stmt 1 view .LVU693
1009:Drivers/BSP/Components/lsm6dso16is/lsm6dso16is.c **** }
 2614              		.loc 1 1009 10 is_stmt 0 view .LVU694
 2615 0020 F9E7     		b	.L278
 2616              		.cfi_endproc
 2617              	.LFE24:
 2619              		.section	.text.LSM6DSO16IS_RegisterBusIO,"ax",%progbits
 2620              		.align	1
 2621              		.global	LSM6DSO16IS_RegisterBusIO
 2622              		.syntax unified
 2623              		.thumb
 2624              		.thumb_func
 2626              	LSM6DSO16IS_RegisterBusIO:
 2627              	.LVL215:
 2628              	.LFB0:
 101:Drivers/BSP/Components/lsm6dso16is/lsm6dso16is.c ****   int32_t ret = LSM6DSO16IS_OK;
 2629              		.loc 1 101 1 is_stmt 1 view -0
 2630              		.cfi_startproc
 2631              		@ args = 0, pretend = 0, frame = 0
 2632              		@ frame_needed = 0, uses_anonymous_args = 0
 102:Drivers/BSP/Components/lsm6dso16is/lsm6dso16is.c **** 
 2633              		.loc 1 102 3 view .LVU696
 104:Drivers/BSP/Components/lsm6dso16is/lsm6dso16is.c ****   {
 2634              		.loc 1 104 3 view .LVU697
 104:Drivers/BSP/Components/lsm6dso16is/lsm6dso16is.c ****   {
 2635              		.loc 1 104 6 is_stmt 0 view .LVU698
 2636 0000 0028     		cmp	r0, #0
 2637 0002 29D0     		beq	.L285
 101:Drivers/BSP/Components/lsm6dso16is/lsm6dso16is.c ****   int32_t ret = LSM6DSO16IS_OK;
 2638              		.loc 1 101 1 view .LVU699
 2639 0004 10B5     		push	{r4, lr}
 2640              		.cfi_def_cfa_offset 8
 2641              		.cfi_offset 4, -8
 2642              		.cfi_offset 14, -4
 2643 0006 0446     		mov	r4, r0
 110:Drivers/BSP/Components/lsm6dso16is/lsm6dso16is.c ****     pObj->IO.DeInit    = pIO->DeInit;
 2644              		.loc 1 110 5 is_stmt 1 view .LVU700
 110:Drivers/BSP/Components/lsm6dso16is/lsm6dso16is.c ****     pObj->IO.DeInit    = pIO->DeInit;
 2645              		.loc 1 110 29 is_stmt 0 view .LVU701
 2646 0008 0B68     		ldr	r3, [r1]
 110:Drivers/BSP/Components/lsm6dso16is/lsm6dso16is.c ****     pObj->IO.DeInit    = pIO->DeInit;
 2647              		.loc 1 110 24 view .LVU702
 2648 000a 0360     		str	r3, [r0]
 111:Drivers/BSP/Components/lsm6dso16is/lsm6dso16is.c ****     pObj->IO.BusType   = pIO->BusType;
 2649              		.loc 1 111 5 is_stmt 1 view .LVU703
 111:Drivers/BSP/Components/lsm6dso16is/lsm6dso16is.c ****     pObj->IO.BusType   = pIO->BusType;
 2650              		.loc 1 111 29 is_stmt 0 view .LVU704
 2651 000c 4A68     		ldr	r2, [r1, #4]
 111:Drivers/BSP/Components/lsm6dso16is/lsm6dso16is.c ****     pObj->IO.BusType   = pIO->BusType;
 2652              		.loc 1 111 24 view .LVU705
 2653 000e 4260     		str	r2, [r0, #4]
 112:Drivers/BSP/Components/lsm6dso16is/lsm6dso16is.c ****     pObj->IO.Address   = pIO->Address;
ARM GAS  C:\Users\Nathan\AppData\Local\Temp\ccdIxQaW.s 			page 82


 2654              		.loc 1 112 5 is_stmt 1 view .LVU706
 112:Drivers/BSP/Components/lsm6dso16is/lsm6dso16is.c ****     pObj->IO.Address   = pIO->Address;
 2655              		.loc 1 112 29 is_stmt 0 view .LVU707
 2656 0010 8A68     		ldr	r2, [r1, #8]
 112:Drivers/BSP/Components/lsm6dso16is/lsm6dso16is.c ****     pObj->IO.Address   = pIO->Address;
 2657              		.loc 1 112 24 view .LVU708
 2658 0012 8260     		str	r2, [r0, #8]
 113:Drivers/BSP/Components/lsm6dso16is/lsm6dso16is.c ****     pObj->IO.WriteReg  = pIO->WriteReg;
 2659              		.loc 1 113 5 is_stmt 1 view .LVU709
 113:Drivers/BSP/Components/lsm6dso16is/lsm6dso16is.c ****     pObj->IO.WriteReg  = pIO->WriteReg;
 2660              		.loc 1 113 29 is_stmt 0 view .LVU710
 2661 0014 0A7B     		ldrb	r2, [r1, #12]	@ zero_extendqisi2
 113:Drivers/BSP/Components/lsm6dso16is/lsm6dso16is.c ****     pObj->IO.WriteReg  = pIO->WriteReg;
 2662              		.loc 1 113 24 view .LVU711
 2663 0016 0273     		strb	r2, [r0, #12]
 114:Drivers/BSP/Components/lsm6dso16is/lsm6dso16is.c ****     pObj->IO.ReadReg   = pIO->ReadReg;
 2664              		.loc 1 114 5 is_stmt 1 view .LVU712
 114:Drivers/BSP/Components/lsm6dso16is/lsm6dso16is.c ****     pObj->IO.ReadReg   = pIO->ReadReg;
 2665              		.loc 1 114 29 is_stmt 0 view .LVU713
 2666 0018 0A69     		ldr	r2, [r1, #16]
 114:Drivers/BSP/Components/lsm6dso16is/lsm6dso16is.c ****     pObj->IO.ReadReg   = pIO->ReadReg;
 2667              		.loc 1 114 24 view .LVU714
 2668 001a 0261     		str	r2, [r0, #16]
 115:Drivers/BSP/Components/lsm6dso16is/lsm6dso16is.c ****     pObj->IO.GetTick   = pIO->GetTick;
 2669              		.loc 1 115 5 is_stmt 1 view .LVU715
 115:Drivers/BSP/Components/lsm6dso16is/lsm6dso16is.c ****     pObj->IO.GetTick   = pIO->GetTick;
 2670              		.loc 1 115 29 is_stmt 0 view .LVU716
 2671 001c 4A69     		ldr	r2, [r1, #20]
 115:Drivers/BSP/Components/lsm6dso16is/lsm6dso16is.c ****     pObj->IO.GetTick   = pIO->GetTick;
 2672              		.loc 1 115 24 view .LVU717
 2673 001e 4261     		str	r2, [r0, #20]
 116:Drivers/BSP/Components/lsm6dso16is/lsm6dso16is.c **** 
 2674              		.loc 1 116 5 is_stmt 1 view .LVU718
 116:Drivers/BSP/Components/lsm6dso16is/lsm6dso16is.c **** 
 2675              		.loc 1 116 29 is_stmt 0 view .LVU719
 2676 0020 8A69     		ldr	r2, [r1, #24]
 116:Drivers/BSP/Components/lsm6dso16is/lsm6dso16is.c **** 
 2677              		.loc 1 116 24 view .LVU720
 2678 0022 8261     		str	r2, [r0, #24]
 118:Drivers/BSP/Components/lsm6dso16is/lsm6dso16is.c ****     pObj->Ctx.write_reg = WriteRegWrap;
 2679              		.loc 1 118 5 is_stmt 1 view .LVU721
 118:Drivers/BSP/Components/lsm6dso16is/lsm6dso16is.c ****     pObj->Ctx.write_reg = WriteRegWrap;
 2680              		.loc 1 118 25 is_stmt 0 view .LVU722
 2681 0024 114A     		ldr	r2, .L294
 2682 0026 4262     		str	r2, [r0, #36]
 119:Drivers/BSP/Components/lsm6dso16is/lsm6dso16is.c ****     pObj->Ctx.handle    = pObj;
 2683              		.loc 1 119 5 is_stmt 1 view .LVU723
 119:Drivers/BSP/Components/lsm6dso16is/lsm6dso16is.c ****     pObj->Ctx.handle    = pObj;
 2684              		.loc 1 119 25 is_stmt 0 view .LVU724
 2685 0028 114A     		ldr	r2, .L294+4
 2686 002a 0262     		str	r2, [r0, #32]
 120:Drivers/BSP/Components/lsm6dso16is/lsm6dso16is.c **** 
 2687              		.loc 1 120 5 is_stmt 1 view .LVU725
 120:Drivers/BSP/Components/lsm6dso16is/lsm6dso16is.c **** 
 2688              		.loc 1 120 25 is_stmt 0 view .LVU726
 2689 002c C062     		str	r0, [r0, #44]
 122:Drivers/BSP/Components/lsm6dso16is/lsm6dso16is.c ****     {
ARM GAS  C:\Users\Nathan\AppData\Local\Temp\ccdIxQaW.s 			page 83


 2690              		.loc 1 122 5 is_stmt 1 view .LVU727
 122:Drivers/BSP/Components/lsm6dso16is/lsm6dso16is.c ****     {
 2691              		.loc 1 122 8 is_stmt 0 view .LVU728
 2692 002e B3B1     		cbz	r3, .L286
 126:Drivers/BSP/Components/lsm6dso16is/lsm6dso16is.c ****     {
 2693              		.loc 1 126 10 is_stmt 1 view .LVU729
 126:Drivers/BSP/Components/lsm6dso16is/lsm6dso16is.c ****     {
 2694              		.loc 1 126 14 is_stmt 0 view .LVU730
 2695 0030 9847     		blx	r3
 2696              	.LVL216:
 126:Drivers/BSP/Components/lsm6dso16is/lsm6dso16is.c ****     {
 2697              		.loc 1 126 13 discriminator 1 view .LVU731
 2698 0032 B8B9     		cbnz	r0, .L287
 132:Drivers/BSP/Components/lsm6dso16is/lsm6dso16is.c ****       {
 2699              		.loc 1 132 7 is_stmt 1 view .LVU732
 132:Drivers/BSP/Components/lsm6dso16is/lsm6dso16is.c ****       {
 2700              		.loc 1 132 19 is_stmt 0 view .LVU733
 2701 0034 A368     		ldr	r3, [r4, #8]
 132:Drivers/BSP/Components/lsm6dso16is/lsm6dso16is.c ****       {
 2702              		.loc 1 132 10 view .LVU734
 2703 0036 022B     		cmp	r3, #2
 2704 0038 00D0     		beq	.L293
 2705              	.LVL217:
 2706              	.L283:
 150:Drivers/BSP/Components/lsm6dso16is/lsm6dso16is.c **** 
 2707              		.loc 1 150 1 view .LVU735
 2708 003a 10BD     		pop	{r4, pc}
 2709              	.LVL218:
 2710              	.L293:
 135:Drivers/BSP/Components/lsm6dso16is/lsm6dso16is.c ****         {
 2711              		.loc 1 135 9 is_stmt 1 view .LVU736
 135:Drivers/BSP/Components/lsm6dso16is/lsm6dso16is.c ****         {
 2712              		.loc 1 135 17 is_stmt 0 view .LVU737
 2713 003c 94F83030 		ldrb	r3, [r4, #48]	@ zero_extendqisi2
 135:Drivers/BSP/Components/lsm6dso16is/lsm6dso16is.c ****         {
 2714              		.loc 1 135 12 view .LVU738
 2715 0040 002B     		cmp	r3, #0
 2716 0042 FAD1     		bne	.L283
 2717              	.LBB2:
 138:Drivers/BSP/Components/lsm6dso16is/lsm6dso16is.c **** 
 2718              		.loc 1 138 11 is_stmt 1 view .LVU739
 2719              	.LVL219:
 140:Drivers/BSP/Components/lsm6dso16is/lsm6dso16is.c ****           {
 2720              		.loc 1 140 11 view .LVU740
 140:Drivers/BSP/Components/lsm6dso16is/lsm6dso16is.c ****           {
 2721              		.loc 1 140 15 is_stmt 0 view .LVU741
 2722 0044 0C22     		movs	r2, #12
 2723 0046 1221     		movs	r1, #18
 2724 0048 2046     		mov	r0, r4
 2725 004a FFF7FEFF 		bl	LSM6DSO16IS_Write_Reg
 2726              	.LVL220:
 140:Drivers/BSP/Components/lsm6dso16is/lsm6dso16is.c ****           {
 2727              		.loc 1 140 14 discriminator 1 view .LVU742
 2728 004e 0028     		cmp	r0, #0
 2729 0050 F3D0     		beq	.L283
 142:Drivers/BSP/Components/lsm6dso16is/lsm6dso16is.c ****           }
 2730              		.loc 1 142 17 view .LVU743
ARM GAS  C:\Users\Nathan\AppData\Local\Temp\ccdIxQaW.s 			page 84


 2731 0052 4FF0FF30 		mov	r0, #-1
 2732              	.LVL221:
 142:Drivers/BSP/Components/lsm6dso16is/lsm6dso16is.c ****           }
 2733              		.loc 1 142 17 view .LVU744
 2734              	.LBE2:
 149:Drivers/BSP/Components/lsm6dso16is/lsm6dso16is.c **** }
 2735              		.loc 1 149 3 is_stmt 1 view .LVU745
 149:Drivers/BSP/Components/lsm6dso16is/lsm6dso16is.c **** }
 2736              		.loc 1 149 10 is_stmt 0 view .LVU746
 2737 0056 F0E7     		b	.L283
 2738              	.LVL222:
 2739              	.L285:
 2740              		.cfi_def_cfa_offset 0
 2741              		.cfi_restore 4
 2742              		.cfi_restore 14
 106:Drivers/BSP/Components/lsm6dso16is/lsm6dso16is.c ****   }
 2743              		.loc 1 106 9 view .LVU747
 2744 0058 4FF0FF30 		mov	r0, #-1
 2745              	.LVL223:
 150:Drivers/BSP/Components/lsm6dso16is/lsm6dso16is.c **** 
 2746              		.loc 1 150 1 view .LVU748
 2747 005c 7047     		bx	lr
 2748              	.LVL224:
 2749              	.L286:
 2750              		.cfi_def_cfa_offset 8
 2751              		.cfi_offset 4, -8
 2752              		.cfi_offset 14, -4
 124:Drivers/BSP/Components/lsm6dso16is/lsm6dso16is.c ****     }
 2753              		.loc 1 124 11 view .LVU749
 2754 005e 4FF0FF30 		mov	r0, #-1
 2755              	.LVL225:
 124:Drivers/BSP/Components/lsm6dso16is/lsm6dso16is.c ****     }
 2756              		.loc 1 124 11 view .LVU750
 2757 0062 EAE7     		b	.L283
 2758              	.LVL226:
 2759              	.L287:
 128:Drivers/BSP/Components/lsm6dso16is/lsm6dso16is.c ****     }
 2760              		.loc 1 128 11 view .LVU751
 2761 0064 4FF0FF30 		mov	r0, #-1
 2762 0068 E7E7     		b	.L283
 2763              	.L295:
 2764 006a 00BF     		.align	2
 2765              	.L294:
 2766 006c 00000000 		.word	ReadRegWrap
 2767 0070 00000000 		.word	WriteRegWrap
 2768              		.cfi_endproc
 2769              	.LFE0:
 2771              		.section	.text.LSM6DSO16IS_ACC_Set_SelfTest,"ax",%progbits
 2772              		.align	1
 2773              		.global	LSM6DSO16IS_ACC_Set_SelfTest
 2774              		.syntax unified
 2775              		.thumb
 2776              		.thumb_func
 2778              	LSM6DSO16IS_ACC_Set_SelfTest:
 2779              	.LVL227:
 2780              	.LFB25:
1019:Drivers/BSP/Components/lsm6dso16is/lsm6dso16is.c ****   int32_t ret = LSM6DSO16IS_OK;
ARM GAS  C:\Users\Nathan\AppData\Local\Temp\ccdIxQaW.s 			page 85


 2781              		.loc 1 1019 1 is_stmt 1 view -0
 2782              		.cfi_startproc
 2783              		@ args = 0, pretend = 0, frame = 0
 2784              		@ frame_needed = 0, uses_anonymous_args = 0
1019:Drivers/BSP/Components/lsm6dso16is/lsm6dso16is.c ****   int32_t ret = LSM6DSO16IS_OK;
 2785              		.loc 1 1019 1 is_stmt 0 view .LVU753
 2786 0000 08B5     		push	{r3, lr}
 2787              		.cfi_def_cfa_offset 8
 2788              		.cfi_offset 3, -8
 2789              		.cfi_offset 14, -4
1020:Drivers/BSP/Components/lsm6dso16is/lsm6dso16is.c ****   lsm6dso16is_xl_self_test_t reg;
 2790              		.loc 1 1020 3 is_stmt 1 view .LVU754
 2791              	.LVL228:
1021:Drivers/BSP/Components/lsm6dso16is/lsm6dso16is.c **** 
 2792              		.loc 1 1021 3 view .LVU755
1023:Drivers/BSP/Components/lsm6dso16is/lsm6dso16is.c ****         : (Val == 2U)  ? LSM6DSO16IS_XL_ST_NEGATIVE
 2793              		.loc 1 1023 3 view .LVU756
1024:Drivers/BSP/Components/lsm6dso16is/lsm6dso16is.c ****         :                LSM6DSO16IS_XL_ST_DISABLE;
 2794              		.loc 1 1024 9 is_stmt 0 view .LVU757
 2795 0002 0129     		cmp	r1, #1
 2796 0004 02D0     		beq	.L297
1024:Drivers/BSP/Components/lsm6dso16is/lsm6dso16is.c ****         :                LSM6DSO16IS_XL_ST_DISABLE;
 2797              		.loc 1 1024 9 discriminator 1 view .LVU758
 2798 0006 0229     		cmp	r1, #2
 2799 0008 00D0     		beq	.L297
1024:Drivers/BSP/Components/lsm6dso16is/lsm6dso16is.c ****         :                LSM6DSO16IS_XL_ST_DISABLE;
 2800              		.loc 1 1024 9 discriminator 4 view .LVU759
 2801 000a 0021     		movs	r1, #0
 2802              	.LVL229:
 2803              	.L297:
1027:Drivers/BSP/Components/lsm6dso16is/lsm6dso16is.c ****   {
 2804              		.loc 1 1027 3 is_stmt 1 view .LVU760
1027:Drivers/BSP/Components/lsm6dso16is/lsm6dso16is.c ****   {
 2805              		.loc 1 1027 7 is_stmt 0 view .LVU761
 2806 000c 2030     		adds	r0, r0, #32
 2807              	.LVL230:
1027:Drivers/BSP/Components/lsm6dso16is/lsm6dso16is.c ****   {
 2808              		.loc 1 1027 7 view .LVU762
 2809 000e FFF7FEFF 		bl	lsm6dso16is_xl_self_test_set
 2810              	.LVL231:
1027:Drivers/BSP/Components/lsm6dso16is/lsm6dso16is.c ****   {
 2811              		.loc 1 1027 6 discriminator 1 view .LVU763
 2812 0012 00B9     		cbnz	r0, .L302
 2813              	.LVL232:
 2814              	.L296:
1033:Drivers/BSP/Components/lsm6dso16is/lsm6dso16is.c **** 
 2815              		.loc 1 1033 1 view .LVU764
 2816 0014 08BD     		pop	{r3, pc}
 2817              	.LVL233:
 2818              	.L302:
1029:Drivers/BSP/Components/lsm6dso16is/lsm6dso16is.c ****   }
 2819              		.loc 1 1029 9 view .LVU765
 2820 0016 4FF0FF30 		mov	r0, #-1
 2821              	.LVL234:
1032:Drivers/BSP/Components/lsm6dso16is/lsm6dso16is.c **** }
 2822              		.loc 1 1032 3 is_stmt 1 view .LVU766
1032:Drivers/BSP/Components/lsm6dso16is/lsm6dso16is.c **** }
ARM GAS  C:\Users\Nathan\AppData\Local\Temp\ccdIxQaW.s 			page 86


 2823              		.loc 1 1032 10 is_stmt 0 view .LVU767
 2824 001a FBE7     		b	.L296
 2825              		.cfi_endproc
 2826              	.LFE25:
 2828              		.section	.text.LSM6DSO16IS_ACC_Get_DRDY_Status,"ax",%progbits
 2829              		.align	1
 2830              		.global	LSM6DSO16IS_ACC_Get_DRDY_Status
 2831              		.syntax unified
 2832              		.thumb
 2833              		.thumb_func
 2835              	LSM6DSO16IS_ACC_Get_DRDY_Status:
 2836              	.LVL235:
 2837              	.LFB26:
1042:Drivers/BSP/Components/lsm6dso16is/lsm6dso16is.c ****   int32_t ret = LSM6DSO16IS_OK;
 2838              		.loc 1 1042 1 is_stmt 1 view -0
 2839              		.cfi_startproc
 2840              		@ args = 0, pretend = 0, frame = 0
 2841              		@ frame_needed = 0, uses_anonymous_args = 0
1042:Drivers/BSP/Components/lsm6dso16is/lsm6dso16is.c ****   int32_t ret = LSM6DSO16IS_OK;
 2842              		.loc 1 1042 1 is_stmt 0 view .LVU769
 2843 0000 08B5     		push	{r3, lr}
 2844              		.cfi_def_cfa_offset 8
 2845              		.cfi_offset 3, -8
 2846              		.cfi_offset 14, -4
1043:Drivers/BSP/Components/lsm6dso16is/lsm6dso16is.c **** 
 2847              		.loc 1 1043 3 is_stmt 1 view .LVU770
 2848              	.LVL236:
1045:Drivers/BSP/Components/lsm6dso16is/lsm6dso16is.c ****   {
 2849              		.loc 1 1045 3 view .LVU771
1045:Drivers/BSP/Components/lsm6dso16is/lsm6dso16is.c ****   {
 2850              		.loc 1 1045 7 is_stmt 0 view .LVU772
 2851 0002 2030     		adds	r0, r0, #32
 2852              	.LVL237:
1045:Drivers/BSP/Components/lsm6dso16is/lsm6dso16is.c ****   {
 2853              		.loc 1 1045 7 view .LVU773
 2854 0004 FFF7FEFF 		bl	lsm6dso16is_xl_flag_data_ready_get
 2855              	.LVL238:
1045:Drivers/BSP/Components/lsm6dso16is/lsm6dso16is.c ****   {
 2856              		.loc 1 1045 6 discriminator 1 view .LVU774
 2857 0008 00B9     		cbnz	r0, .L307
 2858              	.LVL239:
 2859              	.L303:
1051:Drivers/BSP/Components/lsm6dso16is/lsm6dso16is.c **** 
 2860              		.loc 1 1051 1 view .LVU775
 2861 000a 08BD     		pop	{r3, pc}
 2862              	.LVL240:
 2863              	.L307:
1047:Drivers/BSP/Components/lsm6dso16is/lsm6dso16is.c ****   }
 2864              		.loc 1 1047 9 view .LVU776
 2865 000c 4FF0FF30 		mov	r0, #-1
 2866              	.LVL241:
1050:Drivers/BSP/Components/lsm6dso16is/lsm6dso16is.c **** }
 2867              		.loc 1 1050 3 is_stmt 1 view .LVU777
1050:Drivers/BSP/Components/lsm6dso16is/lsm6dso16is.c **** }
 2868              		.loc 1 1050 10 is_stmt 0 view .LVU778
 2869 0010 FBE7     		b	.L303
 2870              		.cfi_endproc
ARM GAS  C:\Users\Nathan\AppData\Local\Temp\ccdIxQaW.s 			page 87


 2871              	.LFE26:
 2873              		.section	.text.LSM6DSO16IS_ACC_Get_Init_Status,"ax",%progbits
 2874              		.align	1
 2875              		.global	LSM6DSO16IS_ACC_Get_Init_Status
 2876              		.syntax unified
 2877              		.thumb
 2878              		.thumb_func
 2880              	LSM6DSO16IS_ACC_Get_Init_Status:
 2881              	.LVL242:
 2882              	.LFB27:
1060:Drivers/BSP/Components/lsm6dso16is/lsm6dso16is.c ****   int32_t ret = LSM6DSO16IS_OK;
 2883              		.loc 1 1060 1 is_stmt 1 view -0
 2884              		.cfi_startproc
 2885              		@ args = 0, pretend = 0, frame = 0
 2886              		@ frame_needed = 0, uses_anonymous_args = 0
 2887              		@ link register save eliminated.
1061:Drivers/BSP/Components/lsm6dso16is/lsm6dso16is.c **** 
 2888              		.loc 1 1061 3 view .LVU780
1063:Drivers/BSP/Components/lsm6dso16is/lsm6dso16is.c ****   {
 2889              		.loc 1 1063 3 view .LVU781
1063:Drivers/BSP/Components/lsm6dso16is/lsm6dso16is.c ****   {
 2890              		.loc 1 1063 6 is_stmt 0 view .LVU782
 2891 0000 0346     		mov	r3, r0
 2892 0002 20B1     		cbz	r0, .L310
1061:Drivers/BSP/Components/lsm6dso16is/lsm6dso16is.c **** 
 2893              		.loc 1 1061 11 view .LVU783
 2894 0004 0020     		movs	r0, #0
 2895              	.LVL243:
 2896              	.L309:
1068:Drivers/BSP/Components/lsm6dso16is/lsm6dso16is.c **** 
 2897              		.loc 1 1068 3 is_stmt 1 view .LVU784
1068:Drivers/BSP/Components/lsm6dso16is/lsm6dso16is.c **** 
 2898              		.loc 1 1068 17 is_stmt 0 view .LVU785
 2899 0006 93F83030 		ldrb	r3, [r3, #48]	@ zero_extendqisi2
 2900              	.LVL244:
1068:Drivers/BSP/Components/lsm6dso16is/lsm6dso16is.c **** 
 2901              		.loc 1 1068 11 view .LVU786
 2902 000a 0B70     		strb	r3, [r1]
1070:Drivers/BSP/Components/lsm6dso16is/lsm6dso16is.c **** }
 2903              		.loc 1 1070 3 is_stmt 1 view .LVU787
1071:Drivers/BSP/Components/lsm6dso16is/lsm6dso16is.c **** 
 2904              		.loc 1 1071 1 is_stmt 0 view .LVU788
 2905 000c 7047     		bx	lr
 2906              	.LVL245:
 2907              	.L310:
1065:Drivers/BSP/Components/lsm6dso16is/lsm6dso16is.c ****   }
 2908              		.loc 1 1065 9 view .LVU789
 2909 000e 4FF0FF30 		mov	r0, #-1
 2910              	.LVL246:
1065:Drivers/BSP/Components/lsm6dso16is/lsm6dso16is.c ****   }
 2911              		.loc 1 1065 9 view .LVU790
 2912 0012 F8E7     		b	.L309
 2913              		.cfi_endproc
 2914              	.LFE27:
 2916              		.section	.text.LSM6DSO16IS_ACC_Set_INT1_DRDY,"ax",%progbits
 2917              		.align	1
 2918              		.global	LSM6DSO16IS_ACC_Set_INT1_DRDY
ARM GAS  C:\Users\Nathan\AppData\Local\Temp\ccdIxQaW.s 			page 88


 2919              		.syntax unified
 2920              		.thumb
 2921              		.thumb_func
 2923              	LSM6DSO16IS_ACC_Set_INT1_DRDY:
 2924              	.LVL247:
 2925              	.LFB28:
1080:Drivers/BSP/Components/lsm6dso16is/lsm6dso16is.c ****   int32_t ret = LSM6DSO16IS_OK;
 2926              		.loc 1 1080 1 is_stmt 1 view -0
 2927              		.cfi_startproc
 2928              		@ args = 0, pretend = 0, frame = 8
 2929              		@ frame_needed = 0, uses_anonymous_args = 0
1080:Drivers/BSP/Components/lsm6dso16is/lsm6dso16is.c ****   int32_t ret = LSM6DSO16IS_OK;
 2930              		.loc 1 1080 1 is_stmt 0 view .LVU792
 2931 0000 70B5     		push	{r4, r5, r6, lr}
 2932              		.cfi_def_cfa_offset 16
 2933              		.cfi_offset 4, -16
 2934              		.cfi_offset 5, -12
 2935              		.cfi_offset 6, -8
 2936              		.cfi_offset 14, -4
 2937 0002 82B0     		sub	sp, sp, #8
 2938              		.cfi_def_cfa_offset 24
 2939 0004 0D46     		mov	r5, r1
1081:Drivers/BSP/Components/lsm6dso16is/lsm6dso16is.c ****   lsm6dso16is_pin_int1_route_t reg;
 2940              		.loc 1 1081 3 is_stmt 1 view .LVU793
 2941              	.LVL248:
1082:Drivers/BSP/Components/lsm6dso16is/lsm6dso16is.c **** 
 2942              		.loc 1 1082 3 view .LVU794
1084:Drivers/BSP/Components/lsm6dso16is/lsm6dso16is.c ****   {
 2943              		.loc 1 1084 3 view .LVU795
1084:Drivers/BSP/Components/lsm6dso16is/lsm6dso16is.c ****   {
 2944              		.loc 1 1084 38 is_stmt 0 view .LVU796
 2945 0006 00F12004 		add	r4, r0, #32
1084:Drivers/BSP/Components/lsm6dso16is/lsm6dso16is.c ****   {
 2946              		.loc 1 1084 7 view .LVU797
 2947 000a 01A9     		add	r1, sp, #4
 2948              	.LVL249:
1084:Drivers/BSP/Components/lsm6dso16is/lsm6dso16is.c ****   {
 2949              		.loc 1 1084 7 view .LVU798
 2950 000c 2046     		mov	r0, r4
 2951              	.LVL250:
1084:Drivers/BSP/Components/lsm6dso16is/lsm6dso16is.c ****   {
 2952              		.loc 1 1084 7 view .LVU799
 2953 000e FFF7FEFF 		bl	lsm6dso16is_pin_int1_route_get
 2954              	.LVL251:
1084:Drivers/BSP/Components/lsm6dso16is/lsm6dso16is.c ****   {
 2955              		.loc 1 1084 6 discriminator 1 view .LVU800
 2956 0012 0646     		mov	r6, r0
 2957 0014 08B1     		cbz	r0, .L312
1086:Drivers/BSP/Components/lsm6dso16is/lsm6dso16is.c ****   }
 2958              		.loc 1 1086 9 view .LVU801
 2959 0016 4FF0FF36 		mov	r6, #-1
 2960              	.L312:
 2961              	.LVL252:
1089:Drivers/BSP/Components/lsm6dso16is/lsm6dso16is.c ****   {
 2962              		.loc 1 1089 3 is_stmt 1 view .LVU802
1089:Drivers/BSP/Components/lsm6dso16is/lsm6dso16is.c ****   {
 2963              		.loc 1 1089 6 is_stmt 0 view .LVU803
ARM GAS  C:\Users\Nathan\AppData\Local\Temp\ccdIxQaW.s 			page 89


 2964 001a 012D     		cmp	r5, #1
 2965 001c 0AD9     		bls	.L319
1095:Drivers/BSP/Components/lsm6dso16is/lsm6dso16is.c ****   }
 2966              		.loc 1 1095 9 view .LVU804
 2967 001e 4FF0FF36 		mov	r6, #-1
 2968              	.LVL253:
 2969              	.L313:
1098:Drivers/BSP/Components/lsm6dso16is/lsm6dso16is.c ****   {
 2970              		.loc 1 1098 3 is_stmt 1 view .LVU805
1098:Drivers/BSP/Components/lsm6dso16is/lsm6dso16is.c ****   {
 2971              		.loc 1 1098 7 is_stmt 0 view .LVU806
 2972 0022 9DF80410 		ldrb	r1, [sp, #4]	@ zero_extendqisi2
 2973 0026 2046     		mov	r0, r4
 2974 0028 FFF7FEFF 		bl	lsm6dso16is_pin_int1_route_set
 2975              	.LVL254:
1098:Drivers/BSP/Components/lsm6dso16is/lsm6dso16is.c ****   {
 2976              		.loc 1 1098 6 discriminator 1 view .LVU807
 2977 002c 48B9     		cbnz	r0, .L320
 2978              	.LVL255:
 2979              	.L311:
1104:Drivers/BSP/Components/lsm6dso16is/lsm6dso16is.c **** 
 2980              		.loc 1 1104 1 view .LVU808
 2981 002e 3046     		mov	r0, r6
 2982 0030 02B0     		add	sp, sp, #8
 2983              		.cfi_remember_state
 2984              		.cfi_def_cfa_offset 16
 2985              		@ sp needed
 2986 0032 70BD     		pop	{r4, r5, r6, pc}
 2987              	.LVL256:
 2988              	.L319:
 2989              		.cfi_restore_state
1091:Drivers/BSP/Components/lsm6dso16is/lsm6dso16is.c ****   }
 2990              		.loc 1 1091 5 is_stmt 1 view .LVU809
1091:Drivers/BSP/Components/lsm6dso16is/lsm6dso16is.c ****   }
 2991              		.loc 1 1091 17 is_stmt 0 view .LVU810
 2992 0034 9DF80430 		ldrb	r3, [sp, #4]	@ zero_extendqisi2
 2993 0038 65F30003 		bfi	r3, r5, #0, #1
 2994 003c 8DF80430 		strb	r3, [sp, #4]
 2995 0040 EFE7     		b	.L313
 2996              	.L320:
1100:Drivers/BSP/Components/lsm6dso16is/lsm6dso16is.c ****   }
 2997              		.loc 1 1100 9 view .LVU811
 2998 0042 4FF0FF36 		mov	r6, #-1
 2999              	.LVL257:
1103:Drivers/BSP/Components/lsm6dso16is/lsm6dso16is.c **** }
 3000              		.loc 1 1103 3 is_stmt 1 view .LVU812
1103:Drivers/BSP/Components/lsm6dso16is/lsm6dso16is.c **** }
 3001              		.loc 1 1103 10 is_stmt 0 view .LVU813
 3002 0046 F2E7     		b	.L311
 3003              		.cfi_endproc
 3004              	.LFE28:
 3006              		.section	.text.LSM6DSO16IS_GYRO_Set_SelfTest,"ax",%progbits
 3007              		.align	1
 3008              		.global	LSM6DSO16IS_GYRO_Set_SelfTest
 3009              		.syntax unified
 3010              		.thumb
 3011              		.thumb_func
ARM GAS  C:\Users\Nathan\AppData\Local\Temp\ccdIxQaW.s 			page 90


 3013              	LSM6DSO16IS_GYRO_Set_SelfTest:
 3014              	.LVL258:
 3015              	.LFB29:
1113:Drivers/BSP/Components/lsm6dso16is/lsm6dso16is.c ****   int32_t ret = LSM6DSO16IS_OK;
 3016              		.loc 1 1113 1 is_stmt 1 view -0
 3017              		.cfi_startproc
 3018              		@ args = 0, pretend = 0, frame = 0
 3019              		@ frame_needed = 0, uses_anonymous_args = 0
1113:Drivers/BSP/Components/lsm6dso16is/lsm6dso16is.c ****   int32_t ret = LSM6DSO16IS_OK;
 3020              		.loc 1 1113 1 is_stmt 0 view .LVU815
 3021 0000 08B5     		push	{r3, lr}
 3022              		.cfi_def_cfa_offset 8
 3023              		.cfi_offset 3, -8
 3024              		.cfi_offset 14, -4
1114:Drivers/BSP/Components/lsm6dso16is/lsm6dso16is.c ****   lsm6dso16is_gy_self_test_t reg;
 3025              		.loc 1 1114 3 is_stmt 1 view .LVU816
 3026              	.LVL259:
1115:Drivers/BSP/Components/lsm6dso16is/lsm6dso16is.c **** 
 3027              		.loc 1 1115 3 view .LVU817
1117:Drivers/BSP/Components/lsm6dso16is/lsm6dso16is.c ****         : (Val == 2U)  ? LSM6DSO16IS_GY_ST_NEGATIVE
 3028              		.loc 1 1117 3 view .LVU818
1118:Drivers/BSP/Components/lsm6dso16is/lsm6dso16is.c ****         :                LSM6DSO16IS_GY_ST_DISABLE;
 3029              		.loc 1 1118 9 is_stmt 0 view .LVU819
 3030 0002 0129     		cmp	r1, #1
 3031 0004 02D0     		beq	.L322
1118:Drivers/BSP/Components/lsm6dso16is/lsm6dso16is.c ****         :                LSM6DSO16IS_GY_ST_DISABLE;
 3032              		.loc 1 1118 9 discriminator 1 view .LVU820
 3033 0006 0229     		cmp	r1, #2
 3034 0008 05D0     		beq	.L327
1118:Drivers/BSP/Components/lsm6dso16is/lsm6dso16is.c ****         :                LSM6DSO16IS_GY_ST_DISABLE;
 3035              		.loc 1 1118 9 discriminator 4 view .LVU821
 3036 000a 0021     		movs	r1, #0
 3037              	.LVL260:
 3038              	.L322:
1122:Drivers/BSP/Components/lsm6dso16is/lsm6dso16is.c ****   {
 3039              		.loc 1 1122 3 is_stmt 1 view .LVU822
1122:Drivers/BSP/Components/lsm6dso16is/lsm6dso16is.c ****   {
 3040              		.loc 1 1122 7 is_stmt 0 view .LVU823
 3041 000c 2030     		adds	r0, r0, #32
 3042              	.LVL261:
1122:Drivers/BSP/Components/lsm6dso16is/lsm6dso16is.c ****   {
 3043              		.loc 1 1122 7 view .LVU824
 3044 000e FFF7FEFF 		bl	lsm6dso16is_gy_self_test_set
 3045              	.LVL262:
1122:Drivers/BSP/Components/lsm6dso16is/lsm6dso16is.c ****   {
 3046              		.loc 1 1122 6 discriminator 1 view .LVU825
 3047 0012 10B9     		cbnz	r0, .L328
 3048              	.LVL263:
 3049              	.L321:
1128:Drivers/BSP/Components/lsm6dso16is/lsm6dso16is.c **** 
 3050              		.loc 1 1128 1 view .LVU826
 3051 0014 08BD     		pop	{r3, pc}
 3052              	.LVL264:
 3053              	.L327:
1118:Drivers/BSP/Components/lsm6dso16is/lsm6dso16is.c ****         :                LSM6DSO16IS_GY_ST_DISABLE;
 3054              		.loc 1 1118 9 discriminator 3 view .LVU827
 3055 0016 0321     		movs	r1, #3
ARM GAS  C:\Users\Nathan\AppData\Local\Temp\ccdIxQaW.s 			page 91


 3056              	.LVL265:
1118:Drivers/BSP/Components/lsm6dso16is/lsm6dso16is.c ****         :                LSM6DSO16IS_GY_ST_DISABLE;
 3057              		.loc 1 1118 9 discriminator 3 view .LVU828
 3058 0018 F8E7     		b	.L322
 3059              	.LVL266:
 3060              	.L328:
1124:Drivers/BSP/Components/lsm6dso16is/lsm6dso16is.c ****   }
 3061              		.loc 1 1124 9 view .LVU829
 3062 001a 4FF0FF30 		mov	r0, #-1
 3063              	.LVL267:
1127:Drivers/BSP/Components/lsm6dso16is/lsm6dso16is.c **** }
 3064              		.loc 1 1127 3 is_stmt 1 view .LVU830
1127:Drivers/BSP/Components/lsm6dso16is/lsm6dso16is.c **** }
 3065              		.loc 1 1127 10 is_stmt 0 view .LVU831
 3066 001e F9E7     		b	.L321
 3067              		.cfi_endproc
 3068              	.LFE29:
 3070              		.section	.text.LSM6DSO16IS_GYRO_Get_DRDY_Status,"ax",%progbits
 3071              		.align	1
 3072              		.global	LSM6DSO16IS_GYRO_Get_DRDY_Status
 3073              		.syntax unified
 3074              		.thumb
 3075              		.thumb_func
 3077              	LSM6DSO16IS_GYRO_Get_DRDY_Status:
 3078              	.LVL268:
 3079              	.LFB30:
1137:Drivers/BSP/Components/lsm6dso16is/lsm6dso16is.c ****   int32_t ret = LSM6DSO16IS_OK;
 3080              		.loc 1 1137 1 is_stmt 1 view -0
 3081              		.cfi_startproc
 3082              		@ args = 0, pretend = 0, frame = 0
 3083              		@ frame_needed = 0, uses_anonymous_args = 0
1137:Drivers/BSP/Components/lsm6dso16is/lsm6dso16is.c ****   int32_t ret = LSM6DSO16IS_OK;
 3084              		.loc 1 1137 1 is_stmt 0 view .LVU833
 3085 0000 08B5     		push	{r3, lr}
 3086              		.cfi_def_cfa_offset 8
 3087              		.cfi_offset 3, -8
 3088              		.cfi_offset 14, -4
1138:Drivers/BSP/Components/lsm6dso16is/lsm6dso16is.c **** 
 3089              		.loc 1 1138 3 is_stmt 1 view .LVU834
 3090              	.LVL269:
1140:Drivers/BSP/Components/lsm6dso16is/lsm6dso16is.c ****   {
 3091              		.loc 1 1140 3 view .LVU835
1140:Drivers/BSP/Components/lsm6dso16is/lsm6dso16is.c ****   {
 3092              		.loc 1 1140 7 is_stmt 0 view .LVU836
 3093 0002 2030     		adds	r0, r0, #32
 3094              	.LVL270:
1140:Drivers/BSP/Components/lsm6dso16is/lsm6dso16is.c ****   {
 3095              		.loc 1 1140 7 view .LVU837
 3096 0004 FFF7FEFF 		bl	lsm6dso16is_gy_flag_data_ready_get
 3097              	.LVL271:
1140:Drivers/BSP/Components/lsm6dso16is/lsm6dso16is.c ****   {
 3098              		.loc 1 1140 6 discriminator 1 view .LVU838
 3099 0008 00B9     		cbnz	r0, .L333
 3100              	.LVL272:
 3101              	.L329:
1146:Drivers/BSP/Components/lsm6dso16is/lsm6dso16is.c **** 
 3102              		.loc 1 1146 1 view .LVU839
ARM GAS  C:\Users\Nathan\AppData\Local\Temp\ccdIxQaW.s 			page 92


 3103 000a 08BD     		pop	{r3, pc}
 3104              	.LVL273:
 3105              	.L333:
1142:Drivers/BSP/Components/lsm6dso16is/lsm6dso16is.c ****   }
 3106              		.loc 1 1142 9 view .LVU840
 3107 000c 4FF0FF30 		mov	r0, #-1
 3108              	.LVL274:
1145:Drivers/BSP/Components/lsm6dso16is/lsm6dso16is.c **** }
 3109              		.loc 1 1145 3 is_stmt 1 view .LVU841
1145:Drivers/BSP/Components/lsm6dso16is/lsm6dso16is.c **** }
 3110              		.loc 1 1145 10 is_stmt 0 view .LVU842
 3111 0010 FBE7     		b	.L329
 3112              		.cfi_endproc
 3113              	.LFE30:
 3115              		.section	.text.LSM6DSO16IS_GYRO_Get_Init_Status,"ax",%progbits
 3116              		.align	1
 3117              		.global	LSM6DSO16IS_GYRO_Get_Init_Status
 3118              		.syntax unified
 3119              		.thumb
 3120              		.thumb_func
 3122              	LSM6DSO16IS_GYRO_Get_Init_Status:
 3123              	.LVL275:
 3124              	.LFB31:
1155:Drivers/BSP/Components/lsm6dso16is/lsm6dso16is.c ****   int32_t ret = LSM6DSO16IS_OK;
 3125              		.loc 1 1155 1 is_stmt 1 view -0
 3126              		.cfi_startproc
 3127              		@ args = 0, pretend = 0, frame = 0
 3128              		@ frame_needed = 0, uses_anonymous_args = 0
 3129              		@ link register save eliminated.
1156:Drivers/BSP/Components/lsm6dso16is/lsm6dso16is.c **** 
 3130              		.loc 1 1156 3 view .LVU844
1158:Drivers/BSP/Components/lsm6dso16is/lsm6dso16is.c ****   {
 3131              		.loc 1 1158 3 view .LVU845
1158:Drivers/BSP/Components/lsm6dso16is/lsm6dso16is.c ****   {
 3132              		.loc 1 1158 6 is_stmt 0 view .LVU846
 3133 0000 0346     		mov	r3, r0
 3134 0002 20B1     		cbz	r0, .L336
1156:Drivers/BSP/Components/lsm6dso16is/lsm6dso16is.c **** 
 3135              		.loc 1 1156 11 view .LVU847
 3136 0004 0020     		movs	r0, #0
 3137              	.LVL276:
 3138              	.L335:
1163:Drivers/BSP/Components/lsm6dso16is/lsm6dso16is.c **** 
 3139              		.loc 1 1163 3 is_stmt 1 view .LVU848
1163:Drivers/BSP/Components/lsm6dso16is/lsm6dso16is.c **** 
 3140              		.loc 1 1163 17 is_stmt 0 view .LVU849
 3141 0006 93F83030 		ldrb	r3, [r3, #48]	@ zero_extendqisi2
 3142              	.LVL277:
1163:Drivers/BSP/Components/lsm6dso16is/lsm6dso16is.c **** 
 3143              		.loc 1 1163 11 view .LVU850
 3144 000a 0B70     		strb	r3, [r1]
1165:Drivers/BSP/Components/lsm6dso16is/lsm6dso16is.c **** }
 3145              		.loc 1 1165 3 is_stmt 1 view .LVU851
1166:Drivers/BSP/Components/lsm6dso16is/lsm6dso16is.c **** 
 3146              		.loc 1 1166 1 is_stmt 0 view .LVU852
 3147 000c 7047     		bx	lr
 3148              	.LVL278:
ARM GAS  C:\Users\Nathan\AppData\Local\Temp\ccdIxQaW.s 			page 93


 3149              	.L336:
1160:Drivers/BSP/Components/lsm6dso16is/lsm6dso16is.c ****   }
 3150              		.loc 1 1160 9 view .LVU853
 3151 000e 4FF0FF30 		mov	r0, #-1
 3152              	.LVL279:
1160:Drivers/BSP/Components/lsm6dso16is/lsm6dso16is.c ****   }
 3153              		.loc 1 1160 9 view .LVU854
 3154 0012 F8E7     		b	.L335
 3155              		.cfi_endproc
 3156              	.LFE31:
 3158              		.section	.text.LSM6DSO16IS_GYRO_Set_INT1_DRDY,"ax",%progbits
 3159              		.align	1
 3160              		.global	LSM6DSO16IS_GYRO_Set_INT1_DRDY
 3161              		.syntax unified
 3162              		.thumb
 3163              		.thumb_func
 3165              	LSM6DSO16IS_GYRO_Set_INT1_DRDY:
 3166              	.LVL280:
 3167              	.LFB32:
1175:Drivers/BSP/Components/lsm6dso16is/lsm6dso16is.c ****   int32_t ret = LSM6DSO16IS_OK;
 3168              		.loc 1 1175 1 is_stmt 1 view -0
 3169              		.cfi_startproc
 3170              		@ args = 0, pretend = 0, frame = 8
 3171              		@ frame_needed = 0, uses_anonymous_args = 0
1175:Drivers/BSP/Components/lsm6dso16is/lsm6dso16is.c ****   int32_t ret = LSM6DSO16IS_OK;
 3172              		.loc 1 1175 1 is_stmt 0 view .LVU856
 3173 0000 70B5     		push	{r4, r5, r6, lr}
 3174              		.cfi_def_cfa_offset 16
 3175              		.cfi_offset 4, -16
 3176              		.cfi_offset 5, -12
 3177              		.cfi_offset 6, -8
 3178              		.cfi_offset 14, -4
 3179 0002 82B0     		sub	sp, sp, #8
 3180              		.cfi_def_cfa_offset 24
 3181 0004 0D46     		mov	r5, r1
1176:Drivers/BSP/Components/lsm6dso16is/lsm6dso16is.c ****   lsm6dso16is_pin_int1_route_t reg;
 3182              		.loc 1 1176 3 is_stmt 1 view .LVU857
 3183              	.LVL281:
1177:Drivers/BSP/Components/lsm6dso16is/lsm6dso16is.c **** 
 3184              		.loc 1 1177 3 view .LVU858
1179:Drivers/BSP/Components/lsm6dso16is/lsm6dso16is.c ****   {
 3185              		.loc 1 1179 3 view .LVU859
1179:Drivers/BSP/Components/lsm6dso16is/lsm6dso16is.c ****   {
 3186              		.loc 1 1179 38 is_stmt 0 view .LVU860
 3187 0006 00F12004 		add	r4, r0, #32
1179:Drivers/BSP/Components/lsm6dso16is/lsm6dso16is.c ****   {
 3188              		.loc 1 1179 7 view .LVU861
 3189 000a 01A9     		add	r1, sp, #4
 3190              	.LVL282:
1179:Drivers/BSP/Components/lsm6dso16is/lsm6dso16is.c ****   {
 3191              		.loc 1 1179 7 view .LVU862
 3192 000c 2046     		mov	r0, r4
 3193              	.LVL283:
1179:Drivers/BSP/Components/lsm6dso16is/lsm6dso16is.c ****   {
 3194              		.loc 1 1179 7 view .LVU863
 3195 000e FFF7FEFF 		bl	lsm6dso16is_pin_int1_route_get
 3196              	.LVL284:
ARM GAS  C:\Users\Nathan\AppData\Local\Temp\ccdIxQaW.s 			page 94


1179:Drivers/BSP/Components/lsm6dso16is/lsm6dso16is.c ****   {
 3197              		.loc 1 1179 6 discriminator 1 view .LVU864
 3198 0012 0646     		mov	r6, r0
 3199 0014 08B1     		cbz	r0, .L338
1181:Drivers/BSP/Components/lsm6dso16is/lsm6dso16is.c ****   }
 3200              		.loc 1 1181 9 view .LVU865
 3201 0016 4FF0FF36 		mov	r6, #-1
 3202              	.L338:
 3203              	.LVL285:
1184:Drivers/BSP/Components/lsm6dso16is/lsm6dso16is.c ****   {
 3204              		.loc 1 1184 3 is_stmt 1 view .LVU866
1184:Drivers/BSP/Components/lsm6dso16is/lsm6dso16is.c ****   {
 3205              		.loc 1 1184 6 is_stmt 0 view .LVU867
 3206 001a 012D     		cmp	r5, #1
 3207 001c 0AD9     		bls	.L345
1190:Drivers/BSP/Components/lsm6dso16is/lsm6dso16is.c ****   }
 3208              		.loc 1 1190 9 view .LVU868
 3209 001e 4FF0FF36 		mov	r6, #-1
 3210              	.LVL286:
 3211              	.L339:
1193:Drivers/BSP/Components/lsm6dso16is/lsm6dso16is.c ****   {
 3212              		.loc 1 1193 3 is_stmt 1 view .LVU869
1193:Drivers/BSP/Components/lsm6dso16is/lsm6dso16is.c ****   {
 3213              		.loc 1 1193 7 is_stmt 0 view .LVU870
 3214 0022 9DF80410 		ldrb	r1, [sp, #4]	@ zero_extendqisi2
 3215 0026 2046     		mov	r0, r4
 3216 0028 FFF7FEFF 		bl	lsm6dso16is_pin_int1_route_set
 3217              	.LVL287:
1193:Drivers/BSP/Components/lsm6dso16is/lsm6dso16is.c ****   {
 3218              		.loc 1 1193 6 discriminator 1 view .LVU871
 3219 002c 48B9     		cbnz	r0, .L346
 3220              	.LVL288:
 3221              	.L337:
1199:Drivers/BSP/Components/lsm6dso16is/lsm6dso16is.c **** 
 3222              		.loc 1 1199 1 view .LVU872
 3223 002e 3046     		mov	r0, r6
 3224 0030 02B0     		add	sp, sp, #8
 3225              		.cfi_remember_state
 3226              		.cfi_def_cfa_offset 16
 3227              		@ sp needed
 3228 0032 70BD     		pop	{r4, r5, r6, pc}
 3229              	.LVL289:
 3230              	.L345:
 3231              		.cfi_restore_state
1186:Drivers/BSP/Components/lsm6dso16is/lsm6dso16is.c ****   }
 3232              		.loc 1 1186 5 is_stmt 1 view .LVU873
1186:Drivers/BSP/Components/lsm6dso16is/lsm6dso16is.c ****   }
 3233              		.loc 1 1186 17 is_stmt 0 view .LVU874
 3234 0034 9DF80430 		ldrb	r3, [sp, #4]	@ zero_extendqisi2
 3235 0038 65F34103 		bfi	r3, r5, #1, #1
 3236 003c 8DF80430 		strb	r3, [sp, #4]
 3237 0040 EFE7     		b	.L339
 3238              	.L346:
1195:Drivers/BSP/Components/lsm6dso16is/lsm6dso16is.c ****   }
 3239              		.loc 1 1195 9 view .LVU875
 3240 0042 4FF0FF36 		mov	r6, #-1
 3241              	.LVL290:
ARM GAS  C:\Users\Nathan\AppData\Local\Temp\ccdIxQaW.s 			page 95


1198:Drivers/BSP/Components/lsm6dso16is/lsm6dso16is.c **** }
 3242              		.loc 1 1198 3 is_stmt 1 view .LVU876
1198:Drivers/BSP/Components/lsm6dso16is/lsm6dso16is.c **** }
 3243              		.loc 1 1198 10 is_stmt 0 view .LVU877
 3244 0046 F2E7     		b	.L337
 3245              		.cfi_endproc
 3246              	.LFE32:
 3248              		.section	.text.LSM6DSO16IS_Set_DRDY_Mode,"ax",%progbits
 3249              		.align	1
 3250              		.global	LSM6DSO16IS_Set_DRDY_Mode
 3251              		.syntax unified
 3252              		.thumb
 3253              		.thumb_func
 3255              	LSM6DSO16IS_Set_DRDY_Mode:
 3256              	.LVL291:
 3257              	.LFB33:
1208:Drivers/BSP/Components/lsm6dso16is/lsm6dso16is.c ****   int32_t ret = LSM6DSO16IS_OK;
 3258              		.loc 1 1208 1 is_stmt 1 view -0
 3259              		.cfi_startproc
 3260              		@ args = 0, pretend = 0, frame = 0
 3261              		@ frame_needed = 0, uses_anonymous_args = 0
1208:Drivers/BSP/Components/lsm6dso16is/lsm6dso16is.c ****   int32_t ret = LSM6DSO16IS_OK;
 3262              		.loc 1 1208 1 is_stmt 0 view .LVU879
 3263 0000 08B5     		push	{r3, lr}
 3264              		.cfi_def_cfa_offset 8
 3265              		.cfi_offset 3, -8
 3266              		.cfi_offset 14, -4
1209:Drivers/BSP/Components/lsm6dso16is/lsm6dso16is.c ****   lsm6dso16is_data_ready_mode_t reg;
 3267              		.loc 1 1209 3 is_stmt 1 view .LVU880
 3268              	.LVL292:
1210:Drivers/BSP/Components/lsm6dso16is/lsm6dso16is.c **** 
 3269              		.loc 1 1210 3 view .LVU881
1212:Drivers/BSP/Components/lsm6dso16is/lsm6dso16is.c ****         :                LSM6DSO16IS_DRDY_PULSED;
 3270              		.loc 1 1212 3 view .LVU882
1215:Drivers/BSP/Components/lsm6dso16is/lsm6dso16is.c ****   {
 3271              		.loc 1 1215 3 view .LVU883
1215:Drivers/BSP/Components/lsm6dso16is/lsm6dso16is.c ****   {
 3272              		.loc 1 1215 7 is_stmt 0 view .LVU884
 3273 0002 0039     		subs	r1, r1, #0
 3274              	.LVL293:
1215:Drivers/BSP/Components/lsm6dso16is/lsm6dso16is.c ****   {
 3275              		.loc 1 1215 7 view .LVU885
 3276 0004 18BF     		it	ne
 3277 0006 0121     		movne	r1, #1
 3278 0008 2030     		adds	r0, r0, #32
 3279              	.LVL294:
1215:Drivers/BSP/Components/lsm6dso16is/lsm6dso16is.c ****   {
 3280              		.loc 1 1215 7 view .LVU886
 3281 000a FFF7FEFF 		bl	lsm6dso16is_data_ready_mode_set
 3282              	.LVL295:
1215:Drivers/BSP/Components/lsm6dso16is/lsm6dso16is.c ****   {
 3283              		.loc 1 1215 6 discriminator 1 view .LVU887
 3284 000e 00B9     		cbnz	r0, .L351
 3285              	.LVL296:
 3286              	.L347:
1221:Drivers/BSP/Components/lsm6dso16is/lsm6dso16is.c **** 
 3287              		.loc 1 1221 1 view .LVU888
ARM GAS  C:\Users\Nathan\AppData\Local\Temp\ccdIxQaW.s 			page 96


 3288 0010 08BD     		pop	{r3, pc}
 3289              	.LVL297:
 3290              	.L351:
1217:Drivers/BSP/Components/lsm6dso16is/lsm6dso16is.c ****   }
 3291              		.loc 1 1217 9 view .LVU889
 3292 0012 4FF0FF30 		mov	r0, #-1
 3293              	.LVL298:
1220:Drivers/BSP/Components/lsm6dso16is/lsm6dso16is.c **** }
 3294              		.loc 1 1220 3 is_stmt 1 view .LVU890
1220:Drivers/BSP/Components/lsm6dso16is/lsm6dso16is.c **** }
 3295              		.loc 1 1220 10 is_stmt 0 view .LVU891
 3296 0016 FBE7     		b	.L347
 3297              		.cfi_endproc
 3298              	.LFE33:
 3300              		.section	.text.LSM6DSO16IS_Set_Mem_Bank,"ax",%progbits
 3301              		.align	1
 3302              		.global	LSM6DSO16IS_Set_Mem_Bank
 3303              		.syntax unified
 3304              		.thumb
 3305              		.thumb_func
 3307              	LSM6DSO16IS_Set_Mem_Bank:
 3308              	.LVL299:
 3309              	.LFB34:
1231:Drivers/BSP/Components/lsm6dso16is/lsm6dso16is.c ****   int32_t ret = LSM6DSO16IS_OK;
 3310              		.loc 1 1231 1 is_stmt 1 view -0
 3311              		.cfi_startproc
 3312              		@ args = 0, pretend = 0, frame = 0
 3313              		@ frame_needed = 0, uses_anonymous_args = 0
1231:Drivers/BSP/Components/lsm6dso16is/lsm6dso16is.c ****   int32_t ret = LSM6DSO16IS_OK;
 3314              		.loc 1 1231 1 is_stmt 0 view .LVU893
 3315 0000 08B5     		push	{r3, lr}
 3316              		.cfi_def_cfa_offset 8
 3317              		.cfi_offset 3, -8
 3318              		.cfi_offset 14, -4
1232:Drivers/BSP/Components/lsm6dso16is/lsm6dso16is.c ****   lsm6dso16is_mem_bank_t reg;
 3319              		.loc 1 1232 3 is_stmt 1 view .LVU894
 3320              	.LVL300:
1233:Drivers/BSP/Components/lsm6dso16is/lsm6dso16is.c **** 
 3321              		.loc 1 1233 3 view .LVU895
1235:Drivers/BSP/Components/lsm6dso16is/lsm6dso16is.c ****         : (Val == 3U) ? LSM6DSO16IS_ISPU_MEM_BANK
 3322              		.loc 1 1235 3 view .LVU896
1236:Drivers/BSP/Components/lsm6dso16is/lsm6dso16is.c ****         :               LSM6DSO16IS_MAIN_MEM_BANK;
 3323              		.loc 1 1236 9 is_stmt 0 view .LVU897
 3324 0002 0229     		cmp	r1, #2
 3325 0004 02D0     		beq	.L353
1236:Drivers/BSP/Components/lsm6dso16is/lsm6dso16is.c ****         :               LSM6DSO16IS_MAIN_MEM_BANK;
 3326              		.loc 1 1236 9 discriminator 1 view .LVU898
 3327 0006 0329     		cmp	r1, #3
 3328 0008 00D0     		beq	.L353
1236:Drivers/BSP/Components/lsm6dso16is/lsm6dso16is.c ****         :               LSM6DSO16IS_MAIN_MEM_BANK;
 3329              		.loc 1 1236 9 discriminator 4 view .LVU899
 3330 000a 0021     		movs	r1, #0
 3331              	.LVL301:
 3332              	.L353:
1239:Drivers/BSP/Components/lsm6dso16is/lsm6dso16is.c ****   {
 3333              		.loc 1 1239 3 is_stmt 1 view .LVU900
1239:Drivers/BSP/Components/lsm6dso16is/lsm6dso16is.c ****   {
ARM GAS  C:\Users\Nathan\AppData\Local\Temp\ccdIxQaW.s 			page 97


 3334              		.loc 1 1239 7 is_stmt 0 view .LVU901
 3335 000c 2030     		adds	r0, r0, #32
 3336              	.LVL302:
1239:Drivers/BSP/Components/lsm6dso16is/lsm6dso16is.c ****   {
 3337              		.loc 1 1239 7 view .LVU902
 3338 000e FFF7FEFF 		bl	lsm6dso16is_mem_bank_set
 3339              	.LVL303:
1239:Drivers/BSP/Components/lsm6dso16is/lsm6dso16is.c ****   {
 3340              		.loc 1 1239 6 discriminator 1 view .LVU903
 3341 0012 00B9     		cbnz	r0, .L358
 3342              	.LVL304:
 3343              	.L352:
1245:Drivers/BSP/Components/lsm6dso16is/lsm6dso16is.c **** 
 3344              		.loc 1 1245 1 view .LVU904
 3345 0014 08BD     		pop	{r3, pc}
 3346              	.LVL305:
 3347              	.L358:
1241:Drivers/BSP/Components/lsm6dso16is/lsm6dso16is.c ****   }
 3348              		.loc 1 1241 9 view .LVU905
 3349 0016 4FF0FF30 		mov	r0, #-1
 3350              	.LVL306:
1244:Drivers/BSP/Components/lsm6dso16is/lsm6dso16is.c **** }
 3351              		.loc 1 1244 3 is_stmt 1 view .LVU906
1244:Drivers/BSP/Components/lsm6dso16is/lsm6dso16is.c **** }
 3352              		.loc 1 1244 10 is_stmt 0 view .LVU907
 3353 001a FBE7     		b	.L352
 3354              		.cfi_endproc
 3355              	.LFE34:
 3357              		.section	.text.LSM6DSO16IS_Init,"ax",%progbits
 3358              		.align	1
 3359              		.global	LSM6DSO16IS_Init
 3360              		.syntax unified
 3361              		.thumb
 3362              		.thumb_func
 3364              	LSM6DSO16IS_Init:
 3365              	.LVL307:
 3366              	.LFB1:
 158:Drivers/BSP/Components/lsm6dso16is/lsm6dso16is.c ****   int32_t ret = LSM6DSO16IS_OK;
 3367              		.loc 1 158 1 is_stmt 1 view -0
 3368              		.cfi_startproc
 3369              		@ args = 0, pretend = 0, frame = 0
 3370              		@ frame_needed = 0, uses_anonymous_args = 0
 158:Drivers/BSP/Components/lsm6dso16is/lsm6dso16is.c ****   int32_t ret = LSM6DSO16IS_OK;
 3371              		.loc 1 158 1 is_stmt 0 view .LVU909
 3372 0000 70B5     		push	{r4, r5, r6, lr}
 3373              		.cfi_def_cfa_offset 16
 3374              		.cfi_offset 4, -16
 3375              		.cfi_offset 5, -12
 3376              		.cfi_offset 6, -8
 3377              		.cfi_offset 14, -4
 3378 0002 0546     		mov	r5, r0
 159:Drivers/BSP/Components/lsm6dso16is/lsm6dso16is.c **** 
 3379              		.loc 1 159 3 is_stmt 1 view .LVU910
 3380              	.LVL308:
 162:Drivers/BSP/Components/lsm6dso16is/lsm6dso16is.c ****   {
 3381              		.loc 1 162 3 view .LVU911
 162:Drivers/BSP/Components/lsm6dso16is/lsm6dso16is.c ****   {
ARM GAS  C:\Users\Nathan\AppData\Local\Temp\ccdIxQaW.s 			page 98


 3382              		.loc 1 162 7 is_stmt 0 view .LVU912
 3383 0004 0021     		movs	r1, #0
 3384 0006 FFF7FEFF 		bl	LSM6DSO16IS_Set_Mem_Bank
 3385              	.LVL309:
 162:Drivers/BSP/Components/lsm6dso16is/lsm6dso16is.c ****   {
 3386              		.loc 1 162 6 discriminator 1 view .LVU913
 3387 000a 0646     		mov	r6, r0
 3388 000c 08B1     		cbz	r0, .L360
 164:Drivers/BSP/Components/lsm6dso16is/lsm6dso16is.c ****   }
 3389              		.loc 1 164 9 view .LVU914
 3390 000e 4FF0FF36 		mov	r6, #-1
 3391              	.L360:
 3392              	.LVL310:
 169:Drivers/BSP/Components/lsm6dso16is/lsm6dso16is.c ****   {
 3393              		.loc 1 169 3 is_stmt 1 view .LVU915
 169:Drivers/BSP/Components/lsm6dso16is/lsm6dso16is.c ****   {
 3394              		.loc 1 169 38 is_stmt 0 view .LVU916
 3395 0012 05F12004 		add	r4, r5, #32
 169:Drivers/BSP/Components/lsm6dso16is/lsm6dso16is.c ****   {
 3396              		.loc 1 169 7 view .LVU917
 3397 0016 0121     		movs	r1, #1
 3398 0018 2046     		mov	r0, r4
 3399 001a FFF7FEFF 		bl	lsm6dso16is_auto_increment_set
 3400              	.LVL311:
 169:Drivers/BSP/Components/lsm6dso16is/lsm6dso16is.c ****   {
 3401              		.loc 1 169 6 discriminator 1 view .LVU918
 3402 001e 08B1     		cbz	r0, .L361
 171:Drivers/BSP/Components/lsm6dso16is/lsm6dso16is.c ****   }
 3403              		.loc 1 171 9 view .LVU919
 3404 0020 4FF0FF36 		mov	r6, #-1
 3405              	.LVL312:
 3406              	.L361:
 175:Drivers/BSP/Components/lsm6dso16is/lsm6dso16is.c ****   {
 3407              		.loc 1 175 3 is_stmt 1 view .LVU920
 175:Drivers/BSP/Components/lsm6dso16is/lsm6dso16is.c ****   {
 3408              		.loc 1 175 7 is_stmt 0 view .LVU921
 3409 0024 0121     		movs	r1, #1
 3410 0026 2046     		mov	r0, r4
 3411 0028 FFF7FEFF 		bl	lsm6dso16is_block_data_update_set
 3412              	.LVL313:
 175:Drivers/BSP/Components/lsm6dso16is/lsm6dso16is.c ****   {
 3413              		.loc 1 175 6 discriminator 1 view .LVU922
 3414 002c 08B1     		cbz	r0, .L362
 177:Drivers/BSP/Components/lsm6dso16is/lsm6dso16is.c ****   }
 3415              		.loc 1 177 9 view .LVU923
 3416 002e 4FF0FF36 		mov	r6, #-1
 3417              	.LVL314:
 3418              	.L362:
 181:Drivers/BSP/Components/lsm6dso16is/lsm6dso16is.c **** 
 3419              		.loc 1 181 3 is_stmt 1 view .LVU924
 181:Drivers/BSP/Components/lsm6dso16is/lsm6dso16is.c **** 
 3420              		.loc 1 181 17 is_stmt 0 view .LVU925
 3421 0032 0423     		movs	r3, #4
 3422 0034 85F83330 		strb	r3, [r5, #51]
 184:Drivers/BSP/Components/lsm6dso16is/lsm6dso16is.c ****   {
 3423              		.loc 1 184 3 is_stmt 1 view .LVU926
 184:Drivers/BSP/Components/lsm6dso16is/lsm6dso16is.c ****   {
ARM GAS  C:\Users\Nathan\AppData\Local\Temp\ccdIxQaW.s 			page 99


 3424              		.loc 1 184 7 is_stmt 0 view .LVU927
 3425 0038 0021     		movs	r1, #0
 3426 003a 2046     		mov	r0, r4
 3427 003c FFF7FEFF 		bl	lsm6dso16is_xl_data_rate_set
 3428              	.LVL315:
 184:Drivers/BSP/Components/lsm6dso16is/lsm6dso16is.c ****   {
 3429              		.loc 1 184 6 discriminator 1 view .LVU928
 3430 0040 08B1     		cbz	r0, .L363
 186:Drivers/BSP/Components/lsm6dso16is/lsm6dso16is.c ****   }
 3431              		.loc 1 186 9 view .LVU929
 3432 0042 4FF0FF36 		mov	r6, #-1
 3433              	.LVL316:
 3434              	.L363:
 190:Drivers/BSP/Components/lsm6dso16is/lsm6dso16is.c ****   {
 3435              		.loc 1 190 3 is_stmt 1 view .LVU930
 190:Drivers/BSP/Components/lsm6dso16is/lsm6dso16is.c ****   {
 3436              		.loc 1 190 7 is_stmt 0 view .LVU931
 3437 0046 0021     		movs	r1, #0
 3438 0048 2046     		mov	r0, r4
 3439 004a FFF7FEFF 		bl	lsm6dso16is_xl_full_scale_set
 3440              	.LVL317:
 190:Drivers/BSP/Components/lsm6dso16is/lsm6dso16is.c ****   {
 3441              		.loc 1 190 6 discriminator 1 view .LVU932
 3442 004e 08B1     		cbz	r0, .L364
 192:Drivers/BSP/Components/lsm6dso16is/lsm6dso16is.c ****   }
 3443              		.loc 1 192 9 view .LVU933
 3444 0050 4FF0FF36 		mov	r6, #-1
 3445              	.LVL318:
 3446              	.L364:
 196:Drivers/BSP/Components/lsm6dso16is/lsm6dso16is.c **** 
 3447              		.loc 1 196 3 is_stmt 1 view .LVU934
 196:Drivers/BSP/Components/lsm6dso16is/lsm6dso16is.c **** 
 3448              		.loc 1 196 18 is_stmt 0 view .LVU935
 3449 0054 0423     		movs	r3, #4
 3450 0056 85F83430 		strb	r3, [r5, #52]
 199:Drivers/BSP/Components/lsm6dso16is/lsm6dso16is.c ****   {
 3451              		.loc 1 199 3 is_stmt 1 view .LVU936
 199:Drivers/BSP/Components/lsm6dso16is/lsm6dso16is.c ****   {
 3452              		.loc 1 199 7 is_stmt 0 view .LVU937
 3453 005a 0021     		movs	r1, #0
 3454 005c 2046     		mov	r0, r4
 3455 005e FFF7FEFF 		bl	lsm6dso16is_gy_data_rate_set
 3456              	.LVL319:
 199:Drivers/BSP/Components/lsm6dso16is/lsm6dso16is.c ****   {
 3457              		.loc 1 199 6 discriminator 1 view .LVU938
 3458 0062 08B1     		cbz	r0, .L365
 201:Drivers/BSP/Components/lsm6dso16is/lsm6dso16is.c ****   }
 3459              		.loc 1 201 9 view .LVU939
 3460 0064 4FF0FF36 		mov	r6, #-1
 3461              	.LVL320:
 3462              	.L365:
 205:Drivers/BSP/Components/lsm6dso16is/lsm6dso16is.c ****   {
 3463              		.loc 1 205 3 is_stmt 1 view .LVU940
 205:Drivers/BSP/Components/lsm6dso16is/lsm6dso16is.c ****   {
 3464              		.loc 1 205 7 is_stmt 0 view .LVU941
 3465 0068 0321     		movs	r1, #3
 3466 006a 2046     		mov	r0, r4
ARM GAS  C:\Users\Nathan\AppData\Local\Temp\ccdIxQaW.s 			page 100


 3467 006c FFF7FEFF 		bl	lsm6dso16is_gy_full_scale_set
 3468              	.LVL321:
 205:Drivers/BSP/Components/lsm6dso16is/lsm6dso16is.c ****   {
 3469              		.loc 1 205 6 discriminator 1 view .LVU942
 3470 0070 28B9     		cbnz	r0, .L373
 210:Drivers/BSP/Components/lsm6dso16is/lsm6dso16is.c ****   {
 3471              		.loc 1 210 3 is_stmt 1 view .LVU943
 210:Drivers/BSP/Components/lsm6dso16is/lsm6dso16is.c ****   {
 3472              		.loc 1 210 6 is_stmt 0 view .LVU944
 3473 0072 16B9     		cbnz	r6, .L359
 212:Drivers/BSP/Components/lsm6dso16is/lsm6dso16is.c ****   }
 3474              		.loc 1 212 5 is_stmt 1 view .LVU945
 212:Drivers/BSP/Components/lsm6dso16is/lsm6dso16is.c ****   }
 3475              		.loc 1 212 26 is_stmt 0 view .LVU946
 3476 0074 0123     		movs	r3, #1
 3477 0076 85F83030 		strb	r3, [r5, #48]
 3478              	.LVL322:
 3479              	.L359:
 216:Drivers/BSP/Components/lsm6dso16is/lsm6dso16is.c **** 
 3480              		.loc 1 216 1 view .LVU947
 3481 007a 3046     		mov	r0, r6
 3482 007c 70BD     		pop	{r4, r5, r6, pc}
 3483              	.LVL323:
 3484              	.L373:
 207:Drivers/BSP/Components/lsm6dso16is/lsm6dso16is.c ****   }
 3485              		.loc 1 207 9 view .LVU948
 3486 007e 4FF0FF36 		mov	r6, #-1
 3487              	.LVL324:
 215:Drivers/BSP/Components/lsm6dso16is/lsm6dso16is.c **** }
 3488              		.loc 1 215 3 is_stmt 1 view .LVU949
 215:Drivers/BSP/Components/lsm6dso16is/lsm6dso16is.c **** }
 3489              		.loc 1 215 10 is_stmt 0 view .LVU950
 3490 0082 FAE7     		b	.L359
 3491              		.cfi_endproc
 3492              	.LFE1:
 3494              		.global	LSM6DSO16IS_GYRO_Driver
 3495              		.section	.data.LSM6DSO16IS_GYRO_Driver,"aw"
 3496              		.align	2
 3499              	LSM6DSO16IS_GYRO_Driver:
 3500 0000 00000000 		.word	LSM6DSO16IS_GYRO_Enable
 3501 0004 00000000 		.word	LSM6DSO16IS_GYRO_Disable
 3502 0008 00000000 		.word	LSM6DSO16IS_GYRO_GetSensitivity
 3503 000c 00000000 		.word	LSM6DSO16IS_GYRO_GetOutputDataRate
 3504 0010 00000000 		.word	LSM6DSO16IS_GYRO_SetOutputDataRate
 3505 0014 00000000 		.word	LSM6DSO16IS_GYRO_GetFullScale
 3506 0018 00000000 		.word	LSM6DSO16IS_GYRO_SetFullScale
 3507 001c 00000000 		.word	LSM6DSO16IS_GYRO_GetAxes
 3508 0020 00000000 		.word	LSM6DSO16IS_GYRO_GetAxesRaw
 3509              		.global	LSM6DSO16IS_ACC_Driver
 3510              		.section	.data.LSM6DSO16IS_ACC_Driver,"aw"
 3511              		.align	2
 3514              	LSM6DSO16IS_ACC_Driver:
 3515 0000 00000000 		.word	LSM6DSO16IS_ACC_Enable
 3516 0004 00000000 		.word	LSM6DSO16IS_ACC_Disable
 3517 0008 00000000 		.word	LSM6DSO16IS_ACC_GetSensitivity
 3518 000c 00000000 		.word	LSM6DSO16IS_ACC_GetOutputDataRate
 3519 0010 00000000 		.word	LSM6DSO16IS_ACC_SetOutputDataRate
ARM GAS  C:\Users\Nathan\AppData\Local\Temp\ccdIxQaW.s 			page 101


 3520 0014 00000000 		.word	LSM6DSO16IS_ACC_GetFullScale
 3521 0018 00000000 		.word	LSM6DSO16IS_ACC_SetFullScale
 3522 001c 00000000 		.word	LSM6DSO16IS_ACC_GetAxes
 3523 0020 00000000 		.word	LSM6DSO16IS_ACC_GetAxesRaw
 3524              		.global	LSM6DSO16IS_COMMON_Driver
 3525              		.section	.data.LSM6DSO16IS_COMMON_Driver,"aw"
 3526              		.align	2
 3529              	LSM6DSO16IS_COMMON_Driver:
 3530 0000 00000000 		.word	LSM6DSO16IS_Init
 3531 0004 00000000 		.word	LSM6DSO16IS_DeInit
 3532 0008 00000000 		.word	LSM6DSO16IS_ReadID
 3533 000c 00000000 		.word	LSM6DSO16IS_GetCapabilities
 3534              		.text
 3535              	.Letext0:
 3536              		.file 2 "C:/PROGRAM FILES (X86)/ARM GNU TOOLCHAIN ARM-NONE-EABI/13.3 REL1/arm-none-eabi/include/ma
 3537              		.file 3 "C:/PROGRAM FILES (X86)/ARM GNU TOOLCHAIN ARM-NONE-EABI/13.3 REL1/arm-none-eabi/include/sy
 3538              		.file 4 "C:/PROGRAM FILES (X86)/ARM GNU TOOLCHAIN ARM-NONE-EABI/13.3 REL1/arm-none-eabi/include/ma
 3539              		.file 5 "Drivers/BSP/Components/lsm6dso16is/lsm6dso16is_reg.h"
 3540              		.file 6 "Drivers/BSP/Components/lsm6dso16is/lsm6dso16is.h"
ARM GAS  C:\Users\Nathan\AppData\Local\Temp\ccdIxQaW.s 			page 102


DEFINED SYMBOLS
                            *ABS*:00000000 lsm6dso16is.c
C:\Users\Nathan\AppData\Local\Temp\ccdIxQaW.s:21     .text.LSM6DSO16IS_GetCapabilities:00000000 $t
C:\Users\Nathan\AppData\Local\Temp\ccdIxQaW.s:27     .text.LSM6DSO16IS_GetCapabilities:00000000 LSM6DSO16IS_GetCapabilities
C:\Users\Nathan\AppData\Local\Temp\ccdIxQaW.s:80     .text.LSM6DSO16IS_GetCapabilities:00000024 $d
C:\Users\Nathan\AppData\Local\Temp\ccdIxQaW.s:85     .text.LSM6DSO16IS_ACC_SetOutputDataRate_When_Disabled:00000000 $t
C:\Users\Nathan\AppData\Local\Temp\ccdIxQaW.s:90     .text.LSM6DSO16IS_ACC_SetOutputDataRate_When_Disabled:00000000 LSM6DSO16IS_ACC_SetOutputDataRate_When_Disabled
C:\Users\Nathan\AppData\Local\Temp\ccdIxQaW.s:195    .text.LSM6DSO16IS_ACC_SetOutputDataRate_When_Disabled:000000ac $d
C:\Users\Nathan\AppData\Local\Temp\ccdIxQaW.s:206    .text.LSM6DSO16IS_GYRO_SetOutputDataRate_When_Disabled:00000000 $t
C:\Users\Nathan\AppData\Local\Temp\ccdIxQaW.s:211    .text.LSM6DSO16IS_GYRO_SetOutputDataRate_When_Disabled:00000000 LSM6DSO16IS_GYRO_SetOutputDataRate_When_Disabled
C:\Users\Nathan\AppData\Local\Temp\ccdIxQaW.s:316    .text.LSM6DSO16IS_GYRO_SetOutputDataRate_When_Disabled:000000ac $d
C:\Users\Nathan\AppData\Local\Temp\ccdIxQaW.s:327    .text.ReadRegWrap:00000000 $t
C:\Users\Nathan\AppData\Local\Temp\ccdIxQaW.s:332    .text.ReadRegWrap:00000000 ReadRegWrap
C:\Users\Nathan\AppData\Local\Temp\ccdIxQaW.s:361    .text.WriteRegWrap:00000000 $t
C:\Users\Nathan\AppData\Local\Temp\ccdIxQaW.s:366    .text.WriteRegWrap:00000000 WriteRegWrap
C:\Users\Nathan\AppData\Local\Temp\ccdIxQaW.s:395    .text.LSM6DSO16IS_ACC_Enable:00000000 $t
C:\Users\Nathan\AppData\Local\Temp\ccdIxQaW.s:401    .text.LSM6DSO16IS_ACC_Enable:00000000 LSM6DSO16IS_ACC_Enable
C:\Users\Nathan\AppData\Local\Temp\ccdIxQaW.s:454    .text.LSM6DSO16IS_ACC_SetOutputDataRate_When_Enabled:00000000 $t
C:\Users\Nathan\AppData\Local\Temp\ccdIxQaW.s:459    .text.LSM6DSO16IS_ACC_SetOutputDataRate_When_Enabled:00000000 LSM6DSO16IS_ACC_SetOutputDataRate_When_Enabled
C:\Users\Nathan\AppData\Local\Temp\ccdIxQaW.s:585    .text.LSM6DSO16IS_ACC_SetOutputDataRate_When_Enabled:000000b8 $d
C:\Users\Nathan\AppData\Local\Temp\ccdIxQaW.s:596    .text.LSM6DSO16IS_ACC_SetOutputDataRate:00000000 $t
C:\Users\Nathan\AppData\Local\Temp\ccdIxQaW.s:602    .text.LSM6DSO16IS_ACC_SetOutputDataRate:00000000 LSM6DSO16IS_ACC_SetOutputDataRate
C:\Users\Nathan\AppData\Local\Temp\ccdIxQaW.s:641    .text.LSM6DSO16IS_ACC_SetFullScale:00000000 $t
C:\Users\Nathan\AppData\Local\Temp\ccdIxQaW.s:647    .text.LSM6DSO16IS_ACC_SetFullScale:00000000 LSM6DSO16IS_ACC_SetFullScale
C:\Users\Nathan\AppData\Local\Temp\ccdIxQaW.s:722    .text.LSM6DSO16IS_GYRO_Enable:00000000 $t
C:\Users\Nathan\AppData\Local\Temp\ccdIxQaW.s:728    .text.LSM6DSO16IS_GYRO_Enable:00000000 LSM6DSO16IS_GYRO_Enable
C:\Users\Nathan\AppData\Local\Temp\ccdIxQaW.s:781    .text.LSM6DSO16IS_GYRO_SetOutputDataRate_When_Enabled:00000000 $t
C:\Users\Nathan\AppData\Local\Temp\ccdIxQaW.s:786    .text.LSM6DSO16IS_GYRO_SetOutputDataRate_When_Enabled:00000000 LSM6DSO16IS_GYRO_SetOutputDataRate_When_Enabled
C:\Users\Nathan\AppData\Local\Temp\ccdIxQaW.s:912    .text.LSM6DSO16IS_GYRO_SetOutputDataRate_When_Enabled:000000b8 $d
C:\Users\Nathan\AppData\Local\Temp\ccdIxQaW.s:923    .text.LSM6DSO16IS_GYRO_SetOutputDataRate:00000000 $t
C:\Users\Nathan\AppData\Local\Temp\ccdIxQaW.s:929    .text.LSM6DSO16IS_GYRO_SetOutputDataRate:00000000 LSM6DSO16IS_GYRO_SetOutputDataRate
C:\Users\Nathan\AppData\Local\Temp\ccdIxQaW.s:968    .text.LSM6DSO16IS_GYRO_SetFullScale:00000000 $t
C:\Users\Nathan\AppData\Local\Temp\ccdIxQaW.s:974    .text.LSM6DSO16IS_GYRO_SetFullScale:00000000 LSM6DSO16IS_GYRO_SetFullScale
C:\Users\Nathan\AppData\Local\Temp\ccdIxQaW.s:1059   .text.LSM6DSO16IS_ReadID:00000000 $t
C:\Users\Nathan\AppData\Local\Temp\ccdIxQaW.s:1065   .text.LSM6DSO16IS_ReadID:00000000 LSM6DSO16IS_ReadID
C:\Users\Nathan\AppData\Local\Temp\ccdIxQaW.s:1104   .text.LSM6DSO16IS_ACC_Disable:00000000 $t
C:\Users\Nathan\AppData\Local\Temp\ccdIxQaW.s:1110   .text.LSM6DSO16IS_ACC_Disable:00000000 LSM6DSO16IS_ACC_Disable
C:\Users\Nathan\AppData\Local\Temp\ccdIxQaW.s:1181   .text.LSM6DSO16IS_ACC_GetOutputDataRate:00000000 $t
C:\Users\Nathan\AppData\Local\Temp\ccdIxQaW.s:1187   .text.LSM6DSO16IS_ACC_GetOutputDataRate:00000000 LSM6DSO16IS_ACC_GetOutputDataRate
C:\Users\Nathan\AppData\Local\Temp\ccdIxQaW.s:1227   .text.LSM6DSO16IS_ACC_GetOutputDataRate:00000022 $d
C:\Users\Nathan\AppData\Local\Temp\ccdIxQaW.s:1255   .text.LSM6DSO16IS_ACC_GetOutputDataRate:0000003e $t
C:\Users\Nathan\AppData\Local\Temp\ccdIxQaW.s:1356   .text.LSM6DSO16IS_ACC_GetOutputDataRate:00000090 $d
C:\Users\Nathan\AppData\Local\Temp\ccdIxQaW.s:1371   .text.LSM6DSO16IS_ACC_GetSensitivity:00000000 $t
C:\Users\Nathan\AppData\Local\Temp\ccdIxQaW.s:1377   .text.LSM6DSO16IS_ACC_GetSensitivity:00000000 LSM6DSO16IS_ACC_GetSensitivity
C:\Users\Nathan\AppData\Local\Temp\ccdIxQaW.s:1417   .text.LSM6DSO16IS_ACC_GetSensitivity:00000022 $d
C:\Users\Nathan\AppData\Local\Temp\ccdIxQaW.s:1421   .text.LSM6DSO16IS_ACC_GetSensitivity:00000026 $t
C:\Users\Nathan\AppData\Local\Temp\ccdIxQaW.s:1469   .text.LSM6DSO16IS_ACC_GetSensitivity:00000048 $d
C:\Users\Nathan\AppData\Local\Temp\ccdIxQaW.s:1477   .text.LSM6DSO16IS_ACC_GetFullScale:00000000 $t
C:\Users\Nathan\AppData\Local\Temp\ccdIxQaW.s:1483   .text.LSM6DSO16IS_ACC_GetFullScale:00000000 LSM6DSO16IS_ACC_GetFullScale
C:\Users\Nathan\AppData\Local\Temp\ccdIxQaW.s:1523   .text.LSM6DSO16IS_ACC_GetFullScale:00000022 $d
C:\Users\Nathan\AppData\Local\Temp\ccdIxQaW.s:1527   .text.LSM6DSO16IS_ACC_GetFullScale:00000026 $t
C:\Users\Nathan\AppData\Local\Temp\ccdIxQaW.s:1576   .text.LSM6DSO16IS_ACC_GetAxesRaw:00000000 $t
C:\Users\Nathan\AppData\Local\Temp\ccdIxQaW.s:1582   .text.LSM6DSO16IS_ACC_GetAxesRaw:00000000 LSM6DSO16IS_ACC_GetAxesRaw
C:\Users\Nathan\AppData\Local\Temp\ccdIxQaW.s:1646   .text.LSM6DSO16IS_ACC_GetAxes:00000000 $t
C:\Users\Nathan\AppData\Local\Temp\ccdIxQaW.s:1652   .text.LSM6DSO16IS_ACC_GetAxes:00000000 LSM6DSO16IS_ACC_GetAxes
C:\Users\Nathan\AppData\Local\Temp\ccdIxQaW.s:1761   .text.LSM6DSO16IS_GYRO_Disable:00000000 $t
C:\Users\Nathan\AppData\Local\Temp\ccdIxQaW.s:1767   .text.LSM6DSO16IS_GYRO_Disable:00000000 LSM6DSO16IS_GYRO_Disable
ARM GAS  C:\Users\Nathan\AppData\Local\Temp\ccdIxQaW.s 			page 103


C:\Users\Nathan\AppData\Local\Temp\ccdIxQaW.s:1838   .text.LSM6DSO16IS_DeInit:00000000 $t
C:\Users\Nathan\AppData\Local\Temp\ccdIxQaW.s:1844   .text.LSM6DSO16IS_DeInit:00000000 LSM6DSO16IS_DeInit
C:\Users\Nathan\AppData\Local\Temp\ccdIxQaW.s:1909   .text.LSM6DSO16IS_GYRO_GetOutputDataRate:00000000 $t
C:\Users\Nathan\AppData\Local\Temp\ccdIxQaW.s:1915   .text.LSM6DSO16IS_GYRO_GetOutputDataRate:00000000 LSM6DSO16IS_GYRO_GetOutputDataRate
C:\Users\Nathan\AppData\Local\Temp\ccdIxQaW.s:1955   .text.LSM6DSO16IS_GYRO_GetOutputDataRate:00000022 $d
C:\Users\Nathan\AppData\Local\Temp\ccdIxQaW.s:2076   .text.LSM6DSO16IS_GYRO_GetOutputDataRate:00000088 $d
C:\Users\Nathan\AppData\Local\Temp\ccdIxQaW.s:2090   .text.LSM6DSO16IS_GYRO_GetSensitivity:00000000 $t
C:\Users\Nathan\AppData\Local\Temp\ccdIxQaW.s:2096   .text.LSM6DSO16IS_GYRO_GetSensitivity:00000000 LSM6DSO16IS_GYRO_GetSensitivity
C:\Users\Nathan\AppData\Local\Temp\ccdIxQaW.s:2137   .text.LSM6DSO16IS_GYRO_GetSensitivity:00000024 $d
C:\Users\Nathan\AppData\Local\Temp\ccdIxQaW.s:2207   .text.LSM6DSO16IS_GYRO_GetSensitivity:00000060 $d
C:\Users\Nathan\AppData\Local\Temp\ccdIxQaW.s:2216   .text.LSM6DSO16IS_GYRO_GetFullScale:00000000 $t
C:\Users\Nathan\AppData\Local\Temp\ccdIxQaW.s:2222   .text.LSM6DSO16IS_GYRO_GetFullScale:00000000 LSM6DSO16IS_GYRO_GetFullScale
C:\Users\Nathan\AppData\Local\Temp\ccdIxQaW.s:2263   .text.LSM6DSO16IS_GYRO_GetFullScale:00000024 $d
C:\Users\Nathan\AppData\Local\Temp\ccdIxQaW.s:2333   .text.LSM6DSO16IS_GYRO_GetAxesRaw:00000000 $t
C:\Users\Nathan\AppData\Local\Temp\ccdIxQaW.s:2339   .text.LSM6DSO16IS_GYRO_GetAxesRaw:00000000 LSM6DSO16IS_GYRO_GetAxesRaw
C:\Users\Nathan\AppData\Local\Temp\ccdIxQaW.s:2403   .text.LSM6DSO16IS_GYRO_GetAxes:00000000 $t
C:\Users\Nathan\AppData\Local\Temp\ccdIxQaW.s:2409   .text.LSM6DSO16IS_GYRO_GetAxes:00000000 LSM6DSO16IS_GYRO_GetAxes
C:\Users\Nathan\AppData\Local\Temp\ccdIxQaW.s:2518   .text.LSM6DSO16IS_Read_Reg:00000000 $t
C:\Users\Nathan\AppData\Local\Temp\ccdIxQaW.s:2524   .text.LSM6DSO16IS_Read_Reg:00000000 LSM6DSO16IS_Read_Reg
C:\Users\Nathan\AppData\Local\Temp\ccdIxQaW.s:2564   .text.LSM6DSO16IS_Write_Reg:00000000 $t
C:\Users\Nathan\AppData\Local\Temp\ccdIxQaW.s:2570   .text.LSM6DSO16IS_Write_Reg:00000000 LSM6DSO16IS_Write_Reg
C:\Users\Nathan\AppData\Local\Temp\ccdIxQaW.s:2620   .text.LSM6DSO16IS_RegisterBusIO:00000000 $t
C:\Users\Nathan\AppData\Local\Temp\ccdIxQaW.s:2626   .text.LSM6DSO16IS_RegisterBusIO:00000000 LSM6DSO16IS_RegisterBusIO
C:\Users\Nathan\AppData\Local\Temp\ccdIxQaW.s:2766   .text.LSM6DSO16IS_RegisterBusIO:0000006c $d
C:\Users\Nathan\AppData\Local\Temp\ccdIxQaW.s:2772   .text.LSM6DSO16IS_ACC_Set_SelfTest:00000000 $t
C:\Users\Nathan\AppData\Local\Temp\ccdIxQaW.s:2778   .text.LSM6DSO16IS_ACC_Set_SelfTest:00000000 LSM6DSO16IS_ACC_Set_SelfTest
C:\Users\Nathan\AppData\Local\Temp\ccdIxQaW.s:2829   .text.LSM6DSO16IS_ACC_Get_DRDY_Status:00000000 $t
C:\Users\Nathan\AppData\Local\Temp\ccdIxQaW.s:2835   .text.LSM6DSO16IS_ACC_Get_DRDY_Status:00000000 LSM6DSO16IS_ACC_Get_DRDY_Status
C:\Users\Nathan\AppData\Local\Temp\ccdIxQaW.s:2874   .text.LSM6DSO16IS_ACC_Get_Init_Status:00000000 $t
C:\Users\Nathan\AppData\Local\Temp\ccdIxQaW.s:2880   .text.LSM6DSO16IS_ACC_Get_Init_Status:00000000 LSM6DSO16IS_ACC_Get_Init_Status
C:\Users\Nathan\AppData\Local\Temp\ccdIxQaW.s:2917   .text.LSM6DSO16IS_ACC_Set_INT1_DRDY:00000000 $t
C:\Users\Nathan\AppData\Local\Temp\ccdIxQaW.s:2923   .text.LSM6DSO16IS_ACC_Set_INT1_DRDY:00000000 LSM6DSO16IS_ACC_Set_INT1_DRDY
C:\Users\Nathan\AppData\Local\Temp\ccdIxQaW.s:3007   .text.LSM6DSO16IS_GYRO_Set_SelfTest:00000000 $t
C:\Users\Nathan\AppData\Local\Temp\ccdIxQaW.s:3013   .text.LSM6DSO16IS_GYRO_Set_SelfTest:00000000 LSM6DSO16IS_GYRO_Set_SelfTest
C:\Users\Nathan\AppData\Local\Temp\ccdIxQaW.s:3071   .text.LSM6DSO16IS_GYRO_Get_DRDY_Status:00000000 $t
C:\Users\Nathan\AppData\Local\Temp\ccdIxQaW.s:3077   .text.LSM6DSO16IS_GYRO_Get_DRDY_Status:00000000 LSM6DSO16IS_GYRO_Get_DRDY_Status
C:\Users\Nathan\AppData\Local\Temp\ccdIxQaW.s:3116   .text.LSM6DSO16IS_GYRO_Get_Init_Status:00000000 $t
C:\Users\Nathan\AppData\Local\Temp\ccdIxQaW.s:3122   .text.LSM6DSO16IS_GYRO_Get_Init_Status:00000000 LSM6DSO16IS_GYRO_Get_Init_Status
C:\Users\Nathan\AppData\Local\Temp\ccdIxQaW.s:3159   .text.LSM6DSO16IS_GYRO_Set_INT1_DRDY:00000000 $t
C:\Users\Nathan\AppData\Local\Temp\ccdIxQaW.s:3165   .text.LSM6DSO16IS_GYRO_Set_INT1_DRDY:00000000 LSM6DSO16IS_GYRO_Set_INT1_DRDY
C:\Users\Nathan\AppData\Local\Temp\ccdIxQaW.s:3249   .text.LSM6DSO16IS_Set_DRDY_Mode:00000000 $t
C:\Users\Nathan\AppData\Local\Temp\ccdIxQaW.s:3255   .text.LSM6DSO16IS_Set_DRDY_Mode:00000000 LSM6DSO16IS_Set_DRDY_Mode
C:\Users\Nathan\AppData\Local\Temp\ccdIxQaW.s:3301   .text.LSM6DSO16IS_Set_Mem_Bank:00000000 $t
C:\Users\Nathan\AppData\Local\Temp\ccdIxQaW.s:3307   .text.LSM6DSO16IS_Set_Mem_Bank:00000000 LSM6DSO16IS_Set_Mem_Bank
C:\Users\Nathan\AppData\Local\Temp\ccdIxQaW.s:3358   .text.LSM6DSO16IS_Init:00000000 $t
C:\Users\Nathan\AppData\Local\Temp\ccdIxQaW.s:3364   .text.LSM6DSO16IS_Init:00000000 LSM6DSO16IS_Init
C:\Users\Nathan\AppData\Local\Temp\ccdIxQaW.s:3499   .data.LSM6DSO16IS_GYRO_Driver:00000000 LSM6DSO16IS_GYRO_Driver
C:\Users\Nathan\AppData\Local\Temp\ccdIxQaW.s:3496   .data.LSM6DSO16IS_GYRO_Driver:00000000 $d
C:\Users\Nathan\AppData\Local\Temp\ccdIxQaW.s:3514   .data.LSM6DSO16IS_ACC_Driver:00000000 LSM6DSO16IS_ACC_Driver
C:\Users\Nathan\AppData\Local\Temp\ccdIxQaW.s:3511   .data.LSM6DSO16IS_ACC_Driver:00000000 $d
C:\Users\Nathan\AppData\Local\Temp\ccdIxQaW.s:3529   .data.LSM6DSO16IS_COMMON_Driver:00000000 LSM6DSO16IS_COMMON_Driver
C:\Users\Nathan\AppData\Local\Temp\ccdIxQaW.s:3526   .data.LSM6DSO16IS_COMMON_Driver:00000000 $d
C:\Users\Nathan\AppData\Local\Temp\ccdIxQaW.s:1982   .text.LSM6DSO16IS_GYRO_GetOutputDataRate:0000003d $d
C:\Users\Nathan\AppData\Local\Temp\ccdIxQaW.s:1982   .text.LSM6DSO16IS_GYRO_GetOutputDataRate:0000003e $t
C:\Users\Nathan\AppData\Local\Temp\ccdIxQaW.s:2154   .text.LSM6DSO16IS_GYRO_GetSensitivity:00000035 $d
C:\Users\Nathan\AppData\Local\Temp\ccdIxQaW.s:2154   .text.LSM6DSO16IS_GYRO_GetSensitivity:00000036 $t
C:\Users\Nathan\AppData\Local\Temp\ccdIxQaW.s:2280   .text.LSM6DSO16IS_GYRO_GetFullScale:00000035 $d
ARM GAS  C:\Users\Nathan\AppData\Local\Temp\ccdIxQaW.s 			page 104


C:\Users\Nathan\AppData\Local\Temp\ccdIxQaW.s:2280   .text.LSM6DSO16IS_GYRO_GetFullScale:00000036 $t

UNDEFINED SYMBOLS
lsm6dso16is_xl_data_rate_set
lsm6dso16is_xl_full_scale_set
lsm6dso16is_gy_data_rate_set
lsm6dso16is_gy_full_scale_set
lsm6dso16is_device_id_get
lsm6dso16is_xl_data_rate_get
lsm6dso16is_xl_full_scale_get
lsm6dso16is_acceleration_raw_get
lsm6dso16is_gy_data_rate_get
lsm6dso16is_gy_full_scale_get
lsm6dso16is_angular_rate_raw_get
lsm6dso16is_read_reg
lsm6dso16is_write_reg
lsm6dso16is_xl_self_test_set
lsm6dso16is_xl_flag_data_ready_get
lsm6dso16is_pin_int1_route_get
lsm6dso16is_pin_int1_route_set
lsm6dso16is_gy_self_test_set
lsm6dso16is_gy_flag_data_ready_get
lsm6dso16is_data_ready_mode_set
lsm6dso16is_mem_bank_set
lsm6dso16is_auto_increment_set
lsm6dso16is_block_data_update_set
