ARM GAS  C:\Users\Nathan\AppData\Local\Temp\ccHbzc7Q.s 			page 1


   1              		.cpu cortex-m4
   2              		.arch armv7e-m
   3              		.fpu fpv4-sp-d16
   4              		.eabi_attribute 27, 1
   5              		.eabi_attribute 28, 1
   6              		.eabi_attribute 20, 1
   7              		.eabi_attribute 21, 1
   8              		.eabi_attribute 23, 3
   9              		.eabi_attribute 24, 1
  10              		.eabi_attribute 25, 1
  11              		.eabi_attribute 26, 1
  12              		.eabi_attribute 30, 1
  13              		.eabi_attribute 34, 1
  14              		.eabi_attribute 18, 4
  15              		.file	"main.c"
  16              		.text
  17              	.Ltext0:
  18              		.cfi_sections	.debug_frame
  19              		.file 1 "Core/Src/main.c"
  20              		.section	.text.MX_SDIO_SD_Init,"ax",%progbits
  21              		.align	1
  22              		.syntax unified
  23              		.thumb
  24              		.thumb_func
  26              	MX_SDIO_SD_Init:
  27              	.LFB137:
   1:Core/Src/main.c **** /* USER CODE BEGIN Header */
   2:Core/Src/main.c **** /**
   3:Core/Src/main.c ****   ******************************************************************************
   4:Core/Src/main.c ****   * @file           : main.c
   5:Core/Src/main.c ****   * @brief          : Main program body
   6:Core/Src/main.c ****   ******************************************************************************
   7:Core/Src/main.c ****   * @attention
   8:Core/Src/main.c ****   *
   9:Core/Src/main.c ****   * Copyright (c) 2024 STMicroelectronics.
  10:Core/Src/main.c ****   * All rights reserved.
  11:Core/Src/main.c ****   *
  12:Core/Src/main.c ****   * This software is licensed under terms that can be found in the LICENSE file
  13:Core/Src/main.c ****   * in the root directory of this software component.
  14:Core/Src/main.c ****   * If no LICENSE file comes with this software, it is provided AS-IS.
  15:Core/Src/main.c ****   *
  16:Core/Src/main.c ****   ******************************************************************************
  17:Core/Src/main.c ****   */
  18:Core/Src/main.c **** /* USER CODE END Header */
  19:Core/Src/main.c **** /* Includes ------------------------------------------------------------------*/
  20:Core/Src/main.c **** #include "main.h"
  21:Core/Src/main.c **** #include "fatfs.h"
  22:Core/Src/main.c **** 
  23:Core/Src/main.c **** /* Private includes ----------------------------------------------------------*/
  24:Core/Src/main.c **** /* USER CODE BEGIN Includes */
  25:Core/Src/main.c **** #include <lsm6dsm_reg.h>
  26:Core/Src/main.c **** #include <stm32f405xx.h>
  27:Core/Src/main.c **** #include <llcc68_hal.h>
  28:Core/Src/main.c **** #include <llcc68.h>
  29:Core/Src/main.c **** #include <bmp5.h>
  30:Core/Src/main.c **** /* USER CODE END Includes */
  31:Core/Src/main.c **** 
ARM GAS  C:\Users\Nathan\AppData\Local\Temp\ccHbzc7Q.s 			page 2


  32:Core/Src/main.c **** /* Private typedef -----------------------------------------------------------*/
  33:Core/Src/main.c **** /* USER CODE BEGIN PTD */
  34:Core/Src/main.c **** 
  35:Core/Src/main.c **** /* USER CODE END PTD */
  36:Core/Src/main.c **** 
  37:Core/Src/main.c **** /* Private define ------------------------------------------------------------*/
  38:Core/Src/main.c **** /* USER CODE BEGIN PD */
  39:Core/Src/main.c **** 
  40:Core/Src/main.c **** /* USER CODE END PD */
  41:Core/Src/main.c **** 
  42:Core/Src/main.c **** /* Private macro -------------------------------------------------------------*/
  43:Core/Src/main.c **** /* USER CODE BEGIN PM */
  44:Core/Src/main.c **** 
  45:Core/Src/main.c **** /* USER CODE END PM */
  46:Core/Src/main.c **** 
  47:Core/Src/main.c **** /* Private variables ---------------------------------------------------------*/
  48:Core/Src/main.c **** I2C_HandleTypeDef hi2c1;
  49:Core/Src/main.c **** 
  50:Core/Src/main.c **** SD_HandleTypeDef hsd;
  51:Core/Src/main.c **** 
  52:Core/Src/main.c **** SPI_HandleTypeDef hspi1;
  53:Core/Src/main.c **** 
  54:Core/Src/main.c **** UART_HandleTypeDef huart1;
  55:Core/Src/main.c **** 
  56:Core/Src/main.c **** /* USER CODE BEGIN PV */
  57:Core/Src/main.c **** 
  58:Core/Src/main.c **** /* USER CODE END PV */
  59:Core/Src/main.c **** 
  60:Core/Src/main.c **** /* Private function prototypes -----------------------------------------------*/
  61:Core/Src/main.c **** void SystemClock_Config(void);
  62:Core/Src/main.c **** static void MX_GPIO_Init(void);
  63:Core/Src/main.c **** static void MX_SDIO_SD_Init(void);
  64:Core/Src/main.c **** static void MX_USART1_UART_Init(void);
  65:Core/Src/main.c **** static void MX_I2C1_Init(void);
  66:Core/Src/main.c **** static void MX_SPI1_Init(void);
  67:Core/Src/main.c **** /* USER CODE BEGIN PFP */
  68:Core/Src/main.c **** // function prototype
  69:Core/Src/main.c **** static int32_t lsm6dsm_platform_write(void *handle, uint8_t reg, const uint8_t *bufp,
  70:Core/Src/main.c ****                               uint16_t len);
  71:Core/Src/main.c **** static int32_t lsm6dsm_platform_read(void *handle, uint8_t reg, uint8_t *bufp,
  72:Core/Src/main.c ****                              uint16_t len);
  73:Core/Src/main.c **** static void platform_delay(uint32_t ms);
  74:Core/Src/main.c **** 
  75:Core/Src/main.c **** static int32_t llcc68_platform_write_read(void *handle, const uint8_t *command, uint16_t command_le
  76:Core/Src/main.c ****                                           uint8_t *data, uint16_t data_length);
  77:Core/Src/main.c ****                                           static int32_t llcc68_platform_read(void *handle, const u
  78:Core/Src/main.c ****                                           uint8_t *data, uint16_t data_length);
  79:Core/Src/main.c ****                                           static int32_t llcc68_platform_write(void *handle, const 
  80:Core/Src/main.c ****                                           const uint8_t *data, uint16_t data_length);
  81:Core/Src/main.c **** static int32_t llcc68_platform_reset(void *handle);
  82:Core/Src/main.c **** static int32_t bmp5_read(uint8_t reg_addr, uint8_t *read_data, uint32_t len, void *intf_ptr);
  83:Core/Src/main.c **** static int32_t bmp5_write(uint8_t reg_addr,
  84:Core/Src/main.c ****   const uint8_t * reg_data, uint32_t len, void *intf_ptr);
  85:Core/Src/main.c ****   void bmp5_error_codes_print_result(const char api_name[], int8_t rslt);
  86:Core/Src/main.c ****   static int8_t bmp5_set_config(struct bmp5_osr_odr_press_config *osr_odr_press_cfg, struct bmp5_de
  87:Core/Src/main.c **** /* USER CODE END PFP */
  88:Core/Src/main.c **** 
ARM GAS  C:\Users\Nathan\AppData\Local\Temp\ccHbzc7Q.s 			page 3


  89:Core/Src/main.c **** /* Private user code ---------------------------------------------------------*/
  90:Core/Src/main.c **** /* USER CODE BEGIN 0 */
  91:Core/Src/main.c ****   int16_t temp;
  92:Core/Src/main.c **** //variable initialization
  93:Core/Src/main.c **** static int16_t data_raw_acceleration[3];
  94:Core/Src/main.c **** static int16_t data_raw_angular_rate[3];
  95:Core/Src/main.c **** static int16_t data_raw_temperature;
  96:Core/Src/main.c **** static float acceleration_mg[3];
  97:Core/Src/main.c **** static float angular_rate_mdps[3];
  98:Core/Src/main.c **** static float temperature_degC;
  99:Core/Src/main.c **** static uint8_t whoamI, rst;
 100:Core/Src/main.c **** /* USER CODE END 0 */
 101:Core/Src/main.c **** 
 102:Core/Src/main.c **** /**
 103:Core/Src/main.c ****   * @brief  The application entry point.
 104:Core/Src/main.c ****   * @retval int
 105:Core/Src/main.c ****   */
 106:Core/Src/main.c **** int main(void)
 107:Core/Src/main.c **** {
 108:Core/Src/main.c **** 
 109:Core/Src/main.c ****   /* USER CODE BEGIN 1 */
 110:Core/Src/main.c **** 
 111:Core/Src/main.c ****   /* USER CODE END 1 */
 112:Core/Src/main.c **** 
 113:Core/Src/main.c ****   /* MCU Configuration--------------------------------------------------------*/
 114:Core/Src/main.c **** 
 115:Core/Src/main.c ****   /* Reset of all peripherals, Initializes the Flash interface and the Systick. */
 116:Core/Src/main.c ****   HAL_Init();
 117:Core/Src/main.c **** 
 118:Core/Src/main.c ****   /* USER CODE BEGIN Init */
 119:Core/Src/main.c **** 
 120:Core/Src/main.c ****   /* USER CODE END Init */
 121:Core/Src/main.c **** 
 122:Core/Src/main.c ****   /* Configure the system clock */
 123:Core/Src/main.c ****   SystemClock_Config();
 124:Core/Src/main.c **** 
 125:Core/Src/main.c ****   /* USER CODE BEGIN SysInit */
 126:Core/Src/main.c **** 
 127:Core/Src/main.c ****   /* USER CODE END SysInit */
 128:Core/Src/main.c **** 
 129:Core/Src/main.c ****   /* Initialize all configured peripherals */
 130:Core/Src/main.c ****   MX_GPIO_Init();
 131:Core/Src/main.c ****   MX_SDIO_SD_Init();
 132:Core/Src/main.c ****   MX_USART1_UART_Init();
 133:Core/Src/main.c ****   MX_I2C1_Init();
 134:Core/Src/main.c ****   MX_FATFS_Init();
 135:Core/Src/main.c ****   MX_SPI1_Init();
 136:Core/Src/main.c ****   /* USER CODE BEGIN 2 */
 137:Core/Src/main.c **** 
 138:Core/Src/main.c ****   //  HAL_GPIO_WritePin(CS_GYRO_GPIO_Port, CS_GYRO_Pin, GPIO_PIN_SET);
 139:Core/Src/main.c **** 
 140:Core/Src/main.c ****    // variable initialization for sensor access
 141:Core/Src/main.c ****   stmdev_ctx_t dev_ctx;
 142:Core/Src/main.c ****   dev_ctx.write_reg = lsm6dsm_platform_write;
 143:Core/Src/main.c ****   dev_ctx.read_reg = lsm6dsm_platform_read;
 144:Core/Src/main.c ****   dev_ctx.handle = &hspi1;
 145:Core/Src/main.c **** 
ARM GAS  C:\Users\Nathan\AppData\Local\Temp\ccHbzc7Q.s 			page 4


 146:Core/Src/main.c ****   llcc68_ctx_t radio_ctx;
 147:Core/Src/main.c ****   radio_ctx.write_reg = llcc68_platform_write;
 148:Core/Src/main.c ****   radio_ctx.read_reg = llcc68_platform_read;
 149:Core/Src/main.c ****   radio_ctx.reset = llcc68_platform_reset;
 150:Core/Src/main.c ****   radio_ctx.handle = &hspi1;
 151:Core/Src/main.c ****   radio_ctx.gpio = CS_WIRELESS_GPIO_Port;
 152:Core/Src/main.c **** 
 153:Core/Src/main.c ****   // int8_t rslt;
 154:Core/Src/main.c ****   // struct bmp5_dev bmp5_ctx;
 155:Core/Src/main.c ****   // bmp5_ctx.intf = BMP5_SPI_INTF;
 156:Core/Src/main.c ****   // bmp5_ctx.intf_ptr = &hspi1;
 157:Core/Src/main.c ****   // bmp5_ctx.read = (bmp5_read_fptr_t) &bmp5_read;
 158:Core/Src/main.c ****   // bmp5_ctx.write = (bmp5_write_fptr_t) &bmp5_write;
 159:Core/Src/main.c ****   // bmp5_ctx.delay_us = (bmp5_delay_us_fptr_t) &platform_delay;
 160:Core/Src/main.c ****   // struct bmp5_osr_odr_press_config osr_odr_press_cfg = { 0 };
 161:Core/Src/main.c **** 
 162:Core/Src/main.c ****   /* Wait sensor boot time */
 163:Core/Src/main.c ****   platform_delay(1000);
 164:Core/Src/main.c **** 
 165:Core/Src/main.c ****   // PRESSURE SENSOR CONFIGURATION
 166:Core/Src/main.c ****   // bmp5_read(BMP5_REG_CHIP_ID, &whoamI, 1, &hspi1);
 167:Core/Src/main.c ****   // printf("Pressure sensor who am I: %d\n", whoamI);
 168:Core/Src/main.c ****   // rslt = bmp5_init(&bmp5_ctx);
 169:Core/Src/main.c ****   // bmp5_error_codes_print_result("bmp5_init", rslt);
 170:Core/Src/main.c ****   // if (rslt == BMP5_OK) {
 171:Core/Src/main.c ****   //   rslt = bmp5_set_config(&osr_odr_press_cfg, &bmp5_ctx);
 172:Core/Src/main.c ****   //   bmp5_error_codes_print_result("set_config", rslt);
 173:Core/Src/main.c ****   // }
 174:Core/Src/main.c **** 
 175:Core/Src/main.c ****   // IMU CONFIGURATION
 176:Core/Src/main.c **** 
 177:Core/Src/main.c ****   //set SPI as 3 wire communication
 178:Core/Src/main.c ****   lsm6dsm_spi_mode_set(&dev_ctx,LSM6DSM_SPI_3_WIRE);
 179:Core/Src/main.c ****   //set auto increment to read several register at same time
 180:Core/Src/main.c ****   lsm6dsm_auto_increment_set(&dev_ctx, 1);
 181:Core/Src/main.c **** 
 182:Core/Src/main.c ****   /* Check device ID */
 183:Core/Src/main.c ****   lsm6dsm_device_id_get(&dev_ctx, &whoamI);
 184:Core/Src/main.c ****   
 185:Core/Src/main.c ****   if (whoamI != LSM6DSM_ID)
 186:Core/Src/main.c ****     while (1) {
 187:Core/Src/main.c ****       /* manage here device not found */
 188:Core/Src/main.c ****     }
 189:Core/Src/main.c **** 
 190:Core/Src/main.c ****   /* Restore default configuration */
 191:Core/Src/main.c ****   // you should not call this function because it will give uncorrect output register value
 192:Core/Src/main.c ****   //lsm6dsm_reset_set(&dev_ctx, PROPERTY_ENABLE);
 193:Core/Src/main.c **** 
 194:Core/Src/main.c ****   do {
 195:Core/Src/main.c ****     lsm6dsm_reset_get(&dev_ctx, &rst);
 196:Core/Src/main.c ****   } while (rst);
 197:Core/Src/main.c **** 
 198:Core/Src/main.c ****   /*  Enable Block Data Update */
 199:Core/Src/main.c ****   lsm6dsm_block_data_update_set(&dev_ctx, PROPERTY_ENABLE);
 200:Core/Src/main.c ****   /* Set Output Data Rate for Acc and Gyro */
 201:Core/Src/main.c ****   lsm6dsm_xl_data_rate_set(&dev_ctx, LSM6DSM_XL_ODR_6k66Hz);
 202:Core/Src/main.c ****   lsm6dsm_gy_data_rate_set(&dev_ctx, LSM6DSM_XL_ODR_6k66Hz);
ARM GAS  C:\Users\Nathan\AppData\Local\Temp\ccHbzc7Q.s 			page 5


 203:Core/Src/main.c ****   /* Set full scale */
 204:Core/Src/main.c ****   lsm6dsm_xl_full_scale_set(&dev_ctx, LSM6DSM_2g);
 205:Core/Src/main.c ****   lsm6dsm_gy_full_scale_set(&dev_ctx, LSM6DSM_2000dps);
 206:Core/Src/main.c ****   /* Configure filtering chain(No aux interface)
 207:Core/Src/main.c ****    * Accelerometer - analog filter
 208:Core/Src/main.c ****    */
 209:Core/Src/main.c ****   lsm6dsm_xl_filter_analog_set(&dev_ctx, LSM6DSM_XL_ANA_BW_400Hz);
 210:Core/Src/main.c ****   /* Accelerometer - LPF1 path (LPF2 not used) */
 211:Core/Src/main.c ****   //lsm6dsm_xl_lp1_bandwidth_set(&dev_ctx, LSM6DSM_XL_LP1_ODR_DIV_4);
 212:Core/Src/main.c ****   /* Accelerometer - LPF1 + LPF2 path */
 213:Core/Src/main.c ****   lsm6dsm_xl_lp2_bandwidth_set(&dev_ctx,
 214:Core/Src/main.c ****                                LSM6DSM_XL_LOW_LAT_LP_ODR_DIV_400);
 215:Core/Src/main.c ****   /* Accelerometer - High Pass / Slope path */
 216:Core/Src/main.c ****   //lsm6dsm_xl_reference_mode_set(&dev_ctx, PROPERTY_DISABLE);
 217:Core/Src/main.c ****   //lsm6dsm_xl_hp_bandwidth_set(&dev_ctx, LSM6DSM_XL_HP_ODR_DIV_100);
 218:Core/Src/main.c ****   /* Gyroscope - filtering chain */
 219:Core/Src/main.c ****   lsm6dsm_gy_band_pass_set(&dev_ctx, LSM6DSM_HP_DISABLE_LP1_AGGRESSIVE);
 220:Core/Src/main.c ****   // update the offset bias of acceleration
 221:Core/Src/main.c ****   platform_delay(1000);
 222:Core/Src/main.c **** 
 223:Core/Src/main.c ****   const int SAMPLE_SIZE = 1000;
 224:Core/Src/main.c ****   //create a while loop that gets 5 sample of acceleration and calculate the average, then set the 
 225:Core/Src/main.c ****   int16_t acc_bias[3] = {0, 0, 0};
 226:Core/Src/main.c ****   int i = 0;
 227:Core/Src/main.c ****   do {
 228:Core/Src/main.c ****     lsm6dsm_reg_t reg;
 229:Core/Src/main.c ****       /* Read output only if new value is available */
 230:Core/Src/main.c ****       lsm6dsm_status_reg_get(&dev_ctx, &reg.status_reg);
 231:Core/Src/main.c ****       if (reg.status_reg.xlda) {
 232:Core/Src/main.c ****         /* Read acceleration field data */
 233:Core/Src/main.c ****         memset(data_raw_acceleration, 0x00, 3 * sizeof(int16_t));
 234:Core/Src/main.c ****         lsm6dsm_acceleration_raw_get(&dev_ctx, data_raw_acceleration);
 235:Core/Src/main.c ****         acc_bias[0] += lsm6dsm_from_fs2g_to_mg(data_raw_acceleration[0]);
 236:Core/Src/main.c ****         acc_bias[1] += lsm6dsm_from_fs2g_to_mg(data_raw_acceleration[1]);
 237:Core/Src/main.c ****         acc_bias[2] += lsm6dsm_from_fs2g_to_mg(data_raw_acceleration[2]);
 238:Core/Src/main.c ****         // platform_delay(100);
 239:Core/Src/main.c ****         i++;
 240:Core/Src/main.c ****       }
 241:Core/Src/main.c ****   } while (i < SAMPLE_SIZE);
 242:Core/Src/main.c ****   acc_bias[0] /= SAMPLE_SIZE;
 243:Core/Src/main.c ****   acc_bias[1] /= SAMPLE_SIZE;
 244:Core/Src/main.c ****   acc_bias[2] /= SAMPLE_SIZE;
 245:Core/Src/main.c ****   // for (int i = 0; i < 10; i++) {
 246:Core/Src/main.c ****   //   lsm6dsm_acceleration_raw_get(&dev_ctx, data_raw_acceleration);
 247:Core/Src/main.c ****   //   acc_bias[0] += lsm6dsm_from_fs2g_to_mg(data_raw_acceleration[0]);
 248:Core/Src/main.c ****   //   acc_bias[1] += lsm6dsm_from_fs2g_to_mg(data_raw_acceleration[1]);
 249:Core/Src/main.c ****   //   acc_bias[2] += lsm6dsm_from_fs2g_to_mg(data_raw_acceleration[2]);
 250:Core/Src/main.c ****   //   platform_delay(100);
 251:Core/Src/main.c ****   // } 
 252:Core/Src/main.c ****   // acc_bias[0] /= 10;
 253:Core/Src/main.c ****   // acc_bias[1] /= 10;
 254:Core/Src/main.c ****   // acc_bias[2] /= 10;
 255:Core/Src/main.c **** 
 256:Core/Src/main.c ****   // lsm6dsm_xl_usr_offset_set(&dev_ctx, (uint8_t*)acc_bias);
 257:Core/Src/main.c **** 
 258:Core/Src/main.c ****   // do the same for gyro
 259:Core/Src/main.c ****   int16_t gyro_bias[3] = {0, 0, 0};
ARM GAS  C:\Users\Nathan\AppData\Local\Temp\ccHbzc7Q.s 			page 6


 260:Core/Src/main.c ****   i = 0;
 261:Core/Src/main.c ****   do {
 262:Core/Src/main.c ****     lsm6dsm_reg_t reg;
 263:Core/Src/main.c **** 	    /* Read output only if new value is available */
 264:Core/Src/main.c **** 	    lsm6dsm_status_reg_get(&dev_ctx, &reg.status_reg);
 265:Core/Src/main.c ****       if (reg.status_reg.gda) {
 266:Core/Src/main.c ****         /* Read angular rate field data */
 267:Core/Src/main.c ****         memset(data_raw_angular_rate, 0x00, 3 * sizeof(int16_t));
 268:Core/Src/main.c ****         lsm6dsm_angular_rate_raw_get(&dev_ctx, data_raw_angular_rate);
 269:Core/Src/main.c ****         gyro_bias[0] += lsm6dsm_from_fs2000dps_to_mdps(data_raw_angular_rate[0]);
 270:Core/Src/main.c ****         gyro_bias[1] += lsm6dsm_from_fs2000dps_to_mdps(data_raw_angular_rate[1]);
 271:Core/Src/main.c ****         gyro_bias[2] += lsm6dsm_from_fs2000dps_to_mdps(data_raw_angular_rate[2]);
 272:Core/Src/main.c ****         // platform_delay(100);
 273:Core/Src/main.c ****         i++;
 274:Core/Src/main.c ****       }
 275:Core/Src/main.c ****   } while (i < SAMPLE_SIZE);
 276:Core/Src/main.c ****   gyro_bias[0] /= SAMPLE_SIZE;
 277:Core/Src/main.c ****   gyro_bias[1] /= SAMPLE_SIZE;
 278:Core/Src/main.c ****   gyro_bias[2] /= SAMPLE_SIZE;
 279:Core/Src/main.c **** 
 280:Core/Src/main.c ****   // LORA MODULE CONFIGURATION
 281:Core/Src/main.c ****   // llcc68_reset(&radio_ctx);
 282:Core/Src/main.c ****   // platform_delay(100);
 283:Core/Src/main.c ****   //   llcc68_set_standby(&radio_ctx, LLCC68_STANDBY_CFG_RC);
 284:Core/Src/main.c ****   //   llcc68_set_pkt_type(&radio_ctx, LLCC68_PKT_TYPE_LORA);
 285:Core/Src/main.c ****   //   llcc68_set_rf_freq(&radio_ctx, 433000000);
 286:Core/Src/main.c ****   // //   // // 17dBm
 287:Core/Src/main.c ****   // //   // // {0x03, 0x05, 0x00, 0x01}
 288:Core/Src/main.c ****   //   const llcc68_pa_cfg_params_t pa_cfg = {0x03,
 289:Core/Src/main.c ****   //     0x05,
 290:Core/Src/main.c ****   //    0x00,
 291:Core/Src/main.c ****   //     0x01
 292:Core/Src/main.c ****   //   };
 293:Core/Src/main.c ****   //   const llcc68_pkt_params_lora_t pkt_params = {14, LLCC68_LORA_PKT_EXPLICIT, 14, true, false};
 294:Core/Src/main.c ****   //   const llcc68_mod_params_lora_t mod_params = {LLCC68_LORA_SF11, LLCC68_LORA_BW_250, LLCC68_LO
 295:Core/Src/main.c ****   //   llcc68_set_pa_cfg(&radio_ctx, &pa_cfg);
 296:Core/Src/main.c ****   //   // //The output power is defined as power in dBm in a range of - 9 (0xF7) to +22 (0x16) dBm 
 297:Core/Src/main.c ****   //   llcc68_set_tx_params(&radio_ctx, 0x16, LLCC68_RAMP_200_US);
 298:Core/Src/main.c ****   //   // llcc68_set_lora_mod_params(&radio_ctx, &mod_params);
 299:Core/Src/main.c ****   //   // llcc68_set_lora_pkt_params(&radio_ctx, &pkt_params);
 300:Core/Src/main.c ****   //    platform_delay(100);
 301:Core/Src/main.c **** 
 302:Core/Src/main.c ****   /* USER CODE END 2 */
 303:Core/Src/main.c **** 
 304:Core/Src/main.c ****   /* Infinite loop */
 305:Core/Src/main.c ****   /* USER CODE BEGIN WHILE */
 306:Core/Src/main.c ****   while (1)
 307:Core/Src/main.c ****   {
 308:Core/Src/main.c ****     // HAL_UART_Transmit(&huart1, (uint8_t*)"Hello World!\r\n", 14, 1000);
 309:Core/Src/main.c ****     // TEMPERATURE SENSOR INIT
 310:Core/Src/main.c **** 
 311:Core/Src/main.c ****     // if (HAL_I2C_IsDeviceReady(&hi2c1, 0x41 << 1, 2, 1000) == HAL_OK) {
 312:Core/Src/main.c ****     //   if (HAL_I2C_Master_Transmit(&hi2c1, 0x41 << 1, (uint8_t*)0xBC, 2, 1000) == HAL_OK) {
 313:Core/Src/main.c ****     //     uint8_t tempData[3];
 314:Core/Src/main.c ****     //     if (HAL_I2C_Master_Receive(&hi2c1, 0x41 << 1, &tempData, 3, 1000) == HAL_OK) {
 315:Core/Src/main.c ****     //       temp = (int16_t)((tempData[1] << 8) | tempData[0]);
 316:Core/Src/main.c ****     //       float tempFloat = ((float)temp/256.0f)+25.0f;
ARM GAS  C:\Users\Nathan\AppData\Local\Temp\ccHbzc7Q.s 			page 7


 317:Core/Src/main.c ****     //       printf("Temperature: %.3f\r\n", tempFloat);
 318:Core/Src/main.c ****     //     }
 319:Core/Src/main.c ****     //   }
 320:Core/Src/main.c ****     // }
 321:Core/Src/main.c ****     /* USER CODE END WHILE */
 322:Core/Src/main.c **** 
 323:Core/Src/main.c ****     /* USER CODE BEGIN 3 */
 324:Core/Src/main.c ****      lsm6dsm_reg_t reg;
 325:Core/Src/main.c **** 	    /* Read output only if new value is available */
 326:Core/Src/main.c **** 	    lsm6dsm_status_reg_get(&dev_ctx, &reg.status_reg);
 327:Core/Src/main.c **** 	    if (reg.status_reg.xlda) {
 328:Core/Src/main.c **** 	      /* Read acceleration field data */
 329:Core/Src/main.c **** 	      memset(data_raw_acceleration, 0x00, 3 * sizeof(int16_t));
 330:Core/Src/main.c **** 	      lsm6dsm_acceleration_raw_get(&dev_ctx, data_raw_acceleration);
 331:Core/Src/main.c **** 	      acceleration_mg[0] =
 332:Core/Src/main.c **** 	        lsm6dsm_from_fs2g_to_mg(data_raw_acceleration[0]) - acc_bias[0];
 333:Core/Src/main.c **** 	      acceleration_mg[1] =
 334:Core/Src/main.c **** 	        lsm6dsm_from_fs2g_to_mg(data_raw_acceleration[1]) - acc_bias[1];
 335:Core/Src/main.c **** 	      acceleration_mg[2] =
 336:Core/Src/main.c **** 	        lsm6dsm_from_fs2g_to_mg(data_raw_acceleration[2]) - acc_bias[2];
 337:Core/Src/main.c **** 	      // printf("Acceleration [mg]:%4.2f\t%4.2f\t%4.2f\r\n",
 338:Core/Src/main.c **** 	      //         acceleration_mg[0], acceleration_mg[1], acceleration_mg[2]);
 339:Core/Src/main.c ****         // printf("%4.2f,%4.2f,%4.2f,", acceleration_mg[0], acceleration_mg[1], acceleration_mg[2])
 340:Core/Src/main.c **** 	    }
 341:Core/Src/main.c **** 
 342:Core/Src/main.c **** 	    if (reg.status_reg.gda) {
 343:Core/Src/main.c **** 	      /* Read angular rate field data */
 344:Core/Src/main.c **** 	      memset(data_raw_angular_rate, 0x00, 3 * sizeof(int16_t));
 345:Core/Src/main.c **** 	      lsm6dsm_angular_rate_raw_get(&dev_ctx, data_raw_angular_rate);
 346:Core/Src/main.c **** 	      angular_rate_mdps[0] =
 347:Core/Src/main.c **** 	        lsm6dsm_from_fs2000dps_to_mdps(data_raw_angular_rate[0]) - gyro_bias[0];
 348:Core/Src/main.c **** 	      angular_rate_mdps[1] =
 349:Core/Src/main.c **** 	        lsm6dsm_from_fs2000dps_to_mdps(data_raw_angular_rate[1]) - gyro_bias[1];
 350:Core/Src/main.c **** 	      angular_rate_mdps[2] =
 351:Core/Src/main.c **** 	        lsm6dsm_from_fs2000dps_to_mdps(data_raw_angular_rate[2]) - gyro_bias[2];
 352:Core/Src/main.c **** 	      // printf("Angular rate [mdps]:%4.2f\t%4.2f\t%4.2f\r\n", angular_rate_mdps[0], angular_rate_
 353:Core/Src/main.c **** 	      // printf("%4.2f,%4.2f,%4.2f,", angular_rate_mdps[0], angular_rate_mdps[1], angular_rate_mdp
 354:Core/Src/main.c **** 	    }
 355:Core/Src/main.c **** 	    if (reg.status_reg.tda) {
 356:Core/Src/main.c **** 	      /* Read temperature data */
 357:Core/Src/main.c **** 	      memset(&data_raw_temperature, 0x00, sizeof(int16_t));
 358:Core/Src/main.c **** 	      lsm6dsm_temperature_raw_get(&dev_ctx, &data_raw_temperature);
 359:Core/Src/main.c **** 	      temperature_degC = lsm6dsm_from_lsb_to_celsius(
 360:Core/Src/main.c **** 	                           data_raw_temperature);
 361:Core/Src/main.c **** 	      // printf("Temperature [degC]:%6.2f\r\n",
 362:Core/Src/main.c **** 	      //         temperature_degC);
 363:Core/Src/main.c ****         // printf("%.2f,101.325\r\n", temperature_degC);
 364:Core/Src/main.c **** 	    }
 365:Core/Src/main.c ****       printf("%4.2f,%4.2f,%4.2f,%4.2f,%4.2f,%4.2f,%.2f,101.325\r\n", acceleration_mg[0], accelerati
 366:Core/Src/main.c **** 
 367:Core/Src/main.c ****       // uint8_t int_status;
 368:Core/Src/main.c ****       // struct bmp5_sensor_data bmp5_data;
 369:Core/Src/main.c ****       //   rslt = bmp5_get_interrupt_status(&int_status, &bmp5_ctx);
 370:Core/Src/main.c ****       //   bmp5_error_codes_print_result("bmp5_get_interrupt_status", rslt);
 371:Core/Src/main.c **** 
 372:Core/Src/main.c ****       //   if (int_status & BMP5_INT_ASSERTED_DRDY)
 373:Core/Src/main.c ****       //   {
ARM GAS  C:\Users\Nathan\AppData\Local\Temp\ccHbzc7Q.s 			page 8


 374:Core/Src/main.c ****       //       rslt = bmp5_get_sensor_data(&bmp5_data, &osr_odr_press_cfg, &bmp5_ctx);
 375:Core/Src/main.c ****       //       bmp5_error_codes_print_result("bmp5_get_sensor_data", rslt);
 376:Core/Src/main.c **** 
 377:Core/Src/main.c ****       //       if (rslt == BMP5_OK)
 378:Core/Src/main.c ****       //       {
 379:Core/Src/main.c ****       //           printf("%f\r\n", bmp5_data.pressure);
 380:Core/Src/main.c ****       //       }
 381:Core/Src/main.c ****       //   }
 382:Core/Src/main.c ****     //   llcc68_set_buffer_base_address(&radio_ctx, 0x00, 0x00);
 383:Core/Src/main.c ****     // llcc68_write_buffer(&radio_ctx, 0x00, (uint8_t*)"Hello World!\r\n", 14);
 384:Core/Src/main.c ****     // llcc68_set_lora_mod_params(&radio_ctx, &mod_params);
 385:Core/Src/main.c ****     // llcc68_set_lora_pkt_params(&radio_ctx, &pkt_params);
 386:Core/Src/main.c ****     // llcc68_set_dio_irq_params(&radio_ctx, LLCC68_IRQ_TX_DONE | LLCC68_IRQ_RX_DONE, LLCC68_IRQ_TX
 387:Core/Src/main.c **** 
 388:Core/Src/main.c ****     // llcc68_write_register(&radio_ctx, 0x06C0, (uint8_t)0x12, 1);
 389:Core/Src/main.c ****     // llcc68_write_register(&radio_ctx, 0x06C1, (uint8_t)0x23, 1);
 390:Core/Src/main.c ****     // llcc68_write_register(&radio_ctx, 0x06C2, (uint8_t)0x34, 1);
 391:Core/Src/main.c ****     // llcc68_write_register(&radio_ctx, 0x06C3, (uint8_t)0x45, 1);
 392:Core/Src/main.c ****     // llcc68_write_register(&radio_ctx, 0x06C4, (uint8_t)0x56, 1);
 393:Core/Src/main.c ****     // llcc68_write_register(&radio_ctx, 0x06C5, (uint8_t)0x67, 1);
 394:Core/Src/main.c ****     // llcc68_write_register(&radio_ctx, 0x06C6, (uint8_t)0x78, 1);
 395:Core/Src/main.c ****     // llcc68_write_register(&radio_ctx, 0x06C7, (uint8_t)0x89, 1);
 396:Core/Src/main.c **** 
 397:Core/Src/main.c ****     // llcc68_set_tx(&radio_ctx, 100);
 398:Core/Src/main.c ****     // platform_delay(100);
 399:Core/Src/main.c ****     // //  llcc68_set_standby(&radio_ctx, LLCC68_STANDBY_CFG_RC);
 400:Core/Src/main.c ****     //   llcc68_chip_status_t chip_status;
 401:Core/Src/main.c ****     //   llcc68_get_status(&radio_ctx, &chip_status);
 402:Core/Src/main.c ****     //   printf("Chip Mode: %d, Chip Status: %d\r\n", chip_status.chip_mode, chip_status.cmd_status
 403:Core/Src/main.c ****      ///print if busy or not with busy gpio pin
 404:Core/Src/main.c ****     //  HAL_GPIO_ReadPin(BUSY_GPIO_Port, BUSY_Pin) == GPIO_PIN_SET ? printf("Busy\r\n") : printf("N
 405:Core/Src/main.c ****       // platform_delay(100);
 406:Core/Src/main.c ****   }
 407:Core/Src/main.c ****   /* USER CODE END 3 */
 408:Core/Src/main.c **** }
 409:Core/Src/main.c **** 
 410:Core/Src/main.c **** /**
 411:Core/Src/main.c ****   * @brief System Clock Configuration
 412:Core/Src/main.c ****   * @retval None
 413:Core/Src/main.c ****   */
 414:Core/Src/main.c **** void SystemClock_Config(void)
 415:Core/Src/main.c **** {
 416:Core/Src/main.c ****   RCC_OscInitTypeDef RCC_OscInitStruct = {0};
 417:Core/Src/main.c ****   RCC_ClkInitTypeDef RCC_ClkInitStruct = {0};
 418:Core/Src/main.c **** 
 419:Core/Src/main.c ****   /** Configure the main internal regulator output voltage
 420:Core/Src/main.c ****   */
 421:Core/Src/main.c ****   __HAL_RCC_PWR_CLK_ENABLE();
 422:Core/Src/main.c ****   __HAL_PWR_VOLTAGESCALING_CONFIG(PWR_REGULATOR_VOLTAGE_SCALE1);
 423:Core/Src/main.c **** 
 424:Core/Src/main.c ****   /** Initializes the RCC Oscillators according to the specified parameters
 425:Core/Src/main.c ****   * in the RCC_OscInitTypeDef structure.
 426:Core/Src/main.c ****   */
 427:Core/Src/main.c ****   RCC_OscInitStruct.OscillatorType = RCC_OSCILLATORTYPE_HSI;
 428:Core/Src/main.c ****   RCC_OscInitStruct.HSIState = RCC_HSI_ON;
 429:Core/Src/main.c ****   RCC_OscInitStruct.HSICalibrationValue = RCC_HSICALIBRATION_DEFAULT;
 430:Core/Src/main.c ****   RCC_OscInitStruct.PLL.PLLState = RCC_PLL_ON;
ARM GAS  C:\Users\Nathan\AppData\Local\Temp\ccHbzc7Q.s 			page 9


 431:Core/Src/main.c ****   RCC_OscInitStruct.PLL.PLLSource = RCC_PLLSOURCE_HSI;
 432:Core/Src/main.c ****   RCC_OscInitStruct.PLL.PLLM = 16;
 433:Core/Src/main.c ****   RCC_OscInitStruct.PLL.PLLN = 192;
 434:Core/Src/main.c ****   RCC_OscInitStruct.PLL.PLLP = RCC_PLLP_DIV2;
 435:Core/Src/main.c ****   RCC_OscInitStruct.PLL.PLLQ = 4;
 436:Core/Src/main.c ****   if (HAL_RCC_OscConfig(&RCC_OscInitStruct) != HAL_OK)
 437:Core/Src/main.c ****   {
 438:Core/Src/main.c ****     Error_Handler();
 439:Core/Src/main.c ****   }
 440:Core/Src/main.c **** 
 441:Core/Src/main.c ****   /** Initializes the CPU, AHB and APB buses clocks
 442:Core/Src/main.c ****   */
 443:Core/Src/main.c ****   RCC_ClkInitStruct.ClockType = RCC_CLOCKTYPE_HCLK|RCC_CLOCKTYPE_SYSCLK
 444:Core/Src/main.c ****                               |RCC_CLOCKTYPE_PCLK1|RCC_CLOCKTYPE_PCLK2;
 445:Core/Src/main.c ****   RCC_ClkInitStruct.SYSCLKSource = RCC_SYSCLKSOURCE_HSI;
 446:Core/Src/main.c ****   RCC_ClkInitStruct.AHBCLKDivider = RCC_SYSCLK_DIV1;
 447:Core/Src/main.c ****   RCC_ClkInitStruct.APB1CLKDivider = RCC_HCLK_DIV1;
 448:Core/Src/main.c ****   RCC_ClkInitStruct.APB2CLKDivider = RCC_HCLK_DIV1;
 449:Core/Src/main.c **** 
 450:Core/Src/main.c ****   if (HAL_RCC_ClockConfig(&RCC_ClkInitStruct, FLASH_LATENCY_0) != HAL_OK)
 451:Core/Src/main.c ****   {
 452:Core/Src/main.c ****     Error_Handler();
 453:Core/Src/main.c ****   }
 454:Core/Src/main.c **** }
 455:Core/Src/main.c **** 
 456:Core/Src/main.c **** /**
 457:Core/Src/main.c ****   * @brief I2C1 Initialization Function
 458:Core/Src/main.c ****   * @param None
 459:Core/Src/main.c ****   * @retval None
 460:Core/Src/main.c ****   */
 461:Core/Src/main.c **** static void MX_I2C1_Init(void)
 462:Core/Src/main.c **** {
 463:Core/Src/main.c **** 
 464:Core/Src/main.c ****   /* USER CODE BEGIN I2C1_Init 0 */
 465:Core/Src/main.c **** 
 466:Core/Src/main.c ****   /* USER CODE END I2C1_Init 0 */
 467:Core/Src/main.c **** 
 468:Core/Src/main.c ****   /* USER CODE BEGIN I2C1_Init 1 */
 469:Core/Src/main.c **** 
 470:Core/Src/main.c ****   /* USER CODE END I2C1_Init 1 */
 471:Core/Src/main.c ****   hi2c1.Instance = I2C1;
 472:Core/Src/main.c ****   hi2c1.Init.ClockSpeed = 100000;
 473:Core/Src/main.c ****   hi2c1.Init.DutyCycle = I2C_DUTYCYCLE_2;
 474:Core/Src/main.c ****   hi2c1.Init.OwnAddress1 = 130;
 475:Core/Src/main.c ****   hi2c1.Init.AddressingMode = I2C_ADDRESSINGMODE_7BIT;
 476:Core/Src/main.c ****   hi2c1.Init.DualAddressMode = I2C_DUALADDRESS_DISABLE;
 477:Core/Src/main.c ****   hi2c1.Init.OwnAddress2 = 0;
 478:Core/Src/main.c ****   hi2c1.Init.GeneralCallMode = I2C_GENERALCALL_DISABLE;
 479:Core/Src/main.c ****   hi2c1.Init.NoStretchMode = I2C_NOSTRETCH_DISABLE;
 480:Core/Src/main.c ****   if (HAL_I2C_Init(&hi2c1) != HAL_OK)
 481:Core/Src/main.c ****   {
 482:Core/Src/main.c ****     Error_Handler();
 483:Core/Src/main.c ****   }
 484:Core/Src/main.c ****   /* USER CODE BEGIN I2C1_Init 2 */
 485:Core/Src/main.c ****     if (HAL_I2C_IsDeviceReady(&hi2c1, 0x41 << 1, 2, 1000) != HAL_OK) {
 486:Core/Src/main.c ****       HAL_UART_Transmit(&huart1, (uint8_t*)"Temperature not ready\r\n", 32, 1000);
 487:Core/Src/main.c ****     } else {
ARM GAS  C:\Users\Nathan\AppData\Local\Temp\ccHbzc7Q.s 			page 10


 488:Core/Src/main.c ****       HAL_I2C_Mem_Write(&hi2c1, 0x41 << 1, 0x04, 1, (uint8_t*)0x00, 1, 1000);
 489:Core/Src/main.c ****     }
 490:Core/Src/main.c ****   /* USER CODE END I2C1_Init 2 */
 491:Core/Src/main.c **** 
 492:Core/Src/main.c **** }
 493:Core/Src/main.c **** 
 494:Core/Src/main.c **** /**
 495:Core/Src/main.c ****   * @brief SDIO Initialization Function
 496:Core/Src/main.c ****   * @param None
 497:Core/Src/main.c ****   * @retval None
 498:Core/Src/main.c ****   */
 499:Core/Src/main.c **** static void MX_SDIO_SD_Init(void)
 500:Core/Src/main.c **** {
  28              		.loc 1 500 1 view -0
  29              		.cfi_startproc
  30              		@ args = 0, pretend = 0, frame = 0
  31              		@ frame_needed = 0, uses_anonymous_args = 0
  32              		@ link register save eliminated.
 501:Core/Src/main.c **** 
 502:Core/Src/main.c ****   /* USER CODE BEGIN SDIO_Init 0 */
 503:Core/Src/main.c **** 
 504:Core/Src/main.c ****   /* USER CODE END SDIO_Init 0 */
 505:Core/Src/main.c **** 
 506:Core/Src/main.c ****   /* USER CODE BEGIN SDIO_Init 1 */
 507:Core/Src/main.c **** 
 508:Core/Src/main.c ****   /* USER CODE END SDIO_Init 1 */
 509:Core/Src/main.c ****   hsd.Instance = SDIO;
  33              		.loc 1 509 3 view .LVU1
  34              		.loc 1 509 16 is_stmt 0 view .LVU2
  35 0000 054B     		ldr	r3, .L2
  36 0002 064A     		ldr	r2, .L2+4
  37 0004 1A60     		str	r2, [r3]
 510:Core/Src/main.c ****   hsd.Init.ClockEdge = SDIO_CLOCK_EDGE_RISING;
  38              		.loc 1 510 3 is_stmt 1 view .LVU3
  39              		.loc 1 510 22 is_stmt 0 view .LVU4
  40 0006 0022     		movs	r2, #0
  41 0008 5A60     		str	r2, [r3, #4]
 511:Core/Src/main.c ****   hsd.Init.ClockBypass = SDIO_CLOCK_BYPASS_DISABLE;
  42              		.loc 1 511 3 is_stmt 1 view .LVU5
  43              		.loc 1 511 24 is_stmt 0 view .LVU6
  44 000a 9A60     		str	r2, [r3, #8]
 512:Core/Src/main.c ****   hsd.Init.ClockPowerSave = SDIO_CLOCK_POWER_SAVE_DISABLE;
  45              		.loc 1 512 3 is_stmt 1 view .LVU7
  46              		.loc 1 512 27 is_stmt 0 view .LVU8
  47 000c DA60     		str	r2, [r3, #12]
 513:Core/Src/main.c ****   hsd.Init.BusWide = SDIO_BUS_WIDE_1B;
  48              		.loc 1 513 3 is_stmt 1 view .LVU9
  49              		.loc 1 513 20 is_stmt 0 view .LVU10
  50 000e 1A61     		str	r2, [r3, #16]
 514:Core/Src/main.c ****   hsd.Init.HardwareFlowControl = SDIO_HARDWARE_FLOW_CONTROL_DISABLE;
  51              		.loc 1 514 3 is_stmt 1 view .LVU11
  52              		.loc 1 514 32 is_stmt 0 view .LVU12
  53 0010 5A61     		str	r2, [r3, #20]
 515:Core/Src/main.c ****   hsd.Init.ClockDiv = 0;
  54              		.loc 1 515 3 is_stmt 1 view .LVU13
  55              		.loc 1 515 21 is_stmt 0 view .LVU14
  56 0012 9A61     		str	r2, [r3, #24]
ARM GAS  C:\Users\Nathan\AppData\Local\Temp\ccHbzc7Q.s 			page 11


 516:Core/Src/main.c ****   /* USER CODE BEGIN SDIO_Init 2 */
 517:Core/Src/main.c **** 
 518:Core/Src/main.c ****   /* USER CODE END SDIO_Init 2 */
 519:Core/Src/main.c **** 
 520:Core/Src/main.c **** }
  57              		.loc 1 520 1 view .LVU15
  58 0014 7047     		bx	lr
  59              	.L3:
  60 0016 00BF     		.align	2
  61              	.L2:
  62 0018 00000000 		.word	hsd
  63 001c 002C0140 		.word	1073818624
  64              		.cfi_endproc
  65              	.LFE137:
  67              		.section	.text.llcc68_platform_reset,"ax",%progbits
  68              		.align	1
  69              		.syntax unified
  70              		.thumb
  71              		.thumb_func
  73              	llcc68_platform_reset:
  74              	.LVL0:
  75              	.LFB145:
 521:Core/Src/main.c **** 
 522:Core/Src/main.c **** /**
 523:Core/Src/main.c ****   * @brief SPI1 Initialization Function
 524:Core/Src/main.c ****   * @param None
 525:Core/Src/main.c ****   * @retval None
 526:Core/Src/main.c ****   */
 527:Core/Src/main.c **** static void MX_SPI1_Init(void)
 528:Core/Src/main.c **** {
 529:Core/Src/main.c **** 
 530:Core/Src/main.c ****   /* USER CODE BEGIN SPI1_Init 0 */
 531:Core/Src/main.c **** 
 532:Core/Src/main.c ****   /* USER CODE END SPI1_Init 0 */
 533:Core/Src/main.c **** 
 534:Core/Src/main.c ****   /* USER CODE BEGIN SPI1_Init 1 */
 535:Core/Src/main.c **** 
 536:Core/Src/main.c ****   /* USER CODE END SPI1_Init 1 */
 537:Core/Src/main.c ****   /* SPI1 parameter configuration*/
 538:Core/Src/main.c ****   hspi1.Instance = SPI1;
 539:Core/Src/main.c ****   hspi1.Init.Mode = SPI_MODE_MASTER;
 540:Core/Src/main.c ****   hspi1.Init.Direction = SPI_DIRECTION_2LINES;
 541:Core/Src/main.c ****   hspi1.Init.DataSize = SPI_DATASIZE_8BIT;
 542:Core/Src/main.c ****   hspi1.Init.CLKPolarity = SPI_POLARITY_LOW;
 543:Core/Src/main.c ****   hspi1.Init.CLKPhase = SPI_PHASE_1EDGE;
 544:Core/Src/main.c ****   hspi1.Init.NSS = SPI_NSS_SOFT;
 545:Core/Src/main.c ****   hspi1.Init.BaudRatePrescaler = SPI_BAUDRATEPRESCALER_2;
 546:Core/Src/main.c ****   hspi1.Init.FirstBit = SPI_FIRSTBIT_MSB;
 547:Core/Src/main.c ****   hspi1.Init.TIMode = SPI_TIMODE_DISABLE;
 548:Core/Src/main.c ****   hspi1.Init.CRCCalculation = SPI_CRCCALCULATION_DISABLE;
 549:Core/Src/main.c ****   hspi1.Init.CRCPolynomial = 10;
 550:Core/Src/main.c ****   if (HAL_SPI_Init(&hspi1) != HAL_OK)
 551:Core/Src/main.c ****   {
 552:Core/Src/main.c ****     Error_Handler();
 553:Core/Src/main.c ****   }
 554:Core/Src/main.c ****   /* USER CODE BEGIN SPI1_Init 2 */
 555:Core/Src/main.c **** 
ARM GAS  C:\Users\Nathan\AppData\Local\Temp\ccHbzc7Q.s 			page 12


 556:Core/Src/main.c ****   /* USER CODE END SPI1_Init 2 */
 557:Core/Src/main.c **** 
 558:Core/Src/main.c **** }
 559:Core/Src/main.c **** 
 560:Core/Src/main.c **** /**
 561:Core/Src/main.c ****   * @brief USART1 Initialization Function
 562:Core/Src/main.c ****   * @param None
 563:Core/Src/main.c ****   * @retval None
 564:Core/Src/main.c ****   */
 565:Core/Src/main.c **** static void MX_USART1_UART_Init(void)
 566:Core/Src/main.c **** {
 567:Core/Src/main.c **** 
 568:Core/Src/main.c ****   /* USER CODE BEGIN USART1_Init 0 */
 569:Core/Src/main.c **** 
 570:Core/Src/main.c ****   /* USER CODE END USART1_Init 0 */
 571:Core/Src/main.c **** 
 572:Core/Src/main.c ****   /* USER CODE BEGIN USART1_Init 1 */
 573:Core/Src/main.c **** 
 574:Core/Src/main.c ****   /* USER CODE END USART1_Init 1 */
 575:Core/Src/main.c ****   huart1.Instance = USART1;
 576:Core/Src/main.c ****   huart1.Init.BaudRate = 115200;
 577:Core/Src/main.c ****   huart1.Init.WordLength = UART_WORDLENGTH_8B;
 578:Core/Src/main.c ****   huart1.Init.StopBits = UART_STOPBITS_1;
 579:Core/Src/main.c ****   huart1.Init.Parity = UART_PARITY_NONE;
 580:Core/Src/main.c ****   huart1.Init.Mode = UART_MODE_TX_RX;
 581:Core/Src/main.c ****   huart1.Init.HwFlowCtl = UART_HWCONTROL_NONE;
 582:Core/Src/main.c ****   huart1.Init.OverSampling = UART_OVERSAMPLING_16;
 583:Core/Src/main.c ****   if (HAL_UART_Init(&huart1) != HAL_OK)
 584:Core/Src/main.c ****   {
 585:Core/Src/main.c ****     Error_Handler();
 586:Core/Src/main.c ****   }
 587:Core/Src/main.c ****   /* USER CODE BEGIN USART1_Init 2 */
 588:Core/Src/main.c **** 
 589:Core/Src/main.c ****   /* USER CODE END USART1_Init 2 */
 590:Core/Src/main.c **** 
 591:Core/Src/main.c **** }
 592:Core/Src/main.c **** 
 593:Core/Src/main.c **** /**
 594:Core/Src/main.c ****   * @brief GPIO Initialization Function
 595:Core/Src/main.c ****   * @param None
 596:Core/Src/main.c ****   * @retval None
 597:Core/Src/main.c ****   */
 598:Core/Src/main.c **** static void MX_GPIO_Init(void)
 599:Core/Src/main.c **** {
 600:Core/Src/main.c ****   GPIO_InitTypeDef GPIO_InitStruct = {0};
 601:Core/Src/main.c **** /* USER CODE BEGIN MX_GPIO_Init_1 */
 602:Core/Src/main.c **** /* USER CODE END MX_GPIO_Init_1 */
 603:Core/Src/main.c **** 
 604:Core/Src/main.c ****   /* GPIO Ports Clock Enable */
 605:Core/Src/main.c ****   __HAL_RCC_GPIOH_CLK_ENABLE();
 606:Core/Src/main.c ****   __HAL_RCC_GPIOC_CLK_ENABLE();
 607:Core/Src/main.c ****   __HAL_RCC_GPIOA_CLK_ENABLE();
 608:Core/Src/main.c ****   __HAL_RCC_GPIOD_CLK_ENABLE();
 609:Core/Src/main.c ****   __HAL_RCC_GPIOB_CLK_ENABLE();
 610:Core/Src/main.c **** 
 611:Core/Src/main.c ****   /*Configure GPIO pin Output Level */
 612:Core/Src/main.c ****   HAL_GPIO_WritePin(GPIOC, PARACHUTE_Pin|MOTOR_X_Pin|MOTOR_Y_Pin|RF_RESET_Pin, GPIO_PIN_RESET);
ARM GAS  C:\Users\Nathan\AppData\Local\Temp\ccHbzc7Q.s 			page 13


 613:Core/Src/main.c **** 
 614:Core/Src/main.c ****   /*Configure GPIO pin Output Level */
 615:Core/Src/main.c ****   HAL_GPIO_WritePin(GPIOA, CS_PRESSURE_Pin|CS_GYRO_Pin|CS_WIRELESS_Pin, GPIO_PIN_RESET);
 616:Core/Src/main.c **** 
 617:Core/Src/main.c ****   /*Configure GPIO pins : PARACHUTE_Pin MOTOR_X_Pin MOTOR_Y_Pin RF_RESET_Pin */
 618:Core/Src/main.c ****   GPIO_InitStruct.Pin = PARACHUTE_Pin|MOTOR_X_Pin|MOTOR_Y_Pin|RF_RESET_Pin;
 619:Core/Src/main.c ****   GPIO_InitStruct.Mode = GPIO_MODE_OUTPUT_PP;
 620:Core/Src/main.c ****   GPIO_InitStruct.Pull = GPIO_NOPULL;
 621:Core/Src/main.c ****   GPIO_InitStruct.Speed = GPIO_SPEED_FREQ_LOW;
 622:Core/Src/main.c ****   HAL_GPIO_Init(GPIOC, &GPIO_InitStruct);
 623:Core/Src/main.c **** 
 624:Core/Src/main.c ****   /*Configure GPIO pins : IMU_INT_Pin PRESSURE_INT_Pin */
 625:Core/Src/main.c ****   GPIO_InitStruct.Pin = IMU_INT_Pin|PRESSURE_INT_Pin;
 626:Core/Src/main.c ****   GPIO_InitStruct.Mode = GPIO_MODE_AF_PP;
 627:Core/Src/main.c ****   GPIO_InitStruct.Pull = GPIO_NOPULL;
 628:Core/Src/main.c ****   GPIO_InitStruct.Speed = GPIO_SPEED_FREQ_LOW;
 629:Core/Src/main.c ****   GPIO_InitStruct.Alternate = GPIO_AF15_EVENTOUT;
 630:Core/Src/main.c ****   HAL_GPIO_Init(GPIOC, &GPIO_InitStruct);
 631:Core/Src/main.c **** 
 632:Core/Src/main.c ****   /*Configure GPIO pin : SD_CD_Pin */
 633:Core/Src/main.c ****   GPIO_InitStruct.Pin = SD_CD_Pin;
 634:Core/Src/main.c ****   GPIO_InitStruct.Mode = GPIO_MODE_INPUT;
 635:Core/Src/main.c ****   GPIO_InitStruct.Pull = GPIO_NOPULL;
 636:Core/Src/main.c ****   HAL_GPIO_Init(SD_CD_GPIO_Port, &GPIO_InitStruct);
 637:Core/Src/main.c **** 
 638:Core/Src/main.c ****   /*Configure GPIO pins : CS_PRESSURE_Pin CS_GYRO_Pin CS_WIRELESS_Pin */
 639:Core/Src/main.c ****   GPIO_InitStruct.Pin = CS_PRESSURE_Pin|CS_GYRO_Pin|CS_WIRELESS_Pin;
 640:Core/Src/main.c ****   GPIO_InitStruct.Mode = GPIO_MODE_OUTPUT_PP;
 641:Core/Src/main.c ****   GPIO_InitStruct.Pull = GPIO_NOPULL;
 642:Core/Src/main.c ****   GPIO_InitStruct.Speed = GPIO_SPEED_FREQ_LOW;
 643:Core/Src/main.c ****   HAL_GPIO_Init(GPIOA, &GPIO_InitStruct);
 644:Core/Src/main.c **** 
 645:Core/Src/main.c ****   /*Configure GPIO pin : BUSY_Pin */
 646:Core/Src/main.c ****   GPIO_InitStruct.Pin = BUSY_Pin;
 647:Core/Src/main.c ****   GPIO_InitStruct.Mode = GPIO_MODE_INPUT;
 648:Core/Src/main.c ****   GPIO_InitStruct.Pull = GPIO_NOPULL;
 649:Core/Src/main.c ****   HAL_GPIO_Init(BUSY_GPIO_Port, &GPIO_InitStruct);
 650:Core/Src/main.c **** 
 651:Core/Src/main.c ****   /*Configure GPIO pin : ANTENNA_IRQ_Pin */
 652:Core/Src/main.c ****   GPIO_InitStruct.Pin = ANTENNA_IRQ_Pin;
 653:Core/Src/main.c ****   GPIO_InitStruct.Mode = GPIO_MODE_IT_RISING;
 654:Core/Src/main.c ****   GPIO_InitStruct.Pull = GPIO_NOPULL;
 655:Core/Src/main.c ****   HAL_GPIO_Init(ANTENNA_IRQ_GPIO_Port, &GPIO_InitStruct);
 656:Core/Src/main.c **** 
 657:Core/Src/main.c **** /* USER CODE BEGIN MX_GPIO_Init_2 */
 658:Core/Src/main.c **** /* USER CODE END MX_GPIO_Init_2 */
 659:Core/Src/main.c **** }
 660:Core/Src/main.c **** 
 661:Core/Src/main.c **** /* USER CODE BEGIN 4 */
 662:Core/Src/main.c **** 
 663:Core/Src/main.c **** int _write(int fd, char* ptr, int len) {
 664:Core/Src/main.c **** 	HAL_UART_Transmit(&huart1, (uint8_t*) ptr, len, 0xffffff);
 665:Core/Src/main.c **** 	return len;
 666:Core/Src/main.c **** }
 667:Core/Src/main.c **** 
 668:Core/Src/main.c **** 
 669:Core/Src/main.c **** void HAL_GPIO_EXTI_Callback(uint16_t GPIO_Pin)
ARM GAS  C:\Users\Nathan\AppData\Local\Temp\ccHbzc7Q.s 			page 14


 670:Core/Src/main.c **** {
 671:Core/Src/main.c ****   if(GPIO_Pin == ANTENNA_IRQ_Pin) {
 672:Core/Src/main.c ****     printf("IRQ HANDLEDDD FORM THE ANTENAAAAAAA");
 673:Core/Src/main.c ****   } else {
 674:Core/Src/main.c ****       __NOP();
 675:Core/Src/main.c ****   }
 676:Core/Src/main.c **** }
 677:Core/Src/main.c **** 
 678:Core/Src/main.c **** 
 679:Core/Src/main.c **** /*
 680:Core/Src/main.c ****  * @brief  Write generic device register (platform dependent)
 681:Core/Src/main.c ****  *
 682:Core/Src/main.c ****  * @param  handle    customizable argument. In this examples is used in
 683:Core/Src/main.c ****  *                   order to select the correct sensor bus handler.
 684:Core/Src/main.c ****  * @param  reg       register to write
 685:Core/Src/main.c ****  * @param  bufp      pointer to data to write in register reg
 686:Core/Src/main.c ****  * @param  len       number of consecutive register to write
 687:Core/Src/main.c ****  *
 688:Core/Src/main.c ****  */
 689:Core/Src/main.c **** static int32_t lsm6dsm_platform_write(void *handle, uint8_t reg, const uint8_t *bufp,
 690:Core/Src/main.c ****                               uint16_t len)
 691:Core/Src/main.c **** {
 692:Core/Src/main.c **** 	  HAL_GPIO_WritePin(CS_GYRO_GPIO_Port, CS_GYRO_Pin, GPIO_PIN_RESET);
 693:Core/Src/main.c **** 	  HAL_SPI_Transmit(handle, &reg, 1, 1000);
 694:Core/Src/main.c **** 	  HAL_SPI_Transmit(handle, (uint8_t*) bufp, len, 1000);
 695:Core/Src/main.c **** 	  HAL_GPIO_WritePin(CS_GYRO_GPIO_Port, CS_GYRO_Pin, GPIO_PIN_SET);
 696:Core/Src/main.c ****   return 0;
 697:Core/Src/main.c **** }
 698:Core/Src/main.c **** 
 699:Core/Src/main.c **** /*
 700:Core/Src/main.c ****  * @brief  Read generic device register (platform dependent)
 701:Core/Src/main.c ****  *
 702:Core/Src/main.c ****  * @param  handle    customizable argument. In this examples is used in
 703:Core/Src/main.c ****  *                   order to select the correct sensor bus handler.
 704:Core/Src/main.c ****  * @param  reg       register to read
 705:Core/Src/main.c ****  * @param  bufp      pointer to buffer that store the data read
 706:Core/Src/main.c ****  * @param  len       number of consecutive register to read
 707:Core/Src/main.c ****  *
 708:Core/Src/main.c ****  */
 709:Core/Src/main.c **** static int32_t lsm6dsm_platform_read(void *handle, uint8_t reg, uint8_t *bufp,
 710:Core/Src/main.c ****                              uint16_t len)
 711:Core/Src/main.c **** {
 712:Core/Src/main.c **** 	  reg |= 0x80;
 713:Core/Src/main.c **** 	  HAL_GPIO_WritePin(CS_GYRO_GPIO_Port, CS_GYRO_Pin, GPIO_PIN_RESET);
 714:Core/Src/main.c **** 	  HAL_SPI_Transmit(handle, &reg, 1, 1000);
 715:Core/Src/main.c **** 	  HAL_SPI_Receive(handle, bufp, len, 1000);
 716:Core/Src/main.c **** 	  HAL_GPIO_WritePin(CS_GYRO_GPIO_Port, CS_GYRO_Pin, GPIO_PIN_SET);
 717:Core/Src/main.c ****   return 0;
 718:Core/Src/main.c **** }
 719:Core/Src/main.c **** 
 720:Core/Src/main.c **** static int32_t llcc68_platform_reset(void *handle) {
  76              		.loc 1 720 52 is_stmt 1 view -0
  77              		.cfi_startproc
  78              		@ args = 0, pretend = 0, frame = 0
  79              		@ frame_needed = 0, uses_anonymous_args = 0
  80              		.loc 1 720 52 is_stmt 0 view .LVU17
  81 0000 10B5     		push	{r4, lr}
ARM GAS  C:\Users\Nathan\AppData\Local\Temp\ccHbzc7Q.s 			page 15


  82              		.cfi_def_cfa_offset 8
  83              		.cfi_offset 4, -8
  84              		.cfi_offset 14, -4
 721:Core/Src/main.c ****   HAL_GPIO_WritePin(RF_RESET_GPIO_Port, RF_RESET_Pin, GPIO_PIN_RESET);
  85              		.loc 1 721 3 is_stmt 1 view .LVU18
  86 0002 094C     		ldr	r4, .L6
  87 0004 0022     		movs	r2, #0
  88 0006 8021     		movs	r1, #128
  89 0008 2046     		mov	r0, r4
  90              	.LVL1:
  91              		.loc 1 721 3 is_stmt 0 view .LVU19
  92 000a FFF7FEFF 		bl	HAL_GPIO_WritePin
  93              	.LVL2:
 722:Core/Src/main.c ****   HAL_Delay(1);
  94              		.loc 1 722 3 is_stmt 1 view .LVU20
  95 000e 0120     		movs	r0, #1
  96 0010 FFF7FEFF 		bl	HAL_Delay
  97              	.LVL3:
 723:Core/Src/main.c ****   HAL_GPIO_WritePin(RF_RESET_GPIO_Port, RF_RESET_Pin, GPIO_PIN_SET);
  98              		.loc 1 723 3 view .LVU21
  99 0014 0122     		movs	r2, #1
 100 0016 8021     		movs	r1, #128
 101 0018 2046     		mov	r0, r4
 102 001a FFF7FEFF 		bl	HAL_GPIO_WritePin
 103              	.LVL4:
 724:Core/Src/main.c ****   HAL_Delay(1);
 104              		.loc 1 724 3 view .LVU22
 105 001e 0120     		movs	r0, #1
 106 0020 FFF7FEFF 		bl	HAL_Delay
 107              	.LVL5:
 725:Core/Src/main.c ****   return 0;
 108              		.loc 1 725 3 view .LVU23
 726:Core/Src/main.c **** }
 109              		.loc 1 726 1 is_stmt 0 view .LVU24
 110 0024 0020     		movs	r0, #0
 111 0026 10BD     		pop	{r4, pc}
 112              	.L7:
 113              		.align	2
 114              	.L6:
 115 0028 00080240 		.word	1073874944
 116              		.cfi_endproc
 117              	.LFE145:
 119              		.section	.text.platform_delay,"ax",%progbits
 120              		.align	1
 121              		.syntax unified
 122              		.thumb
 123              		.thumb_func
 125              	platform_delay:
 126              	.LVL6:
 127              	.LFB150:
 727:Core/Src/main.c **** 
 728:Core/Src/main.c **** static int32_t bmp5_read(uint8_t reg_addr, uint8_t * reg_data, uint32_t len, void *intf_ptr) {
 729:Core/Src/main.c ****   HAL_GPIO_WritePin(CS_PRESSURE_GPIO_Port, CS_PRESSURE_Pin, GPIO_PIN_RESET);
 730:Core/Src/main.c ****   HAL_SPI_Transmit(&hspi1, &reg_addr, 1, 1000);
 731:Core/Src/main.c **** 	  HAL_SPI_Receive(&hspi1, reg_data, len, 1000);
 732:Core/Src/main.c **** 	  HAL_GPIO_WritePin(CS_PRESSURE_GPIO_Port, CS_PRESSURE_Pin, GPIO_PIN_SET);
 733:Core/Src/main.c ****   return 0;
ARM GAS  C:\Users\Nathan\AppData\Local\Temp\ccHbzc7Q.s 			page 16


 734:Core/Src/main.c **** }
 735:Core/Src/main.c **** 
 736:Core/Src/main.c **** static int32_t bmp5_write(uint8_t reg_addr,
 737:Core/Src/main.c ****   const uint8_t * reg_data, uint32_t len, void *intf_ptr) {
 738:Core/Src/main.c ****   HAL_GPIO_WritePin(CS_PRESSURE_GPIO_Port, CS_PRESSURE_Pin, GPIO_PIN_RESET);
 739:Core/Src/main.c ****   HAL_SPI_Transmit(&hspi1, &reg_addr, 1, 1000);
 740:Core/Src/main.c **** 	HAL_SPI_Transmit(&hspi1, (uint8_t*) reg_data, len, 1000);
 741:Core/Src/main.c ****   HAL_GPIO_WritePin(CS_PRESSURE_GPIO_Port, CS_PRESSURE_Pin, GPIO_PIN_SET);
 742:Core/Src/main.c ****   return 0;
 743:Core/Src/main.c **** }
 744:Core/Src/main.c **** 
 745:Core/Src/main.c **** /*!
 746:Core/Src/main.c ****  *  @brief Prints the execution status of the APIs.
 747:Core/Src/main.c ****  */
 748:Core/Src/main.c **** void bmp5_error_codes_print_result(const char api_name[], int8_t rslt)
 749:Core/Src/main.c **** {
 750:Core/Src/main.c ****     if (rslt != BMP5_OK)
 751:Core/Src/main.c ****     {
 752:Core/Src/main.c ****         printf("%s\t", api_name);
 753:Core/Src/main.c ****         if (rslt == BMP5_E_NULL_PTR)
 754:Core/Src/main.c ****         {
 755:Core/Src/main.c ****             printf("Error [%d] : Null pointer\r\n", rslt);
 756:Core/Src/main.c ****         }
 757:Core/Src/main.c ****         else if (rslt == BMP5_E_COM_FAIL)
 758:Core/Src/main.c ****         {
 759:Core/Src/main.c ****             printf("Error [%d] : Communication failure\r\n", rslt);
 760:Core/Src/main.c ****         }
 761:Core/Src/main.c ****         else if (rslt == BMP5_E_DEV_NOT_FOUND)
 762:Core/Src/main.c ****         {
 763:Core/Src/main.c ****             printf("Error [%d] : Device not found\r\n", rslt);
 764:Core/Src/main.c ****         }
 765:Core/Src/main.c ****         else if (rslt == BMP5_E_INVALID_CHIP_ID)
 766:Core/Src/main.c ****         {
 767:Core/Src/main.c ****             printf("Error [%d] : Invalid chip id\r\n", rslt);
 768:Core/Src/main.c ****         }
 769:Core/Src/main.c ****         else if (rslt == BMP5_E_POWER_UP)
 770:Core/Src/main.c ****         {
 771:Core/Src/main.c ****             printf("Error [%d] : Power up error\r\n", rslt);
 772:Core/Src/main.c ****         }
 773:Core/Src/main.c ****         else if (rslt == BMP5_E_POR_SOFTRESET)
 774:Core/Src/main.c ****         {
 775:Core/Src/main.c ****             printf("Error [%d] : Power-on reset/softreset failure\r\n", rslt);
 776:Core/Src/main.c ****         }
 777:Core/Src/main.c ****         else if (rslt == BMP5_E_INVALID_POWERMODE)
 778:Core/Src/main.c ****         {
 779:Core/Src/main.c ****             printf("Error [%d] : Invalid powermode\r\n", rslt);
 780:Core/Src/main.c ****         }
 781:Core/Src/main.c ****         else
 782:Core/Src/main.c ****         {
 783:Core/Src/main.c ****             /* For more error codes refer "*_defs.h" */
 784:Core/Src/main.c ****             printf("Error [%d] : Unknown error code\r\n", rslt);
 785:Core/Src/main.c ****         }
 786:Core/Src/main.c ****     }
 787:Core/Src/main.c **** }
 788:Core/Src/main.c **** static int8_t bmp5_set_config(struct bmp5_osr_odr_press_config *osr_odr_press_cfg, struct bmp5_dev 
 789:Core/Src/main.c **** {
 790:Core/Src/main.c ****     int8_t rslt;
ARM GAS  C:\Users\Nathan\AppData\Local\Temp\ccHbzc7Q.s 			page 17


 791:Core/Src/main.c ****     struct bmp5_iir_config set_iir_cfg;
 792:Core/Src/main.c ****     struct bmp5_int_source_select int_source_select;
 793:Core/Src/main.c **** 
 794:Core/Src/main.c ****     rslt = bmp5_set_power_mode(BMP5_POWERMODE_STANDBY, dev);
 795:Core/Src/main.c ****     bmp5_error_codes_print_result("bmp5_set_power_mode1", rslt);
 796:Core/Src/main.c **** 
 797:Core/Src/main.c ****     if (rslt == BMP5_OK)
 798:Core/Src/main.c ****     {
 799:Core/Src/main.c ****         /* Get default odr */
 800:Core/Src/main.c ****         rslt = bmp5_get_osr_odr_press_config(osr_odr_press_cfg, dev);
 801:Core/Src/main.c ****         bmp5_error_codes_print_result("bmp5_get_osr_odr_press_config", rslt);
 802:Core/Src/main.c **** 
 803:Core/Src/main.c ****         if (rslt == BMP5_OK)
 804:Core/Src/main.c ****         {
 805:Core/Src/main.c ****             /* Set ODR as 50Hz */
 806:Core/Src/main.c ****             osr_odr_press_cfg->odr = BMP5_ODR_50_HZ;
 807:Core/Src/main.c **** 
 808:Core/Src/main.c ****             /* Enable pressure */
 809:Core/Src/main.c ****             osr_odr_press_cfg->press_en = BMP5_ENABLE;
 810:Core/Src/main.c **** 
 811:Core/Src/main.c ****             /* Set Over-sampling rate with respect to odr */
 812:Core/Src/main.c ****             osr_odr_press_cfg->osr_t = BMP5_OVERSAMPLING_64X;
 813:Core/Src/main.c ****             osr_odr_press_cfg->osr_p = BMP5_OVERSAMPLING_4X;
 814:Core/Src/main.c **** 
 815:Core/Src/main.c ****             rslt = bmp5_set_osr_odr_press_config(osr_odr_press_cfg, dev);
 816:Core/Src/main.c ****             bmp5_error_codes_print_result("bmp5_set_osr_odr_press_config", rslt);
 817:Core/Src/main.c ****         }
 818:Core/Src/main.c **** 
 819:Core/Src/main.c ****         if (rslt == BMP5_OK)
 820:Core/Src/main.c ****         {
 821:Core/Src/main.c ****             set_iir_cfg.set_iir_t = BMP5_IIR_FILTER_COEFF_1;
 822:Core/Src/main.c ****             set_iir_cfg.set_iir_p = BMP5_IIR_FILTER_COEFF_1;
 823:Core/Src/main.c ****             set_iir_cfg.shdw_set_iir_t = BMP5_ENABLE;
 824:Core/Src/main.c ****             set_iir_cfg.shdw_set_iir_p = BMP5_ENABLE;
 825:Core/Src/main.c **** 
 826:Core/Src/main.c ****             rslt = bmp5_set_iir_config(&set_iir_cfg, dev);
 827:Core/Src/main.c ****             bmp5_error_codes_print_result("bmp5_set_iir_config", rslt);
 828:Core/Src/main.c ****         }
 829:Core/Src/main.c **** 
 830:Core/Src/main.c ****         if (rslt == BMP5_OK)
 831:Core/Src/main.c ****         {
 832:Core/Src/main.c ****             rslt = bmp5_configure_interrupt(BMP5_PULSED, BMP5_ACTIVE_HIGH, BMP5_INTR_PUSH_PULL, BMP
 833:Core/Src/main.c ****             bmp5_error_codes_print_result("bmp5_configure_interrupt", rslt);
 834:Core/Src/main.c **** 
 835:Core/Src/main.c ****             if (rslt == BMP5_OK)
 836:Core/Src/main.c ****             {
 837:Core/Src/main.c ****                 /* Note : Select INT_SOURCE after configuring interrupt */
 838:Core/Src/main.c ****                 int_source_select.drdy_en = BMP5_ENABLE;
 839:Core/Src/main.c ****                 rslt = bmp5_int_source_select(&int_source_select, dev);
 840:Core/Src/main.c ****                 bmp5_error_codes_print_result("bmp5_int_source_select", rslt);
 841:Core/Src/main.c ****             }
 842:Core/Src/main.c ****         }
 843:Core/Src/main.c **** 
 844:Core/Src/main.c ****         /* Set powermode as normal */
 845:Core/Src/main.c ****         rslt = bmp5_set_power_mode(BMP5_POWERMODE_NORMAL, dev);
 846:Core/Src/main.c ****         bmp5_error_codes_print_result("bmp5_set_power_mode", rslt);
 847:Core/Src/main.c ****     }
ARM GAS  C:\Users\Nathan\AppData\Local\Temp\ccHbzc7Q.s 			page 18


 848:Core/Src/main.c **** 
 849:Core/Src/main.c ****     return rslt;
 850:Core/Src/main.c **** }
 851:Core/Src/main.c **** 
 852:Core/Src/main.c **** 
 853:Core/Src/main.c **** /*
 854:Core/Src/main.c ****  * @brief  platform specific delay (platform dependent)
 855:Core/Src/main.c ****  *
 856:Core/Src/main.c ****  * @param  ms        delay in ms
 857:Core/Src/main.c ****  *
 858:Core/Src/main.c ****  */
 859:Core/Src/main.c **** static void platform_delay(uint32_t ms)
 860:Core/Src/main.c **** {
 128              		.loc 1 860 1 is_stmt 1 view -0
 129              		.cfi_startproc
 130              		@ args = 0, pretend = 0, frame = 0
 131              		@ frame_needed = 0, uses_anonymous_args = 0
 132              		.loc 1 860 1 is_stmt 0 view .LVU26
 133 0000 08B5     		push	{r3, lr}
 134              		.cfi_def_cfa_offset 8
 135              		.cfi_offset 3, -8
 136              		.cfi_offset 14, -4
 861:Core/Src/main.c ****   HAL_Delay(ms);
 137              		.loc 1 861 3 is_stmt 1 view .LVU27
 138 0002 FFF7FEFF 		bl	HAL_Delay
 139              	.LVL7:
 862:Core/Src/main.c **** }
 140              		.loc 1 862 1 is_stmt 0 view .LVU28
 141 0006 08BD     		pop	{r3, pc}
 142              		.cfi_endproc
 143              	.LFE150:
 145              		.section	.text.llcc68_platform_write,"ax",%progbits
 146              		.align	1
 147              		.syntax unified
 148              		.thumb
 149              		.thumb_func
 151              	llcc68_platform_write:
 152              	.LVL8:
 153              	.LFB152:
 863:Core/Src/main.c **** 
 864:Core/Src/main.c **** static int32_t llcc68_platform_read(void *handle, const uint8_t* command, const uint16_t command_le
 865:Core/Src/main.c ****                                      uint8_t* data, const uint16_t data_length ) {
 866:Core/Src/main.c ****   HAL_GPIO_WritePin(CS_WIRELESS_GPIO_Port, CS_WIRELESS_Pin, GPIO_PIN_RESET);
 867:Core/Src/main.c ****   HAL_SPI_Transmit(&hspi1, command, command_length, 1000);
 868:Core/Src/main.c **** 	  HAL_SPI_Receive(&hspi1, data, data_length, 1000);
 869:Core/Src/main.c **** 	  HAL_GPIO_WritePin(CS_WIRELESS_GPIO_Port, CS_WIRELESS_Pin, GPIO_PIN_SET);
 870:Core/Src/main.c ****   return 0;
 871:Core/Src/main.c **** }
 872:Core/Src/main.c **** 
 873:Core/Src/main.c **** static int32_t llcc68_platform_write(void *handle, const uint8_t* command, const uint16_t command_l
 874:Core/Src/main.c ****                                      const uint8_t* data, const uint16_t data_length ) {
 154              		.loc 1 874 88 is_stmt 1 view -0
 155              		.cfi_startproc
 156              		@ args = 4, pretend = 0, frame = 0
 157              		@ frame_needed = 0, uses_anonymous_args = 0
 158              		.loc 1 874 88 is_stmt 0 view .LVU30
 159 0000 2DE9F041 		push	{r4, r5, r6, r7, r8, lr}
ARM GAS  C:\Users\Nathan\AppData\Local\Temp\ccHbzc7Q.s 			page 19


 160              		.cfi_def_cfa_offset 24
 161              		.cfi_offset 4, -24
 162              		.cfi_offset 5, -20
 163              		.cfi_offset 6, -16
 164              		.cfi_offset 7, -12
 165              		.cfi_offset 8, -8
 166              		.cfi_offset 14, -4
 167 0004 0D46     		mov	r5, r1
 168 0006 1646     		mov	r6, r2
 169 0008 1C46     		mov	r4, r3
 875:Core/Src/main.c ****   HAL_GPIO_WritePin(CS_WIRELESS_GPIO_Port, CS_WIRELESS_Pin, GPIO_PIN_RESET);
 170              		.loc 1 875 3 is_stmt 1 view .LVU31
 171 000a 0F4F     		ldr	r7, .L12
 172 000c 0022     		movs	r2, #0
 173              	.LVL9:
 174              		.loc 1 875 3 is_stmt 0 view .LVU32
 175 000e 1021     		movs	r1, #16
 176              	.LVL10:
 177              		.loc 1 875 3 view .LVU33
 178 0010 3846     		mov	r0, r7
 179              	.LVL11:
 180              		.loc 1 875 3 view .LVU34
 181 0012 FFF7FEFF 		bl	HAL_GPIO_WritePin
 182              	.LVL12:
 876:Core/Src/main.c ****   HAL_SPI_Transmit(&hspi1, command, command_length, 1000);
 183              		.loc 1 876 3 is_stmt 1 view .LVU35
 184 0016 DFF83480 		ldr	r8, .L12+4
 185 001a 4FF47A73 		mov	r3, #1000
 186 001e 3246     		mov	r2, r6
 187 0020 2946     		mov	r1, r5
 188 0022 4046     		mov	r0, r8
 189 0024 FFF7FEFF 		bl	HAL_SPI_Transmit
 190              	.LVL13:
 877:Core/Src/main.c ****   HAL_SPI_Transmit(&hspi1, data, data_length, 1000);
 191              		.loc 1 877 3 view .LVU36
 192 0028 4FF47A73 		mov	r3, #1000
 193 002c BDF81820 		ldrh	r2, [sp, #24]
 194 0030 2146     		mov	r1, r4
 195 0032 4046     		mov	r0, r8
 196 0034 FFF7FEFF 		bl	HAL_SPI_Transmit
 197              	.LVL14:
 878:Core/Src/main.c ****   HAL_GPIO_WritePin(CS_WIRELESS_GPIO_Port, CS_WIRELESS_Pin, GPIO_PIN_SET);
 198              		.loc 1 878 3 view .LVU37
 199 0038 0122     		movs	r2, #1
 200 003a 1021     		movs	r1, #16
 201 003c 3846     		mov	r0, r7
 202 003e FFF7FEFF 		bl	HAL_GPIO_WritePin
 203              	.LVL15:
 879:Core/Src/main.c ****   return 0;
 204              		.loc 1 879 3 view .LVU38
 880:Core/Src/main.c **** }
 205              		.loc 1 880 1 is_stmt 0 view .LVU39
 206 0042 0020     		movs	r0, #0
 207 0044 BDE8F081 		pop	{r4, r5, r6, r7, r8, pc}
 208              	.LVL16:
 209              	.L13:
 210              		.loc 1 880 1 view .LVU40
ARM GAS  C:\Users\Nathan\AppData\Local\Temp\ccHbzc7Q.s 			page 20


 211              		.align	2
 212              	.L12:
 213 0048 00000240 		.word	1073872896
 214 004c 00000000 		.word	hspi1
 215              		.cfi_endproc
 216              	.LFE152:
 218              		.section	.text.lsm6dsm_platform_write,"ax",%progbits
 219              		.align	1
 220              		.syntax unified
 221              		.thumb
 222              		.thumb_func
 224              	lsm6dsm_platform_write:
 225              	.LVL17:
 226              	.LFB143:
 691:Core/Src/main.c **** 	  HAL_GPIO_WritePin(CS_GYRO_GPIO_Port, CS_GYRO_Pin, GPIO_PIN_RESET);
 227              		.loc 1 691 1 is_stmt 1 view -0
 228              		.cfi_startproc
 229              		@ args = 0, pretend = 0, frame = 8
 230              		@ frame_needed = 0, uses_anonymous_args = 0
 691:Core/Src/main.c **** 	  HAL_GPIO_WritePin(CS_GYRO_GPIO_Port, CS_GYRO_Pin, GPIO_PIN_RESET);
 231              		.loc 1 691 1 is_stmt 0 view .LVU42
 232 0000 F0B5     		push	{r4, r5, r6, r7, lr}
 233              		.cfi_def_cfa_offset 20
 234              		.cfi_offset 4, -20
 235              		.cfi_offset 5, -16
 236              		.cfi_offset 6, -12
 237              		.cfi_offset 7, -8
 238              		.cfi_offset 14, -4
 239 0002 83B0     		sub	sp, sp, #12
 240              		.cfi_def_cfa_offset 32
 241 0004 0446     		mov	r4, r0
 242 0006 1546     		mov	r5, r2
 243 0008 1E46     		mov	r6, r3
 244 000a 8DF80710 		strb	r1, [sp, #7]
 692:Core/Src/main.c **** 	  HAL_SPI_Transmit(handle, &reg, 1, 1000);
 245              		.loc 1 692 4 is_stmt 1 view .LVU43
 246 000e 0E4F     		ldr	r7, .L16
 247 0010 0022     		movs	r2, #0
 248              	.LVL18:
 692:Core/Src/main.c **** 	  HAL_SPI_Transmit(handle, &reg, 1, 1000);
 249              		.loc 1 692 4 is_stmt 0 view .LVU44
 250 0012 0821     		movs	r1, #8
 251              	.LVL19:
 692:Core/Src/main.c **** 	  HAL_SPI_Transmit(handle, &reg, 1, 1000);
 252              		.loc 1 692 4 view .LVU45
 253 0014 3846     		mov	r0, r7
 254              	.LVL20:
 692:Core/Src/main.c **** 	  HAL_SPI_Transmit(handle, &reg, 1, 1000);
 255              		.loc 1 692 4 view .LVU46
 256 0016 FFF7FEFF 		bl	HAL_GPIO_WritePin
 257              	.LVL21:
 693:Core/Src/main.c **** 	  HAL_SPI_Transmit(handle, (uint8_t*) bufp, len, 1000);
 258              		.loc 1 693 4 is_stmt 1 view .LVU47
 259 001a 4FF47A73 		mov	r3, #1000
 260 001e 0122     		movs	r2, #1
 261 0020 0DF10701 		add	r1, sp, #7
 262 0024 2046     		mov	r0, r4
ARM GAS  C:\Users\Nathan\AppData\Local\Temp\ccHbzc7Q.s 			page 21


 263 0026 FFF7FEFF 		bl	HAL_SPI_Transmit
 264              	.LVL22:
 694:Core/Src/main.c **** 	  HAL_GPIO_WritePin(CS_GYRO_GPIO_Port, CS_GYRO_Pin, GPIO_PIN_SET);
 265              		.loc 1 694 4 view .LVU48
 266 002a 4FF47A73 		mov	r3, #1000
 267 002e 3246     		mov	r2, r6
 268 0030 2946     		mov	r1, r5
 269 0032 2046     		mov	r0, r4
 270 0034 FFF7FEFF 		bl	HAL_SPI_Transmit
 271              	.LVL23:
 695:Core/Src/main.c ****   return 0;
 272              		.loc 1 695 4 view .LVU49
 273 0038 0122     		movs	r2, #1
 274 003a 0821     		movs	r1, #8
 275 003c 3846     		mov	r0, r7
 276 003e FFF7FEFF 		bl	HAL_GPIO_WritePin
 277              	.LVL24:
 696:Core/Src/main.c **** }
 278              		.loc 1 696 3 view .LVU50
 697:Core/Src/main.c **** 
 279              		.loc 1 697 1 is_stmt 0 view .LVU51
 280 0042 0020     		movs	r0, #0
 281 0044 03B0     		add	sp, sp, #12
 282              		.cfi_def_cfa_offset 20
 283              		@ sp needed
 284 0046 F0BD     		pop	{r4, r5, r6, r7, pc}
 285              	.LVL25:
 286              	.L17:
 697:Core/Src/main.c **** 
 287              		.loc 1 697 1 view .LVU52
 288              		.align	2
 289              	.L16:
 290 0048 00000240 		.word	1073872896
 291              		.cfi_endproc
 292              	.LFE143:
 294              		.section	.text.llcc68_platform_read,"ax",%progbits
 295              		.align	1
 296              		.syntax unified
 297              		.thumb
 298              		.thumb_func
 300              	llcc68_platform_read:
 301              	.LVL26:
 302              	.LFB151:
 865:Core/Src/main.c ****   HAL_GPIO_WritePin(CS_WIRELESS_GPIO_Port, CS_WIRELESS_Pin, GPIO_PIN_RESET);
 303              		.loc 1 865 82 is_stmt 1 view -0
 304              		.cfi_startproc
 305              		@ args = 4, pretend = 0, frame = 0
 306              		@ frame_needed = 0, uses_anonymous_args = 0
 865:Core/Src/main.c ****   HAL_GPIO_WritePin(CS_WIRELESS_GPIO_Port, CS_WIRELESS_Pin, GPIO_PIN_RESET);
 307              		.loc 1 865 82 is_stmt 0 view .LVU54
 308 0000 2DE9F041 		push	{r4, r5, r6, r7, r8, lr}
 309              		.cfi_def_cfa_offset 24
 310              		.cfi_offset 4, -24
 311              		.cfi_offset 5, -20
 312              		.cfi_offset 6, -16
 313              		.cfi_offset 7, -12
 314              		.cfi_offset 8, -8
ARM GAS  C:\Users\Nathan\AppData\Local\Temp\ccHbzc7Q.s 			page 22


 315              		.cfi_offset 14, -4
 316 0004 0D46     		mov	r5, r1
 317 0006 1646     		mov	r6, r2
 318 0008 1C46     		mov	r4, r3
 866:Core/Src/main.c ****   HAL_SPI_Transmit(&hspi1, command, command_length, 1000);
 319              		.loc 1 866 3 is_stmt 1 view .LVU55
 320 000a 0F4F     		ldr	r7, .L20
 321 000c 0022     		movs	r2, #0
 322              	.LVL27:
 866:Core/Src/main.c ****   HAL_SPI_Transmit(&hspi1, command, command_length, 1000);
 323              		.loc 1 866 3 is_stmt 0 view .LVU56
 324 000e 1021     		movs	r1, #16
 325              	.LVL28:
 866:Core/Src/main.c ****   HAL_SPI_Transmit(&hspi1, command, command_length, 1000);
 326              		.loc 1 866 3 view .LVU57
 327 0010 3846     		mov	r0, r7
 328              	.LVL29:
 866:Core/Src/main.c ****   HAL_SPI_Transmit(&hspi1, command, command_length, 1000);
 329              		.loc 1 866 3 view .LVU58
 330 0012 FFF7FEFF 		bl	HAL_GPIO_WritePin
 331              	.LVL30:
 867:Core/Src/main.c **** 	  HAL_SPI_Receive(&hspi1, data, data_length, 1000);
 332              		.loc 1 867 3 is_stmt 1 view .LVU59
 333 0016 DFF83480 		ldr	r8, .L20+4
 334 001a 4FF47A73 		mov	r3, #1000
 335 001e 3246     		mov	r2, r6
 336 0020 2946     		mov	r1, r5
 337 0022 4046     		mov	r0, r8
 338 0024 FFF7FEFF 		bl	HAL_SPI_Transmit
 339              	.LVL31:
 868:Core/Src/main.c **** 	  HAL_GPIO_WritePin(CS_WIRELESS_GPIO_Port, CS_WIRELESS_Pin, GPIO_PIN_SET);
 340              		.loc 1 868 4 view .LVU60
 341 0028 4FF47A73 		mov	r3, #1000
 342 002c BDF81820 		ldrh	r2, [sp, #24]
 343 0030 2146     		mov	r1, r4
 344 0032 4046     		mov	r0, r8
 345 0034 FFF7FEFF 		bl	HAL_SPI_Receive
 346              	.LVL32:
 869:Core/Src/main.c ****   return 0;
 347              		.loc 1 869 4 view .LVU61
 348 0038 0122     		movs	r2, #1
 349 003a 1021     		movs	r1, #16
 350 003c 3846     		mov	r0, r7
 351 003e FFF7FEFF 		bl	HAL_GPIO_WritePin
 352              	.LVL33:
 870:Core/Src/main.c **** }
 353              		.loc 1 870 3 view .LVU62
 871:Core/Src/main.c **** 
 354              		.loc 1 871 1 is_stmt 0 view .LVU63
 355 0042 0020     		movs	r0, #0
 356 0044 BDE8F081 		pop	{r4, r5, r6, r7, r8, pc}
 357              	.LVL34:
 358              	.L21:
 871:Core/Src/main.c **** 
 359              		.loc 1 871 1 view .LVU64
 360              		.align	2
 361              	.L20:
ARM GAS  C:\Users\Nathan\AppData\Local\Temp\ccHbzc7Q.s 			page 23


 362 0048 00000240 		.word	1073872896
 363 004c 00000000 		.word	hspi1
 364              		.cfi_endproc
 365              	.LFE151:
 367              		.section	.text.lsm6dsm_platform_read,"ax",%progbits
 368              		.align	1
 369              		.syntax unified
 370              		.thumb
 371              		.thumb_func
 373              	lsm6dsm_platform_read:
 374              	.LVL35:
 375              	.LFB144:
 711:Core/Src/main.c **** 	  reg |= 0x80;
 376              		.loc 1 711 1 is_stmt 1 view -0
 377              		.cfi_startproc
 378              		@ args = 0, pretend = 0, frame = 8
 379              		@ frame_needed = 0, uses_anonymous_args = 0
 711:Core/Src/main.c **** 	  reg |= 0x80;
 380              		.loc 1 711 1 is_stmt 0 view .LVU66
 381 0000 F0B5     		push	{r4, r5, r6, r7, lr}
 382              		.cfi_def_cfa_offset 20
 383              		.cfi_offset 4, -20
 384              		.cfi_offset 5, -16
 385              		.cfi_offset 6, -12
 386              		.cfi_offset 7, -8
 387              		.cfi_offset 14, -4
 388 0002 83B0     		sub	sp, sp, #12
 389              		.cfi_def_cfa_offset 32
 390 0004 0446     		mov	r4, r0
 391 0006 1546     		mov	r5, r2
 392 0008 1E46     		mov	r6, r3
 393 000a 8DF80710 		strb	r1, [sp, #7]
 712:Core/Src/main.c **** 	  HAL_GPIO_WritePin(CS_GYRO_GPIO_Port, CS_GYRO_Pin, GPIO_PIN_RESET);
 394              		.loc 1 712 4 is_stmt 1 view .LVU67
 712:Core/Src/main.c **** 	  HAL_GPIO_WritePin(CS_GYRO_GPIO_Port, CS_GYRO_Pin, GPIO_PIN_RESET);
 395              		.loc 1 712 8 is_stmt 0 view .LVU68
 396 000e CBB2     		uxtb	r3, r1
 397              	.LVL36:
 712:Core/Src/main.c **** 	  HAL_GPIO_WritePin(CS_GYRO_GPIO_Port, CS_GYRO_Pin, GPIO_PIN_RESET);
 398              		.loc 1 712 8 view .LVU69
 399 0010 63F07F03 		orn	r3, r3, #127
 400 0014 8DF80730 		strb	r3, [sp, #7]
 713:Core/Src/main.c **** 	  HAL_SPI_Transmit(handle, &reg, 1, 1000);
 401              		.loc 1 713 4 is_stmt 1 view .LVU70
 402 0018 0E4F     		ldr	r7, .L24
 403 001a 0022     		movs	r2, #0
 404              	.LVL37:
 713:Core/Src/main.c **** 	  HAL_SPI_Transmit(handle, &reg, 1, 1000);
 405              		.loc 1 713 4 is_stmt 0 view .LVU71
 406 001c 0821     		movs	r1, #8
 407              	.LVL38:
 713:Core/Src/main.c **** 	  HAL_SPI_Transmit(handle, &reg, 1, 1000);
 408              		.loc 1 713 4 view .LVU72
 409 001e 3846     		mov	r0, r7
 410              	.LVL39:
 713:Core/Src/main.c **** 	  HAL_SPI_Transmit(handle, &reg, 1, 1000);
 411              		.loc 1 713 4 view .LVU73
ARM GAS  C:\Users\Nathan\AppData\Local\Temp\ccHbzc7Q.s 			page 24


 412 0020 FFF7FEFF 		bl	HAL_GPIO_WritePin
 413              	.LVL40:
 714:Core/Src/main.c **** 	  HAL_SPI_Receive(handle, bufp, len, 1000);
 414              		.loc 1 714 4 is_stmt 1 view .LVU74
 415 0024 4FF47A73 		mov	r3, #1000
 416 0028 0122     		movs	r2, #1
 417 002a 0DF10701 		add	r1, sp, #7
 418 002e 2046     		mov	r0, r4
 419 0030 FFF7FEFF 		bl	HAL_SPI_Transmit
 420              	.LVL41:
 715:Core/Src/main.c **** 	  HAL_GPIO_WritePin(CS_GYRO_GPIO_Port, CS_GYRO_Pin, GPIO_PIN_SET);
 421              		.loc 1 715 4 view .LVU75
 422 0034 4FF47A73 		mov	r3, #1000
 423 0038 3246     		mov	r2, r6
 424 003a 2946     		mov	r1, r5
 425 003c 2046     		mov	r0, r4
 426 003e FFF7FEFF 		bl	HAL_SPI_Receive
 427              	.LVL42:
 716:Core/Src/main.c ****   return 0;
 428              		.loc 1 716 4 view .LVU76
 429 0042 0122     		movs	r2, #1
 430 0044 0821     		movs	r1, #8
 431 0046 3846     		mov	r0, r7
 432 0048 FFF7FEFF 		bl	HAL_GPIO_WritePin
 433              	.LVL43:
 717:Core/Src/main.c **** }
 434              		.loc 1 717 3 view .LVU77
 718:Core/Src/main.c **** 
 435              		.loc 1 718 1 is_stmt 0 view .LVU78
 436 004c 0020     		movs	r0, #0
 437 004e 03B0     		add	sp, sp, #12
 438              		.cfi_def_cfa_offset 20
 439              		@ sp needed
 440 0050 F0BD     		pop	{r4, r5, r6, r7, pc}
 441              	.LVL44:
 442              	.L25:
 718:Core/Src/main.c **** 
 443              		.loc 1 718 1 view .LVU79
 444 0052 00BF     		.align	2
 445              	.L24:
 446 0054 00000240 		.word	1073872896
 447              		.cfi_endproc
 448              	.LFE144:
 450              		.section	.text.MX_GPIO_Init,"ax",%progbits
 451              		.align	1
 452              		.syntax unified
 453              		.thumb
 454              		.thumb_func
 456              	MX_GPIO_Init:
 457              	.LFB140:
 599:Core/Src/main.c ****   GPIO_InitTypeDef GPIO_InitStruct = {0};
 458              		.loc 1 599 1 is_stmt 1 view -0
 459              		.cfi_startproc
 460              		@ args = 0, pretend = 0, frame = 40
 461              		@ frame_needed = 0, uses_anonymous_args = 0
 462 0000 2DE9F041 		push	{r4, r5, r6, r7, r8, lr}
 463              		.cfi_def_cfa_offset 24
ARM GAS  C:\Users\Nathan\AppData\Local\Temp\ccHbzc7Q.s 			page 25


 464              		.cfi_offset 4, -24
 465              		.cfi_offset 5, -20
 466              		.cfi_offset 6, -16
 467              		.cfi_offset 7, -12
 468              		.cfi_offset 8, -8
 469              		.cfi_offset 14, -4
 470 0004 8AB0     		sub	sp, sp, #40
 471              		.cfi_def_cfa_offset 64
 600:Core/Src/main.c **** /* USER CODE BEGIN MX_GPIO_Init_1 */
 472              		.loc 1 600 3 view .LVU81
 600:Core/Src/main.c **** /* USER CODE BEGIN MX_GPIO_Init_1 */
 473              		.loc 1 600 20 is_stmt 0 view .LVU82
 474 0006 0024     		movs	r4, #0
 475 0008 0594     		str	r4, [sp, #20]
 476 000a 0694     		str	r4, [sp, #24]
 477 000c 0794     		str	r4, [sp, #28]
 478 000e 0894     		str	r4, [sp, #32]
 479 0010 0994     		str	r4, [sp, #36]
 605:Core/Src/main.c ****   __HAL_RCC_GPIOC_CLK_ENABLE();
 480              		.loc 1 605 3 is_stmt 1 view .LVU83
 481              	.LBB4:
 605:Core/Src/main.c ****   __HAL_RCC_GPIOC_CLK_ENABLE();
 482              		.loc 1 605 3 view .LVU84
 483 0012 0094     		str	r4, [sp]
 605:Core/Src/main.c ****   __HAL_RCC_GPIOC_CLK_ENABLE();
 484              		.loc 1 605 3 view .LVU85
 485 0014 3D4B     		ldr	r3, .L28
 486 0016 1A6B     		ldr	r2, [r3, #48]
 487 0018 42F08002 		orr	r2, r2, #128
 488 001c 1A63     		str	r2, [r3, #48]
 605:Core/Src/main.c ****   __HAL_RCC_GPIOC_CLK_ENABLE();
 489              		.loc 1 605 3 view .LVU86
 490 001e 1A6B     		ldr	r2, [r3, #48]
 491 0020 02F08002 		and	r2, r2, #128
 492 0024 0092     		str	r2, [sp]
 605:Core/Src/main.c ****   __HAL_RCC_GPIOC_CLK_ENABLE();
 493              		.loc 1 605 3 view .LVU87
 494 0026 009A     		ldr	r2, [sp]
 495              	.LBE4:
 605:Core/Src/main.c ****   __HAL_RCC_GPIOC_CLK_ENABLE();
 496              		.loc 1 605 3 view .LVU88
 606:Core/Src/main.c ****   __HAL_RCC_GPIOA_CLK_ENABLE();
 497              		.loc 1 606 3 view .LVU89
 498              	.LBB5:
 606:Core/Src/main.c ****   __HAL_RCC_GPIOA_CLK_ENABLE();
 499              		.loc 1 606 3 view .LVU90
 500 0028 0194     		str	r4, [sp, #4]
 606:Core/Src/main.c ****   __HAL_RCC_GPIOA_CLK_ENABLE();
 501              		.loc 1 606 3 view .LVU91
 502 002a 1A6B     		ldr	r2, [r3, #48]
 503 002c 42F00402 		orr	r2, r2, #4
 504 0030 1A63     		str	r2, [r3, #48]
 606:Core/Src/main.c ****   __HAL_RCC_GPIOA_CLK_ENABLE();
 505              		.loc 1 606 3 view .LVU92
 506 0032 1A6B     		ldr	r2, [r3, #48]
 507 0034 02F00402 		and	r2, r2, #4
 508 0038 0192     		str	r2, [sp, #4]
ARM GAS  C:\Users\Nathan\AppData\Local\Temp\ccHbzc7Q.s 			page 26


 606:Core/Src/main.c ****   __HAL_RCC_GPIOA_CLK_ENABLE();
 509              		.loc 1 606 3 view .LVU93
 510 003a 019A     		ldr	r2, [sp, #4]
 511              	.LBE5:
 606:Core/Src/main.c ****   __HAL_RCC_GPIOA_CLK_ENABLE();
 512              		.loc 1 606 3 view .LVU94
 607:Core/Src/main.c ****   __HAL_RCC_GPIOD_CLK_ENABLE();
 513              		.loc 1 607 3 view .LVU95
 514              	.LBB6:
 607:Core/Src/main.c ****   __HAL_RCC_GPIOD_CLK_ENABLE();
 515              		.loc 1 607 3 view .LVU96
 516 003c 0294     		str	r4, [sp, #8]
 607:Core/Src/main.c ****   __HAL_RCC_GPIOD_CLK_ENABLE();
 517              		.loc 1 607 3 view .LVU97
 518 003e 1A6B     		ldr	r2, [r3, #48]
 519 0040 42F00102 		orr	r2, r2, #1
 520 0044 1A63     		str	r2, [r3, #48]
 607:Core/Src/main.c ****   __HAL_RCC_GPIOD_CLK_ENABLE();
 521              		.loc 1 607 3 view .LVU98
 522 0046 1A6B     		ldr	r2, [r3, #48]
 523 0048 02F00102 		and	r2, r2, #1
 524 004c 0292     		str	r2, [sp, #8]
 607:Core/Src/main.c ****   __HAL_RCC_GPIOD_CLK_ENABLE();
 525              		.loc 1 607 3 view .LVU99
 526 004e 029A     		ldr	r2, [sp, #8]
 527              	.LBE6:
 607:Core/Src/main.c ****   __HAL_RCC_GPIOD_CLK_ENABLE();
 528              		.loc 1 607 3 view .LVU100
 608:Core/Src/main.c ****   __HAL_RCC_GPIOB_CLK_ENABLE();
 529              		.loc 1 608 3 view .LVU101
 530              	.LBB7:
 608:Core/Src/main.c ****   __HAL_RCC_GPIOB_CLK_ENABLE();
 531              		.loc 1 608 3 view .LVU102
 532 0050 0394     		str	r4, [sp, #12]
 608:Core/Src/main.c ****   __HAL_RCC_GPIOB_CLK_ENABLE();
 533              		.loc 1 608 3 view .LVU103
 534 0052 1A6B     		ldr	r2, [r3, #48]
 535 0054 42F00802 		orr	r2, r2, #8
 536 0058 1A63     		str	r2, [r3, #48]
 608:Core/Src/main.c ****   __HAL_RCC_GPIOB_CLK_ENABLE();
 537              		.loc 1 608 3 view .LVU104
 538 005a 1A6B     		ldr	r2, [r3, #48]
 539 005c 02F00802 		and	r2, r2, #8
 540 0060 0392     		str	r2, [sp, #12]
 608:Core/Src/main.c ****   __HAL_RCC_GPIOB_CLK_ENABLE();
 541              		.loc 1 608 3 view .LVU105
 542 0062 039A     		ldr	r2, [sp, #12]
 543              	.LBE7:
 608:Core/Src/main.c ****   __HAL_RCC_GPIOB_CLK_ENABLE();
 544              		.loc 1 608 3 view .LVU106
 609:Core/Src/main.c **** 
 545              		.loc 1 609 3 view .LVU107
 546              	.LBB8:
 609:Core/Src/main.c **** 
 547              		.loc 1 609 3 view .LVU108
 548 0064 0494     		str	r4, [sp, #16]
 609:Core/Src/main.c **** 
ARM GAS  C:\Users\Nathan\AppData\Local\Temp\ccHbzc7Q.s 			page 27


 549              		.loc 1 609 3 view .LVU109
 550 0066 1A6B     		ldr	r2, [r3, #48]
 551 0068 42F00202 		orr	r2, r2, #2
 552 006c 1A63     		str	r2, [r3, #48]
 609:Core/Src/main.c **** 
 553              		.loc 1 609 3 view .LVU110
 554 006e 1B6B     		ldr	r3, [r3, #48]
 555 0070 03F00203 		and	r3, r3, #2
 556 0074 0493     		str	r3, [sp, #16]
 609:Core/Src/main.c **** 
 557              		.loc 1 609 3 view .LVU111
 558 0076 049B     		ldr	r3, [sp, #16]
 559              	.LBE8:
 609:Core/Src/main.c **** 
 560              		.loc 1 609 3 view .LVU112
 612:Core/Src/main.c **** 
 561              		.loc 1 612 3 view .LVU113
 562 0078 254D     		ldr	r5, .L28+4
 563 007a 2246     		mov	r2, r4
 564 007c 8721     		movs	r1, #135
 565 007e 2846     		mov	r0, r5
 566 0080 FFF7FEFF 		bl	HAL_GPIO_WritePin
 567              	.LVL45:
 615:Core/Src/main.c **** 
 568              		.loc 1 615 3 view .LVU114
 569 0084 234E     		ldr	r6, .L28+8
 570 0086 2246     		mov	r2, r4
 571 0088 1C21     		movs	r1, #28
 572 008a 3046     		mov	r0, r6
 573 008c FFF7FEFF 		bl	HAL_GPIO_WritePin
 574              	.LVL46:
 618:Core/Src/main.c ****   GPIO_InitStruct.Mode = GPIO_MODE_OUTPUT_PP;
 575              		.loc 1 618 3 view .LVU115
 618:Core/Src/main.c ****   GPIO_InitStruct.Mode = GPIO_MODE_OUTPUT_PP;
 576              		.loc 1 618 23 is_stmt 0 view .LVU116
 577 0090 8723     		movs	r3, #135
 578 0092 0593     		str	r3, [sp, #20]
 619:Core/Src/main.c ****   GPIO_InitStruct.Pull = GPIO_NOPULL;
 579              		.loc 1 619 3 is_stmt 1 view .LVU117
 619:Core/Src/main.c ****   GPIO_InitStruct.Pull = GPIO_NOPULL;
 580              		.loc 1 619 24 is_stmt 0 view .LVU118
 581 0094 0127     		movs	r7, #1
 582 0096 0697     		str	r7, [sp, #24]
 620:Core/Src/main.c ****   GPIO_InitStruct.Speed = GPIO_SPEED_FREQ_LOW;
 583              		.loc 1 620 3 is_stmt 1 view .LVU119
 620:Core/Src/main.c ****   GPIO_InitStruct.Speed = GPIO_SPEED_FREQ_LOW;
 584              		.loc 1 620 24 is_stmt 0 view .LVU120
 585 0098 0794     		str	r4, [sp, #28]
 621:Core/Src/main.c ****   HAL_GPIO_Init(GPIOC, &GPIO_InitStruct);
 586              		.loc 1 621 3 is_stmt 1 view .LVU121
 621:Core/Src/main.c ****   HAL_GPIO_Init(GPIOC, &GPIO_InitStruct);
 587              		.loc 1 621 25 is_stmt 0 view .LVU122
 588 009a 0894     		str	r4, [sp, #32]
 622:Core/Src/main.c **** 
 589              		.loc 1 622 3 is_stmt 1 view .LVU123
 590 009c 05A9     		add	r1, sp, #20
 591 009e 2846     		mov	r0, r5
ARM GAS  C:\Users\Nathan\AppData\Local\Temp\ccHbzc7Q.s 			page 28


 592 00a0 FFF7FEFF 		bl	HAL_GPIO_Init
 593              	.LVL47:
 625:Core/Src/main.c ****   GPIO_InitStruct.Mode = GPIO_MODE_AF_PP;
 594              		.loc 1 625 3 view .LVU124
 625:Core/Src/main.c ****   GPIO_InitStruct.Mode = GPIO_MODE_AF_PP;
 595              		.loc 1 625 23 is_stmt 0 view .LVU125
 596 00a4 4823     		movs	r3, #72
 597 00a6 0593     		str	r3, [sp, #20]
 626:Core/Src/main.c ****   GPIO_InitStruct.Pull = GPIO_NOPULL;
 598              		.loc 1 626 3 is_stmt 1 view .LVU126
 626:Core/Src/main.c ****   GPIO_InitStruct.Pull = GPIO_NOPULL;
 599              		.loc 1 626 24 is_stmt 0 view .LVU127
 600 00a8 4FF00208 		mov	r8, #2
 601 00ac CDF81880 		str	r8, [sp, #24]
 627:Core/Src/main.c ****   GPIO_InitStruct.Speed = GPIO_SPEED_FREQ_LOW;
 602              		.loc 1 627 3 is_stmt 1 view .LVU128
 627:Core/Src/main.c ****   GPIO_InitStruct.Speed = GPIO_SPEED_FREQ_LOW;
 603              		.loc 1 627 24 is_stmt 0 view .LVU129
 604 00b0 0794     		str	r4, [sp, #28]
 628:Core/Src/main.c ****   GPIO_InitStruct.Alternate = GPIO_AF15_EVENTOUT;
 605              		.loc 1 628 3 is_stmt 1 view .LVU130
 628:Core/Src/main.c ****   GPIO_InitStruct.Alternate = GPIO_AF15_EVENTOUT;
 606              		.loc 1 628 25 is_stmt 0 view .LVU131
 607 00b2 0894     		str	r4, [sp, #32]
 629:Core/Src/main.c ****   HAL_GPIO_Init(GPIOC, &GPIO_InitStruct);
 608              		.loc 1 629 3 is_stmt 1 view .LVU132
 629:Core/Src/main.c ****   HAL_GPIO_Init(GPIOC, &GPIO_InitStruct);
 609              		.loc 1 629 29 is_stmt 0 view .LVU133
 610 00b4 0F23     		movs	r3, #15
 611 00b6 0993     		str	r3, [sp, #36]
 630:Core/Src/main.c **** 
 612              		.loc 1 630 3 is_stmt 1 view .LVU134
 613 00b8 05A9     		add	r1, sp, #20
 614 00ba 2846     		mov	r0, r5
 615 00bc FFF7FEFF 		bl	HAL_GPIO_Init
 616              	.LVL48:
 633:Core/Src/main.c ****   GPIO_InitStruct.Mode = GPIO_MODE_INPUT;
 617              		.loc 1 633 3 view .LVU135
 633:Core/Src/main.c ****   GPIO_InitStruct.Mode = GPIO_MODE_INPUT;
 618              		.loc 1 633 23 is_stmt 0 view .LVU136
 619 00c0 CDF81480 		str	r8, [sp, #20]
 634:Core/Src/main.c ****   GPIO_InitStruct.Pull = GPIO_NOPULL;
 620              		.loc 1 634 3 is_stmt 1 view .LVU137
 634:Core/Src/main.c ****   GPIO_InitStruct.Pull = GPIO_NOPULL;
 621              		.loc 1 634 24 is_stmt 0 view .LVU138
 622 00c4 0694     		str	r4, [sp, #24]
 635:Core/Src/main.c ****   HAL_GPIO_Init(SD_CD_GPIO_Port, &GPIO_InitStruct);
 623              		.loc 1 635 3 is_stmt 1 view .LVU139
 635:Core/Src/main.c ****   HAL_GPIO_Init(SD_CD_GPIO_Port, &GPIO_InitStruct);
 624              		.loc 1 635 24 is_stmt 0 view .LVU140
 625 00c6 0794     		str	r4, [sp, #28]
 636:Core/Src/main.c **** 
 626              		.loc 1 636 3 is_stmt 1 view .LVU141
 627 00c8 05A9     		add	r1, sp, #20
 628 00ca 3046     		mov	r0, r6
 629 00cc FFF7FEFF 		bl	HAL_GPIO_Init
 630              	.LVL49:
ARM GAS  C:\Users\Nathan\AppData\Local\Temp\ccHbzc7Q.s 			page 29


 639:Core/Src/main.c ****   GPIO_InitStruct.Mode = GPIO_MODE_OUTPUT_PP;
 631              		.loc 1 639 3 view .LVU142
 639:Core/Src/main.c ****   GPIO_InitStruct.Mode = GPIO_MODE_OUTPUT_PP;
 632              		.loc 1 639 23 is_stmt 0 view .LVU143
 633 00d0 1C23     		movs	r3, #28
 634 00d2 0593     		str	r3, [sp, #20]
 640:Core/Src/main.c ****   GPIO_InitStruct.Pull = GPIO_NOPULL;
 635              		.loc 1 640 3 is_stmt 1 view .LVU144
 640:Core/Src/main.c ****   GPIO_InitStruct.Pull = GPIO_NOPULL;
 636              		.loc 1 640 24 is_stmt 0 view .LVU145
 637 00d4 0697     		str	r7, [sp, #24]
 641:Core/Src/main.c ****   GPIO_InitStruct.Speed = GPIO_SPEED_FREQ_LOW;
 638              		.loc 1 641 3 is_stmt 1 view .LVU146
 641:Core/Src/main.c ****   GPIO_InitStruct.Speed = GPIO_SPEED_FREQ_LOW;
 639              		.loc 1 641 24 is_stmt 0 view .LVU147
 640 00d6 0794     		str	r4, [sp, #28]
 642:Core/Src/main.c ****   HAL_GPIO_Init(GPIOA, &GPIO_InitStruct);
 641              		.loc 1 642 3 is_stmt 1 view .LVU148
 642:Core/Src/main.c ****   HAL_GPIO_Init(GPIOA, &GPIO_InitStruct);
 642              		.loc 1 642 25 is_stmt 0 view .LVU149
 643 00d8 0894     		str	r4, [sp, #32]
 643:Core/Src/main.c **** 
 644              		.loc 1 643 3 is_stmt 1 view .LVU150
 645 00da 05A9     		add	r1, sp, #20
 646 00dc 3046     		mov	r0, r6
 647 00de FFF7FEFF 		bl	HAL_GPIO_Init
 648              	.LVL50:
 646:Core/Src/main.c ****   GPIO_InitStruct.Mode = GPIO_MODE_INPUT;
 649              		.loc 1 646 3 view .LVU151
 646:Core/Src/main.c ****   GPIO_InitStruct.Mode = GPIO_MODE_INPUT;
 650              		.loc 1 646 23 is_stmt 0 view .LVU152
 651 00e2 1023     		movs	r3, #16
 652 00e4 0593     		str	r3, [sp, #20]
 647:Core/Src/main.c ****   GPIO_InitStruct.Pull = GPIO_NOPULL;
 653              		.loc 1 647 3 is_stmt 1 view .LVU153
 647:Core/Src/main.c ****   GPIO_InitStruct.Pull = GPIO_NOPULL;
 654              		.loc 1 647 24 is_stmt 0 view .LVU154
 655 00e6 0694     		str	r4, [sp, #24]
 648:Core/Src/main.c ****   HAL_GPIO_Init(BUSY_GPIO_Port, &GPIO_InitStruct);
 656              		.loc 1 648 3 is_stmt 1 view .LVU155
 648:Core/Src/main.c ****   HAL_GPIO_Init(BUSY_GPIO_Port, &GPIO_InitStruct);
 657              		.loc 1 648 24 is_stmt 0 view .LVU156
 658 00e8 0794     		str	r4, [sp, #28]
 649:Core/Src/main.c **** 
 659              		.loc 1 649 3 is_stmt 1 view .LVU157
 660 00ea 05A9     		add	r1, sp, #20
 661 00ec 2846     		mov	r0, r5
 662 00ee FFF7FEFF 		bl	HAL_GPIO_Init
 663              	.LVL51:
 652:Core/Src/main.c ****   GPIO_InitStruct.Mode = GPIO_MODE_IT_RISING;
 664              		.loc 1 652 3 view .LVU158
 652:Core/Src/main.c ****   GPIO_InitStruct.Mode = GPIO_MODE_IT_RISING;
 665              		.loc 1 652 23 is_stmt 0 view .LVU159
 666 00f2 2023     		movs	r3, #32
 667 00f4 0593     		str	r3, [sp, #20]
 653:Core/Src/main.c ****   GPIO_InitStruct.Pull = GPIO_NOPULL;
 668              		.loc 1 653 3 is_stmt 1 view .LVU160
ARM GAS  C:\Users\Nathan\AppData\Local\Temp\ccHbzc7Q.s 			page 30


 653:Core/Src/main.c ****   GPIO_InitStruct.Pull = GPIO_NOPULL;
 669              		.loc 1 653 24 is_stmt 0 view .LVU161
 670 00f6 4FF48813 		mov	r3, #1114112
 671 00fa 0693     		str	r3, [sp, #24]
 654:Core/Src/main.c ****   HAL_GPIO_Init(ANTENNA_IRQ_GPIO_Port, &GPIO_InitStruct);
 672              		.loc 1 654 3 is_stmt 1 view .LVU162
 654:Core/Src/main.c ****   HAL_GPIO_Init(ANTENNA_IRQ_GPIO_Port, &GPIO_InitStruct);
 673              		.loc 1 654 24 is_stmt 0 view .LVU163
 674 00fc 0794     		str	r4, [sp, #28]
 655:Core/Src/main.c **** 
 675              		.loc 1 655 3 is_stmt 1 view .LVU164
 676 00fe 05A9     		add	r1, sp, #20
 677 0100 2846     		mov	r0, r5
 678 0102 FFF7FEFF 		bl	HAL_GPIO_Init
 679              	.LVL52:
 659:Core/Src/main.c **** 
 680              		.loc 1 659 1 is_stmt 0 view .LVU165
 681 0106 0AB0     		add	sp, sp, #40
 682              		.cfi_def_cfa_offset 24
 683              		@ sp needed
 684 0108 BDE8F081 		pop	{r4, r5, r6, r7, r8, pc}
 685              	.L29:
 686              		.align	2
 687              	.L28:
 688 010c 00380240 		.word	1073887232
 689 0110 00080240 		.word	1073874944
 690 0114 00000240 		.word	1073872896
 691              		.cfi_endproc
 692              	.LFE140:
 694              		.section	.text._write,"ax",%progbits
 695              		.align	1
 696              		.global	_write
 697              		.syntax unified
 698              		.thumb
 699              		.thumb_func
 701              	_write:
 702              	.LVL53:
 703              	.LFB141:
 663:Core/Src/main.c **** 	HAL_UART_Transmit(&huart1, (uint8_t*) ptr, len, 0xffffff);
 704              		.loc 1 663 40 is_stmt 1 view -0
 705              		.cfi_startproc
 706              		@ args = 0, pretend = 0, frame = 0
 707              		@ frame_needed = 0, uses_anonymous_args = 0
 663:Core/Src/main.c **** 	HAL_UART_Transmit(&huart1, (uint8_t*) ptr, len, 0xffffff);
 708              		.loc 1 663 40 is_stmt 0 view .LVU167
 709 0000 10B5     		push	{r4, lr}
 710              		.cfi_def_cfa_offset 8
 711              		.cfi_offset 4, -8
 712              		.cfi_offset 14, -4
 713 0002 1446     		mov	r4, r2
 664:Core/Src/main.c **** 	return len;
 714              		.loc 1 664 2 is_stmt 1 view .LVU168
 715 0004 6FF07F43 		mvn	r3, #-16777216
 716 0008 92B2     		uxth	r2, r2
 717              	.LVL54:
 664:Core/Src/main.c **** 	return len;
 718              		.loc 1 664 2 is_stmt 0 view .LVU169
ARM GAS  C:\Users\Nathan\AppData\Local\Temp\ccHbzc7Q.s 			page 31


 719 000a 0248     		ldr	r0, .L32
 720              	.LVL55:
 664:Core/Src/main.c **** 	return len;
 721              		.loc 1 664 2 view .LVU170
 722 000c FFF7FEFF 		bl	HAL_UART_Transmit
 723              	.LVL56:
 665:Core/Src/main.c **** }
 724              		.loc 1 665 2 is_stmt 1 view .LVU171
 666:Core/Src/main.c **** 
 725              		.loc 1 666 1 is_stmt 0 view .LVU172
 726 0010 2046     		mov	r0, r4
 727 0012 10BD     		pop	{r4, pc}
 728              	.LVL57:
 729              	.L33:
 666:Core/Src/main.c **** 
 730              		.loc 1 666 1 view .LVU173
 731              		.align	2
 732              	.L32:
 733 0014 00000000 		.word	huart1
 734              		.cfi_endproc
 735              	.LFE141:
 737              		.section	.rodata.HAL_GPIO_EXTI_Callback.str1.4,"aMS",%progbits,1
 738              		.align	2
 739              	.LC0:
 740 0000 49525120 		.ascii	"IRQ HANDLEDDD FORM THE ANTENAAAAAAA\000"
 740      48414E44 
 740      4C454444 
 740      4420464F 
 740      524D2054 
 741              		.section	.text.HAL_GPIO_EXTI_Callback,"ax",%progbits
 742              		.align	1
 743              		.global	HAL_GPIO_EXTI_Callback
 744              		.syntax unified
 745              		.thumb
 746              		.thumb_func
 748              	HAL_GPIO_EXTI_Callback:
 749              	.LVL58:
 750              	.LFB142:
 670:Core/Src/main.c ****   if(GPIO_Pin == ANTENNA_IRQ_Pin) {
 751              		.loc 1 670 1 is_stmt 1 view -0
 752              		.cfi_startproc
 753              		@ args = 0, pretend = 0, frame = 0
 754              		@ frame_needed = 0, uses_anonymous_args = 0
 671:Core/Src/main.c ****     printf("IRQ HANDLEDDD FORM THE ANTENAAAAAAA");
 755              		.loc 1 671 3 view .LVU175
 671:Core/Src/main.c ****     printf("IRQ HANDLEDDD FORM THE ANTENAAAAAAA");
 756              		.loc 1 671 5 is_stmt 0 view .LVU176
 757 0000 2028     		cmp	r0, #32
 758 0002 01D0     		beq	.L41
 674:Core/Src/main.c ****   }
 759              		.loc 1 674 7 is_stmt 1 view .LVU177
 760              		.syntax unified
 761              	@ 674 "Core/Src/main.c" 1
 762 0004 00BF     		nop
 763              	@ 0 "" 2
 764              		.thumb
 765              		.syntax unified
ARM GAS  C:\Users\Nathan\AppData\Local\Temp\ccHbzc7Q.s 			page 32


 766 0006 7047     		bx	lr
 767              	.L41:
 670:Core/Src/main.c ****   if(GPIO_Pin == ANTENNA_IRQ_Pin) {
 768              		.loc 1 670 1 is_stmt 0 view .LVU178
 769 0008 08B5     		push	{r3, lr}
 770              		.cfi_def_cfa_offset 8
 771              		.cfi_offset 3, -8
 772              		.cfi_offset 14, -4
 773              	.LBB9:
 672:Core/Src/main.c ****   } else {
 774              		.loc 1 672 5 is_stmt 1 view .LVU179
 775 000a 0248     		ldr	r0, .L42
 776              	.LVL59:
 672:Core/Src/main.c ****   } else {
 777              		.loc 1 672 5 is_stmt 0 view .LVU180
 778 000c FFF7FEFF 		bl	printf
 779              	.LVL60:
 780              	.LBE9:
 676:Core/Src/main.c **** 
 781              		.loc 1 676 1 view .LVU181
 782 0010 08BD     		pop	{r3, pc}
 783              	.L43:
 784 0012 00BF     		.align	2
 785              	.L42:
 786 0014 00000000 		.word	.LC0
 787              		.cfi_endproc
 788              	.LFE142:
 790              		.section	.rodata.bmp5_error_codes_print_result.str1.4,"aMS",%progbits,1
 791              		.align	2
 792              	.LC1:
 793 0000 25730900 		.ascii	"%s\011\000"
 794              		.align	2
 795              	.LC2:
 796 0004 4572726F 		.ascii	"Error [%d] : Null pointer\015\012\000"
 796      72205B25 
 796      645D203A 
 796      204E756C 
 796      6C20706F 
 797              		.align	2
 798              	.LC3:
 799 0020 4572726F 		.ascii	"Error [%d] : Communication failure\015\012\000"
 799      72205B25 
 799      645D203A 
 799      20436F6D 
 799      6D756E69 
 800 0045 000000   		.align	2
 801              	.LC4:
 802 0048 4572726F 		.ascii	"Error [%d] : Device not found\015\012\000"
 802      72205B25 
 802      645D203A 
 802      20446576 
 802      69636520 
 803              		.align	2
 804              	.LC5:
 805 0068 4572726F 		.ascii	"Error [%d] : Invalid chip id\015\012\000"
 805      72205B25 
 805      645D203A 
ARM GAS  C:\Users\Nathan\AppData\Local\Temp\ccHbzc7Q.s 			page 33


 805      20496E76 
 805      616C6964 
 806 0087 00       		.align	2
 807              	.LC6:
 808 0088 4572726F 		.ascii	"Error [%d] : Power up error\015\012\000"
 808      72205B25 
 808      645D203A 
 808      20506F77 
 808      65722075 
 809 00a6 0000     		.align	2
 810              	.LC7:
 811 00a8 4572726F 		.ascii	"Error [%d] : Power-on reset/softreset failure\015\012"
 811      72205B25 
 811      645D203A 
 811      20506F77 
 811      65722D6F 
 812 00d7 00       		.ascii	"\000"
 813              		.align	2
 814              	.LC8:
 815 00d8 4572726F 		.ascii	"Error [%d] : Invalid powermode\015\012\000"
 815      72205B25 
 815      645D203A 
 815      20496E76 
 815      616C6964 
 816 00f9 000000   		.align	2
 817              	.LC9:
 818 00fc 4572726F 		.ascii	"Error [%d] : Unknown error code\015\012\000"
 818      72205B25 
 818      645D203A 
 818      20556E6B 
 818      6E6F776E 
 819              		.section	.text.bmp5_error_codes_print_result,"ax",%progbits
 820              		.align	1
 821              		.global	bmp5_error_codes_print_result
 822              		.syntax unified
 823              		.thumb
 824              		.thumb_func
 826              	bmp5_error_codes_print_result:
 827              	.LVL61:
 828              	.LFB148:
 749:Core/Src/main.c ****     if (rslt != BMP5_OK)
 829              		.loc 1 749 1 is_stmt 1 view -0
 830              		.cfi_startproc
 831              		@ args = 0, pretend = 0, frame = 0
 832              		@ frame_needed = 0, uses_anonymous_args = 0
 750:Core/Src/main.c ****     {
 833              		.loc 1 750 5 view .LVU183
 750:Core/Src/main.c ****     {
 834              		.loc 1 750 8 is_stmt 0 view .LVU184
 835 0000 01B9     		cbnz	r1, .L59
 836 0002 7047     		bx	lr
 837              	.L59:
 749:Core/Src/main.c ****     if (rslt != BMP5_OK)
 838              		.loc 1 749 1 view .LVU185
 839 0004 10B5     		push	{r4, lr}
 840              		.cfi_def_cfa_offset 8
 841              		.cfi_offset 4, -8
ARM GAS  C:\Users\Nathan\AppData\Local\Temp\ccHbzc7Q.s 			page 34


 842              		.cfi_offset 14, -4
 843 0006 0C46     		mov	r4, r1
 844              	.LBB10:
 752:Core/Src/main.c ****         if (rslt == BMP5_E_NULL_PTR)
 845              		.loc 1 752 9 is_stmt 1 view .LVU186
 846 0008 0146     		mov	r1, r0
 847              	.LVL62:
 752:Core/Src/main.c ****         if (rslt == BMP5_E_NULL_PTR)
 848              		.loc 1 752 9 is_stmt 0 view .LVU187
 849 000a 1A48     		ldr	r0, .L60
 850              	.LVL63:
 752:Core/Src/main.c ****         if (rslt == BMP5_E_NULL_PTR)
 851              		.loc 1 752 9 view .LVU188
 852 000c FFF7FEFF 		bl	printf
 853              	.LVL64:
 753:Core/Src/main.c ****         {
 854              		.loc 1 753 9 is_stmt 1 view .LVU189
 855 0010 E31D     		adds	r3, r4, #7
 856 0012 062B     		cmp	r3, #6
 857 0014 28D8     		bhi	.L46
 858 0016 DFE803F0 		tbb	[pc, r3]
 859              	.L48:
 860 001a 22       		.byte	(.L54-.L48)/2
 861 001b 1D       		.byte	(.L53-.L48)/2
 862 001c 18       		.byte	(.L52-.L48)/2
 863 001d 13       		.byte	(.L51-.L48)/2
 864 001e 0E       		.byte	(.L50-.L48)/2
 865 001f 09       		.byte	(.L49-.L48)/2
 866 0020 04       		.byte	(.L47-.L48)/2
 867 0021 00       		.p2align 1
 868              	.L47:
 755:Core/Src/main.c ****         }
 869              		.loc 1 755 13 view .LVU190
 870 0022 2146     		mov	r1, r4
 871 0024 1448     		ldr	r0, .L60+4
 872 0026 FFF7FEFF 		bl	printf
 873              	.LVL65:
 874              	.L44:
 875              	.LBE10:
 787:Core/Src/main.c **** static int8_t bmp5_set_config(struct bmp5_osr_odr_press_config *osr_odr_press_cfg, struct bmp5_dev 
 876              		.loc 1 787 1 is_stmt 0 view .LVU191
 877 002a 10BD     		pop	{r4, pc}
 878              	.L49:
 879              	.LBB11:
 759:Core/Src/main.c ****         }
 880              		.loc 1 759 13 is_stmt 1 view .LVU192
 881 002c 2146     		mov	r1, r4
 882 002e 1348     		ldr	r0, .L60+8
 883 0030 FFF7FEFF 		bl	printf
 884              	.LVL66:
 885 0034 F9E7     		b	.L44
 886              	.L50:
 763:Core/Src/main.c ****         }
 887              		.loc 1 763 13 view .LVU193
 888 0036 2146     		mov	r1, r4
 889 0038 1148     		ldr	r0, .L60+12
 890 003a FFF7FEFF 		bl	printf
ARM GAS  C:\Users\Nathan\AppData\Local\Temp\ccHbzc7Q.s 			page 35


 891              	.LVL67:
 892 003e F4E7     		b	.L44
 893              	.L51:
 767:Core/Src/main.c ****         }
 894              		.loc 1 767 13 view .LVU194
 895 0040 2146     		mov	r1, r4
 896 0042 1048     		ldr	r0, .L60+16
 897 0044 FFF7FEFF 		bl	printf
 898              	.LVL68:
 899 0048 EFE7     		b	.L44
 900              	.L52:
 771:Core/Src/main.c ****         }
 901              		.loc 1 771 13 view .LVU195
 902 004a 2146     		mov	r1, r4
 903 004c 0E48     		ldr	r0, .L60+20
 904 004e FFF7FEFF 		bl	printf
 905              	.LVL69:
 906 0052 EAE7     		b	.L44
 907              	.L53:
 775:Core/Src/main.c ****         }
 908              		.loc 1 775 13 view .LVU196
 909 0054 2146     		mov	r1, r4
 910 0056 0D48     		ldr	r0, .L60+24
 911 0058 FFF7FEFF 		bl	printf
 912              	.LVL70:
 913 005c E5E7     		b	.L44
 914              	.L54:
 779:Core/Src/main.c ****         }
 915              		.loc 1 779 13 view .LVU197
 916 005e 2146     		mov	r1, r4
 917 0060 0B48     		ldr	r0, .L60+28
 918 0062 FFF7FEFF 		bl	printf
 919              	.LVL71:
 920 0066 E0E7     		b	.L44
 921              	.L46:
 784:Core/Src/main.c ****         }
 922              		.loc 1 784 13 view .LVU198
 923 0068 2146     		mov	r1, r4
 924 006a 0A48     		ldr	r0, .L60+32
 925 006c FFF7FEFF 		bl	printf
 926              	.LVL72:
 927              	.LBE11:
 787:Core/Src/main.c **** static int8_t bmp5_set_config(struct bmp5_osr_odr_press_config *osr_odr_press_cfg, struct bmp5_dev 
 928              		.loc 1 787 1 is_stmt 0 view .LVU199
 929 0070 DBE7     		b	.L44
 930              	.L61:
 931 0072 00BF     		.align	2
 932              	.L60:
 933 0074 00000000 		.word	.LC1
 934 0078 04000000 		.word	.LC2
 935 007c 20000000 		.word	.LC3
 936 0080 48000000 		.word	.LC4
 937 0084 68000000 		.word	.LC5
 938 0088 88000000 		.word	.LC6
 939 008c A8000000 		.word	.LC7
 940 0090 D8000000 		.word	.LC8
 941 0094 FC000000 		.word	.LC9
ARM GAS  C:\Users\Nathan\AppData\Local\Temp\ccHbzc7Q.s 			page 36


 942              		.cfi_endproc
 943              	.LFE148:
 945              		.section	.text.Error_Handler,"ax",%progbits
 946              		.align	1
 947              		.global	Error_Handler
 948              		.syntax unified
 949              		.thumb
 950              		.thumb_func
 952              	Error_Handler:
 953              	.LFB154:
 881:Core/Src/main.c **** 
 882:Core/Src/main.c **** static int32_t llcc68_platform_write_read(void *handle, const uint8_t* command, const uint16_t comm
 883:Core/Src/main.c ****                                      uint8_t* data, const uint16_t data_length ) {
 884:Core/Src/main.c ****  uint8_t res;
 885:Core/Src/main.c ****     
 886:Core/Src/main.c ****     /* set cs low */
 887:Core/Src/main.c ****     HAL_GPIO_WritePin(CS_WIRELESS_GPIO_Port, CS_WIRELESS_Pin, GPIO_PIN_RESET);
 888:Core/Src/main.c ****     
 889:Core/Src/main.c ****     /* if in_len > 0 */
 890:Core/Src/main.c ****     if (command_length > 0)
 891:Core/Src/main.c ****     {
 892:Core/Src/main.c ****         /* transmit the input buffer */
 893:Core/Src/main.c ****         res = HAL_SPI_Transmit(&hspi1, command, command_length, 1000);
 894:Core/Src/main.c ****         if (res != HAL_OK)
 895:Core/Src/main.c ****         {
 896:Core/Src/main.c ****             /* set cs high */
 897:Core/Src/main.c ****             HAL_GPIO_WritePin(CS_WIRELESS_GPIO_Port, CS_WIRELESS_Pin, GPIO_PIN_SET);
 898:Core/Src/main.c ****            
 899:Core/Src/main.c ****             return 1;
 900:Core/Src/main.c ****         }
 901:Core/Src/main.c ****     }
 902:Core/Src/main.c ****     
 903:Core/Src/main.c ****     /* if out_len > 0 */
 904:Core/Src/main.c ****     if (data_length > 0)
 905:Core/Src/main.c ****     {
 906:Core/Src/main.c ****         /* transmit to the output buffer */
 907:Core/Src/main.c ****         res = HAL_SPI_Receive(&hspi1, data, data_length, 1000);
 908:Core/Src/main.c ****         if (res != HAL_OK)
 909:Core/Src/main.c ****         {
 910:Core/Src/main.c ****             /* set cs high */
 911:Core/Src/main.c ****             HAL_GPIO_WritePin(CS_WIRELESS_GPIO_Port, CS_WIRELESS_Pin, GPIO_PIN_SET);
 912:Core/Src/main.c ****            
 913:Core/Src/main.c ****             return 1;
 914:Core/Src/main.c ****         }
 915:Core/Src/main.c ****     }
 916:Core/Src/main.c ****     
 917:Core/Src/main.c ****     /* set cs high */
 918:Core/Src/main.c ****     HAL_GPIO_WritePin(CS_WIRELESS_GPIO_Port, CS_WIRELESS_Pin, GPIO_PIN_SET);
 919:Core/Src/main.c ****     
 920:Core/Src/main.c ****     return 0;
 921:Core/Src/main.c ****                                      }
 922:Core/Src/main.c **** 
 923:Core/Src/main.c **** 
 924:Core/Src/main.c **** /* USER CODE END 4 */
 925:Core/Src/main.c **** 
 926:Core/Src/main.c **** /**
 927:Core/Src/main.c ****   * @brief  This function is executed in case of error occurrence.
ARM GAS  C:\Users\Nathan\AppData\Local\Temp\ccHbzc7Q.s 			page 37


 928:Core/Src/main.c ****   * @retval None
 929:Core/Src/main.c ****   */
 930:Core/Src/main.c **** void Error_Handler(void)
 931:Core/Src/main.c **** {
 954              		.loc 1 931 1 is_stmt 1 view -0
 955              		.cfi_startproc
 956              		@ Volatile: function does not return.
 957              		@ args = 0, pretend = 0, frame = 0
 958              		@ frame_needed = 0, uses_anonymous_args = 0
 959              		@ link register save eliminated.
 932:Core/Src/main.c ****   /* USER CODE BEGIN Error_Handler_Debug */
 933:Core/Src/main.c ****   /* User can add his own implementation to report the HAL error return state */
 934:Core/Src/main.c ****   __disable_irq();
 960              		.loc 1 934 3 view .LVU201
 961              	.LBB12:
 962              	.LBI12:
 963              		.file 2 "Drivers/CMSIS/Include/cmsis_gcc.h"
   1:Drivers/CMSIS/Include/cmsis_gcc.h **** /**************************************************************************//**
   2:Drivers/CMSIS/Include/cmsis_gcc.h ****  * @file     cmsis_gcc.h
   3:Drivers/CMSIS/Include/cmsis_gcc.h ****  * @brief    CMSIS compiler GCC header file
   4:Drivers/CMSIS/Include/cmsis_gcc.h ****  * @version  V5.4.1
   5:Drivers/CMSIS/Include/cmsis_gcc.h ****  * @date     27. May 2021
   6:Drivers/CMSIS/Include/cmsis_gcc.h ****  ******************************************************************************/
   7:Drivers/CMSIS/Include/cmsis_gcc.h **** /*
   8:Drivers/CMSIS/Include/cmsis_gcc.h ****  * Copyright (c) 2009-2021 Arm Limited. All rights reserved.
   9:Drivers/CMSIS/Include/cmsis_gcc.h ****  *
  10:Drivers/CMSIS/Include/cmsis_gcc.h ****  * SPDX-License-Identifier: Apache-2.0
  11:Drivers/CMSIS/Include/cmsis_gcc.h ****  *
  12:Drivers/CMSIS/Include/cmsis_gcc.h ****  * Licensed under the Apache License, Version 2.0 (the License); you may
  13:Drivers/CMSIS/Include/cmsis_gcc.h ****  * not use this file except in compliance with the License.
  14:Drivers/CMSIS/Include/cmsis_gcc.h ****  * You may obtain a copy of the License at
  15:Drivers/CMSIS/Include/cmsis_gcc.h ****  *
  16:Drivers/CMSIS/Include/cmsis_gcc.h ****  * www.apache.org/licenses/LICENSE-2.0
  17:Drivers/CMSIS/Include/cmsis_gcc.h ****  *
  18:Drivers/CMSIS/Include/cmsis_gcc.h ****  * Unless required by applicable law or agreed to in writing, software
  19:Drivers/CMSIS/Include/cmsis_gcc.h ****  * distributed under the License is distributed on an AS IS BASIS, WITHOUT
  20:Drivers/CMSIS/Include/cmsis_gcc.h ****  * WARRANTIES OR CONDITIONS OF ANY KIND, either express or implied.
  21:Drivers/CMSIS/Include/cmsis_gcc.h ****  * See the License for the specific language governing permissions and
  22:Drivers/CMSIS/Include/cmsis_gcc.h ****  * limitations under the License.
  23:Drivers/CMSIS/Include/cmsis_gcc.h ****  */
  24:Drivers/CMSIS/Include/cmsis_gcc.h **** 
  25:Drivers/CMSIS/Include/cmsis_gcc.h **** #ifndef __CMSIS_GCC_H
  26:Drivers/CMSIS/Include/cmsis_gcc.h **** #define __CMSIS_GCC_H
  27:Drivers/CMSIS/Include/cmsis_gcc.h **** 
  28:Drivers/CMSIS/Include/cmsis_gcc.h **** /* ignore some GCC warnings */
  29:Drivers/CMSIS/Include/cmsis_gcc.h **** #pragma GCC diagnostic push
  30:Drivers/CMSIS/Include/cmsis_gcc.h **** #pragma GCC diagnostic ignored "-Wsign-conversion"
  31:Drivers/CMSIS/Include/cmsis_gcc.h **** #pragma GCC diagnostic ignored "-Wconversion"
  32:Drivers/CMSIS/Include/cmsis_gcc.h **** #pragma GCC diagnostic ignored "-Wunused-parameter"
  33:Drivers/CMSIS/Include/cmsis_gcc.h **** 
  34:Drivers/CMSIS/Include/cmsis_gcc.h **** /* Fallback for __has_builtin */
  35:Drivers/CMSIS/Include/cmsis_gcc.h **** #ifndef __has_builtin
  36:Drivers/CMSIS/Include/cmsis_gcc.h ****   #define __has_builtin(x) (0)
  37:Drivers/CMSIS/Include/cmsis_gcc.h **** #endif
  38:Drivers/CMSIS/Include/cmsis_gcc.h **** 
  39:Drivers/CMSIS/Include/cmsis_gcc.h **** /* CMSIS compiler specific defines */
  40:Drivers/CMSIS/Include/cmsis_gcc.h **** #ifndef   __ASM
ARM GAS  C:\Users\Nathan\AppData\Local\Temp\ccHbzc7Q.s 			page 38


  41:Drivers/CMSIS/Include/cmsis_gcc.h ****   #define __ASM                                  __asm
  42:Drivers/CMSIS/Include/cmsis_gcc.h **** #endif
  43:Drivers/CMSIS/Include/cmsis_gcc.h **** #ifndef   __INLINE
  44:Drivers/CMSIS/Include/cmsis_gcc.h ****   #define __INLINE                               inline
  45:Drivers/CMSIS/Include/cmsis_gcc.h **** #endif
  46:Drivers/CMSIS/Include/cmsis_gcc.h **** #ifndef   __STATIC_INLINE
  47:Drivers/CMSIS/Include/cmsis_gcc.h ****   #define __STATIC_INLINE                        static inline
  48:Drivers/CMSIS/Include/cmsis_gcc.h **** #endif
  49:Drivers/CMSIS/Include/cmsis_gcc.h **** #ifndef   __STATIC_FORCEINLINE
  50:Drivers/CMSIS/Include/cmsis_gcc.h ****   #define __STATIC_FORCEINLINE                   __attribute__((always_inline)) static inline
  51:Drivers/CMSIS/Include/cmsis_gcc.h **** #endif
  52:Drivers/CMSIS/Include/cmsis_gcc.h **** #ifndef   __NO_RETURN
  53:Drivers/CMSIS/Include/cmsis_gcc.h ****   #define __NO_RETURN                            __attribute__((__noreturn__))
  54:Drivers/CMSIS/Include/cmsis_gcc.h **** #endif
  55:Drivers/CMSIS/Include/cmsis_gcc.h **** #ifndef   __USED
  56:Drivers/CMSIS/Include/cmsis_gcc.h ****   #define __USED                                 __attribute__((used))
  57:Drivers/CMSIS/Include/cmsis_gcc.h **** #endif
  58:Drivers/CMSIS/Include/cmsis_gcc.h **** #ifndef   __WEAK
  59:Drivers/CMSIS/Include/cmsis_gcc.h ****   #define __WEAK                                 __attribute__((weak))
  60:Drivers/CMSIS/Include/cmsis_gcc.h **** #endif
  61:Drivers/CMSIS/Include/cmsis_gcc.h **** #ifndef   __PACKED
  62:Drivers/CMSIS/Include/cmsis_gcc.h ****   #define __PACKED                               __attribute__((packed, aligned(1)))
  63:Drivers/CMSIS/Include/cmsis_gcc.h **** #endif
  64:Drivers/CMSIS/Include/cmsis_gcc.h **** #ifndef   __PACKED_STRUCT
  65:Drivers/CMSIS/Include/cmsis_gcc.h ****   #define __PACKED_STRUCT                        struct __attribute__((packed, aligned(1)))
  66:Drivers/CMSIS/Include/cmsis_gcc.h **** #endif
  67:Drivers/CMSIS/Include/cmsis_gcc.h **** #ifndef   __PACKED_UNION
  68:Drivers/CMSIS/Include/cmsis_gcc.h ****   #define __PACKED_UNION                         union __attribute__((packed, aligned(1)))
  69:Drivers/CMSIS/Include/cmsis_gcc.h **** #endif
  70:Drivers/CMSIS/Include/cmsis_gcc.h **** #ifndef   __UNALIGNED_UINT32        /* deprecated */
  71:Drivers/CMSIS/Include/cmsis_gcc.h ****   #pragma GCC diagnostic push
  72:Drivers/CMSIS/Include/cmsis_gcc.h ****   #pragma GCC diagnostic ignored "-Wpacked"
  73:Drivers/CMSIS/Include/cmsis_gcc.h ****   #pragma GCC diagnostic ignored "-Wattributes"
  74:Drivers/CMSIS/Include/cmsis_gcc.h ****   struct __attribute__((packed)) T_UINT32 { uint32_t v; };
  75:Drivers/CMSIS/Include/cmsis_gcc.h ****   #pragma GCC diagnostic pop
  76:Drivers/CMSIS/Include/cmsis_gcc.h ****   #define __UNALIGNED_UINT32(x)                  (((struct T_UINT32 *)(x))->v)
  77:Drivers/CMSIS/Include/cmsis_gcc.h **** #endif
  78:Drivers/CMSIS/Include/cmsis_gcc.h **** #ifndef   __UNALIGNED_UINT16_WRITE
  79:Drivers/CMSIS/Include/cmsis_gcc.h ****   #pragma GCC diagnostic push
  80:Drivers/CMSIS/Include/cmsis_gcc.h ****   #pragma GCC diagnostic ignored "-Wpacked"
  81:Drivers/CMSIS/Include/cmsis_gcc.h ****   #pragma GCC diagnostic ignored "-Wattributes"
  82:Drivers/CMSIS/Include/cmsis_gcc.h ****   __PACKED_STRUCT T_UINT16_WRITE { uint16_t v; };
  83:Drivers/CMSIS/Include/cmsis_gcc.h ****   #pragma GCC diagnostic pop
  84:Drivers/CMSIS/Include/cmsis_gcc.h ****   #define __UNALIGNED_UINT16_WRITE(addr, val)    (void)((((struct T_UINT16_WRITE *)(void *)(addr))-
  85:Drivers/CMSIS/Include/cmsis_gcc.h **** #endif
  86:Drivers/CMSIS/Include/cmsis_gcc.h **** #ifndef   __UNALIGNED_UINT16_READ
  87:Drivers/CMSIS/Include/cmsis_gcc.h ****   #pragma GCC diagnostic push
  88:Drivers/CMSIS/Include/cmsis_gcc.h ****   #pragma GCC diagnostic ignored "-Wpacked"
  89:Drivers/CMSIS/Include/cmsis_gcc.h ****   #pragma GCC diagnostic ignored "-Wattributes"
  90:Drivers/CMSIS/Include/cmsis_gcc.h ****   __PACKED_STRUCT T_UINT16_READ { uint16_t v; };
  91:Drivers/CMSIS/Include/cmsis_gcc.h ****   #pragma GCC diagnostic pop
  92:Drivers/CMSIS/Include/cmsis_gcc.h ****   #define __UNALIGNED_UINT16_READ(addr)          (((const struct T_UINT16_READ *)(const void *)(add
  93:Drivers/CMSIS/Include/cmsis_gcc.h **** #endif
  94:Drivers/CMSIS/Include/cmsis_gcc.h **** #ifndef   __UNALIGNED_UINT32_WRITE
  95:Drivers/CMSIS/Include/cmsis_gcc.h ****   #pragma GCC diagnostic push
  96:Drivers/CMSIS/Include/cmsis_gcc.h ****   #pragma GCC diagnostic ignored "-Wpacked"
  97:Drivers/CMSIS/Include/cmsis_gcc.h ****   #pragma GCC diagnostic ignored "-Wattributes"
ARM GAS  C:\Users\Nathan\AppData\Local\Temp\ccHbzc7Q.s 			page 39


  98:Drivers/CMSIS/Include/cmsis_gcc.h ****   __PACKED_STRUCT T_UINT32_WRITE { uint32_t v; };
  99:Drivers/CMSIS/Include/cmsis_gcc.h ****   #pragma GCC diagnostic pop
 100:Drivers/CMSIS/Include/cmsis_gcc.h ****   #define __UNALIGNED_UINT32_WRITE(addr, val)    (void)((((struct T_UINT32_WRITE *)(void *)(addr))-
 101:Drivers/CMSIS/Include/cmsis_gcc.h **** #endif
 102:Drivers/CMSIS/Include/cmsis_gcc.h **** #ifndef   __UNALIGNED_UINT32_READ
 103:Drivers/CMSIS/Include/cmsis_gcc.h ****   #pragma GCC diagnostic push
 104:Drivers/CMSIS/Include/cmsis_gcc.h ****   #pragma GCC diagnostic ignored "-Wpacked"
 105:Drivers/CMSIS/Include/cmsis_gcc.h ****   #pragma GCC diagnostic ignored "-Wattributes"
 106:Drivers/CMSIS/Include/cmsis_gcc.h ****   __PACKED_STRUCT T_UINT32_READ { uint32_t v; };
 107:Drivers/CMSIS/Include/cmsis_gcc.h ****   #pragma GCC diagnostic pop
 108:Drivers/CMSIS/Include/cmsis_gcc.h ****   #define __UNALIGNED_UINT32_READ(addr)          (((const struct T_UINT32_READ *)(const void *)(add
 109:Drivers/CMSIS/Include/cmsis_gcc.h **** #endif
 110:Drivers/CMSIS/Include/cmsis_gcc.h **** #ifndef   __ALIGNED
 111:Drivers/CMSIS/Include/cmsis_gcc.h ****   #define __ALIGNED(x)                           __attribute__((aligned(x)))
 112:Drivers/CMSIS/Include/cmsis_gcc.h **** #endif
 113:Drivers/CMSIS/Include/cmsis_gcc.h **** #ifndef   __RESTRICT
 114:Drivers/CMSIS/Include/cmsis_gcc.h ****   #define __RESTRICT                             __restrict
 115:Drivers/CMSIS/Include/cmsis_gcc.h **** #endif
 116:Drivers/CMSIS/Include/cmsis_gcc.h **** #ifndef   __COMPILER_BARRIER
 117:Drivers/CMSIS/Include/cmsis_gcc.h ****   #define __COMPILER_BARRIER()                   __ASM volatile("":::"memory")
 118:Drivers/CMSIS/Include/cmsis_gcc.h **** #endif
 119:Drivers/CMSIS/Include/cmsis_gcc.h **** 
 120:Drivers/CMSIS/Include/cmsis_gcc.h **** /* #########################  Startup and Lowlevel Init  ######################## */
 121:Drivers/CMSIS/Include/cmsis_gcc.h **** 
 122:Drivers/CMSIS/Include/cmsis_gcc.h **** #ifndef __PROGRAM_START
 123:Drivers/CMSIS/Include/cmsis_gcc.h **** 
 124:Drivers/CMSIS/Include/cmsis_gcc.h **** /**
 125:Drivers/CMSIS/Include/cmsis_gcc.h ****   \brief   Initializes data and bss sections
 126:Drivers/CMSIS/Include/cmsis_gcc.h ****   \details This default implementations initialized all data and additional bss
 127:Drivers/CMSIS/Include/cmsis_gcc.h ****            sections relying on .copy.table and .zero.table specified properly
 128:Drivers/CMSIS/Include/cmsis_gcc.h ****            in the used linker script.
 129:Drivers/CMSIS/Include/cmsis_gcc.h **** 
 130:Drivers/CMSIS/Include/cmsis_gcc.h ****  */
 131:Drivers/CMSIS/Include/cmsis_gcc.h **** __STATIC_FORCEINLINE __NO_RETURN void __cmsis_start(void)
 132:Drivers/CMSIS/Include/cmsis_gcc.h **** {
 133:Drivers/CMSIS/Include/cmsis_gcc.h ****   extern void _start(void) __NO_RETURN;
 134:Drivers/CMSIS/Include/cmsis_gcc.h **** 
 135:Drivers/CMSIS/Include/cmsis_gcc.h ****   typedef struct {
 136:Drivers/CMSIS/Include/cmsis_gcc.h ****     uint32_t const* src;
 137:Drivers/CMSIS/Include/cmsis_gcc.h ****     uint32_t* dest;
 138:Drivers/CMSIS/Include/cmsis_gcc.h ****     uint32_t  wlen;
 139:Drivers/CMSIS/Include/cmsis_gcc.h ****   } __copy_table_t;
 140:Drivers/CMSIS/Include/cmsis_gcc.h **** 
 141:Drivers/CMSIS/Include/cmsis_gcc.h ****   typedef struct {
 142:Drivers/CMSIS/Include/cmsis_gcc.h ****     uint32_t* dest;
 143:Drivers/CMSIS/Include/cmsis_gcc.h ****     uint32_t  wlen;
 144:Drivers/CMSIS/Include/cmsis_gcc.h ****   } __zero_table_t;
 145:Drivers/CMSIS/Include/cmsis_gcc.h **** 
 146:Drivers/CMSIS/Include/cmsis_gcc.h ****   extern const __copy_table_t __copy_table_start__;
 147:Drivers/CMSIS/Include/cmsis_gcc.h ****   extern const __copy_table_t __copy_table_end__;
 148:Drivers/CMSIS/Include/cmsis_gcc.h ****   extern const __zero_table_t __zero_table_start__;
 149:Drivers/CMSIS/Include/cmsis_gcc.h ****   extern const __zero_table_t __zero_table_end__;
 150:Drivers/CMSIS/Include/cmsis_gcc.h **** 
 151:Drivers/CMSIS/Include/cmsis_gcc.h ****   for (__copy_table_t const* pTable = &__copy_table_start__; pTable < &__copy_table_end__; ++pTable
 152:Drivers/CMSIS/Include/cmsis_gcc.h ****     for(uint32_t i=0u; i<pTable->wlen; ++i) {
 153:Drivers/CMSIS/Include/cmsis_gcc.h ****       pTable->dest[i] = pTable->src[i];
 154:Drivers/CMSIS/Include/cmsis_gcc.h ****     }
ARM GAS  C:\Users\Nathan\AppData\Local\Temp\ccHbzc7Q.s 			page 40


 155:Drivers/CMSIS/Include/cmsis_gcc.h ****   }
 156:Drivers/CMSIS/Include/cmsis_gcc.h **** 
 157:Drivers/CMSIS/Include/cmsis_gcc.h ****   for (__zero_table_t const* pTable = &__zero_table_start__; pTable < &__zero_table_end__; ++pTable
 158:Drivers/CMSIS/Include/cmsis_gcc.h ****     for(uint32_t i=0u; i<pTable->wlen; ++i) {
 159:Drivers/CMSIS/Include/cmsis_gcc.h ****       pTable->dest[i] = 0u;
 160:Drivers/CMSIS/Include/cmsis_gcc.h ****     }
 161:Drivers/CMSIS/Include/cmsis_gcc.h ****   }
 162:Drivers/CMSIS/Include/cmsis_gcc.h **** 
 163:Drivers/CMSIS/Include/cmsis_gcc.h ****   _start();
 164:Drivers/CMSIS/Include/cmsis_gcc.h **** }
 165:Drivers/CMSIS/Include/cmsis_gcc.h **** 
 166:Drivers/CMSIS/Include/cmsis_gcc.h **** #define __PROGRAM_START           __cmsis_start
 167:Drivers/CMSIS/Include/cmsis_gcc.h **** #endif
 168:Drivers/CMSIS/Include/cmsis_gcc.h **** 
 169:Drivers/CMSIS/Include/cmsis_gcc.h **** #ifndef __INITIAL_SP
 170:Drivers/CMSIS/Include/cmsis_gcc.h **** #define __INITIAL_SP              __StackTop
 171:Drivers/CMSIS/Include/cmsis_gcc.h **** #endif
 172:Drivers/CMSIS/Include/cmsis_gcc.h **** 
 173:Drivers/CMSIS/Include/cmsis_gcc.h **** #ifndef __STACK_LIMIT
 174:Drivers/CMSIS/Include/cmsis_gcc.h **** #define __STACK_LIMIT             __StackLimit
 175:Drivers/CMSIS/Include/cmsis_gcc.h **** #endif
 176:Drivers/CMSIS/Include/cmsis_gcc.h **** 
 177:Drivers/CMSIS/Include/cmsis_gcc.h **** #ifndef __VECTOR_TABLE
 178:Drivers/CMSIS/Include/cmsis_gcc.h **** #define __VECTOR_TABLE            __Vectors
 179:Drivers/CMSIS/Include/cmsis_gcc.h **** #endif
 180:Drivers/CMSIS/Include/cmsis_gcc.h **** 
 181:Drivers/CMSIS/Include/cmsis_gcc.h **** #ifndef __VECTOR_TABLE_ATTRIBUTE
 182:Drivers/CMSIS/Include/cmsis_gcc.h **** #define __VECTOR_TABLE_ATTRIBUTE  __attribute__((used, section(".vectors")))
 183:Drivers/CMSIS/Include/cmsis_gcc.h **** #endif
 184:Drivers/CMSIS/Include/cmsis_gcc.h **** 
 185:Drivers/CMSIS/Include/cmsis_gcc.h **** #if defined (__ARM_FEATURE_CMSE) && (__ARM_FEATURE_CMSE == 3U)
 186:Drivers/CMSIS/Include/cmsis_gcc.h **** #ifndef __STACK_SEAL
 187:Drivers/CMSIS/Include/cmsis_gcc.h **** #define __STACK_SEAL              __StackSeal
 188:Drivers/CMSIS/Include/cmsis_gcc.h **** #endif
 189:Drivers/CMSIS/Include/cmsis_gcc.h **** 
 190:Drivers/CMSIS/Include/cmsis_gcc.h **** #ifndef __TZ_STACK_SEAL_SIZE
 191:Drivers/CMSIS/Include/cmsis_gcc.h **** #define __TZ_STACK_SEAL_SIZE      8U
 192:Drivers/CMSIS/Include/cmsis_gcc.h **** #endif
 193:Drivers/CMSIS/Include/cmsis_gcc.h **** 
 194:Drivers/CMSIS/Include/cmsis_gcc.h **** #ifndef __TZ_STACK_SEAL_VALUE
 195:Drivers/CMSIS/Include/cmsis_gcc.h **** #define __TZ_STACK_SEAL_VALUE     0xFEF5EDA5FEF5EDA5ULL
 196:Drivers/CMSIS/Include/cmsis_gcc.h **** #endif
 197:Drivers/CMSIS/Include/cmsis_gcc.h **** 
 198:Drivers/CMSIS/Include/cmsis_gcc.h **** 
 199:Drivers/CMSIS/Include/cmsis_gcc.h **** __STATIC_FORCEINLINE void __TZ_set_STACKSEAL_S (uint32_t* stackTop) {
 200:Drivers/CMSIS/Include/cmsis_gcc.h ****   *((uint64_t *)stackTop) = __TZ_STACK_SEAL_VALUE;
 201:Drivers/CMSIS/Include/cmsis_gcc.h **** }
 202:Drivers/CMSIS/Include/cmsis_gcc.h **** #endif
 203:Drivers/CMSIS/Include/cmsis_gcc.h **** 
 204:Drivers/CMSIS/Include/cmsis_gcc.h **** 
 205:Drivers/CMSIS/Include/cmsis_gcc.h **** /* ##########################  Core Instruction Access  ######################### */
 206:Drivers/CMSIS/Include/cmsis_gcc.h **** /** \defgroup CMSIS_Core_InstructionInterface CMSIS Core Instruction Interface
 207:Drivers/CMSIS/Include/cmsis_gcc.h ****   Access to dedicated instructions
 208:Drivers/CMSIS/Include/cmsis_gcc.h ****   @{
 209:Drivers/CMSIS/Include/cmsis_gcc.h **** */
 210:Drivers/CMSIS/Include/cmsis_gcc.h **** 
 211:Drivers/CMSIS/Include/cmsis_gcc.h **** /* Define macros for porting to both thumb1 and thumb2.
ARM GAS  C:\Users\Nathan\AppData\Local\Temp\ccHbzc7Q.s 			page 41


 212:Drivers/CMSIS/Include/cmsis_gcc.h ****  * For thumb1, use low register (r0-r7), specified by constraint "l"
 213:Drivers/CMSIS/Include/cmsis_gcc.h ****  * Otherwise, use general registers, specified by constraint "r" */
 214:Drivers/CMSIS/Include/cmsis_gcc.h **** #if defined (__thumb__) && !defined (__thumb2__)
 215:Drivers/CMSIS/Include/cmsis_gcc.h **** #define __CMSIS_GCC_OUT_REG(r) "=l" (r)
 216:Drivers/CMSIS/Include/cmsis_gcc.h **** #define __CMSIS_GCC_RW_REG(r) "+l" (r)
 217:Drivers/CMSIS/Include/cmsis_gcc.h **** #define __CMSIS_GCC_USE_REG(r) "l" (r)
 218:Drivers/CMSIS/Include/cmsis_gcc.h **** #else
 219:Drivers/CMSIS/Include/cmsis_gcc.h **** #define __CMSIS_GCC_OUT_REG(r) "=r" (r)
 220:Drivers/CMSIS/Include/cmsis_gcc.h **** #define __CMSIS_GCC_RW_REG(r) "+r" (r)
 221:Drivers/CMSIS/Include/cmsis_gcc.h **** #define __CMSIS_GCC_USE_REG(r) "r" (r)
 222:Drivers/CMSIS/Include/cmsis_gcc.h **** #endif
 223:Drivers/CMSIS/Include/cmsis_gcc.h **** 
 224:Drivers/CMSIS/Include/cmsis_gcc.h **** /**
 225:Drivers/CMSIS/Include/cmsis_gcc.h ****   \brief   No Operation
 226:Drivers/CMSIS/Include/cmsis_gcc.h ****   \details No Operation does nothing. This instruction can be used for code alignment purposes.
 227:Drivers/CMSIS/Include/cmsis_gcc.h ****  */
 228:Drivers/CMSIS/Include/cmsis_gcc.h **** #define __NOP()                             __ASM volatile ("nop")
 229:Drivers/CMSIS/Include/cmsis_gcc.h **** 
 230:Drivers/CMSIS/Include/cmsis_gcc.h **** /**
 231:Drivers/CMSIS/Include/cmsis_gcc.h ****   \brief   Wait For Interrupt
 232:Drivers/CMSIS/Include/cmsis_gcc.h ****   \details Wait For Interrupt is a hint instruction that suspends execution until one of a number o
 233:Drivers/CMSIS/Include/cmsis_gcc.h ****  */
 234:Drivers/CMSIS/Include/cmsis_gcc.h **** #define __WFI()                             __ASM volatile ("wfi":::"memory")
 235:Drivers/CMSIS/Include/cmsis_gcc.h **** 
 236:Drivers/CMSIS/Include/cmsis_gcc.h **** 
 237:Drivers/CMSIS/Include/cmsis_gcc.h **** /**
 238:Drivers/CMSIS/Include/cmsis_gcc.h ****   \brief   Wait For Event
 239:Drivers/CMSIS/Include/cmsis_gcc.h ****   \details Wait For Event is a hint instruction that permits the processor to enter
 240:Drivers/CMSIS/Include/cmsis_gcc.h ****            a low-power state until one of a number of events occurs.
 241:Drivers/CMSIS/Include/cmsis_gcc.h ****  */
 242:Drivers/CMSIS/Include/cmsis_gcc.h **** #define __WFE()                             __ASM volatile ("wfe":::"memory")
 243:Drivers/CMSIS/Include/cmsis_gcc.h **** 
 244:Drivers/CMSIS/Include/cmsis_gcc.h **** 
 245:Drivers/CMSIS/Include/cmsis_gcc.h **** /**
 246:Drivers/CMSIS/Include/cmsis_gcc.h ****   \brief   Send Event
 247:Drivers/CMSIS/Include/cmsis_gcc.h ****   \details Send Event is a hint instruction. It causes an event to be signaled to the CPU.
 248:Drivers/CMSIS/Include/cmsis_gcc.h ****  */
 249:Drivers/CMSIS/Include/cmsis_gcc.h **** #define __SEV()                             __ASM volatile ("sev")
 250:Drivers/CMSIS/Include/cmsis_gcc.h **** 
 251:Drivers/CMSIS/Include/cmsis_gcc.h **** 
 252:Drivers/CMSIS/Include/cmsis_gcc.h **** /**
 253:Drivers/CMSIS/Include/cmsis_gcc.h ****   \brief   Instruction Synchronization Barrier
 254:Drivers/CMSIS/Include/cmsis_gcc.h ****   \details Instruction Synchronization Barrier flushes the pipeline in the processor,
 255:Drivers/CMSIS/Include/cmsis_gcc.h ****            so that all instructions following the ISB are fetched from cache or memory,
 256:Drivers/CMSIS/Include/cmsis_gcc.h ****            after the instruction has been completed.
 257:Drivers/CMSIS/Include/cmsis_gcc.h ****  */
 258:Drivers/CMSIS/Include/cmsis_gcc.h **** __STATIC_FORCEINLINE void __ISB(void)
 259:Drivers/CMSIS/Include/cmsis_gcc.h **** {
 260:Drivers/CMSIS/Include/cmsis_gcc.h ****   __ASM volatile ("isb 0xF":::"memory");
 261:Drivers/CMSIS/Include/cmsis_gcc.h **** }
 262:Drivers/CMSIS/Include/cmsis_gcc.h **** 
 263:Drivers/CMSIS/Include/cmsis_gcc.h **** 
 264:Drivers/CMSIS/Include/cmsis_gcc.h **** /**
 265:Drivers/CMSIS/Include/cmsis_gcc.h ****   \brief   Data Synchronization Barrier
 266:Drivers/CMSIS/Include/cmsis_gcc.h ****   \details Acts as a special kind of Data Memory Barrier.
 267:Drivers/CMSIS/Include/cmsis_gcc.h ****            It completes when all explicit memory accesses before this instruction complete.
 268:Drivers/CMSIS/Include/cmsis_gcc.h ****  */
ARM GAS  C:\Users\Nathan\AppData\Local\Temp\ccHbzc7Q.s 			page 42


 269:Drivers/CMSIS/Include/cmsis_gcc.h **** __STATIC_FORCEINLINE void __DSB(void)
 270:Drivers/CMSIS/Include/cmsis_gcc.h **** {
 271:Drivers/CMSIS/Include/cmsis_gcc.h ****   __ASM volatile ("dsb 0xF":::"memory");
 272:Drivers/CMSIS/Include/cmsis_gcc.h **** }
 273:Drivers/CMSIS/Include/cmsis_gcc.h **** 
 274:Drivers/CMSIS/Include/cmsis_gcc.h **** 
 275:Drivers/CMSIS/Include/cmsis_gcc.h **** /**
 276:Drivers/CMSIS/Include/cmsis_gcc.h ****   \brief   Data Memory Barrier
 277:Drivers/CMSIS/Include/cmsis_gcc.h ****   \details Ensures the apparent order of the explicit memory operations before
 278:Drivers/CMSIS/Include/cmsis_gcc.h ****            and after the instruction, without ensuring their completion.
 279:Drivers/CMSIS/Include/cmsis_gcc.h ****  */
 280:Drivers/CMSIS/Include/cmsis_gcc.h **** __STATIC_FORCEINLINE void __DMB(void)
 281:Drivers/CMSIS/Include/cmsis_gcc.h **** {
 282:Drivers/CMSIS/Include/cmsis_gcc.h ****   __ASM volatile ("dmb 0xF":::"memory");
 283:Drivers/CMSIS/Include/cmsis_gcc.h **** }
 284:Drivers/CMSIS/Include/cmsis_gcc.h **** 
 285:Drivers/CMSIS/Include/cmsis_gcc.h **** 
 286:Drivers/CMSIS/Include/cmsis_gcc.h **** /**
 287:Drivers/CMSIS/Include/cmsis_gcc.h ****   \brief   Reverse byte order (32 bit)
 288:Drivers/CMSIS/Include/cmsis_gcc.h ****   \details Reverses the byte order in unsigned integer value. For example, 0x12345678 becomes 0x785
 289:Drivers/CMSIS/Include/cmsis_gcc.h ****   \param [in]    value  Value to reverse
 290:Drivers/CMSIS/Include/cmsis_gcc.h ****   \return               Reversed value
 291:Drivers/CMSIS/Include/cmsis_gcc.h ****  */
 292:Drivers/CMSIS/Include/cmsis_gcc.h **** __STATIC_FORCEINLINE uint32_t __REV(uint32_t value)
 293:Drivers/CMSIS/Include/cmsis_gcc.h **** {
 294:Drivers/CMSIS/Include/cmsis_gcc.h **** #if (__GNUC__ > 4) || (__GNUC__ == 4 && __GNUC_MINOR__ >= 5)
 295:Drivers/CMSIS/Include/cmsis_gcc.h ****   return __builtin_bswap32(value);
 296:Drivers/CMSIS/Include/cmsis_gcc.h **** #else
 297:Drivers/CMSIS/Include/cmsis_gcc.h ****   uint32_t result;
 298:Drivers/CMSIS/Include/cmsis_gcc.h **** 
 299:Drivers/CMSIS/Include/cmsis_gcc.h ****   __ASM ("rev %0, %1" : __CMSIS_GCC_OUT_REG (result) : __CMSIS_GCC_USE_REG (value) );
 300:Drivers/CMSIS/Include/cmsis_gcc.h ****   return result;
 301:Drivers/CMSIS/Include/cmsis_gcc.h **** #endif
 302:Drivers/CMSIS/Include/cmsis_gcc.h **** }
 303:Drivers/CMSIS/Include/cmsis_gcc.h **** 
 304:Drivers/CMSIS/Include/cmsis_gcc.h **** 
 305:Drivers/CMSIS/Include/cmsis_gcc.h **** /**
 306:Drivers/CMSIS/Include/cmsis_gcc.h ****   \brief   Reverse byte order (16 bit)
 307:Drivers/CMSIS/Include/cmsis_gcc.h ****   \details Reverses the byte order within each halfword of a word. For example, 0x12345678 becomes 
 308:Drivers/CMSIS/Include/cmsis_gcc.h ****   \param [in]    value  Value to reverse
 309:Drivers/CMSIS/Include/cmsis_gcc.h ****   \return               Reversed value
 310:Drivers/CMSIS/Include/cmsis_gcc.h ****  */
 311:Drivers/CMSIS/Include/cmsis_gcc.h **** __STATIC_FORCEINLINE uint32_t __REV16(uint32_t value)
 312:Drivers/CMSIS/Include/cmsis_gcc.h **** {
 313:Drivers/CMSIS/Include/cmsis_gcc.h ****   uint32_t result;
 314:Drivers/CMSIS/Include/cmsis_gcc.h **** 
 315:Drivers/CMSIS/Include/cmsis_gcc.h ****   __ASM ("rev16 %0, %1" : __CMSIS_GCC_OUT_REG (result) : __CMSIS_GCC_USE_REG (value) );
 316:Drivers/CMSIS/Include/cmsis_gcc.h ****   return result;
 317:Drivers/CMSIS/Include/cmsis_gcc.h **** }
 318:Drivers/CMSIS/Include/cmsis_gcc.h **** 
 319:Drivers/CMSIS/Include/cmsis_gcc.h **** 
 320:Drivers/CMSIS/Include/cmsis_gcc.h **** /**
 321:Drivers/CMSIS/Include/cmsis_gcc.h ****   \brief   Reverse byte order (16 bit)
 322:Drivers/CMSIS/Include/cmsis_gcc.h ****   \details Reverses the byte order in a 16-bit value and returns the signed 16-bit result. For exam
 323:Drivers/CMSIS/Include/cmsis_gcc.h ****   \param [in]    value  Value to reverse
 324:Drivers/CMSIS/Include/cmsis_gcc.h ****   \return               Reversed value
 325:Drivers/CMSIS/Include/cmsis_gcc.h ****  */
ARM GAS  C:\Users\Nathan\AppData\Local\Temp\ccHbzc7Q.s 			page 43


 326:Drivers/CMSIS/Include/cmsis_gcc.h **** __STATIC_FORCEINLINE int16_t __REVSH(int16_t value)
 327:Drivers/CMSIS/Include/cmsis_gcc.h **** {
 328:Drivers/CMSIS/Include/cmsis_gcc.h **** #if (__GNUC__ > 4) || (__GNUC__ == 4 && __GNUC_MINOR__ >= 8)
 329:Drivers/CMSIS/Include/cmsis_gcc.h ****   return (int16_t)__builtin_bswap16(value);
 330:Drivers/CMSIS/Include/cmsis_gcc.h **** #else
 331:Drivers/CMSIS/Include/cmsis_gcc.h ****   int16_t result;
 332:Drivers/CMSIS/Include/cmsis_gcc.h **** 
 333:Drivers/CMSIS/Include/cmsis_gcc.h ****   __ASM ("revsh %0, %1" : __CMSIS_GCC_OUT_REG (result) : __CMSIS_GCC_USE_REG (value) );
 334:Drivers/CMSIS/Include/cmsis_gcc.h ****   return result;
 335:Drivers/CMSIS/Include/cmsis_gcc.h **** #endif
 336:Drivers/CMSIS/Include/cmsis_gcc.h **** }
 337:Drivers/CMSIS/Include/cmsis_gcc.h **** 
 338:Drivers/CMSIS/Include/cmsis_gcc.h **** 
 339:Drivers/CMSIS/Include/cmsis_gcc.h **** /**
 340:Drivers/CMSIS/Include/cmsis_gcc.h ****   \brief   Rotate Right in unsigned value (32 bit)
 341:Drivers/CMSIS/Include/cmsis_gcc.h ****   \details Rotate Right (immediate) provides the value of the contents of a register rotated by a v
 342:Drivers/CMSIS/Include/cmsis_gcc.h ****   \param [in]    op1  Value to rotate
 343:Drivers/CMSIS/Include/cmsis_gcc.h ****   \param [in]    op2  Number of Bits to rotate
 344:Drivers/CMSIS/Include/cmsis_gcc.h ****   \return               Rotated value
 345:Drivers/CMSIS/Include/cmsis_gcc.h ****  */
 346:Drivers/CMSIS/Include/cmsis_gcc.h **** __STATIC_FORCEINLINE uint32_t __ROR(uint32_t op1, uint32_t op2)
 347:Drivers/CMSIS/Include/cmsis_gcc.h **** {
 348:Drivers/CMSIS/Include/cmsis_gcc.h ****   op2 %= 32U;
 349:Drivers/CMSIS/Include/cmsis_gcc.h ****   if (op2 == 0U)
 350:Drivers/CMSIS/Include/cmsis_gcc.h ****   {
 351:Drivers/CMSIS/Include/cmsis_gcc.h ****     return op1;
 352:Drivers/CMSIS/Include/cmsis_gcc.h ****   }
 353:Drivers/CMSIS/Include/cmsis_gcc.h ****   return (op1 >> op2) | (op1 << (32U - op2));
 354:Drivers/CMSIS/Include/cmsis_gcc.h **** }
 355:Drivers/CMSIS/Include/cmsis_gcc.h **** 
 356:Drivers/CMSIS/Include/cmsis_gcc.h **** 
 357:Drivers/CMSIS/Include/cmsis_gcc.h **** /**
 358:Drivers/CMSIS/Include/cmsis_gcc.h ****   \brief   Breakpoint
 359:Drivers/CMSIS/Include/cmsis_gcc.h ****   \details Causes the processor to enter Debug state.
 360:Drivers/CMSIS/Include/cmsis_gcc.h ****            Debug tools can use this to investigate system state when the instruction at a particula
 361:Drivers/CMSIS/Include/cmsis_gcc.h ****   \param [in]    value  is ignored by the processor.
 362:Drivers/CMSIS/Include/cmsis_gcc.h ****                  If required, a debugger can use it to store additional information about the break
 363:Drivers/CMSIS/Include/cmsis_gcc.h ****  */
 364:Drivers/CMSIS/Include/cmsis_gcc.h **** #define __BKPT(value)                       __ASM volatile ("bkpt "#value)
 365:Drivers/CMSIS/Include/cmsis_gcc.h **** 
 366:Drivers/CMSIS/Include/cmsis_gcc.h **** 
 367:Drivers/CMSIS/Include/cmsis_gcc.h **** /**
 368:Drivers/CMSIS/Include/cmsis_gcc.h ****   \brief   Reverse bit order of value
 369:Drivers/CMSIS/Include/cmsis_gcc.h ****   \details Reverses the bit order of the given value.
 370:Drivers/CMSIS/Include/cmsis_gcc.h ****   \param [in]    value  Value to reverse
 371:Drivers/CMSIS/Include/cmsis_gcc.h ****   \return               Reversed value
 372:Drivers/CMSIS/Include/cmsis_gcc.h ****  */
 373:Drivers/CMSIS/Include/cmsis_gcc.h **** __STATIC_FORCEINLINE uint32_t __RBIT(uint32_t value)
 374:Drivers/CMSIS/Include/cmsis_gcc.h **** {
 375:Drivers/CMSIS/Include/cmsis_gcc.h ****   uint32_t result;
 376:Drivers/CMSIS/Include/cmsis_gcc.h **** 
 377:Drivers/CMSIS/Include/cmsis_gcc.h **** #if ((defined (__ARM_ARCH_7M__      ) && (__ARM_ARCH_7M__      == 1)) || \
 378:Drivers/CMSIS/Include/cmsis_gcc.h ****      (defined (__ARM_ARCH_7EM__     ) && (__ARM_ARCH_7EM__     == 1)) || \
 379:Drivers/CMSIS/Include/cmsis_gcc.h ****      (defined (__ARM_ARCH_8M_MAIN__ ) && (__ARM_ARCH_8M_MAIN__ == 1))    )
 380:Drivers/CMSIS/Include/cmsis_gcc.h ****    __ASM ("rbit %0, %1" : "=r" (result) : "r" (value) );
 381:Drivers/CMSIS/Include/cmsis_gcc.h **** #else
 382:Drivers/CMSIS/Include/cmsis_gcc.h ****   uint32_t s = (4U /*sizeof(v)*/ * 8U) - 1U; /* extra shift needed at end */
ARM GAS  C:\Users\Nathan\AppData\Local\Temp\ccHbzc7Q.s 			page 44


 383:Drivers/CMSIS/Include/cmsis_gcc.h **** 
 384:Drivers/CMSIS/Include/cmsis_gcc.h ****   result = value;                      /* r will be reversed bits of v; first get LSB of v */
 385:Drivers/CMSIS/Include/cmsis_gcc.h ****   for (value >>= 1U; value != 0U; value >>= 1U)
 386:Drivers/CMSIS/Include/cmsis_gcc.h ****   {
 387:Drivers/CMSIS/Include/cmsis_gcc.h ****     result <<= 1U;
 388:Drivers/CMSIS/Include/cmsis_gcc.h ****     result |= value & 1U;
 389:Drivers/CMSIS/Include/cmsis_gcc.h ****     s--;
 390:Drivers/CMSIS/Include/cmsis_gcc.h ****   }
 391:Drivers/CMSIS/Include/cmsis_gcc.h ****   result <<= s;                        /* shift when v's highest bits are zero */
 392:Drivers/CMSIS/Include/cmsis_gcc.h **** #endif
 393:Drivers/CMSIS/Include/cmsis_gcc.h ****   return result;
 394:Drivers/CMSIS/Include/cmsis_gcc.h **** }
 395:Drivers/CMSIS/Include/cmsis_gcc.h **** 
 396:Drivers/CMSIS/Include/cmsis_gcc.h **** 
 397:Drivers/CMSIS/Include/cmsis_gcc.h **** /**
 398:Drivers/CMSIS/Include/cmsis_gcc.h ****   \brief   Count leading zeros
 399:Drivers/CMSIS/Include/cmsis_gcc.h ****   \details Counts the number of leading zeros of a data value.
 400:Drivers/CMSIS/Include/cmsis_gcc.h ****   \param [in]  value  Value to count the leading zeros
 401:Drivers/CMSIS/Include/cmsis_gcc.h ****   \return             number of leading zeros in value
 402:Drivers/CMSIS/Include/cmsis_gcc.h ****  */
 403:Drivers/CMSIS/Include/cmsis_gcc.h **** __STATIC_FORCEINLINE uint8_t __CLZ(uint32_t value)
 404:Drivers/CMSIS/Include/cmsis_gcc.h **** {
 405:Drivers/CMSIS/Include/cmsis_gcc.h ****   /* Even though __builtin_clz produces a CLZ instruction on ARM, formally
 406:Drivers/CMSIS/Include/cmsis_gcc.h ****      __builtin_clz(0) is undefined behaviour, so handle this case specially.
 407:Drivers/CMSIS/Include/cmsis_gcc.h ****      This guarantees ARM-compatible results if happening to compile on a non-ARM
 408:Drivers/CMSIS/Include/cmsis_gcc.h ****      target, and ensures the compiler doesn't decide to activate any
 409:Drivers/CMSIS/Include/cmsis_gcc.h ****      optimisations using the logic "value was passed to __builtin_clz, so it
 410:Drivers/CMSIS/Include/cmsis_gcc.h ****      is non-zero".
 411:Drivers/CMSIS/Include/cmsis_gcc.h ****      ARM GCC 7.3 and possibly earlier will optimise this test away, leaving a
 412:Drivers/CMSIS/Include/cmsis_gcc.h ****      single CLZ instruction.
 413:Drivers/CMSIS/Include/cmsis_gcc.h ****    */
 414:Drivers/CMSIS/Include/cmsis_gcc.h ****   if (value == 0U)
 415:Drivers/CMSIS/Include/cmsis_gcc.h ****   {
 416:Drivers/CMSIS/Include/cmsis_gcc.h ****     return 32U;
 417:Drivers/CMSIS/Include/cmsis_gcc.h ****   }
 418:Drivers/CMSIS/Include/cmsis_gcc.h ****   return __builtin_clz(value);
 419:Drivers/CMSIS/Include/cmsis_gcc.h **** }
 420:Drivers/CMSIS/Include/cmsis_gcc.h **** 
 421:Drivers/CMSIS/Include/cmsis_gcc.h **** 
 422:Drivers/CMSIS/Include/cmsis_gcc.h **** #if ((defined (__ARM_ARCH_7M__      ) && (__ARM_ARCH_7M__      == 1)) || \
 423:Drivers/CMSIS/Include/cmsis_gcc.h ****      (defined (__ARM_ARCH_7EM__     ) && (__ARM_ARCH_7EM__     == 1)) || \
 424:Drivers/CMSIS/Include/cmsis_gcc.h ****      (defined (__ARM_ARCH_8M_MAIN__ ) && (__ARM_ARCH_8M_MAIN__ == 1)) || \
 425:Drivers/CMSIS/Include/cmsis_gcc.h ****      (defined (__ARM_ARCH_8M_BASE__ ) && (__ARM_ARCH_8M_BASE__ == 1))    )
 426:Drivers/CMSIS/Include/cmsis_gcc.h **** /**
 427:Drivers/CMSIS/Include/cmsis_gcc.h ****   \brief   LDR Exclusive (8 bit)
 428:Drivers/CMSIS/Include/cmsis_gcc.h ****   \details Executes a exclusive LDR instruction for 8 bit value.
 429:Drivers/CMSIS/Include/cmsis_gcc.h ****   \param [in]    ptr  Pointer to data
 430:Drivers/CMSIS/Include/cmsis_gcc.h ****   \return             value of type uint8_t at (*ptr)
 431:Drivers/CMSIS/Include/cmsis_gcc.h ****  */
 432:Drivers/CMSIS/Include/cmsis_gcc.h **** __STATIC_FORCEINLINE uint8_t __LDREXB(volatile uint8_t *addr)
 433:Drivers/CMSIS/Include/cmsis_gcc.h **** {
 434:Drivers/CMSIS/Include/cmsis_gcc.h ****     uint32_t result;
 435:Drivers/CMSIS/Include/cmsis_gcc.h **** 
 436:Drivers/CMSIS/Include/cmsis_gcc.h **** #if (__GNUC__ > 4) || (__GNUC__ == 4 && __GNUC_MINOR__ >= 8)
 437:Drivers/CMSIS/Include/cmsis_gcc.h ****    __ASM volatile ("ldrexb %0, %1" : "=r" (result) : "Q" (*addr) );
 438:Drivers/CMSIS/Include/cmsis_gcc.h **** #else
 439:Drivers/CMSIS/Include/cmsis_gcc.h ****     /* Prior to GCC 4.8, "Q" will be expanded to [rx, #0] which is not
ARM GAS  C:\Users\Nathan\AppData\Local\Temp\ccHbzc7Q.s 			page 45


 440:Drivers/CMSIS/Include/cmsis_gcc.h ****        accepted by assembler. So has to use following less efficient pattern.
 441:Drivers/CMSIS/Include/cmsis_gcc.h ****     */
 442:Drivers/CMSIS/Include/cmsis_gcc.h ****    __ASM volatile ("ldrexb %0, [%1]" : "=r" (result) : "r" (addr) : "memory" );
 443:Drivers/CMSIS/Include/cmsis_gcc.h **** #endif
 444:Drivers/CMSIS/Include/cmsis_gcc.h ****    return ((uint8_t) result);    /* Add explicit type cast here */
 445:Drivers/CMSIS/Include/cmsis_gcc.h **** }
 446:Drivers/CMSIS/Include/cmsis_gcc.h **** 
 447:Drivers/CMSIS/Include/cmsis_gcc.h **** 
 448:Drivers/CMSIS/Include/cmsis_gcc.h **** /**
 449:Drivers/CMSIS/Include/cmsis_gcc.h ****   \brief   LDR Exclusive (16 bit)
 450:Drivers/CMSIS/Include/cmsis_gcc.h ****   \details Executes a exclusive LDR instruction for 16 bit values.
 451:Drivers/CMSIS/Include/cmsis_gcc.h ****   \param [in]    ptr  Pointer to data
 452:Drivers/CMSIS/Include/cmsis_gcc.h ****   \return        value of type uint16_t at (*ptr)
 453:Drivers/CMSIS/Include/cmsis_gcc.h ****  */
 454:Drivers/CMSIS/Include/cmsis_gcc.h **** __STATIC_FORCEINLINE uint16_t __LDREXH(volatile uint16_t *addr)
 455:Drivers/CMSIS/Include/cmsis_gcc.h **** {
 456:Drivers/CMSIS/Include/cmsis_gcc.h ****     uint32_t result;
 457:Drivers/CMSIS/Include/cmsis_gcc.h **** 
 458:Drivers/CMSIS/Include/cmsis_gcc.h **** #if (__GNUC__ > 4) || (__GNUC__ == 4 && __GNUC_MINOR__ >= 8)
 459:Drivers/CMSIS/Include/cmsis_gcc.h ****    __ASM volatile ("ldrexh %0, %1" : "=r" (result) : "Q" (*addr) );
 460:Drivers/CMSIS/Include/cmsis_gcc.h **** #else
 461:Drivers/CMSIS/Include/cmsis_gcc.h ****     /* Prior to GCC 4.8, "Q" will be expanded to [rx, #0] which is not
 462:Drivers/CMSIS/Include/cmsis_gcc.h ****        accepted by assembler. So has to use following less efficient pattern.
 463:Drivers/CMSIS/Include/cmsis_gcc.h ****     */
 464:Drivers/CMSIS/Include/cmsis_gcc.h ****    __ASM volatile ("ldrexh %0, [%1]" : "=r" (result) : "r" (addr) : "memory" );
 465:Drivers/CMSIS/Include/cmsis_gcc.h **** #endif
 466:Drivers/CMSIS/Include/cmsis_gcc.h ****    return ((uint16_t) result);    /* Add explicit type cast here */
 467:Drivers/CMSIS/Include/cmsis_gcc.h **** }
 468:Drivers/CMSIS/Include/cmsis_gcc.h **** 
 469:Drivers/CMSIS/Include/cmsis_gcc.h **** 
 470:Drivers/CMSIS/Include/cmsis_gcc.h **** /**
 471:Drivers/CMSIS/Include/cmsis_gcc.h ****   \brief   LDR Exclusive (32 bit)
 472:Drivers/CMSIS/Include/cmsis_gcc.h ****   \details Executes a exclusive LDR instruction for 32 bit values.
 473:Drivers/CMSIS/Include/cmsis_gcc.h ****   \param [in]    ptr  Pointer to data
 474:Drivers/CMSIS/Include/cmsis_gcc.h ****   \return        value of type uint32_t at (*ptr)
 475:Drivers/CMSIS/Include/cmsis_gcc.h ****  */
 476:Drivers/CMSIS/Include/cmsis_gcc.h **** __STATIC_FORCEINLINE uint32_t __LDREXW(volatile uint32_t *addr)
 477:Drivers/CMSIS/Include/cmsis_gcc.h **** {
 478:Drivers/CMSIS/Include/cmsis_gcc.h ****     uint32_t result;
 479:Drivers/CMSIS/Include/cmsis_gcc.h **** 
 480:Drivers/CMSIS/Include/cmsis_gcc.h ****    __ASM volatile ("ldrex %0, %1" : "=r" (result) : "Q" (*addr) );
 481:Drivers/CMSIS/Include/cmsis_gcc.h ****    return(result);
 482:Drivers/CMSIS/Include/cmsis_gcc.h **** }
 483:Drivers/CMSIS/Include/cmsis_gcc.h **** 
 484:Drivers/CMSIS/Include/cmsis_gcc.h **** 
 485:Drivers/CMSIS/Include/cmsis_gcc.h **** /**
 486:Drivers/CMSIS/Include/cmsis_gcc.h ****   \brief   STR Exclusive (8 bit)
 487:Drivers/CMSIS/Include/cmsis_gcc.h ****   \details Executes a exclusive STR instruction for 8 bit values.
 488:Drivers/CMSIS/Include/cmsis_gcc.h ****   \param [in]  value  Value to store
 489:Drivers/CMSIS/Include/cmsis_gcc.h ****   \param [in]    ptr  Pointer to location
 490:Drivers/CMSIS/Include/cmsis_gcc.h ****   \return          0  Function succeeded
 491:Drivers/CMSIS/Include/cmsis_gcc.h ****   \return          1  Function failed
 492:Drivers/CMSIS/Include/cmsis_gcc.h ****  */
 493:Drivers/CMSIS/Include/cmsis_gcc.h **** __STATIC_FORCEINLINE uint32_t __STREXB(uint8_t value, volatile uint8_t *addr)
 494:Drivers/CMSIS/Include/cmsis_gcc.h **** {
 495:Drivers/CMSIS/Include/cmsis_gcc.h ****    uint32_t result;
 496:Drivers/CMSIS/Include/cmsis_gcc.h **** 
ARM GAS  C:\Users\Nathan\AppData\Local\Temp\ccHbzc7Q.s 			page 46


 497:Drivers/CMSIS/Include/cmsis_gcc.h ****    __ASM volatile ("strexb %0, %2, %1" : "=&r" (result), "=Q" (*addr) : "r" ((uint32_t)value) );
 498:Drivers/CMSIS/Include/cmsis_gcc.h ****    return(result);
 499:Drivers/CMSIS/Include/cmsis_gcc.h **** }
 500:Drivers/CMSIS/Include/cmsis_gcc.h **** 
 501:Drivers/CMSIS/Include/cmsis_gcc.h **** 
 502:Drivers/CMSIS/Include/cmsis_gcc.h **** /**
 503:Drivers/CMSIS/Include/cmsis_gcc.h ****   \brief   STR Exclusive (16 bit)
 504:Drivers/CMSIS/Include/cmsis_gcc.h ****   \details Executes a exclusive STR instruction for 16 bit values.
 505:Drivers/CMSIS/Include/cmsis_gcc.h ****   \param [in]  value  Value to store
 506:Drivers/CMSIS/Include/cmsis_gcc.h ****   \param [in]    ptr  Pointer to location
 507:Drivers/CMSIS/Include/cmsis_gcc.h ****   \return          0  Function succeeded
 508:Drivers/CMSIS/Include/cmsis_gcc.h ****   \return          1  Function failed
 509:Drivers/CMSIS/Include/cmsis_gcc.h ****  */
 510:Drivers/CMSIS/Include/cmsis_gcc.h **** __STATIC_FORCEINLINE uint32_t __STREXH(uint16_t value, volatile uint16_t *addr)
 511:Drivers/CMSIS/Include/cmsis_gcc.h **** {
 512:Drivers/CMSIS/Include/cmsis_gcc.h ****    uint32_t result;
 513:Drivers/CMSIS/Include/cmsis_gcc.h **** 
 514:Drivers/CMSIS/Include/cmsis_gcc.h ****    __ASM volatile ("strexh %0, %2, %1" : "=&r" (result), "=Q" (*addr) : "r" ((uint32_t)value) );
 515:Drivers/CMSIS/Include/cmsis_gcc.h ****    return(result);
 516:Drivers/CMSIS/Include/cmsis_gcc.h **** }
 517:Drivers/CMSIS/Include/cmsis_gcc.h **** 
 518:Drivers/CMSIS/Include/cmsis_gcc.h **** 
 519:Drivers/CMSIS/Include/cmsis_gcc.h **** /**
 520:Drivers/CMSIS/Include/cmsis_gcc.h ****   \brief   STR Exclusive (32 bit)
 521:Drivers/CMSIS/Include/cmsis_gcc.h ****   \details Executes a exclusive STR instruction for 32 bit values.
 522:Drivers/CMSIS/Include/cmsis_gcc.h ****   \param [in]  value  Value to store
 523:Drivers/CMSIS/Include/cmsis_gcc.h ****   \param [in]    ptr  Pointer to location
 524:Drivers/CMSIS/Include/cmsis_gcc.h ****   \return          0  Function succeeded
 525:Drivers/CMSIS/Include/cmsis_gcc.h ****   \return          1  Function failed
 526:Drivers/CMSIS/Include/cmsis_gcc.h ****  */
 527:Drivers/CMSIS/Include/cmsis_gcc.h **** __STATIC_FORCEINLINE uint32_t __STREXW(uint32_t value, volatile uint32_t *addr)
 528:Drivers/CMSIS/Include/cmsis_gcc.h **** {
 529:Drivers/CMSIS/Include/cmsis_gcc.h ****    uint32_t result;
 530:Drivers/CMSIS/Include/cmsis_gcc.h **** 
 531:Drivers/CMSIS/Include/cmsis_gcc.h ****    __ASM volatile ("strex %0, %2, %1" : "=&r" (result), "=Q" (*addr) : "r" (value) );
 532:Drivers/CMSIS/Include/cmsis_gcc.h ****    return(result);
 533:Drivers/CMSIS/Include/cmsis_gcc.h **** }
 534:Drivers/CMSIS/Include/cmsis_gcc.h **** 
 535:Drivers/CMSIS/Include/cmsis_gcc.h **** 
 536:Drivers/CMSIS/Include/cmsis_gcc.h **** /**
 537:Drivers/CMSIS/Include/cmsis_gcc.h ****   \brief   Remove the exclusive lock
 538:Drivers/CMSIS/Include/cmsis_gcc.h ****   \details Removes the exclusive lock which is created by LDREX.
 539:Drivers/CMSIS/Include/cmsis_gcc.h ****  */
 540:Drivers/CMSIS/Include/cmsis_gcc.h **** __STATIC_FORCEINLINE void __CLREX(void)
 541:Drivers/CMSIS/Include/cmsis_gcc.h **** {
 542:Drivers/CMSIS/Include/cmsis_gcc.h ****   __ASM volatile ("clrex" ::: "memory");
 543:Drivers/CMSIS/Include/cmsis_gcc.h **** }
 544:Drivers/CMSIS/Include/cmsis_gcc.h **** 
 545:Drivers/CMSIS/Include/cmsis_gcc.h **** #endif /* ((defined (__ARM_ARCH_7M__      ) && (__ARM_ARCH_7M__      == 1)) || \
 546:Drivers/CMSIS/Include/cmsis_gcc.h ****            (defined (__ARM_ARCH_7EM__     ) && (__ARM_ARCH_7EM__     == 1)) || \
 547:Drivers/CMSIS/Include/cmsis_gcc.h ****            (defined (__ARM_ARCH_8M_MAIN__ ) && (__ARM_ARCH_8M_MAIN__ == 1)) || \
 548:Drivers/CMSIS/Include/cmsis_gcc.h ****            (defined (__ARM_ARCH_8M_BASE__ ) && (__ARM_ARCH_8M_BASE__ == 1))    ) */
 549:Drivers/CMSIS/Include/cmsis_gcc.h **** 
 550:Drivers/CMSIS/Include/cmsis_gcc.h **** 
 551:Drivers/CMSIS/Include/cmsis_gcc.h **** #if ((defined (__ARM_ARCH_7M__      ) && (__ARM_ARCH_7M__      == 1)) || \
 552:Drivers/CMSIS/Include/cmsis_gcc.h ****      (defined (__ARM_ARCH_7EM__     ) && (__ARM_ARCH_7EM__     == 1)) || \
 553:Drivers/CMSIS/Include/cmsis_gcc.h ****      (defined (__ARM_ARCH_8M_MAIN__ ) && (__ARM_ARCH_8M_MAIN__ == 1))    )
ARM GAS  C:\Users\Nathan\AppData\Local\Temp\ccHbzc7Q.s 			page 47


 554:Drivers/CMSIS/Include/cmsis_gcc.h **** /**
 555:Drivers/CMSIS/Include/cmsis_gcc.h ****   \brief   Signed Saturate
 556:Drivers/CMSIS/Include/cmsis_gcc.h ****   \details Saturates a signed value.
 557:Drivers/CMSIS/Include/cmsis_gcc.h ****   \param [in]  ARG1  Value to be saturated
 558:Drivers/CMSIS/Include/cmsis_gcc.h ****   \param [in]  ARG2  Bit position to saturate to (1..32)
 559:Drivers/CMSIS/Include/cmsis_gcc.h ****   \return             Saturated value
 560:Drivers/CMSIS/Include/cmsis_gcc.h ****  */
 561:Drivers/CMSIS/Include/cmsis_gcc.h **** #define __SSAT(ARG1, ARG2) \
 562:Drivers/CMSIS/Include/cmsis_gcc.h **** __extension__ \
 563:Drivers/CMSIS/Include/cmsis_gcc.h **** ({                          \
 564:Drivers/CMSIS/Include/cmsis_gcc.h ****   int32_t __RES, __ARG1 = (ARG1); \
 565:Drivers/CMSIS/Include/cmsis_gcc.h ****   __ASM volatile ("ssat %0, %1, %2" : "=r" (__RES) :  "I" (ARG2), "r" (__ARG1) : "cc" ); \
 566:Drivers/CMSIS/Include/cmsis_gcc.h ****   __RES; \
 567:Drivers/CMSIS/Include/cmsis_gcc.h ****  })
 568:Drivers/CMSIS/Include/cmsis_gcc.h **** 
 569:Drivers/CMSIS/Include/cmsis_gcc.h **** 
 570:Drivers/CMSIS/Include/cmsis_gcc.h **** /**
 571:Drivers/CMSIS/Include/cmsis_gcc.h ****   \brief   Unsigned Saturate
 572:Drivers/CMSIS/Include/cmsis_gcc.h ****   \details Saturates an unsigned value.
 573:Drivers/CMSIS/Include/cmsis_gcc.h ****   \param [in]  ARG1  Value to be saturated
 574:Drivers/CMSIS/Include/cmsis_gcc.h ****   \param [in]  ARG2  Bit position to saturate to (0..31)
 575:Drivers/CMSIS/Include/cmsis_gcc.h ****   \return             Saturated value
 576:Drivers/CMSIS/Include/cmsis_gcc.h ****  */
 577:Drivers/CMSIS/Include/cmsis_gcc.h **** #define __USAT(ARG1, ARG2) \
 578:Drivers/CMSIS/Include/cmsis_gcc.h **** __extension__ \
 579:Drivers/CMSIS/Include/cmsis_gcc.h **** ({                          \
 580:Drivers/CMSIS/Include/cmsis_gcc.h ****   uint32_t __RES, __ARG1 = (ARG1); \
 581:Drivers/CMSIS/Include/cmsis_gcc.h ****   __ASM volatile ("usat %0, %1, %2" : "=r" (__RES) :  "I" (ARG2), "r" (__ARG1) : "cc" ); \
 582:Drivers/CMSIS/Include/cmsis_gcc.h ****   __RES; \
 583:Drivers/CMSIS/Include/cmsis_gcc.h ****  })
 584:Drivers/CMSIS/Include/cmsis_gcc.h **** 
 585:Drivers/CMSIS/Include/cmsis_gcc.h **** 
 586:Drivers/CMSIS/Include/cmsis_gcc.h **** /**
 587:Drivers/CMSIS/Include/cmsis_gcc.h ****   \brief   Rotate Right with Extend (32 bit)
 588:Drivers/CMSIS/Include/cmsis_gcc.h ****   \details Moves each bit of a bitstring right by one bit.
 589:Drivers/CMSIS/Include/cmsis_gcc.h ****            The carry input is shifted in at the left end of the bitstring.
 590:Drivers/CMSIS/Include/cmsis_gcc.h ****   \param [in]    value  Value to rotate
 591:Drivers/CMSIS/Include/cmsis_gcc.h ****   \return               Rotated value
 592:Drivers/CMSIS/Include/cmsis_gcc.h ****  */
 593:Drivers/CMSIS/Include/cmsis_gcc.h **** __STATIC_FORCEINLINE uint32_t __RRX(uint32_t value)
 594:Drivers/CMSIS/Include/cmsis_gcc.h **** {
 595:Drivers/CMSIS/Include/cmsis_gcc.h ****   uint32_t result;
 596:Drivers/CMSIS/Include/cmsis_gcc.h **** 
 597:Drivers/CMSIS/Include/cmsis_gcc.h ****   __ASM volatile ("rrx %0, %1" : __CMSIS_GCC_OUT_REG (result) : __CMSIS_GCC_USE_REG (value) );
 598:Drivers/CMSIS/Include/cmsis_gcc.h ****   return(result);
 599:Drivers/CMSIS/Include/cmsis_gcc.h **** }
 600:Drivers/CMSIS/Include/cmsis_gcc.h **** 
 601:Drivers/CMSIS/Include/cmsis_gcc.h **** 
 602:Drivers/CMSIS/Include/cmsis_gcc.h **** /**
 603:Drivers/CMSIS/Include/cmsis_gcc.h ****   \brief   LDRT Unprivileged (8 bit)
 604:Drivers/CMSIS/Include/cmsis_gcc.h ****   \details Executes a Unprivileged LDRT instruction for 8 bit value.
 605:Drivers/CMSIS/Include/cmsis_gcc.h ****   \param [in]    ptr  Pointer to data
 606:Drivers/CMSIS/Include/cmsis_gcc.h ****   \return             value of type uint8_t at (*ptr)
 607:Drivers/CMSIS/Include/cmsis_gcc.h ****  */
 608:Drivers/CMSIS/Include/cmsis_gcc.h **** __STATIC_FORCEINLINE uint8_t __LDRBT(volatile uint8_t *ptr)
 609:Drivers/CMSIS/Include/cmsis_gcc.h **** {
 610:Drivers/CMSIS/Include/cmsis_gcc.h ****     uint32_t result;
ARM GAS  C:\Users\Nathan\AppData\Local\Temp\ccHbzc7Q.s 			page 48


 611:Drivers/CMSIS/Include/cmsis_gcc.h **** 
 612:Drivers/CMSIS/Include/cmsis_gcc.h **** #if (__GNUC__ > 4) || (__GNUC__ == 4 && __GNUC_MINOR__ >= 8)
 613:Drivers/CMSIS/Include/cmsis_gcc.h ****    __ASM volatile ("ldrbt %0, %1" : "=r" (result) : "Q" (*ptr) );
 614:Drivers/CMSIS/Include/cmsis_gcc.h **** #else
 615:Drivers/CMSIS/Include/cmsis_gcc.h ****     /* Prior to GCC 4.8, "Q" will be expanded to [rx, #0] which is not
 616:Drivers/CMSIS/Include/cmsis_gcc.h ****        accepted by assembler. So has to use following less efficient pattern.
 617:Drivers/CMSIS/Include/cmsis_gcc.h ****     */
 618:Drivers/CMSIS/Include/cmsis_gcc.h ****    __ASM volatile ("ldrbt %0, [%1]" : "=r" (result) : "r" (ptr) : "memory" );
 619:Drivers/CMSIS/Include/cmsis_gcc.h **** #endif
 620:Drivers/CMSIS/Include/cmsis_gcc.h ****    return ((uint8_t) result);    /* Add explicit type cast here */
 621:Drivers/CMSIS/Include/cmsis_gcc.h **** }
 622:Drivers/CMSIS/Include/cmsis_gcc.h **** 
 623:Drivers/CMSIS/Include/cmsis_gcc.h **** 
 624:Drivers/CMSIS/Include/cmsis_gcc.h **** /**
 625:Drivers/CMSIS/Include/cmsis_gcc.h ****   \brief   LDRT Unprivileged (16 bit)
 626:Drivers/CMSIS/Include/cmsis_gcc.h ****   \details Executes a Unprivileged LDRT instruction for 16 bit values.
 627:Drivers/CMSIS/Include/cmsis_gcc.h ****   \param [in]    ptr  Pointer to data
 628:Drivers/CMSIS/Include/cmsis_gcc.h ****   \return        value of type uint16_t at (*ptr)
 629:Drivers/CMSIS/Include/cmsis_gcc.h ****  */
 630:Drivers/CMSIS/Include/cmsis_gcc.h **** __STATIC_FORCEINLINE uint16_t __LDRHT(volatile uint16_t *ptr)
 631:Drivers/CMSIS/Include/cmsis_gcc.h **** {
 632:Drivers/CMSIS/Include/cmsis_gcc.h ****     uint32_t result;
 633:Drivers/CMSIS/Include/cmsis_gcc.h **** 
 634:Drivers/CMSIS/Include/cmsis_gcc.h **** #if (__GNUC__ > 4) || (__GNUC__ == 4 && __GNUC_MINOR__ >= 8)
 635:Drivers/CMSIS/Include/cmsis_gcc.h ****    __ASM volatile ("ldrht %0, %1" : "=r" (result) : "Q" (*ptr) );
 636:Drivers/CMSIS/Include/cmsis_gcc.h **** #else
 637:Drivers/CMSIS/Include/cmsis_gcc.h ****     /* Prior to GCC 4.8, "Q" will be expanded to [rx, #0] which is not
 638:Drivers/CMSIS/Include/cmsis_gcc.h ****        accepted by assembler. So has to use following less efficient pattern.
 639:Drivers/CMSIS/Include/cmsis_gcc.h ****     */
 640:Drivers/CMSIS/Include/cmsis_gcc.h ****    __ASM volatile ("ldrht %0, [%1]" : "=r" (result) : "r" (ptr) : "memory" );
 641:Drivers/CMSIS/Include/cmsis_gcc.h **** #endif
 642:Drivers/CMSIS/Include/cmsis_gcc.h ****    return ((uint16_t) result);    /* Add explicit type cast here */
 643:Drivers/CMSIS/Include/cmsis_gcc.h **** }
 644:Drivers/CMSIS/Include/cmsis_gcc.h **** 
 645:Drivers/CMSIS/Include/cmsis_gcc.h **** 
 646:Drivers/CMSIS/Include/cmsis_gcc.h **** /**
 647:Drivers/CMSIS/Include/cmsis_gcc.h ****   \brief   LDRT Unprivileged (32 bit)
 648:Drivers/CMSIS/Include/cmsis_gcc.h ****   \details Executes a Unprivileged LDRT instruction for 32 bit values.
 649:Drivers/CMSIS/Include/cmsis_gcc.h ****   \param [in]    ptr  Pointer to data
 650:Drivers/CMSIS/Include/cmsis_gcc.h ****   \return        value of type uint32_t at (*ptr)
 651:Drivers/CMSIS/Include/cmsis_gcc.h ****  */
 652:Drivers/CMSIS/Include/cmsis_gcc.h **** __STATIC_FORCEINLINE uint32_t __LDRT(volatile uint32_t *ptr)
 653:Drivers/CMSIS/Include/cmsis_gcc.h **** {
 654:Drivers/CMSIS/Include/cmsis_gcc.h ****     uint32_t result;
 655:Drivers/CMSIS/Include/cmsis_gcc.h **** 
 656:Drivers/CMSIS/Include/cmsis_gcc.h ****    __ASM volatile ("ldrt %0, %1" : "=r" (result) : "Q" (*ptr) );
 657:Drivers/CMSIS/Include/cmsis_gcc.h ****    return(result);
 658:Drivers/CMSIS/Include/cmsis_gcc.h **** }
 659:Drivers/CMSIS/Include/cmsis_gcc.h **** 
 660:Drivers/CMSIS/Include/cmsis_gcc.h **** 
 661:Drivers/CMSIS/Include/cmsis_gcc.h **** /**
 662:Drivers/CMSIS/Include/cmsis_gcc.h ****   \brief   STRT Unprivileged (8 bit)
 663:Drivers/CMSIS/Include/cmsis_gcc.h ****   \details Executes a Unprivileged STRT instruction for 8 bit values.
 664:Drivers/CMSIS/Include/cmsis_gcc.h ****   \param [in]  value  Value to store
 665:Drivers/CMSIS/Include/cmsis_gcc.h ****   \param [in]    ptr  Pointer to location
 666:Drivers/CMSIS/Include/cmsis_gcc.h ****  */
 667:Drivers/CMSIS/Include/cmsis_gcc.h **** __STATIC_FORCEINLINE void __STRBT(uint8_t value, volatile uint8_t *ptr)
ARM GAS  C:\Users\Nathan\AppData\Local\Temp\ccHbzc7Q.s 			page 49


 668:Drivers/CMSIS/Include/cmsis_gcc.h **** {
 669:Drivers/CMSIS/Include/cmsis_gcc.h ****    __ASM volatile ("strbt %1, %0" : "=Q" (*ptr) : "r" ((uint32_t)value) );
 670:Drivers/CMSIS/Include/cmsis_gcc.h **** }
 671:Drivers/CMSIS/Include/cmsis_gcc.h **** 
 672:Drivers/CMSIS/Include/cmsis_gcc.h **** 
 673:Drivers/CMSIS/Include/cmsis_gcc.h **** /**
 674:Drivers/CMSIS/Include/cmsis_gcc.h ****   \brief   STRT Unprivileged (16 bit)
 675:Drivers/CMSIS/Include/cmsis_gcc.h ****   \details Executes a Unprivileged STRT instruction for 16 bit values.
 676:Drivers/CMSIS/Include/cmsis_gcc.h ****   \param [in]  value  Value to store
 677:Drivers/CMSIS/Include/cmsis_gcc.h ****   \param [in]    ptr  Pointer to location
 678:Drivers/CMSIS/Include/cmsis_gcc.h ****  */
 679:Drivers/CMSIS/Include/cmsis_gcc.h **** __STATIC_FORCEINLINE void __STRHT(uint16_t value, volatile uint16_t *ptr)
 680:Drivers/CMSIS/Include/cmsis_gcc.h **** {
 681:Drivers/CMSIS/Include/cmsis_gcc.h ****    __ASM volatile ("strht %1, %0" : "=Q" (*ptr) : "r" ((uint32_t)value) );
 682:Drivers/CMSIS/Include/cmsis_gcc.h **** }
 683:Drivers/CMSIS/Include/cmsis_gcc.h **** 
 684:Drivers/CMSIS/Include/cmsis_gcc.h **** 
 685:Drivers/CMSIS/Include/cmsis_gcc.h **** /**
 686:Drivers/CMSIS/Include/cmsis_gcc.h ****   \brief   STRT Unprivileged (32 bit)
 687:Drivers/CMSIS/Include/cmsis_gcc.h ****   \details Executes a Unprivileged STRT instruction for 32 bit values.
 688:Drivers/CMSIS/Include/cmsis_gcc.h ****   \param [in]  value  Value to store
 689:Drivers/CMSIS/Include/cmsis_gcc.h ****   \param [in]    ptr  Pointer to location
 690:Drivers/CMSIS/Include/cmsis_gcc.h ****  */
 691:Drivers/CMSIS/Include/cmsis_gcc.h **** __STATIC_FORCEINLINE void __STRT(uint32_t value, volatile uint32_t *ptr)
 692:Drivers/CMSIS/Include/cmsis_gcc.h **** {
 693:Drivers/CMSIS/Include/cmsis_gcc.h ****    __ASM volatile ("strt %1, %0" : "=Q" (*ptr) : "r" (value) );
 694:Drivers/CMSIS/Include/cmsis_gcc.h **** }
 695:Drivers/CMSIS/Include/cmsis_gcc.h **** 
 696:Drivers/CMSIS/Include/cmsis_gcc.h **** #else  /* ((defined (__ARM_ARCH_7M__      ) && (__ARM_ARCH_7M__      == 1)) || \
 697:Drivers/CMSIS/Include/cmsis_gcc.h ****            (defined (__ARM_ARCH_7EM__     ) && (__ARM_ARCH_7EM__     == 1)) || \
 698:Drivers/CMSIS/Include/cmsis_gcc.h ****            (defined (__ARM_ARCH_8M_MAIN__ ) && (__ARM_ARCH_8M_MAIN__ == 1))    ) */
 699:Drivers/CMSIS/Include/cmsis_gcc.h **** 
 700:Drivers/CMSIS/Include/cmsis_gcc.h **** /**
 701:Drivers/CMSIS/Include/cmsis_gcc.h ****   \brief   Signed Saturate
 702:Drivers/CMSIS/Include/cmsis_gcc.h ****   \details Saturates a signed value.
 703:Drivers/CMSIS/Include/cmsis_gcc.h ****   \param [in]  value  Value to be saturated
 704:Drivers/CMSIS/Include/cmsis_gcc.h ****   \param [in]    sat  Bit position to saturate to (1..32)
 705:Drivers/CMSIS/Include/cmsis_gcc.h ****   \return             Saturated value
 706:Drivers/CMSIS/Include/cmsis_gcc.h ****  */
 707:Drivers/CMSIS/Include/cmsis_gcc.h **** __STATIC_FORCEINLINE int32_t __SSAT(int32_t val, uint32_t sat)
 708:Drivers/CMSIS/Include/cmsis_gcc.h **** {
 709:Drivers/CMSIS/Include/cmsis_gcc.h ****   if ((sat >= 1U) && (sat <= 32U))
 710:Drivers/CMSIS/Include/cmsis_gcc.h ****   {
 711:Drivers/CMSIS/Include/cmsis_gcc.h ****     const int32_t max = (int32_t)((1U << (sat - 1U)) - 1U);
 712:Drivers/CMSIS/Include/cmsis_gcc.h ****     const int32_t min = -1 - max ;
 713:Drivers/CMSIS/Include/cmsis_gcc.h ****     if (val > max)
 714:Drivers/CMSIS/Include/cmsis_gcc.h ****     {
 715:Drivers/CMSIS/Include/cmsis_gcc.h ****       return max;
 716:Drivers/CMSIS/Include/cmsis_gcc.h ****     }
 717:Drivers/CMSIS/Include/cmsis_gcc.h ****     else if (val < min)
 718:Drivers/CMSIS/Include/cmsis_gcc.h ****     {
 719:Drivers/CMSIS/Include/cmsis_gcc.h ****       return min;
 720:Drivers/CMSIS/Include/cmsis_gcc.h ****     }
 721:Drivers/CMSIS/Include/cmsis_gcc.h ****   }
 722:Drivers/CMSIS/Include/cmsis_gcc.h ****   return val;
 723:Drivers/CMSIS/Include/cmsis_gcc.h **** }
 724:Drivers/CMSIS/Include/cmsis_gcc.h **** 
ARM GAS  C:\Users\Nathan\AppData\Local\Temp\ccHbzc7Q.s 			page 50


 725:Drivers/CMSIS/Include/cmsis_gcc.h **** /**
 726:Drivers/CMSIS/Include/cmsis_gcc.h ****   \brief   Unsigned Saturate
 727:Drivers/CMSIS/Include/cmsis_gcc.h ****   \details Saturates an unsigned value.
 728:Drivers/CMSIS/Include/cmsis_gcc.h ****   \param [in]  value  Value to be saturated
 729:Drivers/CMSIS/Include/cmsis_gcc.h ****   \param [in]    sat  Bit position to saturate to (0..31)
 730:Drivers/CMSIS/Include/cmsis_gcc.h ****   \return             Saturated value
 731:Drivers/CMSIS/Include/cmsis_gcc.h ****  */
 732:Drivers/CMSIS/Include/cmsis_gcc.h **** __STATIC_FORCEINLINE uint32_t __USAT(int32_t val, uint32_t sat)
 733:Drivers/CMSIS/Include/cmsis_gcc.h **** {
 734:Drivers/CMSIS/Include/cmsis_gcc.h ****   if (sat <= 31U)
 735:Drivers/CMSIS/Include/cmsis_gcc.h ****   {
 736:Drivers/CMSIS/Include/cmsis_gcc.h ****     const uint32_t max = ((1U << sat) - 1U);
 737:Drivers/CMSIS/Include/cmsis_gcc.h ****     if (val > (int32_t)max)
 738:Drivers/CMSIS/Include/cmsis_gcc.h ****     {
 739:Drivers/CMSIS/Include/cmsis_gcc.h ****       return max;
 740:Drivers/CMSIS/Include/cmsis_gcc.h ****     }
 741:Drivers/CMSIS/Include/cmsis_gcc.h ****     else if (val < 0)
 742:Drivers/CMSIS/Include/cmsis_gcc.h ****     {
 743:Drivers/CMSIS/Include/cmsis_gcc.h ****       return 0U;
 744:Drivers/CMSIS/Include/cmsis_gcc.h ****     }
 745:Drivers/CMSIS/Include/cmsis_gcc.h ****   }
 746:Drivers/CMSIS/Include/cmsis_gcc.h ****   return (uint32_t)val;
 747:Drivers/CMSIS/Include/cmsis_gcc.h **** }
 748:Drivers/CMSIS/Include/cmsis_gcc.h **** 
 749:Drivers/CMSIS/Include/cmsis_gcc.h **** #endif /* ((defined (__ARM_ARCH_7M__      ) && (__ARM_ARCH_7M__      == 1)) || \
 750:Drivers/CMSIS/Include/cmsis_gcc.h ****            (defined (__ARM_ARCH_7EM__     ) && (__ARM_ARCH_7EM__     == 1)) || \
 751:Drivers/CMSIS/Include/cmsis_gcc.h ****            (defined (__ARM_ARCH_8M_MAIN__ ) && (__ARM_ARCH_8M_MAIN__ == 1))    ) */
 752:Drivers/CMSIS/Include/cmsis_gcc.h **** 
 753:Drivers/CMSIS/Include/cmsis_gcc.h **** 
 754:Drivers/CMSIS/Include/cmsis_gcc.h **** #if ((defined (__ARM_ARCH_8M_MAIN__ ) && (__ARM_ARCH_8M_MAIN__ == 1)) || \
 755:Drivers/CMSIS/Include/cmsis_gcc.h ****      (defined (__ARM_ARCH_8M_BASE__ ) && (__ARM_ARCH_8M_BASE__ == 1))    )
 756:Drivers/CMSIS/Include/cmsis_gcc.h **** /**
 757:Drivers/CMSIS/Include/cmsis_gcc.h ****   \brief   Load-Acquire (8 bit)
 758:Drivers/CMSIS/Include/cmsis_gcc.h ****   \details Executes a LDAB instruction for 8 bit value.
 759:Drivers/CMSIS/Include/cmsis_gcc.h ****   \param [in]    ptr  Pointer to data
 760:Drivers/CMSIS/Include/cmsis_gcc.h ****   \return             value of type uint8_t at (*ptr)
 761:Drivers/CMSIS/Include/cmsis_gcc.h ****  */
 762:Drivers/CMSIS/Include/cmsis_gcc.h **** __STATIC_FORCEINLINE uint8_t __LDAB(volatile uint8_t *ptr)
 763:Drivers/CMSIS/Include/cmsis_gcc.h **** {
 764:Drivers/CMSIS/Include/cmsis_gcc.h ****     uint32_t result;
 765:Drivers/CMSIS/Include/cmsis_gcc.h **** 
 766:Drivers/CMSIS/Include/cmsis_gcc.h ****    __ASM volatile ("ldab %0, %1" : "=r" (result) : "Q" (*ptr) : "memory" );
 767:Drivers/CMSIS/Include/cmsis_gcc.h ****    return ((uint8_t) result);
 768:Drivers/CMSIS/Include/cmsis_gcc.h **** }
 769:Drivers/CMSIS/Include/cmsis_gcc.h **** 
 770:Drivers/CMSIS/Include/cmsis_gcc.h **** 
 771:Drivers/CMSIS/Include/cmsis_gcc.h **** /**
 772:Drivers/CMSIS/Include/cmsis_gcc.h ****   \brief   Load-Acquire (16 bit)
 773:Drivers/CMSIS/Include/cmsis_gcc.h ****   \details Executes a LDAH instruction for 16 bit values.
 774:Drivers/CMSIS/Include/cmsis_gcc.h ****   \param [in]    ptr  Pointer to data
 775:Drivers/CMSIS/Include/cmsis_gcc.h ****   \return        value of type uint16_t at (*ptr)
 776:Drivers/CMSIS/Include/cmsis_gcc.h ****  */
 777:Drivers/CMSIS/Include/cmsis_gcc.h **** __STATIC_FORCEINLINE uint16_t __LDAH(volatile uint16_t *ptr)
 778:Drivers/CMSIS/Include/cmsis_gcc.h **** {
 779:Drivers/CMSIS/Include/cmsis_gcc.h ****     uint32_t result;
 780:Drivers/CMSIS/Include/cmsis_gcc.h **** 
 781:Drivers/CMSIS/Include/cmsis_gcc.h ****    __ASM volatile ("ldah %0, %1" : "=r" (result) : "Q" (*ptr) : "memory" );
ARM GAS  C:\Users\Nathan\AppData\Local\Temp\ccHbzc7Q.s 			page 51


 782:Drivers/CMSIS/Include/cmsis_gcc.h ****    return ((uint16_t) result);
 783:Drivers/CMSIS/Include/cmsis_gcc.h **** }
 784:Drivers/CMSIS/Include/cmsis_gcc.h **** 
 785:Drivers/CMSIS/Include/cmsis_gcc.h **** 
 786:Drivers/CMSIS/Include/cmsis_gcc.h **** /**
 787:Drivers/CMSIS/Include/cmsis_gcc.h ****   \brief   Load-Acquire (32 bit)
 788:Drivers/CMSIS/Include/cmsis_gcc.h ****   \details Executes a LDA instruction for 32 bit values.
 789:Drivers/CMSIS/Include/cmsis_gcc.h ****   \param [in]    ptr  Pointer to data
 790:Drivers/CMSIS/Include/cmsis_gcc.h ****   \return        value of type uint32_t at (*ptr)
 791:Drivers/CMSIS/Include/cmsis_gcc.h ****  */
 792:Drivers/CMSIS/Include/cmsis_gcc.h **** __STATIC_FORCEINLINE uint32_t __LDA(volatile uint32_t *ptr)
 793:Drivers/CMSIS/Include/cmsis_gcc.h **** {
 794:Drivers/CMSIS/Include/cmsis_gcc.h ****     uint32_t result;
 795:Drivers/CMSIS/Include/cmsis_gcc.h **** 
 796:Drivers/CMSIS/Include/cmsis_gcc.h ****    __ASM volatile ("lda %0, %1" : "=r" (result) : "Q" (*ptr) : "memory" );
 797:Drivers/CMSIS/Include/cmsis_gcc.h ****    return(result);
 798:Drivers/CMSIS/Include/cmsis_gcc.h **** }
 799:Drivers/CMSIS/Include/cmsis_gcc.h **** 
 800:Drivers/CMSIS/Include/cmsis_gcc.h **** 
 801:Drivers/CMSIS/Include/cmsis_gcc.h **** /**
 802:Drivers/CMSIS/Include/cmsis_gcc.h ****   \brief   Store-Release (8 bit)
 803:Drivers/CMSIS/Include/cmsis_gcc.h ****   \details Executes a STLB instruction for 8 bit values.
 804:Drivers/CMSIS/Include/cmsis_gcc.h ****   \param [in]  value  Value to store
 805:Drivers/CMSIS/Include/cmsis_gcc.h ****   \param [in]    ptr  Pointer to location
 806:Drivers/CMSIS/Include/cmsis_gcc.h ****  */
 807:Drivers/CMSIS/Include/cmsis_gcc.h **** __STATIC_FORCEINLINE void __STLB(uint8_t value, volatile uint8_t *ptr)
 808:Drivers/CMSIS/Include/cmsis_gcc.h **** {
 809:Drivers/CMSIS/Include/cmsis_gcc.h ****    __ASM volatile ("stlb %1, %0" : "=Q" (*ptr) : "r" ((uint32_t)value) : "memory" );
 810:Drivers/CMSIS/Include/cmsis_gcc.h **** }
 811:Drivers/CMSIS/Include/cmsis_gcc.h **** 
 812:Drivers/CMSIS/Include/cmsis_gcc.h **** 
 813:Drivers/CMSIS/Include/cmsis_gcc.h **** /**
 814:Drivers/CMSIS/Include/cmsis_gcc.h ****   \brief   Store-Release (16 bit)
 815:Drivers/CMSIS/Include/cmsis_gcc.h ****   \details Executes a STLH instruction for 16 bit values.
 816:Drivers/CMSIS/Include/cmsis_gcc.h ****   \param [in]  value  Value to store
 817:Drivers/CMSIS/Include/cmsis_gcc.h ****   \param [in]    ptr  Pointer to location
 818:Drivers/CMSIS/Include/cmsis_gcc.h ****  */
 819:Drivers/CMSIS/Include/cmsis_gcc.h **** __STATIC_FORCEINLINE void __STLH(uint16_t value, volatile uint16_t *ptr)
 820:Drivers/CMSIS/Include/cmsis_gcc.h **** {
 821:Drivers/CMSIS/Include/cmsis_gcc.h ****    __ASM volatile ("stlh %1, %0" : "=Q" (*ptr) : "r" ((uint32_t)value) : "memory" );
 822:Drivers/CMSIS/Include/cmsis_gcc.h **** }
 823:Drivers/CMSIS/Include/cmsis_gcc.h **** 
 824:Drivers/CMSIS/Include/cmsis_gcc.h **** 
 825:Drivers/CMSIS/Include/cmsis_gcc.h **** /**
 826:Drivers/CMSIS/Include/cmsis_gcc.h ****   \brief   Store-Release (32 bit)
 827:Drivers/CMSIS/Include/cmsis_gcc.h ****   \details Executes a STL instruction for 32 bit values.
 828:Drivers/CMSIS/Include/cmsis_gcc.h ****   \param [in]  value  Value to store
 829:Drivers/CMSIS/Include/cmsis_gcc.h ****   \param [in]    ptr  Pointer to location
 830:Drivers/CMSIS/Include/cmsis_gcc.h ****  */
 831:Drivers/CMSIS/Include/cmsis_gcc.h **** __STATIC_FORCEINLINE void __STL(uint32_t value, volatile uint32_t *ptr)
 832:Drivers/CMSIS/Include/cmsis_gcc.h **** {
 833:Drivers/CMSIS/Include/cmsis_gcc.h ****    __ASM volatile ("stl %1, %0" : "=Q" (*ptr) : "r" ((uint32_t)value) : "memory" );
 834:Drivers/CMSIS/Include/cmsis_gcc.h **** }
 835:Drivers/CMSIS/Include/cmsis_gcc.h **** 
 836:Drivers/CMSIS/Include/cmsis_gcc.h **** 
 837:Drivers/CMSIS/Include/cmsis_gcc.h **** /**
 838:Drivers/CMSIS/Include/cmsis_gcc.h ****   \brief   Load-Acquire Exclusive (8 bit)
ARM GAS  C:\Users\Nathan\AppData\Local\Temp\ccHbzc7Q.s 			page 52


 839:Drivers/CMSIS/Include/cmsis_gcc.h ****   \details Executes a LDAB exclusive instruction for 8 bit value.
 840:Drivers/CMSIS/Include/cmsis_gcc.h ****   \param [in]    ptr  Pointer to data
 841:Drivers/CMSIS/Include/cmsis_gcc.h ****   \return             value of type uint8_t at (*ptr)
 842:Drivers/CMSIS/Include/cmsis_gcc.h ****  */
 843:Drivers/CMSIS/Include/cmsis_gcc.h **** __STATIC_FORCEINLINE uint8_t __LDAEXB(volatile uint8_t *ptr)
 844:Drivers/CMSIS/Include/cmsis_gcc.h **** {
 845:Drivers/CMSIS/Include/cmsis_gcc.h ****     uint32_t result;
 846:Drivers/CMSIS/Include/cmsis_gcc.h **** 
 847:Drivers/CMSIS/Include/cmsis_gcc.h ****    __ASM volatile ("ldaexb %0, %1" : "=r" (result) : "Q" (*ptr) : "memory" );
 848:Drivers/CMSIS/Include/cmsis_gcc.h ****    return ((uint8_t) result);
 849:Drivers/CMSIS/Include/cmsis_gcc.h **** }
 850:Drivers/CMSIS/Include/cmsis_gcc.h **** 
 851:Drivers/CMSIS/Include/cmsis_gcc.h **** 
 852:Drivers/CMSIS/Include/cmsis_gcc.h **** /**
 853:Drivers/CMSIS/Include/cmsis_gcc.h ****   \brief   Load-Acquire Exclusive (16 bit)
 854:Drivers/CMSIS/Include/cmsis_gcc.h ****   \details Executes a LDAH exclusive instruction for 16 bit values.
 855:Drivers/CMSIS/Include/cmsis_gcc.h ****   \param [in]    ptr  Pointer to data
 856:Drivers/CMSIS/Include/cmsis_gcc.h ****   \return        value of type uint16_t at (*ptr)
 857:Drivers/CMSIS/Include/cmsis_gcc.h ****  */
 858:Drivers/CMSIS/Include/cmsis_gcc.h **** __STATIC_FORCEINLINE uint16_t __LDAEXH(volatile uint16_t *ptr)
 859:Drivers/CMSIS/Include/cmsis_gcc.h **** {
 860:Drivers/CMSIS/Include/cmsis_gcc.h ****     uint32_t result;
 861:Drivers/CMSIS/Include/cmsis_gcc.h **** 
 862:Drivers/CMSIS/Include/cmsis_gcc.h ****    __ASM volatile ("ldaexh %0, %1" : "=r" (result) : "Q" (*ptr) : "memory" );
 863:Drivers/CMSIS/Include/cmsis_gcc.h ****    return ((uint16_t) result);
 864:Drivers/CMSIS/Include/cmsis_gcc.h **** }
 865:Drivers/CMSIS/Include/cmsis_gcc.h **** 
 866:Drivers/CMSIS/Include/cmsis_gcc.h **** 
 867:Drivers/CMSIS/Include/cmsis_gcc.h **** /**
 868:Drivers/CMSIS/Include/cmsis_gcc.h ****   \brief   Load-Acquire Exclusive (32 bit)
 869:Drivers/CMSIS/Include/cmsis_gcc.h ****   \details Executes a LDA exclusive instruction for 32 bit values.
 870:Drivers/CMSIS/Include/cmsis_gcc.h ****   \param [in]    ptr  Pointer to data
 871:Drivers/CMSIS/Include/cmsis_gcc.h ****   \return        value of type uint32_t at (*ptr)
 872:Drivers/CMSIS/Include/cmsis_gcc.h ****  */
 873:Drivers/CMSIS/Include/cmsis_gcc.h **** __STATIC_FORCEINLINE uint32_t __LDAEX(volatile uint32_t *ptr)
 874:Drivers/CMSIS/Include/cmsis_gcc.h **** {
 875:Drivers/CMSIS/Include/cmsis_gcc.h ****     uint32_t result;
 876:Drivers/CMSIS/Include/cmsis_gcc.h **** 
 877:Drivers/CMSIS/Include/cmsis_gcc.h ****    __ASM volatile ("ldaex %0, %1" : "=r" (result) : "Q" (*ptr) : "memory" );
 878:Drivers/CMSIS/Include/cmsis_gcc.h ****    return(result);
 879:Drivers/CMSIS/Include/cmsis_gcc.h **** }
 880:Drivers/CMSIS/Include/cmsis_gcc.h **** 
 881:Drivers/CMSIS/Include/cmsis_gcc.h **** 
 882:Drivers/CMSIS/Include/cmsis_gcc.h **** /**
 883:Drivers/CMSIS/Include/cmsis_gcc.h ****   \brief   Store-Release Exclusive (8 bit)
 884:Drivers/CMSIS/Include/cmsis_gcc.h ****   \details Executes a STLB exclusive instruction for 8 bit values.
 885:Drivers/CMSIS/Include/cmsis_gcc.h ****   \param [in]  value  Value to store
 886:Drivers/CMSIS/Include/cmsis_gcc.h ****   \param [in]    ptr  Pointer to location
 887:Drivers/CMSIS/Include/cmsis_gcc.h ****   \return          0  Function succeeded
 888:Drivers/CMSIS/Include/cmsis_gcc.h ****   \return          1  Function failed
 889:Drivers/CMSIS/Include/cmsis_gcc.h ****  */
 890:Drivers/CMSIS/Include/cmsis_gcc.h **** __STATIC_FORCEINLINE uint32_t __STLEXB(uint8_t value, volatile uint8_t *ptr)
 891:Drivers/CMSIS/Include/cmsis_gcc.h **** {
 892:Drivers/CMSIS/Include/cmsis_gcc.h ****    uint32_t result;
 893:Drivers/CMSIS/Include/cmsis_gcc.h **** 
 894:Drivers/CMSIS/Include/cmsis_gcc.h ****    __ASM volatile ("stlexb %0, %2, %1" : "=&r" (result), "=Q" (*ptr) : "r" ((uint32_t)value) : "mem
 895:Drivers/CMSIS/Include/cmsis_gcc.h ****    return(result);
ARM GAS  C:\Users\Nathan\AppData\Local\Temp\ccHbzc7Q.s 			page 53


 896:Drivers/CMSIS/Include/cmsis_gcc.h **** }
 897:Drivers/CMSIS/Include/cmsis_gcc.h **** 
 898:Drivers/CMSIS/Include/cmsis_gcc.h **** 
 899:Drivers/CMSIS/Include/cmsis_gcc.h **** /**
 900:Drivers/CMSIS/Include/cmsis_gcc.h ****   \brief   Store-Release Exclusive (16 bit)
 901:Drivers/CMSIS/Include/cmsis_gcc.h ****   \details Executes a STLH exclusive instruction for 16 bit values.
 902:Drivers/CMSIS/Include/cmsis_gcc.h ****   \param [in]  value  Value to store
 903:Drivers/CMSIS/Include/cmsis_gcc.h ****   \param [in]    ptr  Pointer to location
 904:Drivers/CMSIS/Include/cmsis_gcc.h ****   \return          0  Function succeeded
 905:Drivers/CMSIS/Include/cmsis_gcc.h ****   \return          1  Function failed
 906:Drivers/CMSIS/Include/cmsis_gcc.h ****  */
 907:Drivers/CMSIS/Include/cmsis_gcc.h **** __STATIC_FORCEINLINE uint32_t __STLEXH(uint16_t value, volatile uint16_t *ptr)
 908:Drivers/CMSIS/Include/cmsis_gcc.h **** {
 909:Drivers/CMSIS/Include/cmsis_gcc.h ****    uint32_t result;
 910:Drivers/CMSIS/Include/cmsis_gcc.h **** 
 911:Drivers/CMSIS/Include/cmsis_gcc.h ****    __ASM volatile ("stlexh %0, %2, %1" : "=&r" (result), "=Q" (*ptr) : "r" ((uint32_t)value) : "mem
 912:Drivers/CMSIS/Include/cmsis_gcc.h ****    return(result);
 913:Drivers/CMSIS/Include/cmsis_gcc.h **** }
 914:Drivers/CMSIS/Include/cmsis_gcc.h **** 
 915:Drivers/CMSIS/Include/cmsis_gcc.h **** 
 916:Drivers/CMSIS/Include/cmsis_gcc.h **** /**
 917:Drivers/CMSIS/Include/cmsis_gcc.h ****   \brief   Store-Release Exclusive (32 bit)
 918:Drivers/CMSIS/Include/cmsis_gcc.h ****   \details Executes a STL exclusive instruction for 32 bit values.
 919:Drivers/CMSIS/Include/cmsis_gcc.h ****   \param [in]  value  Value to store
 920:Drivers/CMSIS/Include/cmsis_gcc.h ****   \param [in]    ptr  Pointer to location
 921:Drivers/CMSIS/Include/cmsis_gcc.h ****   \return          0  Function succeeded
 922:Drivers/CMSIS/Include/cmsis_gcc.h ****   \return          1  Function failed
 923:Drivers/CMSIS/Include/cmsis_gcc.h ****  */
 924:Drivers/CMSIS/Include/cmsis_gcc.h **** __STATIC_FORCEINLINE uint32_t __STLEX(uint32_t value, volatile uint32_t *ptr)
 925:Drivers/CMSIS/Include/cmsis_gcc.h **** {
 926:Drivers/CMSIS/Include/cmsis_gcc.h ****    uint32_t result;
 927:Drivers/CMSIS/Include/cmsis_gcc.h **** 
 928:Drivers/CMSIS/Include/cmsis_gcc.h ****    __ASM volatile ("stlex %0, %2, %1" : "=&r" (result), "=Q" (*ptr) : "r" ((uint32_t)value) : "memo
 929:Drivers/CMSIS/Include/cmsis_gcc.h ****    return(result);
 930:Drivers/CMSIS/Include/cmsis_gcc.h **** }
 931:Drivers/CMSIS/Include/cmsis_gcc.h **** 
 932:Drivers/CMSIS/Include/cmsis_gcc.h **** #endif /* ((defined (__ARM_ARCH_8M_MAIN__ ) && (__ARM_ARCH_8M_MAIN__ == 1)) || \
 933:Drivers/CMSIS/Include/cmsis_gcc.h ****            (defined (__ARM_ARCH_8M_BASE__ ) && (__ARM_ARCH_8M_BASE__ == 1))    ) */
 934:Drivers/CMSIS/Include/cmsis_gcc.h **** 
 935:Drivers/CMSIS/Include/cmsis_gcc.h **** /*@}*/ /* end of group CMSIS_Core_InstructionInterface */
 936:Drivers/CMSIS/Include/cmsis_gcc.h **** 
 937:Drivers/CMSIS/Include/cmsis_gcc.h **** 
 938:Drivers/CMSIS/Include/cmsis_gcc.h **** /* ###########################  Core Function Access  ########################### */
 939:Drivers/CMSIS/Include/cmsis_gcc.h **** /** \ingroup  CMSIS_Core_FunctionInterface
 940:Drivers/CMSIS/Include/cmsis_gcc.h ****     \defgroup CMSIS_Core_RegAccFunctions CMSIS Core Register Access Functions
 941:Drivers/CMSIS/Include/cmsis_gcc.h ****   @{
 942:Drivers/CMSIS/Include/cmsis_gcc.h ****  */
 943:Drivers/CMSIS/Include/cmsis_gcc.h **** 
 944:Drivers/CMSIS/Include/cmsis_gcc.h **** /**
 945:Drivers/CMSIS/Include/cmsis_gcc.h ****   \brief   Enable IRQ Interrupts
 946:Drivers/CMSIS/Include/cmsis_gcc.h ****   \details Enables IRQ interrupts by clearing special-purpose register PRIMASK.
 947:Drivers/CMSIS/Include/cmsis_gcc.h ****            Can only be executed in Privileged modes.
 948:Drivers/CMSIS/Include/cmsis_gcc.h ****  */
 949:Drivers/CMSIS/Include/cmsis_gcc.h **** __STATIC_FORCEINLINE void __enable_irq(void)
 950:Drivers/CMSIS/Include/cmsis_gcc.h **** {
 951:Drivers/CMSIS/Include/cmsis_gcc.h ****   __ASM volatile ("cpsie i" : : : "memory");
 952:Drivers/CMSIS/Include/cmsis_gcc.h **** }
ARM GAS  C:\Users\Nathan\AppData\Local\Temp\ccHbzc7Q.s 			page 54


 953:Drivers/CMSIS/Include/cmsis_gcc.h **** 
 954:Drivers/CMSIS/Include/cmsis_gcc.h **** 
 955:Drivers/CMSIS/Include/cmsis_gcc.h **** /**
 956:Drivers/CMSIS/Include/cmsis_gcc.h ****   \brief   Disable IRQ Interrupts
 957:Drivers/CMSIS/Include/cmsis_gcc.h ****   \details Disables IRQ interrupts by setting special-purpose register PRIMASK.
 958:Drivers/CMSIS/Include/cmsis_gcc.h ****            Can only be executed in Privileged modes.
 959:Drivers/CMSIS/Include/cmsis_gcc.h ****  */
 960:Drivers/CMSIS/Include/cmsis_gcc.h **** __STATIC_FORCEINLINE void __disable_irq(void)
 964              		.loc 2 960 27 view .LVU202
 965              	.LBB13:
 961:Drivers/CMSIS/Include/cmsis_gcc.h **** {
 962:Drivers/CMSIS/Include/cmsis_gcc.h ****   __ASM volatile ("cpsid i" : : : "memory");
 966              		.loc 2 962 3 view .LVU203
 967              		.syntax unified
 968              	@ 962 "Drivers/CMSIS/Include/cmsis_gcc.h" 1
 969 0000 72B6     		cpsid i
 970              	@ 0 "" 2
 971              		.thumb
 972              		.syntax unified
 973              	.L63:
 974              	.LBE13:
 975              	.LBE12:
 935:Core/Src/main.c ****   while (1)
 976              		.loc 1 935 3 view .LVU204
 936:Core/Src/main.c ****   {
 937:Core/Src/main.c ****   }
 977              		.loc 1 937 3 view .LVU205
 935:Core/Src/main.c ****   while (1)
 978              		.loc 1 935 9 view .LVU206
 979 0002 FEE7     		b	.L63
 980              		.cfi_endproc
 981              	.LFE154:
 983              		.section	.text.MX_USART1_UART_Init,"ax",%progbits
 984              		.align	1
 985              		.syntax unified
 986              		.thumb
 987              		.thumb_func
 989              	MX_USART1_UART_Init:
 990              	.LFB139:
 566:Core/Src/main.c **** 
 991              		.loc 1 566 1 view -0
 992              		.cfi_startproc
 993              		@ args = 0, pretend = 0, frame = 0
 994              		@ frame_needed = 0, uses_anonymous_args = 0
 995 0000 08B5     		push	{r3, lr}
 996              		.cfi_def_cfa_offset 8
 997              		.cfi_offset 3, -8
 998              		.cfi_offset 14, -4
 575:Core/Src/main.c ****   huart1.Init.BaudRate = 115200;
 999              		.loc 1 575 3 view .LVU208
 575:Core/Src/main.c ****   huart1.Init.BaudRate = 115200;
 1000              		.loc 1 575 19 is_stmt 0 view .LVU209
 1001 0002 0A48     		ldr	r0, .L68
 1002 0004 0A4B     		ldr	r3, .L68+4
 1003 0006 0360     		str	r3, [r0]
 576:Core/Src/main.c ****   huart1.Init.WordLength = UART_WORDLENGTH_8B;
 1004              		.loc 1 576 3 is_stmt 1 view .LVU210
ARM GAS  C:\Users\Nathan\AppData\Local\Temp\ccHbzc7Q.s 			page 55


 576:Core/Src/main.c ****   huart1.Init.WordLength = UART_WORDLENGTH_8B;
 1005              		.loc 1 576 24 is_stmt 0 view .LVU211
 1006 0008 4FF4E133 		mov	r3, #115200
 1007 000c 4360     		str	r3, [r0, #4]
 577:Core/Src/main.c ****   huart1.Init.StopBits = UART_STOPBITS_1;
 1008              		.loc 1 577 3 is_stmt 1 view .LVU212
 577:Core/Src/main.c ****   huart1.Init.StopBits = UART_STOPBITS_1;
 1009              		.loc 1 577 26 is_stmt 0 view .LVU213
 1010 000e 0023     		movs	r3, #0
 1011 0010 8360     		str	r3, [r0, #8]
 578:Core/Src/main.c ****   huart1.Init.Parity = UART_PARITY_NONE;
 1012              		.loc 1 578 3 is_stmt 1 view .LVU214
 578:Core/Src/main.c ****   huart1.Init.Parity = UART_PARITY_NONE;
 1013              		.loc 1 578 24 is_stmt 0 view .LVU215
 1014 0012 C360     		str	r3, [r0, #12]
 579:Core/Src/main.c ****   huart1.Init.Mode = UART_MODE_TX_RX;
 1015              		.loc 1 579 3 is_stmt 1 view .LVU216
 579:Core/Src/main.c ****   huart1.Init.Mode = UART_MODE_TX_RX;
 1016              		.loc 1 579 22 is_stmt 0 view .LVU217
 1017 0014 0361     		str	r3, [r0, #16]
 580:Core/Src/main.c ****   huart1.Init.HwFlowCtl = UART_HWCONTROL_NONE;
 1018              		.loc 1 580 3 is_stmt 1 view .LVU218
 580:Core/Src/main.c ****   huart1.Init.HwFlowCtl = UART_HWCONTROL_NONE;
 1019              		.loc 1 580 20 is_stmt 0 view .LVU219
 1020 0016 0C22     		movs	r2, #12
 1021 0018 4261     		str	r2, [r0, #20]
 581:Core/Src/main.c ****   huart1.Init.OverSampling = UART_OVERSAMPLING_16;
 1022              		.loc 1 581 3 is_stmt 1 view .LVU220
 581:Core/Src/main.c ****   huart1.Init.OverSampling = UART_OVERSAMPLING_16;
 1023              		.loc 1 581 25 is_stmt 0 view .LVU221
 1024 001a 8361     		str	r3, [r0, #24]
 582:Core/Src/main.c ****   if (HAL_UART_Init(&huart1) != HAL_OK)
 1025              		.loc 1 582 3 is_stmt 1 view .LVU222
 582:Core/Src/main.c ****   if (HAL_UART_Init(&huart1) != HAL_OK)
 1026              		.loc 1 582 28 is_stmt 0 view .LVU223
 1027 001c C361     		str	r3, [r0, #28]
 583:Core/Src/main.c ****   {
 1028              		.loc 1 583 3 is_stmt 1 view .LVU224
 583:Core/Src/main.c ****   {
 1029              		.loc 1 583 7 is_stmt 0 view .LVU225
 1030 001e FFF7FEFF 		bl	HAL_UART_Init
 1031              	.LVL73:
 583:Core/Src/main.c ****   {
 1032              		.loc 1 583 6 discriminator 1 view .LVU226
 1033 0022 00B9     		cbnz	r0, .L67
 591:Core/Src/main.c **** 
 1034              		.loc 1 591 1 view .LVU227
 1035 0024 08BD     		pop	{r3, pc}
 1036              	.L67:
 585:Core/Src/main.c ****   }
 1037              		.loc 1 585 5 is_stmt 1 view .LVU228
 1038 0026 FFF7FEFF 		bl	Error_Handler
 1039              	.LVL74:
 1040              	.L69:
 1041 002a 00BF     		.align	2
 1042              	.L68:
 1043 002c 00000000 		.word	huart1
ARM GAS  C:\Users\Nathan\AppData\Local\Temp\ccHbzc7Q.s 			page 56


 1044 0030 00100140 		.word	1073811456
 1045              		.cfi_endproc
 1046              	.LFE139:
 1048              		.section	.rodata.MX_I2C1_Init.str1.4,"aMS",%progbits,1
 1049              		.align	2
 1050              	.LC10:
 1051 0000 54656D70 		.ascii	"Temperature not ready\015\012\000"
 1051      65726174 
 1051      75726520 
 1051      6E6F7420 
 1051      72656164 
 1052              		.section	.text.MX_I2C1_Init,"ax",%progbits
 1053              		.align	1
 1054              		.syntax unified
 1055              		.thumb
 1056              		.thumb_func
 1058              	MX_I2C1_Init:
 1059              	.LFB136:
 462:Core/Src/main.c **** 
 1060              		.loc 1 462 1 view -0
 1061              		.cfi_startproc
 1062              		@ args = 0, pretend = 0, frame = 0
 1063              		@ frame_needed = 0, uses_anonymous_args = 0
 1064 0000 00B5     		push	{lr}
 1065              		.cfi_def_cfa_offset 4
 1066              		.cfi_offset 14, -4
 1067 0002 85B0     		sub	sp, sp, #20
 1068              		.cfi_def_cfa_offset 24
 471:Core/Src/main.c ****   hi2c1.Init.ClockSpeed = 100000;
 1069              		.loc 1 471 3 view .LVU230
 471:Core/Src/main.c ****   hi2c1.Init.ClockSpeed = 100000;
 1070              		.loc 1 471 18 is_stmt 0 view .LVU231
 1071 0004 1948     		ldr	r0, .L76
 1072 0006 1A4B     		ldr	r3, .L76+4
 1073 0008 0360     		str	r3, [r0]
 472:Core/Src/main.c ****   hi2c1.Init.DutyCycle = I2C_DUTYCYCLE_2;
 1074              		.loc 1 472 3 is_stmt 1 view .LVU232
 472:Core/Src/main.c ****   hi2c1.Init.DutyCycle = I2C_DUTYCYCLE_2;
 1075              		.loc 1 472 25 is_stmt 0 view .LVU233
 1076 000a 1A4B     		ldr	r3, .L76+8
 1077 000c 4360     		str	r3, [r0, #4]
 473:Core/Src/main.c ****   hi2c1.Init.OwnAddress1 = 130;
 1078              		.loc 1 473 3 is_stmt 1 view .LVU234
 473:Core/Src/main.c ****   hi2c1.Init.OwnAddress1 = 130;
 1079              		.loc 1 473 24 is_stmt 0 view .LVU235
 1080 000e 0023     		movs	r3, #0
 1081 0010 8360     		str	r3, [r0, #8]
 474:Core/Src/main.c ****   hi2c1.Init.AddressingMode = I2C_ADDRESSINGMODE_7BIT;
 1082              		.loc 1 474 3 is_stmt 1 view .LVU236
 474:Core/Src/main.c ****   hi2c1.Init.AddressingMode = I2C_ADDRESSINGMODE_7BIT;
 1083              		.loc 1 474 26 is_stmt 0 view .LVU237
 1084 0012 8222     		movs	r2, #130
 1085 0014 C260     		str	r2, [r0, #12]
 475:Core/Src/main.c ****   hi2c1.Init.DualAddressMode = I2C_DUALADDRESS_DISABLE;
 1086              		.loc 1 475 3 is_stmt 1 view .LVU238
 475:Core/Src/main.c ****   hi2c1.Init.DualAddressMode = I2C_DUALADDRESS_DISABLE;
 1087              		.loc 1 475 29 is_stmt 0 view .LVU239
ARM GAS  C:\Users\Nathan\AppData\Local\Temp\ccHbzc7Q.s 			page 57


 1088 0016 4FF48042 		mov	r2, #16384
 1089 001a 0261     		str	r2, [r0, #16]
 476:Core/Src/main.c ****   hi2c1.Init.OwnAddress2 = 0;
 1090              		.loc 1 476 3 is_stmt 1 view .LVU240
 476:Core/Src/main.c ****   hi2c1.Init.OwnAddress2 = 0;
 1091              		.loc 1 476 30 is_stmt 0 view .LVU241
 1092 001c 4361     		str	r3, [r0, #20]
 477:Core/Src/main.c ****   hi2c1.Init.GeneralCallMode = I2C_GENERALCALL_DISABLE;
 1093              		.loc 1 477 3 is_stmt 1 view .LVU242
 477:Core/Src/main.c ****   hi2c1.Init.GeneralCallMode = I2C_GENERALCALL_DISABLE;
 1094              		.loc 1 477 26 is_stmt 0 view .LVU243
 1095 001e 8361     		str	r3, [r0, #24]
 478:Core/Src/main.c ****   hi2c1.Init.NoStretchMode = I2C_NOSTRETCH_DISABLE;
 1096              		.loc 1 478 3 is_stmt 1 view .LVU244
 478:Core/Src/main.c ****   hi2c1.Init.NoStretchMode = I2C_NOSTRETCH_DISABLE;
 1097              		.loc 1 478 30 is_stmt 0 view .LVU245
 1098 0020 C361     		str	r3, [r0, #28]
 479:Core/Src/main.c ****   if (HAL_I2C_Init(&hi2c1) != HAL_OK)
 1099              		.loc 1 479 3 is_stmt 1 view .LVU246
 479:Core/Src/main.c ****   if (HAL_I2C_Init(&hi2c1) != HAL_OK)
 1100              		.loc 1 479 28 is_stmt 0 view .LVU247
 1101 0022 0362     		str	r3, [r0, #32]
 480:Core/Src/main.c ****   {
 1102              		.loc 1 480 3 is_stmt 1 view .LVU248
 480:Core/Src/main.c ****   {
 1103              		.loc 1 480 7 is_stmt 0 view .LVU249
 1104 0024 FFF7FEFF 		bl	HAL_I2C_Init
 1105              	.LVL75:
 480:Core/Src/main.c ****   {
 1106              		.loc 1 480 6 discriminator 1 view .LVU250
 1107 0028 88B9     		cbnz	r0, .L75
 485:Core/Src/main.c ****       HAL_UART_Transmit(&huart1, (uint8_t*)"Temperature not ready\r\n", 32, 1000);
 1108              		.loc 1 485 5 is_stmt 1 view .LVU251
 485:Core/Src/main.c ****       HAL_UART_Transmit(&huart1, (uint8_t*)"Temperature not ready\r\n", 32, 1000);
 1109              		.loc 1 485 9 is_stmt 0 view .LVU252
 1110 002a 4FF47A73 		mov	r3, #1000
 1111 002e 0222     		movs	r2, #2
 1112 0030 8221     		movs	r1, #130
 1113 0032 0E48     		ldr	r0, .L76
 1114 0034 FFF7FEFF 		bl	HAL_I2C_IsDeviceReady
 1115              	.LVL76:
 485:Core/Src/main.c ****       HAL_UART_Transmit(&huart1, (uint8_t*)"Temperature not ready\r\n", 32, 1000);
 1116              		.loc 1 485 8 discriminator 1 view .LVU253
 1117 0038 58B1     		cbz	r0, .L72
 486:Core/Src/main.c ****     } else {
 1118              		.loc 1 486 7 is_stmt 1 view .LVU254
 1119 003a 4FF47A73 		mov	r3, #1000
 1120 003e 2022     		movs	r2, #32
 1121 0040 0D49     		ldr	r1, .L76+12
 1122 0042 0E48     		ldr	r0, .L76+16
 1123 0044 FFF7FEFF 		bl	HAL_UART_Transmit
 1124              	.LVL77:
 1125              	.L70:
 492:Core/Src/main.c **** 
 1126              		.loc 1 492 1 is_stmt 0 view .LVU255
 1127 0048 05B0     		add	sp, sp, #20
 1128              		.cfi_remember_state
ARM GAS  C:\Users\Nathan\AppData\Local\Temp\ccHbzc7Q.s 			page 58


 1129              		.cfi_def_cfa_offset 4
 1130              		@ sp needed
 1131 004a 5DF804FB 		ldr	pc, [sp], #4
 1132              	.L75:
 1133              		.cfi_restore_state
 482:Core/Src/main.c ****   }
 1134              		.loc 1 482 5 is_stmt 1 view .LVU256
 1135 004e FFF7FEFF 		bl	Error_Handler
 1136              	.LVL78:
 1137              	.L72:
 488:Core/Src/main.c ****     }
 1138              		.loc 1 488 7 view .LVU257
 1139 0052 4FF47A73 		mov	r3, #1000
 1140 0056 0293     		str	r3, [sp, #8]
 1141 0058 0123     		movs	r3, #1
 1142 005a 0193     		str	r3, [sp, #4]
 1143 005c 0022     		movs	r2, #0
 1144 005e 0092     		str	r2, [sp]
 1145 0060 0422     		movs	r2, #4
 1146 0062 8221     		movs	r1, #130
 1147 0064 0148     		ldr	r0, .L76
 1148 0066 FFF7FEFF 		bl	HAL_I2C_Mem_Write
 1149              	.LVL79:
 492:Core/Src/main.c **** 
 1150              		.loc 1 492 1 is_stmt 0 view .LVU258
 1151 006a EDE7     		b	.L70
 1152              	.L77:
 1153              		.align	2
 1154              	.L76:
 1155 006c 00000000 		.word	hi2c1
 1156 0070 00540040 		.word	1073763328
 1157 0074 A0860100 		.word	100000
 1158 0078 00000000 		.word	.LC10
 1159 007c 00000000 		.word	huart1
 1160              		.cfi_endproc
 1161              	.LFE136:
 1163              		.section	.text.MX_SPI1_Init,"ax",%progbits
 1164              		.align	1
 1165              		.syntax unified
 1166              		.thumb
 1167              		.thumb_func
 1169              	MX_SPI1_Init:
 1170              	.LFB138:
 528:Core/Src/main.c **** 
 1171              		.loc 1 528 1 is_stmt 1 view -0
 1172              		.cfi_startproc
 1173              		@ args = 0, pretend = 0, frame = 0
 1174              		@ frame_needed = 0, uses_anonymous_args = 0
 1175 0000 08B5     		push	{r3, lr}
 1176              		.cfi_def_cfa_offset 8
 1177              		.cfi_offset 3, -8
 1178              		.cfi_offset 14, -4
 538:Core/Src/main.c ****   hspi1.Init.Mode = SPI_MODE_MASTER;
 1179              		.loc 1 538 3 view .LVU260
 538:Core/Src/main.c ****   hspi1.Init.Mode = SPI_MODE_MASTER;
 1180              		.loc 1 538 18 is_stmt 0 view .LVU261
 1181 0002 0D48     		ldr	r0, .L82
ARM GAS  C:\Users\Nathan\AppData\Local\Temp\ccHbzc7Q.s 			page 59


 1182 0004 0D4B     		ldr	r3, .L82+4
 1183 0006 0360     		str	r3, [r0]
 539:Core/Src/main.c ****   hspi1.Init.Direction = SPI_DIRECTION_2LINES;
 1184              		.loc 1 539 3 is_stmt 1 view .LVU262
 539:Core/Src/main.c ****   hspi1.Init.Direction = SPI_DIRECTION_2LINES;
 1185              		.loc 1 539 19 is_stmt 0 view .LVU263
 1186 0008 4FF48273 		mov	r3, #260
 1187 000c 4360     		str	r3, [r0, #4]
 540:Core/Src/main.c ****   hspi1.Init.DataSize = SPI_DATASIZE_8BIT;
 1188              		.loc 1 540 3 is_stmt 1 view .LVU264
 540:Core/Src/main.c ****   hspi1.Init.DataSize = SPI_DATASIZE_8BIT;
 1189              		.loc 1 540 24 is_stmt 0 view .LVU265
 1190 000e 0023     		movs	r3, #0
 1191 0010 8360     		str	r3, [r0, #8]
 541:Core/Src/main.c ****   hspi1.Init.CLKPolarity = SPI_POLARITY_LOW;
 1192              		.loc 1 541 3 is_stmt 1 view .LVU266
 541:Core/Src/main.c ****   hspi1.Init.CLKPolarity = SPI_POLARITY_LOW;
 1193              		.loc 1 541 23 is_stmt 0 view .LVU267
 1194 0012 C360     		str	r3, [r0, #12]
 542:Core/Src/main.c ****   hspi1.Init.CLKPhase = SPI_PHASE_1EDGE;
 1195              		.loc 1 542 3 is_stmt 1 view .LVU268
 542:Core/Src/main.c ****   hspi1.Init.CLKPhase = SPI_PHASE_1EDGE;
 1196              		.loc 1 542 26 is_stmt 0 view .LVU269
 1197 0014 0361     		str	r3, [r0, #16]
 543:Core/Src/main.c ****   hspi1.Init.NSS = SPI_NSS_SOFT;
 1198              		.loc 1 543 3 is_stmt 1 view .LVU270
 543:Core/Src/main.c ****   hspi1.Init.NSS = SPI_NSS_SOFT;
 1199              		.loc 1 543 23 is_stmt 0 view .LVU271
 1200 0016 4361     		str	r3, [r0, #20]
 544:Core/Src/main.c ****   hspi1.Init.BaudRatePrescaler = SPI_BAUDRATEPRESCALER_2;
 1201              		.loc 1 544 3 is_stmt 1 view .LVU272
 544:Core/Src/main.c ****   hspi1.Init.BaudRatePrescaler = SPI_BAUDRATEPRESCALER_2;
 1202              		.loc 1 544 18 is_stmt 0 view .LVU273
 1203 0018 4FF40072 		mov	r2, #512
 1204 001c 8261     		str	r2, [r0, #24]
 545:Core/Src/main.c ****   hspi1.Init.FirstBit = SPI_FIRSTBIT_MSB;
 1205              		.loc 1 545 3 is_stmt 1 view .LVU274
 545:Core/Src/main.c ****   hspi1.Init.FirstBit = SPI_FIRSTBIT_MSB;
 1206              		.loc 1 545 32 is_stmt 0 view .LVU275
 1207 001e C361     		str	r3, [r0, #28]
 546:Core/Src/main.c ****   hspi1.Init.TIMode = SPI_TIMODE_DISABLE;
 1208              		.loc 1 546 3 is_stmt 1 view .LVU276
 546:Core/Src/main.c ****   hspi1.Init.TIMode = SPI_TIMODE_DISABLE;
 1209              		.loc 1 546 23 is_stmt 0 view .LVU277
 1210 0020 0362     		str	r3, [r0, #32]
 547:Core/Src/main.c ****   hspi1.Init.CRCCalculation = SPI_CRCCALCULATION_DISABLE;
 1211              		.loc 1 547 3 is_stmt 1 view .LVU278
 547:Core/Src/main.c ****   hspi1.Init.CRCCalculation = SPI_CRCCALCULATION_DISABLE;
 1212              		.loc 1 547 21 is_stmt 0 view .LVU279
 1213 0022 4362     		str	r3, [r0, #36]
 548:Core/Src/main.c ****   hspi1.Init.CRCPolynomial = 10;
 1214              		.loc 1 548 3 is_stmt 1 view .LVU280
 548:Core/Src/main.c ****   hspi1.Init.CRCPolynomial = 10;
 1215              		.loc 1 548 29 is_stmt 0 view .LVU281
 1216 0024 8362     		str	r3, [r0, #40]
 549:Core/Src/main.c ****   if (HAL_SPI_Init(&hspi1) != HAL_OK)
 1217              		.loc 1 549 3 is_stmt 1 view .LVU282
ARM GAS  C:\Users\Nathan\AppData\Local\Temp\ccHbzc7Q.s 			page 60


 549:Core/Src/main.c ****   if (HAL_SPI_Init(&hspi1) != HAL_OK)
 1218              		.loc 1 549 28 is_stmt 0 view .LVU283
 1219 0026 0A23     		movs	r3, #10
 1220 0028 C362     		str	r3, [r0, #44]
 550:Core/Src/main.c ****   {
 1221              		.loc 1 550 3 is_stmt 1 view .LVU284
 550:Core/Src/main.c ****   {
 1222              		.loc 1 550 7 is_stmt 0 view .LVU285
 1223 002a FFF7FEFF 		bl	HAL_SPI_Init
 1224              	.LVL80:
 550:Core/Src/main.c ****   {
 1225              		.loc 1 550 6 discriminator 1 view .LVU286
 1226 002e 00B9     		cbnz	r0, .L81
 558:Core/Src/main.c **** 
 1227              		.loc 1 558 1 view .LVU287
 1228 0030 08BD     		pop	{r3, pc}
 1229              	.L81:
 552:Core/Src/main.c ****   }
 1230              		.loc 1 552 5 is_stmt 1 view .LVU288
 1231 0032 FFF7FEFF 		bl	Error_Handler
 1232              	.LVL81:
 1233              	.L83:
 1234 0036 00BF     		.align	2
 1235              	.L82:
 1236 0038 00000000 		.word	hspi1
 1237 003c 00300140 		.word	1073819648
 1238              		.cfi_endproc
 1239              	.LFE138:
 1241              		.section	.text.SystemClock_Config,"ax",%progbits
 1242              		.align	1
 1243              		.global	SystemClock_Config
 1244              		.syntax unified
 1245              		.thumb
 1246              		.thumb_func
 1248              	SystemClock_Config:
 1249              	.LFB135:
 415:Core/Src/main.c ****   RCC_OscInitTypeDef RCC_OscInitStruct = {0};
 1250              		.loc 1 415 1 view -0
 1251              		.cfi_startproc
 1252              		@ args = 0, pretend = 0, frame = 80
 1253              		@ frame_needed = 0, uses_anonymous_args = 0
 1254 0000 00B5     		push	{lr}
 1255              		.cfi_def_cfa_offset 4
 1256              		.cfi_offset 14, -4
 1257 0002 95B0     		sub	sp, sp, #84
 1258              		.cfi_def_cfa_offset 88
 416:Core/Src/main.c ****   RCC_ClkInitTypeDef RCC_ClkInitStruct = {0};
 1259              		.loc 1 416 3 view .LVU290
 416:Core/Src/main.c ****   RCC_ClkInitTypeDef RCC_ClkInitStruct = {0};
 1260              		.loc 1 416 22 is_stmt 0 view .LVU291
 1261 0004 3022     		movs	r2, #48
 1262 0006 0021     		movs	r1, #0
 1263 0008 08A8     		add	r0, sp, #32
 1264 000a FFF7FEFF 		bl	memset
 1265              	.LVL82:
 417:Core/Src/main.c **** 
 1266              		.loc 1 417 3 is_stmt 1 view .LVU292
ARM GAS  C:\Users\Nathan\AppData\Local\Temp\ccHbzc7Q.s 			page 61


 417:Core/Src/main.c **** 
 1267              		.loc 1 417 22 is_stmt 0 view .LVU293
 1268 000e 0023     		movs	r3, #0
 1269 0010 0393     		str	r3, [sp, #12]
 1270 0012 0493     		str	r3, [sp, #16]
 1271 0014 0593     		str	r3, [sp, #20]
 1272 0016 0693     		str	r3, [sp, #24]
 1273 0018 0793     		str	r3, [sp, #28]
 421:Core/Src/main.c ****   __HAL_PWR_VOLTAGESCALING_CONFIG(PWR_REGULATOR_VOLTAGE_SCALE1);
 1274              		.loc 1 421 3 is_stmt 1 view .LVU294
 1275              	.LBB14:
 421:Core/Src/main.c ****   __HAL_PWR_VOLTAGESCALING_CONFIG(PWR_REGULATOR_VOLTAGE_SCALE1);
 1276              		.loc 1 421 3 view .LVU295
 1277 001a 0193     		str	r3, [sp, #4]
 421:Core/Src/main.c ****   __HAL_PWR_VOLTAGESCALING_CONFIG(PWR_REGULATOR_VOLTAGE_SCALE1);
 1278              		.loc 1 421 3 view .LVU296
 1279 001c 1C4A     		ldr	r2, .L90
 1280 001e 116C     		ldr	r1, [r2, #64]
 1281 0020 41F08051 		orr	r1, r1, #268435456
 1282 0024 1164     		str	r1, [r2, #64]
 421:Core/Src/main.c ****   __HAL_PWR_VOLTAGESCALING_CONFIG(PWR_REGULATOR_VOLTAGE_SCALE1);
 1283              		.loc 1 421 3 view .LVU297
 1284 0026 126C     		ldr	r2, [r2, #64]
 1285 0028 02F08052 		and	r2, r2, #268435456
 1286 002c 0192     		str	r2, [sp, #4]
 421:Core/Src/main.c ****   __HAL_PWR_VOLTAGESCALING_CONFIG(PWR_REGULATOR_VOLTAGE_SCALE1);
 1287              		.loc 1 421 3 view .LVU298
 1288 002e 019A     		ldr	r2, [sp, #4]
 1289              	.LBE14:
 421:Core/Src/main.c ****   __HAL_PWR_VOLTAGESCALING_CONFIG(PWR_REGULATOR_VOLTAGE_SCALE1);
 1290              		.loc 1 421 3 view .LVU299
 422:Core/Src/main.c **** 
 1291              		.loc 1 422 3 view .LVU300
 1292              	.LBB15:
 422:Core/Src/main.c **** 
 1293              		.loc 1 422 3 view .LVU301
 1294 0030 0293     		str	r3, [sp, #8]
 422:Core/Src/main.c **** 
 1295              		.loc 1 422 3 view .LVU302
 1296 0032 184A     		ldr	r2, .L90+4
 1297 0034 1168     		ldr	r1, [r2]
 1298 0036 41F48041 		orr	r1, r1, #16384
 1299 003a 1160     		str	r1, [r2]
 422:Core/Src/main.c **** 
 1300              		.loc 1 422 3 view .LVU303
 1301 003c 1268     		ldr	r2, [r2]
 1302 003e 02F48042 		and	r2, r2, #16384
 1303 0042 0292     		str	r2, [sp, #8]
 422:Core/Src/main.c **** 
 1304              		.loc 1 422 3 view .LVU304
 1305 0044 029A     		ldr	r2, [sp, #8]
 1306              	.LBE15:
 422:Core/Src/main.c **** 
 1307              		.loc 1 422 3 view .LVU305
 427:Core/Src/main.c ****   RCC_OscInitStruct.HSIState = RCC_HSI_ON;
 1308              		.loc 1 427 3 view .LVU306
 427:Core/Src/main.c ****   RCC_OscInitStruct.HSIState = RCC_HSI_ON;
ARM GAS  C:\Users\Nathan\AppData\Local\Temp\ccHbzc7Q.s 			page 62


 1309              		.loc 1 427 36 is_stmt 0 view .LVU307
 1310 0046 0222     		movs	r2, #2
 1311 0048 0892     		str	r2, [sp, #32]
 428:Core/Src/main.c ****   RCC_OscInitStruct.HSICalibrationValue = RCC_HSICALIBRATION_DEFAULT;
 1312              		.loc 1 428 3 is_stmt 1 view .LVU308
 428:Core/Src/main.c ****   RCC_OscInitStruct.HSICalibrationValue = RCC_HSICALIBRATION_DEFAULT;
 1313              		.loc 1 428 30 is_stmt 0 view .LVU309
 1314 004a 0121     		movs	r1, #1
 1315 004c 0B91     		str	r1, [sp, #44]
 429:Core/Src/main.c ****   RCC_OscInitStruct.PLL.PLLState = RCC_PLL_ON;
 1316              		.loc 1 429 3 is_stmt 1 view .LVU310
 429:Core/Src/main.c ****   RCC_OscInitStruct.PLL.PLLState = RCC_PLL_ON;
 1317              		.loc 1 429 41 is_stmt 0 view .LVU311
 1318 004e 1021     		movs	r1, #16
 1319 0050 0C91     		str	r1, [sp, #48]
 430:Core/Src/main.c ****   RCC_OscInitStruct.PLL.PLLSource = RCC_PLLSOURCE_HSI;
 1320              		.loc 1 430 3 is_stmt 1 view .LVU312
 430:Core/Src/main.c ****   RCC_OscInitStruct.PLL.PLLSource = RCC_PLLSOURCE_HSI;
 1321              		.loc 1 430 34 is_stmt 0 view .LVU313
 1322 0052 0E92     		str	r2, [sp, #56]
 431:Core/Src/main.c ****   RCC_OscInitStruct.PLL.PLLM = 16;
 1323              		.loc 1 431 3 is_stmt 1 view .LVU314
 431:Core/Src/main.c ****   RCC_OscInitStruct.PLL.PLLM = 16;
 1324              		.loc 1 431 35 is_stmt 0 view .LVU315
 1325 0054 0F93     		str	r3, [sp, #60]
 432:Core/Src/main.c ****   RCC_OscInitStruct.PLL.PLLN = 192;
 1326              		.loc 1 432 3 is_stmt 1 view .LVU316
 432:Core/Src/main.c ****   RCC_OscInitStruct.PLL.PLLN = 192;
 1327              		.loc 1 432 30 is_stmt 0 view .LVU317
 1328 0056 1091     		str	r1, [sp, #64]
 433:Core/Src/main.c ****   RCC_OscInitStruct.PLL.PLLP = RCC_PLLP_DIV2;
 1329              		.loc 1 433 3 is_stmt 1 view .LVU318
 433:Core/Src/main.c ****   RCC_OscInitStruct.PLL.PLLP = RCC_PLLP_DIV2;
 1330              		.loc 1 433 30 is_stmt 0 view .LVU319
 1331 0058 C023     		movs	r3, #192
 1332 005a 1193     		str	r3, [sp, #68]
 434:Core/Src/main.c ****   RCC_OscInitStruct.PLL.PLLQ = 4;
 1333              		.loc 1 434 3 is_stmt 1 view .LVU320
 434:Core/Src/main.c ****   RCC_OscInitStruct.PLL.PLLQ = 4;
 1334              		.loc 1 434 30 is_stmt 0 view .LVU321
 1335 005c 1292     		str	r2, [sp, #72]
 435:Core/Src/main.c ****   if (HAL_RCC_OscConfig(&RCC_OscInitStruct) != HAL_OK)
 1336              		.loc 1 435 3 is_stmt 1 view .LVU322
 435:Core/Src/main.c ****   if (HAL_RCC_OscConfig(&RCC_OscInitStruct) != HAL_OK)
 1337              		.loc 1 435 30 is_stmt 0 view .LVU323
 1338 005e 0423     		movs	r3, #4
 1339 0060 1393     		str	r3, [sp, #76]
 436:Core/Src/main.c ****   {
 1340              		.loc 1 436 3 is_stmt 1 view .LVU324
 436:Core/Src/main.c ****   {
 1341              		.loc 1 436 7 is_stmt 0 view .LVU325
 1342 0062 08A8     		add	r0, sp, #32
 1343 0064 FFF7FEFF 		bl	HAL_RCC_OscConfig
 1344              	.LVL83:
 436:Core/Src/main.c ****   {
 1345              		.loc 1 436 6 discriminator 1 view .LVU326
 1346 0068 68B9     		cbnz	r0, .L88
ARM GAS  C:\Users\Nathan\AppData\Local\Temp\ccHbzc7Q.s 			page 63


 443:Core/Src/main.c ****                               |RCC_CLOCKTYPE_PCLK1|RCC_CLOCKTYPE_PCLK2;
 1347              		.loc 1 443 3 is_stmt 1 view .LVU327
 443:Core/Src/main.c ****                               |RCC_CLOCKTYPE_PCLK1|RCC_CLOCKTYPE_PCLK2;
 1348              		.loc 1 443 31 is_stmt 0 view .LVU328
 1349 006a 0F23     		movs	r3, #15
 1350 006c 0393     		str	r3, [sp, #12]
 445:Core/Src/main.c ****   RCC_ClkInitStruct.AHBCLKDivider = RCC_SYSCLK_DIV1;
 1351              		.loc 1 445 3 is_stmt 1 view .LVU329
 445:Core/Src/main.c ****   RCC_ClkInitStruct.AHBCLKDivider = RCC_SYSCLK_DIV1;
 1352              		.loc 1 445 34 is_stmt 0 view .LVU330
 1353 006e 0021     		movs	r1, #0
 1354 0070 0491     		str	r1, [sp, #16]
 446:Core/Src/main.c ****   RCC_ClkInitStruct.APB1CLKDivider = RCC_HCLK_DIV1;
 1355              		.loc 1 446 3 is_stmt 1 view .LVU331
 446:Core/Src/main.c ****   RCC_ClkInitStruct.APB1CLKDivider = RCC_HCLK_DIV1;
 1356              		.loc 1 446 35 is_stmt 0 view .LVU332
 1357 0072 0591     		str	r1, [sp, #20]
 447:Core/Src/main.c ****   RCC_ClkInitStruct.APB2CLKDivider = RCC_HCLK_DIV1;
 1358              		.loc 1 447 3 is_stmt 1 view .LVU333
 447:Core/Src/main.c ****   RCC_ClkInitStruct.APB2CLKDivider = RCC_HCLK_DIV1;
 1359              		.loc 1 447 36 is_stmt 0 view .LVU334
 1360 0074 0691     		str	r1, [sp, #24]
 448:Core/Src/main.c **** 
 1361              		.loc 1 448 3 is_stmt 1 view .LVU335
 448:Core/Src/main.c **** 
 1362              		.loc 1 448 36 is_stmt 0 view .LVU336
 1363 0076 0791     		str	r1, [sp, #28]
 450:Core/Src/main.c ****   {
 1364              		.loc 1 450 3 is_stmt 1 view .LVU337
 450:Core/Src/main.c ****   {
 1365              		.loc 1 450 7 is_stmt 0 view .LVU338
 1366 0078 03A8     		add	r0, sp, #12
 1367 007a FFF7FEFF 		bl	HAL_RCC_ClockConfig
 1368              	.LVL84:
 450:Core/Src/main.c ****   {
 1369              		.loc 1 450 6 discriminator 1 view .LVU339
 1370 007e 20B9     		cbnz	r0, .L89
 454:Core/Src/main.c **** 
 1371              		.loc 1 454 1 view .LVU340
 1372 0080 15B0     		add	sp, sp, #84
 1373              		.cfi_remember_state
 1374              		.cfi_def_cfa_offset 4
 1375              		@ sp needed
 1376 0082 5DF804FB 		ldr	pc, [sp], #4
 1377              	.L88:
 1378              		.cfi_restore_state
 438:Core/Src/main.c ****   }
 1379              		.loc 1 438 5 is_stmt 1 view .LVU341
 1380 0086 FFF7FEFF 		bl	Error_Handler
 1381              	.LVL85:
 1382              	.L89:
 452:Core/Src/main.c ****   }
 1383              		.loc 1 452 5 view .LVU342
 1384 008a FFF7FEFF 		bl	Error_Handler
 1385              	.LVL86:
 1386              	.L91:
 1387 008e 00BF     		.align	2
ARM GAS  C:\Users\Nathan\AppData\Local\Temp\ccHbzc7Q.s 			page 64


 1388              	.L90:
 1389 0090 00380240 		.word	1073887232
 1390 0094 00700040 		.word	1073770496
 1391              		.cfi_endproc
 1392              	.LFE135:
 1394              		.global	__aeabi_f2d
 1395              		.section	.rodata.main.str1.4,"aMS",%progbits,1
 1396              		.align	2
 1397              	.LC11:
 1398 0000 25342E32 		.ascii	"%4.2f,%4.2f,%4.2f,%4.2f,%4.2f,%4.2f,%.2f,101.325\015"
 1398      662C2534 
 1398      2E32662C 
 1398      25342E32 
 1398      662C2534 
 1399 0031 0A00     		.ascii	"\012\000"
 1400              		.section	.text.main,"ax",%progbits
 1401              		.align	1
 1402              		.global	main
 1403              		.syntax unified
 1404              		.thumb
 1405              		.thumb_func
 1407              	main:
 1408              	.LFB134:
 107:Core/Src/main.c **** 
 1409              		.loc 1 107 1 view -0
 1410              		.cfi_startproc
 1411              		@ args = 0, pretend = 0, frame = 56
 1412              		@ frame_needed = 0, uses_anonymous_args = 0
 1413 0000 2DE9F047 		push	{r4, r5, r6, r7, r8, r9, r10, lr}
 1414              		.cfi_def_cfa_offset 32
 1415              		.cfi_offset 4, -32
 1416              		.cfi_offset 5, -28
 1417              		.cfi_offset 6, -24
 1418              		.cfi_offset 7, -20
 1419              		.cfi_offset 8, -16
 1420              		.cfi_offset 9, -12
 1421              		.cfi_offset 10, -8
 1422              		.cfi_offset 14, -4
 1423 0004 2DED068B 		vpush.64	{d8, d9, d10}
 1424              		.cfi_def_cfa_offset 56
 1425              		.cfi_offset 80, -56
 1426              		.cfi_offset 81, -52
 1427              		.cfi_offset 82, -48
 1428              		.cfi_offset 83, -44
 1429              		.cfi_offset 84, -40
 1430              		.cfi_offset 85, -36
 1431 0008 9AB0     		sub	sp, sp, #104
 1432              		.cfi_def_cfa_offset 160
 116:Core/Src/main.c **** 
 1433              		.loc 1 116 3 view .LVU344
 1434 000a FFF7FEFF 		bl	HAL_Init
 1435              	.LVL87:
 123:Core/Src/main.c **** 
 1436              		.loc 1 123 3 view .LVU345
 1437 000e FFF7FEFF 		bl	SystemClock_Config
 1438              	.LVL88:
 130:Core/Src/main.c ****   MX_SDIO_SD_Init();
ARM GAS  C:\Users\Nathan\AppData\Local\Temp\ccHbzc7Q.s 			page 65


 1439              		.loc 1 130 3 view .LVU346
 1440 0012 FFF7FEFF 		bl	MX_GPIO_Init
 1441              	.LVL89:
 131:Core/Src/main.c ****   MX_USART1_UART_Init();
 1442              		.loc 1 131 3 view .LVU347
 1443 0016 FFF7FEFF 		bl	MX_SDIO_SD_Init
 1444              	.LVL90:
 132:Core/Src/main.c ****   MX_I2C1_Init();
 1445              		.loc 1 132 3 view .LVU348
 1446 001a FFF7FEFF 		bl	MX_USART1_UART_Init
 1447              	.LVL91:
 133:Core/Src/main.c ****   MX_FATFS_Init();
 1448              		.loc 1 133 3 view .LVU349
 1449 001e FFF7FEFF 		bl	MX_I2C1_Init
 1450              	.LVL92:
 134:Core/Src/main.c ****   MX_SPI1_Init();
 1451              		.loc 1 134 3 view .LVU350
 1452 0022 FFF7FEFF 		bl	MX_FATFS_Init
 1453              	.LVL93:
 135:Core/Src/main.c ****   /* USER CODE BEGIN 2 */
 1454              		.loc 1 135 3 view .LVU351
 1455 0026 FFF7FEFF 		bl	MX_SPI1_Init
 1456              	.LVL94:
 141:Core/Src/main.c ****   dev_ctx.write_reg = lsm6dsm_platform_write;
 1457              		.loc 1 141 3 view .LVU352
 142:Core/Src/main.c ****   dev_ctx.read_reg = lsm6dsm_platform_read;
 1458              		.loc 1 142 3 view .LVU353
 142:Core/Src/main.c ****   dev_ctx.read_reg = lsm6dsm_platform_read;
 1459              		.loc 1 142 21 is_stmt 0 view .LVU354
 1460 002a BE4B     		ldr	r3, .L108
 1461 002c 1693     		str	r3, [sp, #88]
 143:Core/Src/main.c ****   dev_ctx.handle = &hspi1;
 1462              		.loc 1 143 3 is_stmt 1 view .LVU355
 143:Core/Src/main.c ****   dev_ctx.handle = &hspi1;
 1463              		.loc 1 143 20 is_stmt 0 view .LVU356
 1464 002e BE4B     		ldr	r3, .L108+4
 1465 0030 1793     		str	r3, [sp, #92]
 144:Core/Src/main.c **** 
 1466              		.loc 1 144 3 is_stmt 1 view .LVU357
 144:Core/Src/main.c **** 
 1467              		.loc 1 144 18 is_stmt 0 view .LVU358
 1468 0032 BE4B     		ldr	r3, .L108+8
 1469 0034 1993     		str	r3, [sp, #100]
 146:Core/Src/main.c ****   radio_ctx.write_reg = llcc68_platform_write;
 1470              		.loc 1 146 3 is_stmt 1 view .LVU359
 147:Core/Src/main.c ****   radio_ctx.read_reg = llcc68_platform_read;
 1471              		.loc 1 147 3 view .LVU360
 147:Core/Src/main.c ****   radio_ctx.read_reg = llcc68_platform_read;
 1472              		.loc 1 147 23 is_stmt 0 view .LVU361
 1473 0036 BE4A     		ldr	r2, .L108+12
 1474 0038 1192     		str	r2, [sp, #68]
 148:Core/Src/main.c ****   radio_ctx.reset = llcc68_platform_reset;
 1475              		.loc 1 148 3 is_stmt 1 view .LVU362
 148:Core/Src/main.c ****   radio_ctx.reset = llcc68_platform_reset;
 1476              		.loc 1 148 22 is_stmt 0 view .LVU363
 1477 003a BE4A     		ldr	r2, .L108+16
 1478 003c 1292     		str	r2, [sp, #72]
ARM GAS  C:\Users\Nathan\AppData\Local\Temp\ccHbzc7Q.s 			page 66


 149:Core/Src/main.c ****   radio_ctx.handle = &hspi1;
 1479              		.loc 1 149 3 is_stmt 1 view .LVU364
 149:Core/Src/main.c ****   radio_ctx.handle = &hspi1;
 1480              		.loc 1 149 19 is_stmt 0 view .LVU365
 1481 003e BE4A     		ldr	r2, .L108+20
 1482 0040 1392     		str	r2, [sp, #76]
 150:Core/Src/main.c ****   radio_ctx.gpio = CS_WIRELESS_GPIO_Port;
 1483              		.loc 1 150 3 is_stmt 1 view .LVU366
 150:Core/Src/main.c ****   radio_ctx.gpio = CS_WIRELESS_GPIO_Port;
 1484              		.loc 1 150 20 is_stmt 0 view .LVU367
 1485 0042 1593     		str	r3, [sp, #84]
 151:Core/Src/main.c **** 
 1486              		.loc 1 151 3 is_stmt 1 view .LVU368
 151:Core/Src/main.c **** 
 1487              		.loc 1 151 18 is_stmt 0 view .LVU369
 1488 0044 BD4B     		ldr	r3, .L108+24
 1489 0046 1493     		str	r3, [sp, #80]
 163:Core/Src/main.c **** 
 1490              		.loc 1 163 3 is_stmt 1 view .LVU370
 1491 0048 4FF47A70 		mov	r0, #1000
 1492 004c FFF7FEFF 		bl	platform_delay
 1493              	.LVL95:
 178:Core/Src/main.c ****   //set auto increment to read several register at same time
 1494              		.loc 1 178 3 view .LVU371
 1495 0050 0121     		movs	r1, #1
 1496 0052 16A8     		add	r0, sp, #88
 1497 0054 FFF7FEFF 		bl	lsm6dsm_spi_mode_set
 1498              	.LVL96:
 180:Core/Src/main.c **** 
 1499              		.loc 1 180 3 view .LVU372
 1500 0058 0121     		movs	r1, #1
 1501 005a 16A8     		add	r0, sp, #88
 1502 005c FFF7FEFF 		bl	lsm6dsm_auto_increment_set
 1503              	.LVL97:
 183:Core/Src/main.c ****   
 1504              		.loc 1 183 3 view .LVU373
 1505 0060 B74C     		ldr	r4, .L108+28
 1506 0062 2146     		mov	r1, r4
 1507 0064 16A8     		add	r0, sp, #88
 1508 0066 FFF7FEFF 		bl	lsm6dsm_device_id_get
 1509              	.LVL98:
 185:Core/Src/main.c ****     while (1) {
 1510              		.loc 1 185 3 view .LVU374
 185:Core/Src/main.c ****     while (1) {
 1511              		.loc 1 185 14 is_stmt 0 view .LVU375
 1512 006a 2378     		ldrb	r3, [r4]	@ zero_extendqisi2
 185:Core/Src/main.c ****     while (1) {
 1513              		.loc 1 185 6 view .LVU376
 1514 006c 6A2B     		cmp	r3, #106
 1515 006e 00D0     		beq	.L93
 1516              	.L94:
 186:Core/Src/main.c ****       /* manage here device not found */
 1517              		.loc 1 186 5 is_stmt 1 view .LVU377
 188:Core/Src/main.c **** 
 1518              		.loc 1 188 5 view .LVU378
 186:Core/Src/main.c ****       /* manage here device not found */
 1519              		.loc 1 186 11 view .LVU379
ARM GAS  C:\Users\Nathan\AppData\Local\Temp\ccHbzc7Q.s 			page 67


 1520 0070 FEE7     		b	.L94
 1521              	.L93:
 194:Core/Src/main.c ****     lsm6dsm_reset_get(&dev_ctx, &rst);
 1522              		.loc 1 194 3 view .LVU380
 195:Core/Src/main.c ****   } while (rst);
 1523              		.loc 1 195 5 view .LVU381
 1524 0072 B44C     		ldr	r4, .L108+32
 1525 0074 2146     		mov	r1, r4
 1526 0076 16A8     		add	r0, sp, #88
 1527 0078 FFF7FEFF 		bl	lsm6dsm_reset_get
 1528              	.LVL99:
 196:Core/Src/main.c **** 
 1529              		.loc 1 196 12 discriminator 1 view .LVU382
 1530 007c 2378     		ldrb	r3, [r4]	@ zero_extendqisi2
 1531 007e 002B     		cmp	r3, #0
 1532 0080 F7D1     		bne	.L93
 199:Core/Src/main.c ****   /* Set Output Data Rate for Acc and Gyro */
 1533              		.loc 1 199 3 view .LVU383
 1534 0082 0121     		movs	r1, #1
 1535 0084 16A8     		add	r0, sp, #88
 1536 0086 FFF7FEFF 		bl	lsm6dsm_block_data_update_set
 1537              	.LVL100:
 201:Core/Src/main.c ****   lsm6dsm_gy_data_rate_set(&dev_ctx, LSM6DSM_XL_ODR_6k66Hz);
 1538              		.loc 1 201 3 view .LVU384
 1539 008a 0A21     		movs	r1, #10
 1540 008c 16A8     		add	r0, sp, #88
 1541 008e FFF7FEFF 		bl	lsm6dsm_xl_data_rate_set
 1542              	.LVL101:
 202:Core/Src/main.c ****   /* Set full scale */
 1543              		.loc 1 202 3 view .LVU385
 1544 0092 0A21     		movs	r1, #10
 1545 0094 16A8     		add	r0, sp, #88
 1546 0096 FFF7FEFF 		bl	lsm6dsm_gy_data_rate_set
 1547              	.LVL102:
 204:Core/Src/main.c ****   lsm6dsm_gy_full_scale_set(&dev_ctx, LSM6DSM_2000dps);
 1548              		.loc 1 204 3 view .LVU386
 1549 009a 0021     		movs	r1, #0
 1550 009c 16A8     		add	r0, sp, #88
 1551 009e FFF7FEFF 		bl	lsm6dsm_xl_full_scale_set
 1552              	.LVL103:
 205:Core/Src/main.c ****   /* Configure filtering chain(No aux interface)
 1553              		.loc 1 205 3 view .LVU387
 1554 00a2 0621     		movs	r1, #6
 1555 00a4 16A8     		add	r0, sp, #88
 1556 00a6 FFF7FEFF 		bl	lsm6dsm_gy_full_scale_set
 1557              	.LVL104:
 209:Core/Src/main.c ****   /* Accelerometer - LPF1 path (LPF2 not used) */
 1558              		.loc 1 209 3 view .LVU388
 1559 00aa 0121     		movs	r1, #1
 1560 00ac 16A8     		add	r0, sp, #88
 1561 00ae FFF7FEFF 		bl	lsm6dsm_xl_filter_analog_set
 1562              	.LVL105:
 213:Core/Src/main.c ****                                LSM6DSM_XL_LOW_LAT_LP_ODR_DIV_400);
 1563              		.loc 1 213 3 view .LVU389
 1564 00b2 0321     		movs	r1, #3
 1565 00b4 16A8     		add	r0, sp, #88
 1566 00b6 FFF7FEFF 		bl	lsm6dsm_xl_lp2_bandwidth_set
ARM GAS  C:\Users\Nathan\AppData\Local\Temp\ccHbzc7Q.s 			page 68


 1567              	.LVL106:
 219:Core/Src/main.c ****   // update the offset bias of acceleration
 1568              		.loc 1 219 3 view .LVU390
 1569 00ba 0B21     		movs	r1, #11
 1570 00bc 16A8     		add	r0, sp, #88
 1571 00be FFF7FEFF 		bl	lsm6dsm_gy_band_pass_set
 1572              	.LVL107:
 221:Core/Src/main.c **** 
 1573              		.loc 1 221 3 view .LVU391
 1574 00c2 4FF47A70 		mov	r0, #1000
 1575 00c6 FFF7FEFF 		bl	platform_delay
 1576              	.LVL108:
 223:Core/Src/main.c ****   //create a while loop that gets 5 sample of acceleration and calculate the average, then set the 
 1577              		.loc 1 223 3 view .LVU392
 225:Core/Src/main.c ****   int i = 0;
 1578              		.loc 1 225 3 view .LVU393
 225:Core/Src/main.c ****   int i = 0;
 1579              		.loc 1 225 11 is_stmt 0 view .LVU394
 1580 00ca 0024     		movs	r4, #0
 1581 00cc ADF83C40 		strh	r4, [sp, #60]	@ movhi
 1582 00d0 ADF83E40 		strh	r4, [sp, #62]	@ movhi
 1583 00d4 ADF84040 		strh	r4, [sp, #64]	@ movhi
 226:Core/Src/main.c ****   do {
 1584              		.loc 1 226 3 is_stmt 1 view .LVU395
 1585              	.LVL109:
 226:Core/Src/main.c ****   do {
 1586              		.loc 1 226 3 is_stmt 0 view .LVU396
 1587 00d8 02E0     		b	.L96
 1588              	.LVL110:
 1589              	.L95:
 241:Core/Src/main.c ****   acc_bias[0] /= SAMPLE_SIZE;
 1590              		.loc 1 241 14 is_stmt 1 view .LVU397
 1591 00da B4F57A7F 		cmp	r4, #1000
 1592 00de 48DA     		bge	.L104
 1593              	.LVL111:
 1594              	.L96:
 227:Core/Src/main.c ****     lsm6dsm_reg_t reg;
 1595              		.loc 1 227 3 view .LVU398
 1596              	.LBB16:
 228:Core/Src/main.c ****       /* Read output only if new value is available */
 1597              		.loc 1 228 5 view .LVU399
 230:Core/Src/main.c ****       if (reg.status_reg.xlda) {
 1598              		.loc 1 230 7 view .LVU400
 1599 00e0 0CA9     		add	r1, sp, #48
 1600 00e2 16A8     		add	r0, sp, #88
 1601 00e4 FFF7FEFF 		bl	lsm6dsm_status_reg_get
 1602              	.LVL112:
 231:Core/Src/main.c ****         /* Read acceleration field data */
 1603              		.loc 1 231 7 view .LVU401
 231:Core/Src/main.c ****         /* Read acceleration field data */
 1604              		.loc 1 231 11 is_stmt 0 view .LVU402
 1605 00e8 9DF83030 		ldrb	r3, [sp, #48]	@ zero_extendqisi2
 231:Core/Src/main.c ****         /* Read acceleration field data */
 1606              		.loc 1 231 10 view .LVU403
 1607 00ec 13F0010F 		tst	r3, #1
 1608 00f0 F3D0     		beq	.L95
 1609              	.LBB17:
ARM GAS  C:\Users\Nathan\AppData\Local\Temp\ccHbzc7Q.s 			page 69


 233:Core/Src/main.c ****         lsm6dsm_acceleration_raw_get(&dev_ctx, data_raw_acceleration);
 1610              		.loc 1 233 9 is_stmt 1 view .LVU404
 1611 00f2 954D     		ldr	r5, .L108+36
 1612 00f4 0023     		movs	r3, #0
 1613 00f6 2B60     		str	r3, [r5]
 1614 00f8 AB80     		strh	r3, [r5, #4]	@ movhi
 234:Core/Src/main.c ****         acc_bias[0] += lsm6dsm_from_fs2g_to_mg(data_raw_acceleration[0]);
 1615              		.loc 1 234 9 view .LVU405
 1616 00fa 2946     		mov	r1, r5
 1617 00fc 16A8     		add	r0, sp, #88
 1618 00fe FFF7FEFF 		bl	lsm6dsm_acceleration_raw_get
 1619              	.LVL113:
 235:Core/Src/main.c ****         acc_bias[1] += lsm6dsm_from_fs2g_to_mg(data_raw_acceleration[1]);
 1620              		.loc 1 235 9 view .LVU406
 235:Core/Src/main.c ****         acc_bias[1] += lsm6dsm_from_fs2g_to_mg(data_raw_acceleration[1]);
 1621              		.loc 1 235 24 is_stmt 0 view .LVU407
 1622 0102 B5F90000 		ldrsh	r0, [r5]
 1623 0106 FFF7FEFF 		bl	lsm6dsm_from_fs2g_to_mg
 1624              	.LVL114:
 235:Core/Src/main.c ****         acc_bias[1] += lsm6dsm_from_fs2g_to_mg(data_raw_acceleration[1]);
 1625              		.loc 1 235 17 discriminator 1 view .LVU408
 1626 010a BDF93C30 		ldrsh	r3, [sp, #60]
 1627 010e 07EE903A 		vmov	s15, r3	@ int
 235:Core/Src/main.c ****         acc_bias[1] += lsm6dsm_from_fs2g_to_mg(data_raw_acceleration[1]);
 1628              		.loc 1 235 21 discriminator 1 view .LVU409
 1629 0112 F8EEE77A 		vcvt.f32.s32	s15, s15
 1630 0116 77EE807A 		vadd.f32	s15, s15, s0
 1631 011a FDEEE77A 		vcvt.s32.f32	s15, s15
 1632 011e 17EE903A 		vmov	r3, s15	@ int
 1633 0122 ADF83C30 		strh	r3, [sp, #60]	@ movhi
 236:Core/Src/main.c ****         acc_bias[2] += lsm6dsm_from_fs2g_to_mg(data_raw_acceleration[2]);
 1634              		.loc 1 236 9 is_stmt 1 view .LVU410
 236:Core/Src/main.c ****         acc_bias[2] += lsm6dsm_from_fs2g_to_mg(data_raw_acceleration[2]);
 1635              		.loc 1 236 24 is_stmt 0 view .LVU411
 1636 0126 B5F90200 		ldrsh	r0, [r5, #2]
 1637 012a FFF7FEFF 		bl	lsm6dsm_from_fs2g_to_mg
 1638              	.LVL115:
 236:Core/Src/main.c ****         acc_bias[2] += lsm6dsm_from_fs2g_to_mg(data_raw_acceleration[2]);
 1639              		.loc 1 236 17 discriminator 1 view .LVU412
 1640 012e BDF93E30 		ldrsh	r3, [sp, #62]
 1641 0132 07EE903A 		vmov	s15, r3	@ int
 236:Core/Src/main.c ****         acc_bias[2] += lsm6dsm_from_fs2g_to_mg(data_raw_acceleration[2]);
 1642              		.loc 1 236 21 discriminator 1 view .LVU413
 1643 0136 F8EEE77A 		vcvt.f32.s32	s15, s15
 1644 013a 77EE807A 		vadd.f32	s15, s15, s0
 1645 013e FDEEE77A 		vcvt.s32.f32	s15, s15
 1646 0142 17EE903A 		vmov	r3, s15	@ int
 1647 0146 ADF83E30 		strh	r3, [sp, #62]	@ movhi
 237:Core/Src/main.c ****         // platform_delay(100);
 1648              		.loc 1 237 9 is_stmt 1 view .LVU414
 237:Core/Src/main.c ****         // platform_delay(100);
 1649              		.loc 1 237 24 is_stmt 0 view .LVU415
 1650 014a B5F90400 		ldrsh	r0, [r5, #4]
 1651 014e FFF7FEFF 		bl	lsm6dsm_from_fs2g_to_mg
 1652              	.LVL116:
 237:Core/Src/main.c ****         // platform_delay(100);
 1653              		.loc 1 237 17 discriminator 1 view .LVU416
ARM GAS  C:\Users\Nathan\AppData\Local\Temp\ccHbzc7Q.s 			page 70


 1654 0152 BDF94030 		ldrsh	r3, [sp, #64]
 1655 0156 07EE903A 		vmov	s15, r3	@ int
 237:Core/Src/main.c ****         // platform_delay(100);
 1656              		.loc 1 237 21 discriminator 1 view .LVU417
 1657 015a F8EEE77A 		vcvt.f32.s32	s15, s15
 1658 015e 77EE807A 		vadd.f32	s15, s15, s0
 1659 0162 FDEEE77A 		vcvt.s32.f32	s15, s15
 1660 0166 17EE903A 		vmov	r3, s15	@ int
 1661 016a ADF84030 		strh	r3, [sp, #64]	@ movhi
 239:Core/Src/main.c ****       }
 1662              		.loc 1 239 9 is_stmt 1 view .LVU418
 239:Core/Src/main.c ****       }
 1663              		.loc 1 239 10 is_stmt 0 view .LVU419
 1664 016e 0134     		adds	r4, r4, #1
 1665              	.LVL117:
 239:Core/Src/main.c ****       }
 1666              		.loc 1 239 10 view .LVU420
 1667 0170 B3E7     		b	.L95
 1668              	.L104:
 239:Core/Src/main.c ****       }
 1669              		.loc 1 239 10 view .LVU421
 1670              	.LBE17:
 1671              	.LBE16:
 242:Core/Src/main.c ****   acc_bias[1] /= SAMPLE_SIZE;
 1672              		.loc 1 242 3 is_stmt 1 view .LVU422
 242:Core/Src/main.c ****   acc_bias[1] /= SAMPLE_SIZE;
 1673              		.loc 1 242 11 is_stmt 0 view .LVU423
 1674 0172 BDF93C20 		ldrsh	r2, [sp, #60]
 242:Core/Src/main.c ****   acc_bias[1] /= SAMPLE_SIZE;
 1675              		.loc 1 242 15 view .LVU424
 1676 0176 4FF47A73 		mov	r3, #1000
 1677 017a 92FBF3F2 		sdiv	r2, r2, r3
 1678 017e 09EE902A 		vmov	s19, r2	@ int
 1679 0182 ADF83C20 		strh	r2, [sp, #60]	@ movhi
 243:Core/Src/main.c ****   acc_bias[2] /= SAMPLE_SIZE;
 1680              		.loc 1 243 3 is_stmt 1 view .LVU425
 243:Core/Src/main.c ****   acc_bias[2] /= SAMPLE_SIZE;
 1681              		.loc 1 243 11 is_stmt 0 view .LVU426
 1682 0186 BDF93E20 		ldrsh	r2, [sp, #62]
 243:Core/Src/main.c ****   acc_bias[2] /= SAMPLE_SIZE;
 1683              		.loc 1 243 15 view .LVU427
 1684 018a 92FBF3F2 		sdiv	r2, r2, r3
 1685 018e 0AEE102A 		vmov	s20, r2	@ int
 1686 0192 ADF83E20 		strh	r2, [sp, #62]	@ movhi
 244:Core/Src/main.c ****   // for (int i = 0; i < 10; i++) {
 1687              		.loc 1 244 3 is_stmt 1 view .LVU428
 244:Core/Src/main.c ****   // for (int i = 0; i < 10; i++) {
 1688              		.loc 1 244 11 is_stmt 0 view .LVU429
 1689 0196 BDF94020 		ldrsh	r2, [sp, #64]
 244:Core/Src/main.c ****   // for (int i = 0; i < 10; i++) {
 1690              		.loc 1 244 15 view .LVU430
 1691 019a 92FBF3F3 		sdiv	r3, r2, r3
 1692 019e 0AEE903A 		vmov	s21, r3	@ int
 1693 01a2 ADF84030 		strh	r3, [sp, #64]	@ movhi
 259:Core/Src/main.c ****   i = 0;
 1694              		.loc 1 259 3 is_stmt 1 view .LVU431
 259:Core/Src/main.c ****   i = 0;
ARM GAS  C:\Users\Nathan\AppData\Local\Temp\ccHbzc7Q.s 			page 71


 1695              		.loc 1 259 11 is_stmt 0 view .LVU432
 1696 01a6 0024     		movs	r4, #0
 1697              	.LVL118:
 259:Core/Src/main.c ****   i = 0;
 1698              		.loc 1 259 11 view .LVU433
 1699 01a8 ADF83440 		strh	r4, [sp, #52]	@ movhi
 1700 01ac ADF83640 		strh	r4, [sp, #54]	@ movhi
 1701 01b0 ADF83840 		strh	r4, [sp, #56]	@ movhi
 260:Core/Src/main.c ****   do {
 1702              		.loc 1 260 3 is_stmt 1 view .LVU434
 1703              	.LVL119:
 260:Core/Src/main.c ****   do {
 1704              		.loc 1 260 3 is_stmt 0 view .LVU435
 1705 01b4 02E0     		b	.L98
 1706              	.LVL120:
 1707              	.L97:
 275:Core/Src/main.c ****   gyro_bias[0] /= SAMPLE_SIZE;
 1708              		.loc 1 275 14 is_stmt 1 view .LVU436
 1709 01b6 B4F57A7F 		cmp	r4, #1000
 1710 01ba 48DA     		bge	.L105
 1711              	.LVL121:
 1712              	.L98:
 261:Core/Src/main.c ****     lsm6dsm_reg_t reg;
 1713              		.loc 1 261 3 view .LVU437
 1714              	.LBB18:
 262:Core/Src/main.c **** 	    /* Read output only if new value is available */
 1715              		.loc 1 262 5 view .LVU438
 264:Core/Src/main.c ****       if (reg.status_reg.gda) {
 1716              		.loc 1 264 6 view .LVU439
 1717 01bc 0CA9     		add	r1, sp, #48
 1718 01be 16A8     		add	r0, sp, #88
 1719 01c0 FFF7FEFF 		bl	lsm6dsm_status_reg_get
 1720              	.LVL122:
 265:Core/Src/main.c ****         /* Read angular rate field data */
 1721              		.loc 1 265 7 view .LVU440
 265:Core/Src/main.c ****         /* Read angular rate field data */
 1722              		.loc 1 265 11 is_stmt 0 view .LVU441
 1723 01c4 9DF83030 		ldrb	r3, [sp, #48]	@ zero_extendqisi2
 265:Core/Src/main.c ****         /* Read angular rate field data */
 1724              		.loc 1 265 10 view .LVU442
 1725 01c8 13F0020F 		tst	r3, #2
 1726 01cc F3D0     		beq	.L97
 1727              	.LBB19:
 267:Core/Src/main.c ****         lsm6dsm_angular_rate_raw_get(&dev_ctx, data_raw_angular_rate);
 1728              		.loc 1 267 9 is_stmt 1 view .LVU443
 1729 01ce 5F4D     		ldr	r5, .L108+40
 1730 01d0 0023     		movs	r3, #0
 1731 01d2 2B60     		str	r3, [r5]
 1732 01d4 AB80     		strh	r3, [r5, #4]	@ movhi
 268:Core/Src/main.c ****         gyro_bias[0] += lsm6dsm_from_fs2000dps_to_mdps(data_raw_angular_rate[0]);
 1733              		.loc 1 268 9 view .LVU444
 1734 01d6 2946     		mov	r1, r5
 1735 01d8 16A8     		add	r0, sp, #88
 1736 01da FFF7FEFF 		bl	lsm6dsm_angular_rate_raw_get
 1737              	.LVL123:
 269:Core/Src/main.c ****         gyro_bias[1] += lsm6dsm_from_fs2000dps_to_mdps(data_raw_angular_rate[1]);
 1738              		.loc 1 269 9 view .LVU445
ARM GAS  C:\Users\Nathan\AppData\Local\Temp\ccHbzc7Q.s 			page 72


 269:Core/Src/main.c ****         gyro_bias[1] += lsm6dsm_from_fs2000dps_to_mdps(data_raw_angular_rate[1]);
 1739              		.loc 1 269 25 is_stmt 0 view .LVU446
 1740 01de B5F90000 		ldrsh	r0, [r5]
 1741 01e2 FFF7FEFF 		bl	lsm6dsm_from_fs2000dps_to_mdps
 1742              	.LVL124:
 269:Core/Src/main.c ****         gyro_bias[1] += lsm6dsm_from_fs2000dps_to_mdps(data_raw_angular_rate[1]);
 1743              		.loc 1 269 18 discriminator 1 view .LVU447
 1744 01e6 BDF93430 		ldrsh	r3, [sp, #52]
 1745 01ea 07EE903A 		vmov	s15, r3	@ int
 269:Core/Src/main.c ****         gyro_bias[1] += lsm6dsm_from_fs2000dps_to_mdps(data_raw_angular_rate[1]);
 1746              		.loc 1 269 22 discriminator 1 view .LVU448
 1747 01ee F8EEE77A 		vcvt.f32.s32	s15, s15
 1748 01f2 77EE807A 		vadd.f32	s15, s15, s0
 1749 01f6 FDEEE77A 		vcvt.s32.f32	s15, s15
 1750 01fa 17EE903A 		vmov	r3, s15	@ int
 1751 01fe ADF83430 		strh	r3, [sp, #52]	@ movhi
 270:Core/Src/main.c ****         gyro_bias[2] += lsm6dsm_from_fs2000dps_to_mdps(data_raw_angular_rate[2]);
 1752              		.loc 1 270 9 is_stmt 1 view .LVU449
 270:Core/Src/main.c ****         gyro_bias[2] += lsm6dsm_from_fs2000dps_to_mdps(data_raw_angular_rate[2]);
 1753              		.loc 1 270 25 is_stmt 0 view .LVU450
 1754 0202 B5F90200 		ldrsh	r0, [r5, #2]
 1755 0206 FFF7FEFF 		bl	lsm6dsm_from_fs2000dps_to_mdps
 1756              	.LVL125:
 270:Core/Src/main.c ****         gyro_bias[2] += lsm6dsm_from_fs2000dps_to_mdps(data_raw_angular_rate[2]);
 1757              		.loc 1 270 18 discriminator 1 view .LVU451
 1758 020a BDF93630 		ldrsh	r3, [sp, #54]
 1759 020e 07EE903A 		vmov	s15, r3	@ int
 270:Core/Src/main.c ****         gyro_bias[2] += lsm6dsm_from_fs2000dps_to_mdps(data_raw_angular_rate[2]);
 1760              		.loc 1 270 22 discriminator 1 view .LVU452
 1761 0212 F8EEE77A 		vcvt.f32.s32	s15, s15
 1762 0216 77EE807A 		vadd.f32	s15, s15, s0
 1763 021a FDEEE77A 		vcvt.s32.f32	s15, s15
 1764 021e 17EE903A 		vmov	r3, s15	@ int
 1765 0222 ADF83630 		strh	r3, [sp, #54]	@ movhi
 271:Core/Src/main.c ****         // platform_delay(100);
 1766              		.loc 1 271 9 is_stmt 1 view .LVU453
 271:Core/Src/main.c ****         // platform_delay(100);
 1767              		.loc 1 271 25 is_stmt 0 view .LVU454
 1768 0226 B5F90400 		ldrsh	r0, [r5, #4]
 1769 022a FFF7FEFF 		bl	lsm6dsm_from_fs2000dps_to_mdps
 1770              	.LVL126:
 271:Core/Src/main.c ****         // platform_delay(100);
 1771              		.loc 1 271 18 discriminator 1 view .LVU455
 1772 022e BDF93830 		ldrsh	r3, [sp, #56]
 1773 0232 07EE903A 		vmov	s15, r3	@ int
 271:Core/Src/main.c ****         // platform_delay(100);
 1774              		.loc 1 271 22 discriminator 1 view .LVU456
 1775 0236 F8EEE77A 		vcvt.f32.s32	s15, s15
 1776 023a 77EE807A 		vadd.f32	s15, s15, s0
 1777 023e FDEEE77A 		vcvt.s32.f32	s15, s15
 1778 0242 17EE903A 		vmov	r3, s15	@ int
 1779 0246 ADF83830 		strh	r3, [sp, #56]	@ movhi
 273:Core/Src/main.c ****       }
 1780              		.loc 1 273 9 is_stmt 1 view .LVU457
 273:Core/Src/main.c ****       }
 1781              		.loc 1 273 10 is_stmt 0 view .LVU458
 1782 024a 0134     		adds	r4, r4, #1
ARM GAS  C:\Users\Nathan\AppData\Local\Temp\ccHbzc7Q.s 			page 73


 1783              	.LVL127:
 273:Core/Src/main.c ****       }
 1784              		.loc 1 273 10 view .LVU459
 1785 024c B3E7     		b	.L97
 1786              	.L105:
 273:Core/Src/main.c ****       }
 1787              		.loc 1 273 10 view .LVU460
 1788              	.LBE19:
 1789              	.LBE18:
 276:Core/Src/main.c ****   gyro_bias[1] /= SAMPLE_SIZE;
 1790              		.loc 1 276 3 is_stmt 1 view .LVU461
 276:Core/Src/main.c ****   gyro_bias[1] /= SAMPLE_SIZE;
 1791              		.loc 1 276 12 is_stmt 0 view .LVU462
 1792 024e BDF93420 		ldrsh	r2, [sp, #52]
 276:Core/Src/main.c ****   gyro_bias[1] /= SAMPLE_SIZE;
 1793              		.loc 1 276 16 view .LVU463
 1794 0252 4FF47A73 		mov	r3, #1000
 1795 0256 92FBF3F2 		sdiv	r2, r2, r3
 1796 025a 09EE102A 		vmov	s18, r2	@ int
 1797 025e ADF83420 		strh	r2, [sp, #52]	@ movhi
 277:Core/Src/main.c ****   gyro_bias[2] /= SAMPLE_SIZE;
 1798              		.loc 1 277 3 is_stmt 1 view .LVU464
 277:Core/Src/main.c ****   gyro_bias[2] /= SAMPLE_SIZE;
 1799              		.loc 1 277 12 is_stmt 0 view .LVU465
 1800 0262 BDF93620 		ldrsh	r2, [sp, #54]
 277:Core/Src/main.c ****   gyro_bias[2] /= SAMPLE_SIZE;
 1801              		.loc 1 277 16 view .LVU466
 1802 0266 92FBF3F2 		sdiv	r2, r2, r3
 1803 026a 08EE902A 		vmov	s17, r2	@ int
 1804 026e ADF83620 		strh	r2, [sp, #54]	@ movhi
 278:Core/Src/main.c **** 
 1805              		.loc 1 278 3 is_stmt 1 view .LVU467
 278:Core/Src/main.c **** 
 1806              		.loc 1 278 12 is_stmt 0 view .LVU468
 1807 0272 BDF93820 		ldrsh	r2, [sp, #56]
 278:Core/Src/main.c **** 
 1808              		.loc 1 278 16 view .LVU469
 1809 0276 92FBF3F3 		sdiv	r3, r2, r3
 1810 027a 08EE103A 		vmov	s16, r3	@ int
 1811 027e ADF83830 		strh	r3, [sp, #56]	@ movhi
 1812 0282 9CE0     		b	.L102
 1813              	.LVL128:
 1814              	.L106:
 1815              	.LBB20:
 1816              	.LBB21:
 329:Core/Src/main.c **** 	      lsm6dsm_acceleration_raw_get(&dev_ctx, data_raw_acceleration);
 1817              		.loc 1 329 8 is_stmt 1 view .LVU470
 1818 0284 304C     		ldr	r4, .L108+36
 1819 0286 0023     		movs	r3, #0
 1820 0288 2360     		str	r3, [r4]
 1821 028a A380     		strh	r3, [r4, #4]	@ movhi
 330:Core/Src/main.c **** 	      acceleration_mg[0] =
 1822              		.loc 1 330 8 view .LVU471
 1823 028c 2146     		mov	r1, r4
 1824 028e 16A8     		add	r0, sp, #88
 1825 0290 FFF7FEFF 		bl	lsm6dsm_acceleration_raw_get
 1826              	.LVL129:
ARM GAS  C:\Users\Nathan\AppData\Local\Temp\ccHbzc7Q.s 			page 74


 331:Core/Src/main.c **** 	        lsm6dsm_from_fs2g_to_mg(data_raw_acceleration[0]) - acc_bias[0];
 1827              		.loc 1 331 8 view .LVU472
 332:Core/Src/main.c **** 	      acceleration_mg[1] =
 1828              		.loc 1 332 10 is_stmt 0 view .LVU473
 1829 0294 B4F90000 		ldrsh	r0, [r4]
 1830 0298 FFF7FEFF 		bl	lsm6dsm_from_fs2g_to_mg
 1831              	.LVL130:
 332:Core/Src/main.c **** 	      acceleration_mg[1] =
 1832              		.loc 1 332 60 discriminator 1 view .LVU474
 1833 029c F8EEE97A 		vcvt.f32.s32	s15, s19
 1834 02a0 30EE670A 		vsub.f32	s0, s0, s15
 331:Core/Src/main.c **** 	        lsm6dsm_from_fs2g_to_mg(data_raw_acceleration[0]) - acc_bias[0];
 1835              		.loc 1 331 27 view .LVU475
 1836 02a4 2A4D     		ldr	r5, .L108+44
 1837 02a6 85ED000A 		vstr.32	s0, [r5]
 333:Core/Src/main.c **** 	        lsm6dsm_from_fs2g_to_mg(data_raw_acceleration[1]) - acc_bias[1];
 1838              		.loc 1 333 8 is_stmt 1 view .LVU476
 334:Core/Src/main.c **** 	      acceleration_mg[2] =
 1839              		.loc 1 334 10 is_stmt 0 view .LVU477
 1840 02aa B4F90200 		ldrsh	r0, [r4, #2]
 1841 02ae FFF7FEFF 		bl	lsm6dsm_from_fs2g_to_mg
 1842              	.LVL131:
 334:Core/Src/main.c **** 	      acceleration_mg[2] =
 1843              		.loc 1 334 60 discriminator 1 view .LVU478
 1844 02b2 F8EECA7A 		vcvt.f32.s32	s15, s20
 1845 02b6 30EE670A 		vsub.f32	s0, s0, s15
 333:Core/Src/main.c **** 	        lsm6dsm_from_fs2g_to_mg(data_raw_acceleration[1]) - acc_bias[1];
 1846              		.loc 1 333 27 view .LVU479
 1847 02ba 85ED010A 		vstr.32	s0, [r5, #4]
 335:Core/Src/main.c **** 	        lsm6dsm_from_fs2g_to_mg(data_raw_acceleration[2]) - acc_bias[2];
 1848              		.loc 1 335 8 is_stmt 1 view .LVU480
 336:Core/Src/main.c **** 	      // printf("Acceleration [mg]:%4.2f\t%4.2f\t%4.2f\r\n",
 1849              		.loc 1 336 10 is_stmt 0 view .LVU481
 1850 02be B4F90400 		ldrsh	r0, [r4, #4]
 1851 02c2 FFF7FEFF 		bl	lsm6dsm_from_fs2g_to_mg
 1852              	.LVL132:
 336:Core/Src/main.c **** 	      // printf("Acceleration [mg]:%4.2f\t%4.2f\t%4.2f\r\n",
 1853              		.loc 1 336 60 discriminator 1 view .LVU482
 1854 02c6 F8EEEA7A 		vcvt.f32.s32	s15, s21
 1855 02ca 30EE670A 		vsub.f32	s0, s0, s15
 335:Core/Src/main.c **** 	        lsm6dsm_from_fs2g_to_mg(data_raw_acceleration[2]) - acc_bias[2];
 1856              		.loc 1 335 27 view .LVU483
 1857 02ce 85ED020A 		vstr.32	s0, [r5, #8]
 1858 02d2 7EE0     		b	.L99
 1859              	.L107:
 1860              	.LBE21:
 1861              	.LBB22:
 344:Core/Src/main.c **** 	      lsm6dsm_angular_rate_raw_get(&dev_ctx, data_raw_angular_rate);
 1862              		.loc 1 344 8 is_stmt 1 view .LVU484
 1863 02d4 1D4C     		ldr	r4, .L108+40
 1864 02d6 0023     		movs	r3, #0
 1865 02d8 2360     		str	r3, [r4]
 1866 02da A380     		strh	r3, [r4, #4]	@ movhi
 345:Core/Src/main.c **** 	      angular_rate_mdps[0] =
 1867              		.loc 1 345 8 view .LVU485
 1868 02dc 2146     		mov	r1, r4
 1869 02de 16A8     		add	r0, sp, #88
ARM GAS  C:\Users\Nathan\AppData\Local\Temp\ccHbzc7Q.s 			page 75


 1870 02e0 FFF7FEFF 		bl	lsm6dsm_angular_rate_raw_get
 1871              	.LVL133:
 346:Core/Src/main.c **** 	        lsm6dsm_from_fs2000dps_to_mdps(data_raw_angular_rate[0]) - gyro_bias[0];
 1872              		.loc 1 346 8 view .LVU486
 347:Core/Src/main.c **** 	      angular_rate_mdps[1] =
 1873              		.loc 1 347 10 is_stmt 0 view .LVU487
 1874 02e4 B4F90000 		ldrsh	r0, [r4]
 1875 02e8 FFF7FEFF 		bl	lsm6dsm_from_fs2000dps_to_mdps
 1876              	.LVL134:
 347:Core/Src/main.c **** 	      angular_rate_mdps[1] =
 1877              		.loc 1 347 67 discriminator 1 view .LVU488
 1878 02ec F8EEC97A 		vcvt.f32.s32	s15, s18
 1879 02f0 30EE670A 		vsub.f32	s0, s0, s15
 346:Core/Src/main.c **** 	        lsm6dsm_from_fs2000dps_to_mdps(data_raw_angular_rate[0]) - gyro_bias[0];
 1880              		.loc 1 346 29 view .LVU489
 1881 02f4 174D     		ldr	r5, .L108+48
 1882 02f6 85ED000A 		vstr.32	s0, [r5]
 348:Core/Src/main.c **** 	        lsm6dsm_from_fs2000dps_to_mdps(data_raw_angular_rate[1]) - gyro_bias[1];
 1883              		.loc 1 348 8 is_stmt 1 view .LVU490
 349:Core/Src/main.c **** 	      angular_rate_mdps[2] =
 1884              		.loc 1 349 10 is_stmt 0 view .LVU491
 1885 02fa B4F90200 		ldrsh	r0, [r4, #2]
 1886 02fe FFF7FEFF 		bl	lsm6dsm_from_fs2000dps_to_mdps
 1887              	.LVL135:
 349:Core/Src/main.c **** 	      angular_rate_mdps[2] =
 1888              		.loc 1 349 67 discriminator 1 view .LVU492
 1889 0302 F8EEE87A 		vcvt.f32.s32	s15, s17
 1890 0306 30EE670A 		vsub.f32	s0, s0, s15
 348:Core/Src/main.c **** 	        lsm6dsm_from_fs2000dps_to_mdps(data_raw_angular_rate[1]) - gyro_bias[1];
 1891              		.loc 1 348 29 view .LVU493
 1892 030a 85ED010A 		vstr.32	s0, [r5, #4]
 350:Core/Src/main.c **** 	        lsm6dsm_from_fs2000dps_to_mdps(data_raw_angular_rate[2]) - gyro_bias[2];
 1893              		.loc 1 350 8 is_stmt 1 view .LVU494
 351:Core/Src/main.c **** 	      // printf("Angular rate [mdps]:%4.2f\t%4.2f\t%4.2f\r\n", angular_rate_mdps[0], angular_rate_
 1894              		.loc 1 351 10 is_stmt 0 view .LVU495
 1895 030e B4F90400 		ldrsh	r0, [r4, #4]
 1896 0312 FFF7FEFF 		bl	lsm6dsm_from_fs2000dps_to_mdps
 1897              	.LVL136:
 351:Core/Src/main.c **** 	      // printf("Angular rate [mdps]:%4.2f\t%4.2f\t%4.2f\r\n", angular_rate_mdps[0], angular_rate_
 1898              		.loc 1 351 67 discriminator 1 view .LVU496
 1899 0316 F8EEC87A 		vcvt.f32.s32	s15, s16
 1900 031a 30EE670A 		vsub.f32	s0, s0, s15
 350:Core/Src/main.c **** 	        lsm6dsm_from_fs2000dps_to_mdps(data_raw_angular_rate[2]) - gyro_bias[2];
 1901              		.loc 1 350 29 view .LVU497
 1902 031e 85ED020A 		vstr.32	s0, [r5, #8]
 1903 0322 5CE0     		b	.L100
 1904              	.L109:
 1905              		.align	2
 1906              	.L108:
 1907 0324 00000000 		.word	lsm6dsm_platform_write
 1908 0328 00000000 		.word	lsm6dsm_platform_read
 1909 032c 00000000 		.word	hspi1
 1910 0330 00000000 		.word	llcc68_platform_write
 1911 0334 00000000 		.word	llcc68_platform_read
 1912 0338 00000000 		.word	llcc68_platform_reset
 1913 033c 00000240 		.word	1073872896
 1914 0340 00000000 		.word	whoamI
ARM GAS  C:\Users\Nathan\AppData\Local\Temp\ccHbzc7Q.s 			page 76


 1915 0344 00000000 		.word	rst
 1916 0348 00000000 		.word	data_raw_acceleration
 1917 034c 00000000 		.word	data_raw_angular_rate
 1918 0350 00000000 		.word	acceleration_mg
 1919 0354 00000000 		.word	angular_rate_mdps
 1920              	.L101:
 1921              	.LBE22:
 365:Core/Src/main.c **** 
 1922              		.loc 1 365 7 is_stmt 1 view .LVU498
 365:Core/Src/main.c **** 
 1923              		.loc 1 365 85 is_stmt 0 view .LVU499
 1924 0358 2B4B     		ldr	r3, .L110
 365:Core/Src/main.c **** 
 1925              		.loc 1 365 105 view .LVU500
 1926 035a 5E68     		ldr	r6, [r3, #4]	@ float
 365:Core/Src/main.c **** 
 1927              		.loc 1 365 125 view .LVU501
 1928 035c 9F68     		ldr	r7, [r3, #8]	@ float
 365:Core/Src/main.c **** 
 1929              		.loc 1 365 147 view .LVU502
 1930 035e 2B4A     		ldr	r2, .L110+4
 1931 0360 D2F80080 		ldr	r8, [r2]	@ float
 365:Core/Src/main.c **** 
 1932              		.loc 1 365 169 view .LVU503
 1933 0364 D2F80490 		ldr	r9, [r2, #4]	@ float
 365:Core/Src/main.c **** 
 1934              		.loc 1 365 191 view .LVU504
 1935 0368 D2F808A0 		ldr	r10, [r2, #8]	@ float
 365:Core/Src/main.c **** 
 1936              		.loc 1 365 7 view .LVU505
 1937 036c 1868     		ldr	r0, [r3]	@ float
 1938 036e FFF7FEFF 		bl	__aeabi_f2d
 1939              	.LVL137:
 1940 0372 0446     		mov	r4, r0
 1941 0374 0D46     		mov	r5, r1
 1942 0376 264B     		ldr	r3, .L110+8
 1943 0378 1868     		ldr	r0, [r3]	@ float
 1944 037a FFF7FEFF 		bl	__aeabi_f2d
 1945              	.LVL138:
 1946 037e CDE90A01 		strd	r0, [sp, #40]
 1947 0382 5046     		mov	r0, r10	@ float
 1948 0384 FFF7FEFF 		bl	__aeabi_f2d
 1949              	.LVL139:
 1950 0388 CDE90801 		strd	r0, [sp, #32]
 1951 038c 4846     		mov	r0, r9	@ float
 1952 038e FFF7FEFF 		bl	__aeabi_f2d
 1953              	.LVL140:
 1954 0392 CDE90601 		strd	r0, [sp, #24]
 1955 0396 4046     		mov	r0, r8	@ float
 1956 0398 FFF7FEFF 		bl	__aeabi_f2d
 1957              	.LVL141:
 1958 039c CDE90401 		strd	r0, [sp, #16]
 1959 03a0 3846     		mov	r0, r7	@ float
 1960 03a2 FFF7FEFF 		bl	__aeabi_f2d
 1961              	.LVL142:
 1962 03a6 CDE90201 		strd	r0, [sp, #8]
 1963 03aa 3046     		mov	r0, r6	@ float
ARM GAS  C:\Users\Nathan\AppData\Local\Temp\ccHbzc7Q.s 			page 77


 1964 03ac FFF7FEFF 		bl	__aeabi_f2d
 1965              	.LVL143:
 1966 03b0 CDE90001 		strd	r0, [sp]
 1967 03b4 2246     		mov	r2, r4
 1968 03b6 2B46     		mov	r3, r5
 1969 03b8 1648     		ldr	r0, .L110+12
 1970 03ba FFF7FEFF 		bl	printf
 1971              	.LVL144:
 1972              	.LBE20:
 306:Core/Src/main.c ****   {
 1973              		.loc 1 306 9 is_stmt 1 view .LVU506
 1974              	.L102:
 306:Core/Src/main.c ****   {
 1975              		.loc 1 306 3 view .LVU507
 1976              	.LBB24:
 324:Core/Src/main.c **** 	    /* Read output only if new value is available */
 1977              		.loc 1 324 6 view .LVU508
 326:Core/Src/main.c **** 	    if (reg.status_reg.xlda) {
 1978              		.loc 1 326 6 view .LVU509
 1979 03be 0CA9     		add	r1, sp, #48
 1980 03c0 16A8     		add	r0, sp, #88
 1981 03c2 FFF7FEFF 		bl	lsm6dsm_status_reg_get
 1982              	.LVL145:
 327:Core/Src/main.c **** 	      /* Read acceleration field data */
 1983              		.loc 1 327 6 view .LVU510
 327:Core/Src/main.c **** 	      /* Read acceleration field data */
 1984              		.loc 1 327 10 is_stmt 0 view .LVU511
 1985 03c6 9DF83030 		ldrb	r3, [sp, #48]	@ zero_extendqisi2
 327:Core/Src/main.c **** 	      /* Read acceleration field data */
 1986              		.loc 1 327 9 view .LVU512
 1987 03ca 13F0010F 		tst	r3, #1
 1988 03ce 7FF459AF 		bne	.L106
 1989              	.L99:
 342:Core/Src/main.c **** 	      /* Read angular rate field data */
 1990              		.loc 1 342 6 is_stmt 1 view .LVU513
 342:Core/Src/main.c **** 	      /* Read angular rate field data */
 1991              		.loc 1 342 10 is_stmt 0 view .LVU514
 1992 03d2 9DF83030 		ldrb	r3, [sp, #48]	@ zero_extendqisi2
 342:Core/Src/main.c **** 	      /* Read angular rate field data */
 1993              		.loc 1 342 9 view .LVU515
 1994 03d6 13F0020F 		tst	r3, #2
 1995 03da 7FF47BAF 		bne	.L107
 1996              	.L100:
 355:Core/Src/main.c **** 	      /* Read temperature data */
 1997              		.loc 1 355 6 is_stmt 1 view .LVU516
 355:Core/Src/main.c **** 	      /* Read temperature data */
 1998              		.loc 1 355 10 is_stmt 0 view .LVU517
 1999 03de 9DF83030 		ldrb	r3, [sp, #48]	@ zero_extendqisi2
 355:Core/Src/main.c **** 	      /* Read temperature data */
 2000              		.loc 1 355 9 view .LVU518
 2001 03e2 13F0040F 		tst	r3, #4
 2002 03e6 B7D0     		beq	.L101
 2003              	.LBB23:
 357:Core/Src/main.c **** 	      lsm6dsm_temperature_raw_get(&dev_ctx, &data_raw_temperature);
 2004              		.loc 1 357 8 is_stmt 1 view .LVU519
 2005 03e8 0B4C     		ldr	r4, .L110+16
 2006 03ea 0023     		movs	r3, #0
ARM GAS  C:\Users\Nathan\AppData\Local\Temp\ccHbzc7Q.s 			page 78


 2007 03ec 2380     		strh	r3, [r4]	@ movhi
 358:Core/Src/main.c **** 	      temperature_degC = lsm6dsm_from_lsb_to_celsius(
 2008              		.loc 1 358 8 view .LVU520
 2009 03ee 2146     		mov	r1, r4
 2010 03f0 16A8     		add	r0, sp, #88
 2011 03f2 FFF7FEFF 		bl	lsm6dsm_temperature_raw_get
 2012              	.LVL146:
 359:Core/Src/main.c **** 	                           data_raw_temperature);
 2013              		.loc 1 359 8 view .LVU521
 359:Core/Src/main.c **** 	                           data_raw_temperature);
 2014              		.loc 1 359 27 is_stmt 0 view .LVU522
 2015 03f6 B4F90000 		ldrsh	r0, [r4]
 2016 03fa FFF7FEFF 		bl	lsm6dsm_from_lsb_to_celsius
 2017              	.LVL147:
 359:Core/Src/main.c **** 	                           data_raw_temperature);
 2018              		.loc 1 359 25 discriminator 1 view .LVU523
 2019 03fe 044B     		ldr	r3, .L110+8
 2020 0400 83ED000A 		vstr.32	s0, [r3]
 2021 0404 A8E7     		b	.L101
 2022              	.L111:
 2023 0406 00BF     		.align	2
 2024              	.L110:
 2025 0408 00000000 		.word	acceleration_mg
 2026 040c 00000000 		.word	angular_rate_mdps
 2027 0410 00000000 		.word	temperature_degC
 2028 0414 00000000 		.word	.LC11
 2029 0418 00000000 		.word	data_raw_temperature
 2030              	.LBE23:
 2031              	.LBE24:
 2032              		.cfi_endproc
 2033              	.LFE134:
 2035              		.section	.bss.rst,"aw",%nobits
 2038              	rst:
 2039 0000 00       		.space	1
 2040              		.section	.bss.whoamI,"aw",%nobits
 2043              	whoamI:
 2044 0000 00       		.space	1
 2045              		.section	.bss.temperature_degC,"aw",%nobits
 2046              		.align	2
 2049              	temperature_degC:
 2050 0000 00000000 		.space	4
 2051              		.section	.bss.angular_rate_mdps,"aw",%nobits
 2052              		.align	2
 2055              	angular_rate_mdps:
 2056 0000 00000000 		.space	12
 2056      00000000 
 2056      00000000 
 2057              		.section	.bss.acceleration_mg,"aw",%nobits
 2058              		.align	2
 2061              	acceleration_mg:
 2062 0000 00000000 		.space	12
 2062      00000000 
 2062      00000000 
 2063              		.section	.bss.data_raw_temperature,"aw",%nobits
 2064              		.align	1
 2067              	data_raw_temperature:
 2068 0000 0000     		.space	2
ARM GAS  C:\Users\Nathan\AppData\Local\Temp\ccHbzc7Q.s 			page 79


 2069              		.section	.bss.data_raw_angular_rate,"aw",%nobits
 2070              		.align	2
 2073              	data_raw_angular_rate:
 2074 0000 00000000 		.space	6
 2074      0000
 2075              		.section	.bss.data_raw_acceleration,"aw",%nobits
 2076              		.align	2
 2079              	data_raw_acceleration:
 2080 0000 00000000 		.space	6
 2080      0000
 2081              		.global	temp
 2082              		.section	.bss.temp,"aw",%nobits
 2083              		.align	1
 2086              	temp:
 2087 0000 0000     		.space	2
 2088              		.global	huart1
 2089              		.section	.bss.huart1,"aw",%nobits
 2090              		.align	2
 2093              	huart1:
 2094 0000 00000000 		.space	72
 2094      00000000 
 2094      00000000 
 2094      00000000 
 2094      00000000 
 2095              		.global	hspi1
 2096              		.section	.bss.hspi1,"aw",%nobits
 2097              		.align	2
 2100              	hspi1:
 2101 0000 00000000 		.space	88
 2101      00000000 
 2101      00000000 
 2101      00000000 
 2101      00000000 
 2102              		.global	hsd
 2103              		.section	.bss.hsd,"aw",%nobits
 2104              		.align	2
 2107              	hsd:
 2108 0000 00000000 		.space	132
 2108      00000000 
 2108      00000000 
 2108      00000000 
 2108      00000000 
 2109              		.global	hi2c1
 2110              		.section	.bss.hi2c1,"aw",%nobits
 2111              		.align	2
 2114              	hi2c1:
 2115 0000 00000000 		.space	84
 2115      00000000 
 2115      00000000 
 2115      00000000 
 2115      00000000 
 2116              		.text
 2117              	.Letext0:
 2118              		.file 3 "C:/PROGRAM FILES (X86)/ARM GNU TOOLCHAIN ARM-NONE-EABI/13.3 REL1/arm-none-eabi/include/ma
 2119              		.file 4 "C:/PROGRAM FILES (X86)/ARM GNU TOOLCHAIN ARM-NONE-EABI/13.3 REL1/arm-none-eabi/include/sy
 2120              		.file 5 "Drivers/CMSIS/Device/ST/STM32F4xx/Include/stm32f405xx.h"
 2121              		.file 6 "Drivers/STM32F4xx_HAL_Driver/Inc/stm32f4xx_hal_def.h"
ARM GAS  C:\Users\Nathan\AppData\Local\Temp\ccHbzc7Q.s 			page 80


 2122              		.file 7 "Drivers/STM32F4xx_HAL_Driver/Inc/stm32f4xx_hal_rcc_ex.h"
 2123              		.file 8 "Drivers/STM32F4xx_HAL_Driver/Inc/stm32f4xx_hal_rcc.h"
 2124              		.file 9 "Drivers/STM32F4xx_HAL_Driver/Inc/stm32f4xx_hal_gpio.h"
 2125              		.file 10 "Drivers/STM32F4xx_HAL_Driver/Inc/stm32f4xx_hal_dma.h"
 2126              		.file 11 "Drivers/STM32F4xx_HAL_Driver/Inc/stm32f4xx_hal_i2c.h"
 2127              		.file 12 "Drivers/STM32F4xx_HAL_Driver/Inc/stm32f4xx_ll_sdmmc.h"
 2128              		.file 13 "Drivers/STM32F4xx_HAL_Driver/Inc/stm32f4xx_hal_sd.h"
 2129              		.file 14 "Drivers/STM32F4xx_HAL_Driver/Inc/stm32f4xx_hal_spi.h"
 2130              		.file 15 "Drivers/STM32F4xx_HAL_Driver/Inc/stm32f4xx_hal_uart.h"
 2131              		.file 16 "C:/PROGRAM FILES (X86)/ARM GNU TOOLCHAIN ARM-NONE-EABI/13.3 REL1/arm-none-eabi/include/m
 2132              		.file 17 "Drivers/LSM6DSM/Inc/lsm6dsm_reg.h"
 2133              		.file 18 "Drivers/LLCC68/Inc/llcc68_hal.h"
 2134              		.file 19 "Drivers/STM32F4xx_HAL_Driver/Inc/stm32f4xx_hal.h"
 2135              		.file 20 "<built-in>"
 2136              		.file 21 "FATFS/App/fatfs.h"
ARM GAS  C:\Users\Nathan\AppData\Local\Temp\ccHbzc7Q.s 			page 81

