ARM GAS  C:\Users\Nathan\AppData\Local\Temp\ccXwghP6.s 			page 1


   1              		.cpu cortex-m4
   2              		.arch armv7e-m
   3              		.fpu fpv4-sp-d16
   4              		.eabi_attribute 27, 1
   5              		.eabi_attribute 28, 1
   6              		.eabi_attribute 20, 1
   7              		.eabi_attribute 21, 1
   8              		.eabi_attribute 23, 3
   9              		.eabi_attribute 24, 1
  10              		.eabi_attribute 25, 1
  11              		.eabi_attribute 26, 1
  12              		.eabi_attribute 30, 1
  13              		.eabi_attribute 34, 1
  14              		.eabi_attribute 18, 4
  15              		.file	"ff.c"
  16              		.text
  17              		.section	.text.ld_word,"ax",%progbits
  18              		.align	1
  19              		.syntax unified
  20              		.thumb
  21              		.thumb_func
  23              	ld_word:
  24              		@ args = 0, pretend = 0, frame = 0
  25              		@ frame_needed = 0, uses_anonymous_args = 0
  26              		@ link register save eliminated.
  27 0000 4278     		ldrb	r2, [r0, #1]	@ zero_extendqisi2
  28 0002 0078     		ldrb	r0, [r0]	@ zero_extendqisi2
  29 0004 40EA0220 		orr	r0, r0, r2, lsl #8
  30 0008 7047     		bx	lr
  32              		.section	.text.ld_dword,"ax",%progbits
  33              		.align	1
  34              		.syntax unified
  35              		.thumb
  36              		.thumb_func
  38              	ld_dword:
  39              		@ args = 0, pretend = 0, frame = 0
  40              		@ frame_needed = 0, uses_anonymous_args = 0
  41              		@ link register save eliminated.
  42 0000 C378     		ldrb	r3, [r0, #3]	@ zero_extendqisi2
  43 0002 8278     		ldrb	r2, [r0, #2]	@ zero_extendqisi2
  44 0004 42EA0322 		orr	r2, r2, r3, lsl #8
  45 0008 4378     		ldrb	r3, [r0, #1]	@ zero_extendqisi2
  46 000a 43EA0223 		orr	r3, r3, r2, lsl #8
  47 000e 0078     		ldrb	r0, [r0]	@ zero_extendqisi2
  48 0010 40EA0320 		orr	r0, r0, r3, lsl #8
  49 0014 7047     		bx	lr
  51              		.section	.text.st_word,"ax",%progbits
  52              		.align	1
  53              		.syntax unified
  54              		.thumb
  55              		.thumb_func
  57              	st_word:
  58              		@ args = 0, pretend = 0, frame = 0
  59              		@ frame_needed = 0, uses_anonymous_args = 0
  60              		@ link register save eliminated.
  61 0000 0170     		strb	r1, [r0]
  62 0002 090A     		lsrs	r1, r1, #8
ARM GAS  C:\Users\Nathan\AppData\Local\Temp\ccXwghP6.s 			page 2


  63 0004 4170     		strb	r1, [r0, #1]
  64 0006 7047     		bx	lr
  66              		.section	.text.st_dword,"ax",%progbits
  67              		.align	1
  68              		.syntax unified
  69              		.thumb
  70              		.thumb_func
  72              	st_dword:
  73              		@ args = 0, pretend = 0, frame = 0
  74              		@ frame_needed = 0, uses_anonymous_args = 0
  75              		@ link register save eliminated.
  76 0000 0170     		strb	r1, [r0]
  77 0002 C1F30723 		ubfx	r3, r1, #8, #8
  78 0006 4370     		strb	r3, [r0, #1]
  79 0008 C1F30743 		ubfx	r3, r1, #16, #8
  80 000c 8370     		strb	r3, [r0, #2]
  81 000e 090E     		lsrs	r1, r1, #24
  82 0010 C170     		strb	r1, [r0, #3]
  83 0012 7047     		bx	lr
  85              		.section	.text.mem_cpy,"ax",%progbits
  86              		.align	1
  87              		.syntax unified
  88              		.thumb
  89              		.thumb_func
  91              	mem_cpy:
  92              		@ args = 0, pretend = 0, frame = 0
  93              		@ frame_needed = 0, uses_anonymous_args = 0
  94              		@ link register save eliminated.
  95 0000 9446     		mov	ip, r2
  96 0002 32B1     		cbz	r2, .L5
  97              	.L7:
  98 0004 0A78     		ldrb	r2, [r1]	@ zero_extendqisi2
  99 0006 0131     		adds	r1, r1, #1
 100 0008 0270     		strb	r2, [r0]
 101 000a 0130     		adds	r0, r0, #1
 102 000c BCF1010C 		subs	ip, ip, #1
 103 0010 F8D1     		bne	.L7
 104              	.L5:
 105 0012 7047     		bx	lr
 107              		.section	.text.mem_set,"ax",%progbits
 108              		.align	1
 109              		.syntax unified
 110              		.thumb
 111              		.thumb_func
 113              	mem_set:
 114              		@ args = 0, pretend = 0, frame = 0
 115              		@ frame_needed = 0, uses_anonymous_args = 0
 116              		@ link register save eliminated.
 117              	.L9:
 118 0000 0170     		strb	r1, [r0]
 119 0002 0130     		adds	r0, r0, #1
 120 0004 013A     		subs	r2, r2, #1
 121 0006 FBD1     		bne	.L9
 122 0008 7047     		bx	lr
 124              		.section	.text.mem_cmp,"ax",%progbits
 125              		.align	1
 126              		.syntax unified
ARM GAS  C:\Users\Nathan\AppData\Local\Temp\ccXwghP6.s 			page 3


 127              		.thumb
 128              		.thumb_func
 130              	mem_cmp:
 131              		@ args = 0, pretend = 0, frame = 0
 132              		@ frame_needed = 0, uses_anonymous_args = 0
 133              		@ link register save eliminated.
 134 0000 8446     		mov	ip, r0
 135              	.L12:
 136 0002 9CF80000 		ldrb	r0, [ip]	@ zero_extendqisi2
 137 0006 0CF1010C 		add	ip, ip, #1
 138 000a 0B78     		ldrb	r3, [r1]	@ zero_extendqisi2
 139 000c 0131     		adds	r1, r1, #1
 140 000e C01A     		subs	r0, r0, r3
 141 0010 013A     		subs	r2, r2, #1
 142 0012 01D0     		beq	.L10
 143 0014 0028     		cmp	r0, #0
 144 0016 F4D0     		beq	.L12
 145              	.L10:
 146 0018 7047     		bx	lr
 148              		.section	.text.chk_chr,"ax",%progbits
 149              		.align	1
 150              		.syntax unified
 151              		.thumb
 152              		.thumb_func
 154              	chk_chr:
 155              		@ args = 0, pretend = 0, frame = 0
 156              		@ frame_needed = 0, uses_anonymous_args = 0
 157              		@ link register save eliminated.
 158 0000 0346     		mov	r3, r0
 159 0002 00E0     		b	.L14
 160              	.L16:
 161 0004 0133     		adds	r3, r3, #1
 162              	.L14:
 163 0006 1878     		ldrb	r0, [r3]	@ zero_extendqisi2
 164 0008 08B1     		cbz	r0, .L15
 165 000a 8842     		cmp	r0, r1
 166 000c FAD1     		bne	.L16
 167              	.L15:
 168 000e 7047     		bx	lr
 170              		.section	.text.chk_lock,"ax",%progbits
 171              		.align	1
 172              		.syntax unified
 173              		.thumb
 174              		.thumb_func
 176              	chk_lock:
 177              		@ args = 0, pretend = 0, frame = 0
 178              		@ frame_needed = 0, uses_anonymous_args = 0
 179              		@ link register save eliminated.
 180 0000 30B4     		push	{r4, r5}
 181 0002 0025     		movs	r5, #0
 182 0004 2B46     		mov	r3, r5
 183 0006 01E0     		b	.L18
 184              	.L25:
 185 0008 0125     		movs	r5, #1
 186              	.L19:
 187 000a 0133     		adds	r3, r3, #1
 188              	.L18:
ARM GAS  C:\Users\Nathan\AppData\Local\Temp\ccXwghP6.s 			page 4


 189 000c 012B     		cmp	r3, #1
 190 000e 15D8     		bhi	.L20
 191 0010 1A01     		lsls	r2, r3, #4
 192 0012 174C     		ldr	r4, .L34
 193 0014 A258     		ldr	r2, [r4, r2]
 194 0016 002A     		cmp	r2, #0
 195 0018 F6D0     		beq	.L25
 196 001a 0468     		ldr	r4, [r0]
 197 001c A242     		cmp	r2, r4
 198 001e F4D1     		bne	.L19
 199 0020 134A     		ldr	r2, .L34
 200 0022 02EB0312 		add	r2, r2, r3, lsl #4
 201 0026 5468     		ldr	r4, [r2, #4]
 202 0028 8268     		ldr	r2, [r0, #8]
 203 002a 9442     		cmp	r4, r2
 204 002c EDD1     		bne	.L19
 205 002e 104A     		ldr	r2, .L34
 206 0030 02EB0312 		add	r2, r2, r3, lsl #4
 207 0034 9468     		ldr	r4, [r2, #8]
 208 0036 4269     		ldr	r2, [r0, #20]
 209 0038 9442     		cmp	r4, r2
 210 003a E6D1     		bne	.L19
 211              	.L20:
 212 003c 022B     		cmp	r3, #2
 213 003e 0AD0     		beq	.L31
 214 0040 A1B9     		cbnz	r1, .L28
 215 0042 0B4A     		ldr	r2, .L34
 216 0044 02EB0313 		add	r3, r2, r3, lsl #4
 217 0048 9B89     		ldrh	r3, [r3, #12]
 218 004a B3F5807F 		cmp	r3, #256
 219 004e 0BD0     		beq	.L32
 220 0050 0020     		movs	r0, #0
 221              	.L24:
 222 0052 30BC     		pop	{r4, r5}
 223 0054 7047     		bx	lr
 224              	.L31:
 225 0056 2DB9     		cbnz	r5, .L26
 226 0058 0229     		cmp	r1, #2
 227 005a 01D0     		beq	.L33
 228 005c 1220     		movs	r0, #18
 229 005e F8E7     		b	.L24
 230              	.L33:
 231 0060 0020     		movs	r0, #0
 232 0062 F6E7     		b	.L24
 233              	.L26:
 234 0064 0020     		movs	r0, #0
 235 0066 F4E7     		b	.L24
 236              	.L32:
 237 0068 1020     		movs	r0, #16
 238 006a F2E7     		b	.L24
 239              	.L28:
 240 006c 1020     		movs	r0, #16
 241 006e F0E7     		b	.L24
 242              	.L35:
 243              		.align	2
 244              	.L34:
 245 0070 00000000 		.word	Files
ARM GAS  C:\Users\Nathan\AppData\Local\Temp\ccXwghP6.s 			page 5


 247              		.section	.text.enq_lock,"ax",%progbits
 248              		.align	1
 249              		.syntax unified
 250              		.thumb
 251              		.thumb_func
 253              	enq_lock:
 254              		@ args = 0, pretend = 0, frame = 0
 255              		@ frame_needed = 0, uses_anonymous_args = 0
 256              		@ link register save eliminated.
 257 0000 0020     		movs	r0, #0
 258 0002 00E0     		b	.L37
 259              	.L39:
 260 0004 0130     		adds	r0, r0, #1
 261              	.L37:
 262 0006 0128     		cmp	r0, #1
 263 0008 04D8     		bhi	.L38
 264 000a 0301     		lsls	r3, r0, #4
 265 000c 034A     		ldr	r2, .L40
 266 000e D358     		ldr	r3, [r2, r3]
 267 0010 002B     		cmp	r3, #0
 268 0012 F7D1     		bne	.L39
 269              	.L38:
 270 0014 0238     		subs	r0, r0, #2
 271 0016 18BF     		it	ne
 272 0018 0120     		movne	r0, #1
 273 001a 7047     		bx	lr
 274              	.L41:
 275              		.align	2
 276              	.L40:
 277 001c 00000000 		.word	Files
 279              		.section	.text.inc_lock,"ax",%progbits
 280              		.align	1
 281              		.syntax unified
 282              		.thumb
 283              		.thumb_func
 285              	inc_lock:
 286              		@ args = 0, pretend = 0, frame = 0
 287              		@ frame_needed = 0, uses_anonymous_args = 0
 288              		@ link register save eliminated.
 289 0000 70B4     		push	{r4, r5, r6}
 290 0002 0023     		movs	r3, #0
 291 0004 00E0     		b	.L43
 292              	.L44:
 293 0006 0133     		adds	r3, r3, #1
 294              	.L43:
 295 0008 012B     		cmp	r3, #1
 296 000a 13D8     		bhi	.L45
 297 000c 1A01     		lsls	r2, r3, #4
 298 000e 234C     		ldr	r4, .L59
 299 0010 A458     		ldr	r4, [r4, r2]
 300 0012 0268     		ldr	r2, [r0]
 301 0014 9442     		cmp	r4, r2
 302 0016 F6D1     		bne	.L44
 303 0018 204A     		ldr	r2, .L59
 304 001a 02EB0312 		add	r2, r2, r3, lsl #4
 305 001e 5468     		ldr	r4, [r2, #4]
 306 0020 8268     		ldr	r2, [r0, #8]
ARM GAS  C:\Users\Nathan\AppData\Local\Temp\ccXwghP6.s 			page 6


 307 0022 9442     		cmp	r4, r2
 308 0024 EFD1     		bne	.L44
 309 0026 1D4A     		ldr	r2, .L59
 310 0028 02EB0312 		add	r2, r2, r3, lsl #4
 311 002c 9468     		ldr	r4, [r2, #8]
 312 002e 4269     		ldr	r2, [r0, #20]
 313 0030 9442     		cmp	r4, r2
 314 0032 E8D1     		bne	.L44
 315              	.L45:
 316 0034 022B     		cmp	r3, #2
 317 0036 08D0     		beq	.L58
 318              	.L48:
 319 0038 F9B1     		cbz	r1, .L52
 320 003a 184A     		ldr	r2, .L59
 321 003c 02EB0312 		add	r2, r2, r3, lsl #4
 322 0040 9289     		ldrh	r2, [r2, #12]
 323 0042 4ABB     		cbnz	r2, .L56
 324 0044 4FF48072 		mov	r2, #256
 325 0048 1DE0     		b	.L53
 326              	.L58:
 327 004a 0023     		movs	r3, #0
 328              	.L47:
 329 004c 012B     		cmp	r3, #1
 330 004e 05D8     		bhi	.L49
 331 0050 1A01     		lsls	r2, r3, #4
 332 0052 124C     		ldr	r4, .L59
 333 0054 A258     		ldr	r2, [r4, r2]
 334 0056 0AB1     		cbz	r2, .L49
 335 0058 0133     		adds	r3, r3, #1
 336 005a F7E7     		b	.L47
 337              	.L49:
 338 005c 022B     		cmp	r3, #2
 339 005e 19D0     		beq	.L55
 340 0060 0E4D     		ldr	r5, .L59
 341 0062 1C01     		lsls	r4, r3, #4
 342 0064 05EB0312 		add	r2, r5, r3, lsl #4
 343 0068 0668     		ldr	r6, [r0]
 344 006a 2E51     		str	r6, [r5, r4]
 345 006c 8468     		ldr	r4, [r0, #8]
 346 006e 5460     		str	r4, [r2, #4]
 347 0070 4069     		ldr	r0, [r0, #20]
 348 0072 9060     		str	r0, [r2, #8]
 349 0074 0020     		movs	r0, #0
 350 0076 9081     		strh	r0, [r2, #12]	@ movhi
 351 0078 DEE7     		b	.L48
 352              	.L52:
 353 007a 084A     		ldr	r2, .L59
 354 007c 02EB0312 		add	r2, r2, r3, lsl #4
 355 0080 9289     		ldrh	r2, [r2, #12]
 356 0082 0132     		adds	r2, r2, #1
 357 0084 92B2     		uxth	r2, r2
 358              	.L53:
 359 0086 0549     		ldr	r1, .L59
 360 0088 01EB0311 		add	r1, r1, r3, lsl #4
 361 008c 8A81     		strh	r2, [r1, #12]	@ movhi
 362 008e 581C     		adds	r0, r3, #1
 363              	.L42:
ARM GAS  C:\Users\Nathan\AppData\Local\Temp\ccXwghP6.s 			page 7


 364 0090 70BC     		pop	{r4, r5, r6}
 365 0092 7047     		bx	lr
 366              	.L55:
 367 0094 0020     		movs	r0, #0
 368 0096 FBE7     		b	.L42
 369              	.L56:
 370 0098 0020     		movs	r0, #0
 371 009a F9E7     		b	.L42
 372              	.L60:
 373              		.align	2
 374              	.L59:
 375 009c 00000000 		.word	Files
 377              		.section	.text.dec_lock,"ax",%progbits
 378              		.align	1
 379              		.syntax unified
 380              		.thumb
 381              		.thumb_func
 383              	dec_lock:
 384              		@ args = 0, pretend = 0, frame = 0
 385              		@ frame_needed = 0, uses_anonymous_args = 0
 386              		@ link register save eliminated.
 387 0000 0138     		subs	r0, r0, #1
 388 0002 0128     		cmp	r0, #1
 389 0004 15D8     		bhi	.L65
 390 0006 0D4B     		ldr	r3, .L68
 391 0008 03EB0013 		add	r3, r3, r0, lsl #4
 392 000c 9B89     		ldrh	r3, [r3, #12]
 393 000e B3F5807F 		cmp	r3, #256
 394 0012 03D0     		beq	.L66
 395 0014 43B1     		cbz	r3, .L64
 396 0016 013B     		subs	r3, r3, #1
 397 0018 9BB2     		uxth	r3, r3
 398 001a 00E0     		b	.L63
 399              	.L66:
 400 001c 0023     		movs	r3, #0
 401              	.L63:
 402 001e 074A     		ldr	r2, .L68
 403 0020 02EB0012 		add	r2, r2, r0, lsl #4
 404 0024 9381     		strh	r3, [r2, #12]	@ movhi
 405 0026 33B9     		cbnz	r3, .L67
 406              	.L64:
 407 0028 0301     		lsls	r3, r0, #4
 408 002a 0020     		movs	r0, #0
 409 002c 034A     		ldr	r2, .L68
 410 002e D050     		str	r0, [r2, r3]
 411 0030 7047     		bx	lr
 412              	.L65:
 413 0032 0220     		movs	r0, #2
 414 0034 7047     		bx	lr
 415              	.L67:
 416 0036 0020     		movs	r0, #0
 417 0038 7047     		bx	lr
 418              	.L69:
 419 003a 00BF     		.align	2
 420              	.L68:
 421 003c 00000000 		.word	Files
 423              		.section	.text.clear_lock,"ax",%progbits
ARM GAS  C:\Users\Nathan\AppData\Local\Temp\ccXwghP6.s 			page 8


 424              		.align	1
 425              		.syntax unified
 426              		.thumb
 427              		.thumb_func
 429              	clear_lock:
 430              		@ args = 0, pretend = 0, frame = 0
 431              		@ frame_needed = 0, uses_anonymous_args = 0
 432              		@ link register save eliminated.
 433 0000 0023     		movs	r3, #0
 434 0002 03E0     		b	.L75
 435              	.L82:
 436 0004 5DF8044B 		ldr	r4, [sp], #4
 437 0008 7047     		bx	lr
 438              	.L81:
 439 000a 0133     		adds	r3, r3, #1
 440              	.L75:
 441 000c 012B     		cmp	r3, #1
 442 000e 11D8     		bhi	.L80
 443 0010 1A01     		lsls	r2, r3, #4
 444 0012 0949     		ldr	r1, .L83
 445 0014 8A58     		ldr	r2, [r1, r2]
 446 0016 8242     		cmp	r2, r0
 447 0018 F7D1     		bne	.L81
 448 001a 10B4     		push	{r4}
 449              	.L76:
 450 001c 1A01     		lsls	r2, r3, #4
 451 001e 0024     		movs	r4, #0
 452 0020 8C50     		str	r4, [r1, r2]
 453              	.L72:
 454 0022 0133     		adds	r3, r3, #1
 455 0024 012B     		cmp	r3, #1
 456 0026 EDD8     		bhi	.L82
 457 0028 1A01     		lsls	r2, r3, #4
 458 002a 0349     		ldr	r1, .L83
 459 002c 8A58     		ldr	r2, [r1, r2]
 460 002e 8242     		cmp	r2, r0
 461 0030 F7D1     		bne	.L72
 462 0032 F3E7     		b	.L76
 463              	.L80:
 464 0034 7047     		bx	lr
 465              	.L84:
 466 0036 00BF     		.align	2
 467              	.L83:
 468 0038 00000000 		.word	Files
 470              		.section	.text.clust2sect,"ax",%progbits
 471              		.align	1
 472              		.syntax unified
 473              		.thumb
 474              		.thumb_func
 476              	clust2sect:
 477              		@ args = 0, pretend = 0, frame = 0
 478              		@ frame_needed = 0, uses_anonymous_args = 0
 479              		@ link register save eliminated.
 480 0000 0239     		subs	r1, r1, #2
 481 0002 4369     		ldr	r3, [r0, #20]
 482 0004 023B     		subs	r3, r3, #2
 483 0006 8B42     		cmp	r3, r1
ARM GAS  C:\Users\Nathan\AppData\Local\Temp\ccXwghP6.s 			page 9


 484 0008 04D9     		bls	.L87
 485 000a 4389     		ldrh	r3, [r0, #10]
 486 000c 806A     		ldr	r0, [r0, #40]
 487 000e 01FB0300 		mla	r0, r1, r3, r0
 488 0012 7047     		bx	lr
 489              	.L87:
 490 0014 0020     		movs	r0, #0
 491 0016 7047     		bx	lr
 493              		.section	.text.clmt_clust,"ax",%progbits
 494              		.align	1
 495              		.syntax unified
 496              		.thumb
 497              		.thumb_func
 499              	clmt_clust:
 500              		@ args = 0, pretend = 0, frame = 0
 501              		@ frame_needed = 0, uses_anonymous_args = 0
 502              		@ link register save eliminated.
 503 0000 0268     		ldr	r2, [r0]
 504 0002 C36A     		ldr	r3, [r0, #44]
 505 0004 0433     		adds	r3, r3, #4
 506 0006 490A     		lsrs	r1, r1, #9
 507 0008 5289     		ldrh	r2, [r2, #10]
 508 000a B1FBF2F1 		udiv	r1, r1, r2
 509 000e 01E0     		b	.L91
 510              	.L92:
 511 0010 091A     		subs	r1, r1, r0
 512 0012 0833     		adds	r3, r3, #8
 513              	.L91:
 514 0014 1868     		ldr	r0, [r3]
 515 0016 18B1     		cbz	r0, .L88
 516 0018 8142     		cmp	r1, r0
 517 001a F9D2     		bcs	.L92
 518 001c 5868     		ldr	r0, [r3, #4]
 519 001e 0844     		add	r0, r0, r1
 520              	.L88:
 521 0020 7047     		bx	lr
 523              		.section	.text.ld_clust,"ax",%progbits
 524              		.align	1
 525              		.syntax unified
 526              		.thumb
 527              		.thumb_func
 529              	ld_clust:
 530              		@ args = 0, pretend = 0, frame = 0
 531              		@ frame_needed = 0, uses_anonymous_args = 0
 532 0000 70B5     		push	{r4, r5, r6, lr}
 533 0002 0646     		mov	r6, r0
 534 0004 0D46     		mov	r5, r1
 535 0006 01F11A00 		add	r0, r1, #26
 536 000a FFF7FEFF 		bl	ld_word
 537 000e 3378     		ldrb	r3, [r6]	@ zero_extendqisi2
 538 0010 032B     		cmp	r3, #3
 539 0012 00D0     		beq	.L96
 540              	.L93:
 541 0014 70BD     		pop	{r4, r5, r6, pc}
 542              	.L96:
 543 0016 0446     		mov	r4, r0
 544 0018 05F11400 		add	r0, r5, #20
ARM GAS  C:\Users\Nathan\AppData\Local\Temp\ccXwghP6.s 			page 10


 545 001c FFF7FEFF 		bl	ld_word
 546 0020 44EA0040 		orr	r0, r4, r0, lsl #16
 547 0024 F6E7     		b	.L93
 549              		.section	.text.st_clust,"ax",%progbits
 550              		.align	1
 551              		.syntax unified
 552              		.thumb
 553              		.thumb_func
 555              	st_clust:
 556              		@ args = 0, pretend = 0, frame = 0
 557              		@ frame_needed = 0, uses_anonymous_args = 0
 558 0000 70B5     		push	{r4, r5, r6, lr}
 559 0002 0646     		mov	r6, r0
 560 0004 0C46     		mov	r4, r1
 561 0006 1546     		mov	r5, r2
 562 0008 91B2     		uxth	r1, r2
 563 000a 04F11A00 		add	r0, r4, #26
 564 000e FFF7FEFF 		bl	st_word
 565 0012 3378     		ldrb	r3, [r6]	@ zero_extendqisi2
 566 0014 032B     		cmp	r3, #3
 567 0016 00D0     		beq	.L100
 568              	.L97:
 569 0018 70BD     		pop	{r4, r5, r6, pc}
 570              	.L100:
 571 001a 290C     		lsrs	r1, r5, #16
 572 001c 04F11400 		add	r0, r4, #20
 573 0020 FFF7FEFF 		bl	st_word
 574 0024 F8E7     		b	.L97
 576              		.section	.text.get_fileinfo,"ax",%progbits
 577              		.align	1
 578              		.syntax unified
 579              		.thumb
 580              		.thumb_func
 582              	get_fileinfo:
 583              		@ args = 0, pretend = 0, frame = 0
 584              		@ frame_needed = 0, uses_anonymous_args = 0
 585 0000 38B5     		push	{r3, r4, r5, lr}
 586 0002 0023     		movs	r3, #0
 587 0004 4B72     		strb	r3, [r1, #9]
 588 0006 C369     		ldr	r3, [r0, #28]
 589 0008 73B3     		cbz	r3, .L101
 590 000a 0546     		mov	r5, r0
 591 000c 0C46     		mov	r4, r1
 592 000e 0022     		movs	r2, #0
 593 0010 1346     		mov	r3, r2
 594 0012 06E0     		b	.L103
 595              	.L105:
 596 0014 BCF1090F 		cmp	ip, #9
 597 0018 0FD0     		beq	.L110
 598              	.L106:
 599 001a A118     		adds	r1, r4, r2
 600 001c 4B72     		strb	r3, [r1, #9]
 601 001e 0132     		adds	r2, r2, #1
 602              	.L104:
 603 0020 6346     		mov	r3, ip
 604              	.L103:
 605 0022 0A2B     		cmp	r3, #10
ARM GAS  C:\Users\Nathan\AppData\Local\Temp\ccXwghP6.s 			page 11


 606 0024 0ED8     		bhi	.L111
 607 0026 03F1010C 		add	ip, r3, #1
 608 002a 296A     		ldr	r1, [r5, #32]
 609 002c CB5C     		ldrb	r3, [r1, r3]	@ zero_extendqisi2
 610 002e 202B     		cmp	r3, #32
 611 0030 F6D0     		beq	.L104
 612 0032 052B     		cmp	r3, #5
 613 0034 EED1     		bne	.L105
 614 0036 E523     		movs	r3, #229
 615 0038 ECE7     		b	.L105
 616              	.L110:
 617 003a A118     		adds	r1, r4, r2
 618 003c 2E20     		movs	r0, #46
 619 003e 4872     		strb	r0, [r1, #9]
 620 0040 0132     		adds	r2, r2, #1
 621 0042 EAE7     		b	.L106
 622              	.L111:
 623 0044 2244     		add	r2, r2, r4
 624 0046 0023     		movs	r3, #0
 625 0048 5372     		strb	r3, [r2, #9]
 626 004a 2B6A     		ldr	r3, [r5, #32]
 627 004c DB7A     		ldrb	r3, [r3, #11]	@ zero_extendqisi2
 628 004e 2372     		strb	r3, [r4, #8]
 629 0050 286A     		ldr	r0, [r5, #32]
 630 0052 1C30     		adds	r0, r0, #28
 631 0054 FFF7FEFF 		bl	ld_dword
 632 0058 2060     		str	r0, [r4]
 633 005a 286A     		ldr	r0, [r5, #32]
 634 005c 1630     		adds	r0, r0, #22
 635 005e FFF7FEFF 		bl	ld_dword
 636 0062 E080     		strh	r0, [r4, #6]	@ movhi
 637 0064 000C     		lsrs	r0, r0, #16
 638 0066 A080     		strh	r0, [r4, #4]	@ movhi
 639              	.L101:
 640 0068 38BD     		pop	{r3, r4, r5, pc}
 642              		.section	.rodata.create_name.str1.4,"aMS",%progbits,1
 643              		.align	2
 644              	.LC0:
 645 0000 222A2B2C 		.ascii	"\"*+,:;<=>?[]|\177\000"
 645      3A3B3C3D 
 645      3E3F5B5D 
 645      7C7F00
 646              		.section	.text.create_name,"ax",%progbits
 647              		.align	1
 648              		.syntax unified
 649              		.thumb
 650              		.thumb_func
 652              	create_name:
 653              		@ args = 0, pretend = 0, frame = 0
 654              		@ frame_needed = 0, uses_anonymous_args = 0
 655 0000 2DE9F84F 		push	{r3, r4, r5, r6, r7, r8, r9, r10, fp, lr}
 656 0004 8146     		mov	r9, r0
 657 0006 8A46     		mov	r10, r1
 658 0008 0F68     		ldr	r7, [r1]
 659 000a 00F1240B 		add	fp, r0, #36
 660 000e 0B22     		movs	r2, #11
 661 0010 2021     		movs	r1, #32
ARM GAS  C:\Users\Nathan\AppData\Local\Temp\ccXwghP6.s 			page 12


 662 0012 5846     		mov	r0, fp
 663 0014 FFF7FEFF 		bl	mem_set
 664 0018 0026     		movs	r6, #0
 665 001a 3346     		mov	r3, r6
 666 001c 4FF00808 		mov	r8, #8
 667 0020 2CE0     		b	.L113
 668              	.L118:
 669 0022 0135     		adds	r5, r5, #1
 670              	.L117:
 671 0024 7B5D     		ldrb	r3, [r7, r5]	@ zero_extendqisi2
 672 0026 2F2B     		cmp	r3, #47
 673 0028 FBD0     		beq	.L118
 674 002a 5C2B     		cmp	r3, #92
 675 002c F9D0     		beq	.L118
 676              	.L114:
 677 002e 2F44     		add	r7, r7, r5
 678 0030 CAF80070 		str	r7, [r10]
 679 0034 002E     		cmp	r6, #0
 680 0036 43D0     		beq	.L130
 681 0038 99F82430 		ldrb	r3, [r9, #36]	@ zero_extendqisi2
 682 003c E52B     		cmp	r3, #229
 683 003e 35D0     		beq	.L134
 684              	.L125:
 685 0040 202C     		cmp	r4, #32
 686 0042 37D8     		bhi	.L131
 687 0044 0423     		movs	r3, #4
 688              	.L126:
 689 0046 89F82F30 		strb	r3, [r9, #47]
 690 004a 0020     		movs	r0, #0
 691 004c 28E0     		b	.L121
 692              	.L136:
 693 004e 0826     		movs	r6, #8
 694 0050 4FF00B08 		mov	r8, #11
 695 0054 11E0     		b	.L122
 696              	.L120:
 697 0056 14F0800F 		tst	r4, #128
 698 005a 23D1     		bne	.L135
 699              	.L123:
 700 005c 2146     		mov	r1, r4
 701 005e 1948     		ldr	r0, .L137
 702 0060 FFF7FEFF 		bl	chk_chr
 703 0064 50BB     		cbnz	r0, .L129
 704 0066 A4F16103 		sub	r3, r4, #97
 705 006a DBB2     		uxtb	r3, r3
 706 006c 192B     		cmp	r3, #25
 707 006e 01D8     		bhi	.L124
 708 0070 203C     		subs	r4, r4, #32
 709 0072 E4B2     		uxtb	r4, r4
 710              	.L124:
 711 0074 0BF80640 		strb	r4, [fp, r6]
 712 0078 0136     		adds	r6, r6, #1
 713              	.L122:
 714 007a 2B46     		mov	r3, r5
 715              	.L113:
 716 007c 5D1C     		adds	r5, r3, #1
 717 007e FC5C     		ldrb	r4, [r7, r3]	@ zero_extendqisi2
 718 0080 202C     		cmp	r4, #32
ARM GAS  C:\Users\Nathan\AppData\Local\Temp\ccXwghP6.s 			page 13


 719 0082 D4D9     		bls	.L114
 720 0084 2F2C     		cmp	r4, #47
 721 0086 CDD0     		beq	.L117
 722 0088 5C2C     		cmp	r4, #92
 723 008a CBD0     		beq	.L117
 724 008c 2E2C     		cmp	r4, #46
 725 008e 01D0     		beq	.L119
 726 0090 B045     		cmp	r8, r6
 727 0092 E0D8     		bhi	.L120
 728              	.L119:
 729 0094 B8F10B0F 		cmp	r8, #11
 730 0098 0ED0     		beq	.L127
 731 009a 2E2C     		cmp	r4, #46
 732 009c D7D0     		beq	.L136
 733 009e 0620     		movs	r0, #6
 734              	.L121:
 735 00a0 BDE8F88F 		pop	{r3, r4, r5, r6, r7, r8, r9, r10, fp, pc}
 736              	.L135:
 737 00a4 803C     		subs	r4, r4, #128
 738 00a6 084B     		ldr	r3, .L137+4
 739 00a8 1C5D     		ldrb	r4, [r3, r4]	@ zero_extendqisi2
 740 00aa D7E7     		b	.L123
 741              	.L134:
 742 00ac 0523     		movs	r3, #5
 743 00ae 89F82430 		strb	r3, [r9, #36]
 744 00b2 C5E7     		b	.L125
 745              	.L131:
 746 00b4 0023     		movs	r3, #0
 747 00b6 C6E7     		b	.L126
 748              	.L127:
 749 00b8 0620     		movs	r0, #6
 750 00ba F1E7     		b	.L121
 751              	.L129:
 752 00bc 0620     		movs	r0, #6
 753 00be EFE7     		b	.L121
 754              	.L130:
 755 00c0 0620     		movs	r0, #6
 756 00c2 EDE7     		b	.L121
 757              	.L138:
 758              		.align	2
 759              	.L137:
 760 00c4 00000000 		.word	.LC0
 761 00c8 00000000 		.word	ExCvt
 763              		.section	.text.get_ldnumber,"ax",%progbits
 764              		.align	1
 765              		.syntax unified
 766              		.thumb
 767              		.thumb_func
 769              	get_ldnumber:
 770              		@ args = 0, pretend = 0, frame = 0
 771              		@ frame_needed = 0, uses_anonymous_args = 0
 772              		@ link register save eliminated.
 773 0000 0146     		mov	r1, r0
 774 0002 0068     		ldr	r0, [r0]
 775 0004 38B1     		cbz	r0, .L154
 776 0006 0246     		mov	r2, r0
 777              	.L140:
ARM GAS  C:\Users\Nathan\AppData\Local\Temp\ccXwghP6.s 			page 14


 778 0008 1378     		ldrb	r3, [r2]	@ zero_extendqisi2
 779 000a 202B     		cmp	r3, #32
 780 000c 06D9     		bls	.L142
 781 000e 3A2B     		cmp	r3, #58
 782 0010 04D0     		beq	.L142
 783 0012 0132     		adds	r2, r2, #1
 784 0014 F8E7     		b	.L140
 785              	.L154:
 786 0016 4FF0FF30 		mov	r0, #-1
 787 001a 7047     		bx	lr
 788              	.L142:
 789 001c 3A2B     		cmp	r3, #58
 790 001e 01D0     		beq	.L155
 791 0020 0020     		movs	r0, #0
 792 0022 7047     		bx	lr
 793              	.L155:
 794 0024 10B4     		push	{r4}
 795 0026 0346     		mov	r3, r0
 796 0028 13F8010B 		ldrb	r0, [r3], #1	@ zero_extendqisi2
 797 002c 3038     		subs	r0, r0, #48
 798 002e 0928     		cmp	r0, #9
 799 0030 08D8     		bhi	.L147
 800 0032 9A42     		cmp	r2, r3
 801 0034 02D0     		beq	.L156
 802 0036 4FF0FF30 		mov	r0, #-1
 803 003a 05E0     		b	.L139
 804              	.L156:
 805 003c 38B9     		cbnz	r0, .L149
 806 003e 0132     		adds	r2, r2, #1
 807 0040 0A60     		str	r2, [r1]
 808 0042 01E0     		b	.L139
 809              	.L147:
 810 0044 4FF0FF30 		mov	r0, #-1
 811              	.L139:
 812 0048 5DF8044B 		ldr	r4, [sp], #4
 813 004c 7047     		bx	lr
 814              	.L149:
 815 004e 4FF0FF30 		mov	r0, #-1
 816 0052 F9E7     		b	.L139
 818              		.section	.text.putc_init,"ax",%progbits
 819              		.align	1
 820              		.syntax unified
 821              		.thumb
 822              		.thumb_func
 824              	putc_init:
 825              		@ args = 0, pretend = 0, frame = 0
 826              		@ frame_needed = 0, uses_anonymous_args = 0
 827              		@ link register save eliminated.
 828 0000 0160     		str	r1, [r0]
 829 0002 0023     		movs	r3, #0
 830 0004 4360     		str	r3, [r0, #4]
 831 0006 8360     		str	r3, [r0, #8]
 832 0008 7047     		bx	lr
 834              		.section	.text.validate,"ax",%progbits
 835              		.align	1
 836              		.syntax unified
 837              		.thumb
ARM GAS  C:\Users\Nathan\AppData\Local\Temp\ccXwghP6.s 			page 15


 838              		.thumb_func
 840              	validate:
 841              		@ args = 0, pretend = 0, frame = 0
 842              		@ frame_needed = 0, uses_anonymous_args = 0
 843 0000 38B5     		push	{r3, r4, r5, lr}
 844 0002 0D46     		mov	r5, r1
 845 0004 0446     		mov	r4, r0
 846 0006 98B1     		cbz	r0, .L160
 847 0008 0368     		ldr	r3, [r0]
 848 000a 9BB1     		cbz	r3, .L161
 849 000c 1A78     		ldrb	r2, [r3]	@ zero_extendqisi2
 850 000e A2B1     		cbz	r2, .L162
 851 0010 8188     		ldrh	r1, [r0, #4]
 852 0012 DA88     		ldrh	r2, [r3, #6]
 853 0014 9142     		cmp	r1, r2
 854 0016 03D0     		beq	.L166
 855 0018 0920     		movs	r0, #9
 856 001a 0024     		movs	r4, #0
 857              	.L159:
 858 001c 2C60     		str	r4, [r5]
 859 001e 38BD     		pop	{r3, r4, r5, pc}
 860              	.L166:
 861 0020 5878     		ldrb	r0, [r3, #1]	@ zero_extendqisi2
 862 0022 FFF7FEFF 		bl	disk_status
 863 0026 10F00100 		ands	r0, r0, #1
 864 002a 09D1     		bne	.L164
 865 002c 2468     		ldr	r4, [r4]
 866 002e F5E7     		b	.L159
 867              	.L160:
 868 0030 0920     		movs	r0, #9
 869 0032 F3E7     		b	.L159
 870              	.L161:
 871 0034 1C46     		mov	r4, r3
 872 0036 0920     		movs	r0, #9
 873 0038 F0E7     		b	.L159
 874              	.L162:
 875 003a 0920     		movs	r0, #9
 876 003c 0024     		movs	r4, #0
 877 003e EDE7     		b	.L159
 878              	.L164:
 879 0040 0920     		movs	r0, #9
 880 0042 0024     		movs	r4, #0
 881 0044 EAE7     		b	.L159
 883              		.section	.text.sync_window,"ax",%progbits
 884              		.align	1
 885              		.syntax unified
 886              		.thumb
 887              		.thumb_func
 889              	sync_window:
 890              		@ args = 0, pretend = 0, frame = 0
 891              		@ frame_needed = 0, uses_anonymous_args = 0
 892 0000 2DE9F041 		push	{r4, r5, r6, r7, r8, lr}
 893 0004 C578     		ldrb	r5, [r0, #3]	@ zero_extendqisi2
 894 0006 15B9     		cbnz	r5, .L173
 895              	.L168:
 896 0008 2846     		mov	r0, r5
 897 000a BDE8F081 		pop	{r4, r5, r6, r7, r8, pc}
ARM GAS  C:\Users\Nathan\AppData\Local\Temp\ccXwghP6.s 			page 16


 898              	.L173:
 899 000e 0446     		mov	r4, r0
 900 0010 C76A     		ldr	r7, [r0, #44]
 901 0012 00F13008 		add	r8, r0, #48
 902 0016 0123     		movs	r3, #1
 903 0018 3A46     		mov	r2, r7
 904 001a 4146     		mov	r1, r8
 905 001c 4078     		ldrb	r0, [r0, #1]	@ zero_extendqisi2
 906 001e FFF7FEFF 		bl	disk_write
 907 0022 0546     		mov	r5, r0
 908 0024 A0B9     		cbnz	r0, .L171
 909 0026 0023     		movs	r3, #0
 910 0028 E370     		strb	r3, [r4, #3]
 911 002a 236A     		ldr	r3, [r4, #32]
 912 002c FB1A     		subs	r3, r7, r3
 913 002e A269     		ldr	r2, [r4, #24]
 914 0030 9342     		cmp	r3, r2
 915 0032 E9D2     		bcs	.L168
 916 0034 A678     		ldrb	r6, [r4, #2]	@ zero_extendqisi2
 917 0036 08E0     		b	.L169
 918              	.L170:
 919 0038 A369     		ldr	r3, [r4, #24]
 920 003a 1F44     		add	r7, r7, r3
 921 003c 0123     		movs	r3, #1
 922 003e 3A46     		mov	r2, r7
 923 0040 4146     		mov	r1, r8
 924 0042 6078     		ldrb	r0, [r4, #1]	@ zero_extendqisi2
 925 0044 FFF7FEFF 		bl	disk_write
 926 0048 013E     		subs	r6, r6, #1
 927              	.L169:
 928 004a 012E     		cmp	r6, #1
 929 004c F4D8     		bhi	.L170
 930 004e DBE7     		b	.L168
 931              	.L171:
 932 0050 0125     		movs	r5, #1
 933 0052 D9E7     		b	.L168
 935              		.section	.text.move_window,"ax",%progbits
 936              		.align	1
 937              		.syntax unified
 938              		.thumb
 939              		.thumb_func
 941              	move_window:
 942              		@ args = 0, pretend = 0, frame = 0
 943              		@ frame_needed = 0, uses_anonymous_args = 0
 944 0000 70B5     		push	{r4, r5, r6, lr}
 945 0002 C36A     		ldr	r3, [r0, #44]
 946 0004 8B42     		cmp	r3, r1
 947 0006 02D1     		bne	.L180
 948 0008 0026     		movs	r6, #0
 949              	.L175:
 950 000a 3046     		mov	r0, r6
 951 000c 70BD     		pop	{r4, r5, r6, pc}
 952              	.L180:
 953 000e 0446     		mov	r4, r0
 954 0010 0D46     		mov	r5, r1
 955 0012 FFF7FEFF 		bl	sync_window
 956 0016 0646     		mov	r6, r0
ARM GAS  C:\Users\Nathan\AppData\Local\Temp\ccXwghP6.s 			page 17


 957 0018 0028     		cmp	r0, #0
 958 001a F6D1     		bne	.L175
 959 001c 0123     		movs	r3, #1
 960 001e 2A46     		mov	r2, r5
 961 0020 04F13001 		add	r1, r4, #48
 962 0024 6078     		ldrb	r0, [r4, #1]	@ zero_extendqisi2
 963 0026 FFF7FEFF 		bl	disk_read
 964 002a 10B1     		cbz	r0, .L176
 965 002c 0126     		movs	r6, #1
 966 002e 4FF0FF35 		mov	r5, #-1
 967              	.L176:
 968 0032 E562     		str	r5, [r4, #44]
 969 0034 E9E7     		b	.L175
 971              		.section	.text.check_fs,"ax",%progbits
 972              		.align	1
 973              		.syntax unified
 974              		.thumb
 975              		.thumb_func
 977              	check_fs:
 978              		@ args = 0, pretend = 0, frame = 0
 979              		@ frame_needed = 0, uses_anonymous_args = 0
 980 0000 38B5     		push	{r3, r4, r5, lr}
 981 0002 0446     		mov	r4, r0
 982 0004 0023     		movs	r3, #0
 983 0006 C370     		strb	r3, [r0, #3]
 984 0008 4FF0FF33 		mov	r3, #-1
 985 000c C362     		str	r3, [r0, #44]
 986 000e FFF7FEFF 		bl	move_window
 987 0012 30BB     		cbnz	r0, .L184
 988 0014 0546     		mov	r5, r0
 989 0016 04F22E20 		addw	r0, r4, #558
 990 001a FFF7FEFF 		bl	ld_word
 991 001e 4AF65523 		movw	r3, #43605
 992 0022 9842     		cmp	r0, r3
 993 0024 1FD1     		bne	.L185
 994 0026 94F83030 		ldrb	r3, [r4, #48]	@ zero_extendqisi2
 995 002a E92B     		cmp	r3, #233
 996 002c 07D0     		beq	.L183
 997 002e 236B     		ldr	r3, [r4, #48]
 998 0030 03F0FF13 		and	r3, r3, #16711935
 999 0034 0D4A     		ldr	r2, .L188
 1000 0036 9342     		cmp	r3, r2
 1001 0038 01D0     		beq	.L183
 1002 003a 0225     		movs	r5, #2
 1003 003c 14E0     		b	.L182
 1004              	.L183:
 1005 003e 04F16600 		add	r0, r4, #102
 1006 0042 FFF7FEFF 		bl	ld_dword
 1007 0046 20F07F40 		bic	r0, r0, #-16777216
 1008 004a 094B     		ldr	r3, .L188+4
 1009 004c 9842     		cmp	r0, r3
 1010 004e 0BD0     		beq	.L182
 1011 0050 04F18200 		add	r0, r4, #130
 1012 0054 FFF7FEFF 		bl	ld_dword
 1013 0058 064B     		ldr	r3, .L188+8
 1014 005a 9842     		cmp	r0, r3
 1015 005c 04D0     		beq	.L182
ARM GAS  C:\Users\Nathan\AppData\Local\Temp\ccXwghP6.s 			page 18


 1016 005e 0225     		movs	r5, #2
 1017 0060 02E0     		b	.L182
 1018              	.L184:
 1019 0062 0425     		movs	r5, #4
 1020 0064 00E0     		b	.L182
 1021              	.L185:
 1022 0066 0325     		movs	r5, #3
 1023              	.L182:
 1024 0068 2846     		mov	r0, r5
 1025 006a 38BD     		pop	{r3, r4, r5, pc}
 1026              	.L189:
 1027              		.align	2
 1028              	.L188:
 1029 006c EB009000 		.word	9437419
 1030 0070 46415400 		.word	5521734
 1031 0074 46415433 		.word	861159750
 1033              		.section	.text.find_volume,"ax",%progbits
 1034              		.align	1
 1035              		.syntax unified
 1036              		.thumb
 1037              		.thumb_func
 1039              	find_volume:
 1040              		@ args = 0, pretend = 0, frame = 16
 1041              		@ frame_needed = 0, uses_anonymous_args = 0
 1042 0000 2DE9F04F 		push	{r4, r5, r6, r7, r8, r9, r10, fp, lr}
 1043 0004 85B0     		sub	sp, sp, #20
 1044 0006 0D46     		mov	r5, r1
 1045 0008 1646     		mov	r6, r2
 1046 000a 0023     		movs	r3, #0
 1047 000c 0B60     		str	r3, [r1]
 1048 000e FFF7FEFF 		bl	get_ldnumber
 1049 0012 071E     		subs	r7, r0, #0
 1050 0014 C0F24381 		blt	.L207
 1051 0018 B44B     		ldr	r3, .L237
 1052 001a 53F82740 		ldr	r4, [r3, r7, lsl #2]
 1053 001e 002C     		cmp	r4, #0
 1054 0020 00F04281 		beq	.L208
 1055 0024 2C60     		str	r4, [r5]
 1056 0026 06F0FE06 		and	r6, r6, #254
 1057 002a 2378     		ldrb	r3, [r4]	@ zero_extendqisi2
 1058 002c 73B1     		cbz	r3, .L192
 1059 002e 6078     		ldrb	r0, [r4, #1]	@ zero_extendqisi2
 1060 0030 FFF7FEFF 		bl	disk_status
 1061 0034 10F00105 		ands	r5, r0, #1
 1062 0038 08D1     		bne	.L192
 1063 003a 002E     		cmp	r6, #0
 1064 003c 00F03081 		beq	.L191
 1065 0040 10F0040F 		tst	r0, #4
 1066 0044 00F02C81 		beq	.L191
 1067 0048 0A25     		movs	r5, #10
 1068 004a 29E1     		b	.L191
 1069              	.L192:
 1070 004c 0023     		movs	r3, #0
 1071 004e 2370     		strb	r3, [r4]
 1072 0050 F8B2     		uxtb	r0, r7
 1073 0052 6070     		strb	r0, [r4, #1]
 1074 0054 FFF7FEFF 		bl	disk_initialize
ARM GAS  C:\Users\Nathan\AppData\Local\Temp\ccXwghP6.s 			page 19


 1075 0058 10F00105 		ands	r5, r0, #1
 1076 005c 40F02681 		bne	.L210
 1077 0060 1EB1     		cbz	r6, .L193
 1078 0062 10F0040F 		tst	r0, #4
 1079 0066 40F02381 		bne	.L211
 1080              	.L193:
 1081 006a 0021     		movs	r1, #0
 1082 006c 2046     		mov	r0, r4
 1083 006e FFF7FEFF 		bl	check_fs
 1084 0072 0228     		cmp	r0, #2
 1085 0074 7ED0     		beq	.L212
 1086 0076 0027     		movs	r7, #0
 1087              	.L195:
 1088 0078 0428     		cmp	r0, #4
 1089 007a 00F01B81 		beq	.L215
 1090 007e 0128     		cmp	r0, #1
 1091 0080 00F21A81 		bhi	.L216
 1092 0084 04F13B00 		add	r0, r4, #59
 1093 0088 FFF7FEFF 		bl	ld_word
 1094 008c B0F5007F 		cmp	r0, #512
 1095 0090 40F01481 		bne	.L217
 1096 0094 04F14600 		add	r0, r4, #70
 1097 0098 FFF7FEFF 		bl	ld_word
 1098 009c 0646     		mov	r6, r0
 1099 009e 20B9     		cbnz	r0, .L200
 1100 00a0 04F15400 		add	r0, r4, #84
 1101 00a4 FFF7FEFF 		bl	ld_dword
 1102 00a8 0646     		mov	r6, r0
 1103              	.L200:
 1104 00aa A661     		str	r6, [r4, #24]
 1105 00ac 94F84020 		ldrb	r2, [r4, #64]	@ zero_extendqisi2
 1106 00b0 A270     		strb	r2, [r4, #2]
 1107 00b2 531E     		subs	r3, r2, #1
 1108 00b4 DBB2     		uxtb	r3, r3
 1109 00b6 012B     		cmp	r3, #1
 1110 00b8 00F20281 		bhi	.L218
 1111 00bc 06FB02F8 		mul	r8, r6, r2
 1112 00c0 94F83D90 		ldrb	r9, [r4, #61]	@ zero_extendqisi2
 1113 00c4 A4F80A90 		strh	r9, [r4, #10]	@ movhi
 1114 00c8 B9F1000F 		cmp	r9, #0
 1115 00cc 00F0FA80 		beq	.L219
 1116 00d0 09F1FF33 		add	r3, r9, #-1
 1117 00d4 19EA030F 		tst	r9, r3
 1118 00d8 40F0F680 		bne	.L220
 1119 00dc 04F14100 		add	r0, r4, #65
 1120 00e0 FFF7FEFF 		bl	ld_word
 1121 00e4 8246     		mov	r10, r0
 1122 00e6 2081     		strh	r0, [r4, #8]	@ movhi
 1123 00e8 10F00F0F 		tst	r0, #15
 1124 00ec 40F0EE80 		bne	.L221
 1125 00f0 04F14300 		add	r0, r4, #67
 1126 00f4 FFF7FEFF 		bl	ld_word
 1127 00f8 8346     		mov	fp, r0
 1128 00fa 20B9     		cbnz	r0, .L201
 1129 00fc 04F15000 		add	r0, r4, #80
 1130 0100 FFF7FEFF 		bl	ld_dword
 1131 0104 8346     		mov	fp, r0
ARM GAS  C:\Users\Nathan\AppData\Local\Temp\ccXwghP6.s 			page 20


 1132              	.L201:
 1133 0106 04F13E00 		add	r0, r4, #62
 1134 010a FFF7FEFF 		bl	ld_word
 1135 010e 0246     		mov	r2, r0
 1136 0110 0028     		cmp	r0, #0
 1137 0112 00F0DD80 		beq	.L222
 1138 0116 00EB0803 		add	r3, r0, r8
 1139 011a 03EB1A13 		add	r3, r3, r10, lsr #4
 1140 011e 9B45     		cmp	fp, r3
 1141 0120 C0F0D880 		bcc	.L223
 1142 0124 ABEB030B 		sub	fp, fp, r3
 1143 0128 BBFBF9F1 		udiv	r1, fp, r9
 1144 012c CB45     		cmp	fp, r9
 1145 012e C0F0D380 		bcc	.L224
 1146 0132 4FF6F570 		movw	r0, #65525
 1147 0136 8142     		cmp	r1, r0
 1148 0138 34D8     		bhi	.L225
 1149 013a 40F6F570 		movw	r0, #4085
 1150 013e 8142     		cmp	r1, r0
 1151 0140 67D9     		bls	.L226
 1152 0142 4FF0020B 		mov	fp, #2
 1153 0146 2FE0     		b	.L202
 1154              	.L213:
 1155 0148 0020     		movs	r0, #0
 1156              	.L196:
 1157 014a 04AB     		add	r3, sp, #16
 1158 014c 03EB8603 		add	r3, r3, r6, lsl #2
 1159 0150 43F8100C 		str	r0, [r3, #-16]
 1160 0154 0136     		adds	r6, r6, #1
 1161              	.L194:
 1162 0156 032E     		cmp	r6, #3
 1163 0158 0ED8     		bhi	.L232
 1164 015a 04F13000 		add	r0, r4, #48
 1165 015e 3301     		lsls	r3, r6, #4
 1166 0160 03F5DF73 		add	r3, r3, #446
 1167 0164 1844     		add	r0, r0, r3
 1168 0166 0379     		ldrb	r3, [r0, #4]	@ zero_extendqisi2
 1169 0168 002B     		cmp	r3, #0
 1170 016a EDD0     		beq	.L213
 1171 016c 0830     		adds	r0, r0, #8
 1172 016e FFF7FEFF 		bl	ld_dword
 1173 0172 EAE7     		b	.L196
 1174              	.L212:
 1175 0174 0026     		movs	r6, #0
 1176 0176 EEE7     		b	.L194
 1177              	.L232:
 1178 0178 0026     		movs	r6, #0
 1179 017a 0AE0     		b	.L199
 1180              	.L233:
 1181 017c 3946     		mov	r1, r7
 1182 017e 2046     		mov	r0, r4
 1183 0180 FFF7FEFF 		bl	check_fs
 1184 0184 0128     		cmp	r0, #1
 1185 0186 7FF677AF 		bls	.L195
 1186              	.L198:
 1187 018a 0136     		adds	r6, r6, #1
 1188 018c 032E     		cmp	r6, #3
ARM GAS  C:\Users\Nathan\AppData\Local\Temp\ccXwghP6.s 			page 21


 1189 018e 3FF673AF 		bhi	.L195
 1190              	.L199:
 1191 0192 04AB     		add	r3, sp, #16
 1192 0194 03EB8603 		add	r3, r3, r6, lsl #2
 1193 0198 53F8107C 		ldr	r7, [r3, #-16]
 1194 019c 002F     		cmp	r7, #0
 1195 019e EDD1     		bne	.L233
 1196 01a0 0320     		movs	r0, #3
 1197 01a2 F2E7     		b	.L198
 1198              	.L225:
 1199 01a4 4FF0030B 		mov	fp, #3
 1200              	.L202:
 1201 01a8 01F10209 		add	r9, r1, #2
 1202 01ac C4F81490 		str	r9, [r4, #20]
 1203 01b0 E761     		str	r7, [r4, #28]
 1204 01b2 3A44     		add	r2, r2, r7
 1205 01b4 2262     		str	r2, [r4, #32]
 1206 01b6 3B44     		add	r3, r3, r7
 1207 01b8 A362     		str	r3, [r4, #40]
 1208 01ba BBF1030F 		cmp	fp, #3
 1209 01be 2BD0     		beq	.L234
 1210 01c0 BAF1000F 		cmp	r10, #0
 1211 01c4 00F08E80 		beq	.L229
 1212 01c8 4244     		add	r2, r2, r8
 1213 01ca 6262     		str	r2, [r4, #36]
 1214 01cc BBF1020F 		cmp	fp, #2
 1215 01d0 33D0     		beq	.L235
 1216 01d2 09EB4903 		add	r3, r9, r9, lsl #1
 1217 01d6 09F00109 		and	r9, r9, #1
 1218 01da 09EB5309 		add	r9, r9, r3, lsr #1
 1219              	.L204:
 1220 01de 09F2FF19 		addw	r9, r9, #511
 1221 01e2 B6EB592F 		cmp	r6, r9, lsr #9
 1222 01e6 7FD3     		bcc	.L230
 1223 01e8 4FF0FF33 		mov	r3, #-1
 1224 01ec 2361     		str	r3, [r4, #16]
 1225 01ee E360     		str	r3, [r4, #12]
 1226 01f0 8023     		movs	r3, #128
 1227 01f2 2371     		strb	r3, [r4, #4]
 1228 01f4 BBF1030F 		cmp	fp, #3
 1229 01f8 22D0     		beq	.L236
 1230              	.L206:
 1231 01fa 84F800B0 		strb	fp, [r4]
 1232 01fe 3C4A     		ldr	r2, .L237+4
 1233 0200 1388     		ldrh	r3, [r2]
 1234 0202 0133     		adds	r3, r3, #1
 1235 0204 9BB2     		uxth	r3, r3
 1236 0206 1380     		strh	r3, [r2]	@ movhi
 1237 0208 E380     		strh	r3, [r4, #6]	@ movhi
 1238 020a 2046     		mov	r0, r4
 1239 020c FFF7FEFF 		bl	clear_lock
 1240 0210 46E0     		b	.L191
 1241              	.L226:
 1242 0212 4FF0010B 		mov	fp, #1
 1243 0216 C7E7     		b	.L202
 1244              	.L234:
 1245 0218 04F15A00 		add	r0, r4, #90
ARM GAS  C:\Users\Nathan\AppData\Local\Temp\ccXwghP6.s 			page 22


 1246 021c FFF7FEFF 		bl	ld_word
 1247 0220 0028     		cmp	r0, #0
 1248 0222 5BD1     		bne	.L227
 1249 0224 BAF1000F 		cmp	r10, #0
 1250 0228 5AD1     		bne	.L228
 1251 022a 04F15C00 		add	r0, r4, #92
 1252 022e FFF7FEFF 		bl	ld_dword
 1253 0232 6062     		str	r0, [r4, #36]
 1254 0234 4FEA8909 		lsl	r9, r9, #2
 1255 0238 D1E7     		b	.L204
 1256              	.L235:
 1257 023a 4FEA4909 		lsl	r9, r9, #1
 1258 023e CEE7     		b	.L204
 1259              	.L236:
 1260 0240 04F16000 		add	r0, r4, #96
 1261 0244 FFF7FEFF 		bl	ld_word
 1262 0248 0128     		cmp	r0, #1
 1263 024a D6D1     		bne	.L206
 1264 024c 791C     		adds	r1, r7, #1
 1265 024e 2046     		mov	r0, r4
 1266 0250 FFF7FEFF 		bl	move_window
 1267 0254 0028     		cmp	r0, #0
 1268 0256 D0D1     		bne	.L206
 1269 0258 0023     		movs	r3, #0
 1270 025a 2371     		strb	r3, [r4, #4]
 1271 025c 04F22E20 		addw	r0, r4, #558
 1272 0260 FFF7FEFF 		bl	ld_word
 1273 0264 4AF65523 		movw	r3, #43605
 1274 0268 9842     		cmp	r0, r3
 1275 026a C6D1     		bne	.L206
 1276 026c 04F13000 		add	r0, r4, #48
 1277 0270 FFF7FEFF 		bl	ld_dword
 1278 0274 1F4B     		ldr	r3, .L237+8
 1279 0276 9842     		cmp	r0, r3
 1280 0278 BFD1     		bne	.L206
 1281 027a 04F50570 		add	r0, r4, #532
 1282 027e FFF7FEFF 		bl	ld_dword
 1283 0282 1D4B     		ldr	r3, .L237+12
 1284 0284 9842     		cmp	r0, r3
 1285 0286 B8D1     		bne	.L206
 1286 0288 04F50670 		add	r0, r4, #536
 1287 028c FFF7FEFF 		bl	ld_dword
 1288 0290 2061     		str	r0, [r4, #16]
 1289 0292 04F50770 		add	r0, r4, #540
 1290 0296 FFF7FEFF 		bl	ld_dword
 1291 029a E060     		str	r0, [r4, #12]
 1292 029c ADE7     		b	.L206
 1293              	.L207:
 1294 029e 0B25     		movs	r5, #11
 1295              	.L191:
 1296 02a0 2846     		mov	r0, r5
 1297 02a2 05B0     		add	sp, sp, #20
 1298              		@ sp needed
 1299 02a4 BDE8F08F 		pop	{r4, r5, r6, r7, r8, r9, r10, fp, pc}
 1300              	.L208:
 1301 02a8 0C25     		movs	r5, #12
 1302 02aa F9E7     		b	.L191
ARM GAS  C:\Users\Nathan\AppData\Local\Temp\ccXwghP6.s 			page 23


 1303              	.L210:
 1304 02ac 0325     		movs	r5, #3
 1305 02ae F7E7     		b	.L191
 1306              	.L211:
 1307 02b0 0A25     		movs	r5, #10
 1308 02b2 F5E7     		b	.L191
 1309              	.L215:
 1310 02b4 0125     		movs	r5, #1
 1311 02b6 F3E7     		b	.L191
 1312              	.L216:
 1313 02b8 0D25     		movs	r5, #13
 1314 02ba F1E7     		b	.L191
 1315              	.L217:
 1316 02bc 0D25     		movs	r5, #13
 1317 02be EFE7     		b	.L191
 1318              	.L218:
 1319 02c0 0D25     		movs	r5, #13
 1320 02c2 EDE7     		b	.L191
 1321              	.L219:
 1322 02c4 0D25     		movs	r5, #13
 1323 02c6 EBE7     		b	.L191
 1324              	.L220:
 1325 02c8 0D25     		movs	r5, #13
 1326 02ca E9E7     		b	.L191
 1327              	.L221:
 1328 02cc 0D25     		movs	r5, #13
 1329 02ce E7E7     		b	.L191
 1330              	.L222:
 1331 02d0 0D25     		movs	r5, #13
 1332 02d2 E5E7     		b	.L191
 1333              	.L223:
 1334 02d4 0D25     		movs	r5, #13
 1335 02d6 E3E7     		b	.L191
 1336              	.L224:
 1337 02d8 0D25     		movs	r5, #13
 1338 02da E1E7     		b	.L191
 1339              	.L227:
 1340 02dc 0D25     		movs	r5, #13
 1341 02de DFE7     		b	.L191
 1342              	.L228:
 1343 02e0 0D25     		movs	r5, #13
 1344 02e2 DDE7     		b	.L191
 1345              	.L229:
 1346 02e4 0D25     		movs	r5, #13
 1347 02e6 DBE7     		b	.L191
 1348              	.L230:
 1349 02e8 0D25     		movs	r5, #13
 1350 02ea D9E7     		b	.L191
 1351              	.L238:
 1352              		.align	2
 1353              	.L237:
 1354 02ec 00000000 		.word	FatFs
 1355 02f0 00000000 		.word	Fsid
 1356 02f4 52526141 		.word	1096897106
 1357 02f8 72724161 		.word	1631679090
 1359              		.section	.text.put_fat,"ax",%progbits
 1360              		.align	1
ARM GAS  C:\Users\Nathan\AppData\Local\Temp\ccXwghP6.s 			page 24


 1361              		.syntax unified
 1362              		.thumb
 1363              		.thumb_func
 1365              	put_fat:
 1366              		@ args = 0, pretend = 0, frame = 0
 1367              		@ frame_needed = 0, uses_anonymous_args = 0
 1368 0000 2DE9F047 		push	{r4, r5, r6, r7, r8, r9, r10, lr}
 1369 0004 0129     		cmp	r1, #1
 1370 0006 75D9     		bls	.L247
 1371 0008 0746     		mov	r7, r0
 1372 000a 0C46     		mov	r4, r1
 1373 000c 1646     		mov	r6, r2
 1374 000e 4369     		ldr	r3, [r0, #20]
 1375 0010 8B42     		cmp	r3, r1
 1376 0012 73D9     		bls	.L248
 1377 0014 0378     		ldrb	r3, [r0]	@ zero_extendqisi2
 1378 0016 022B     		cmp	r3, #2
 1379 0018 3ED0     		beq	.L241
 1380 001a 032B     		cmp	r3, #3
 1381 001c 4FD0     		beq	.L242
 1382 001e 012B     		cmp	r3, #1
 1383 0020 6ED1     		bne	.L249
 1384 0022 01EB5108 		add	r8, r1, r1, lsr #1
 1385 0026 016A     		ldr	r1, [r0, #32]
 1386 0028 01EB5821 		add	r1, r1, r8, lsr #9
 1387 002c FFF7FEFF 		bl	move_window
 1388 0030 0546     		mov	r5, r0
 1389 0032 0028     		cmp	r0, #0
 1390 0034 5FD1     		bne	.L240
 1391 0036 07F1300A 		add	r10, r7, #48
 1392 003a 08F10109 		add	r9, r8, #1
 1393 003e C8F30808 		ubfx	r8, r8, #0, #9
 1394 0042 14F00104 		ands	r4, r4, #1
 1395 0046 1DD0     		beq	.L243
 1396 0048 1AF80830 		ldrb	r3, [r10, r8]	@ zero_extendqisi2
 1397 004c 03F00F03 		and	r3, r3, #15
 1398 0050 43EA0613 		orr	r3, r3, r6, lsl #4
 1399 0054 DBB2     		uxtb	r3, r3
 1400              	.L244:
 1401 0056 0AF80830 		strb	r3, [r10, r8]
 1402 005a 0123     		movs	r3, #1
 1403 005c FB70     		strb	r3, [r7, #3]
 1404 005e 396A     		ldr	r1, [r7, #32]
 1405 0060 01EB5921 		add	r1, r1, r9, lsr #9
 1406 0064 3846     		mov	r0, r7
 1407 0066 FFF7FEFF 		bl	move_window
 1408 006a 0546     		mov	r5, r0
 1409 006c 0028     		cmp	r0, #0
 1410 006e 42D1     		bne	.L240
 1411 0070 C9F30809 		ubfx	r9, r9, #0, #9
 1412 0074 44B1     		cbz	r4, .L245
 1413 0076 C6F30713 		ubfx	r3, r6, #4, #8
 1414              	.L246:
 1415 007a 0AF80930 		strb	r3, [r10, r9]
 1416 007e 0123     		movs	r3, #1
 1417 0080 FB70     		strb	r3, [r7, #3]
 1418 0082 38E0     		b	.L240
ARM GAS  C:\Users\Nathan\AppData\Local\Temp\ccXwghP6.s 			page 25


 1419              	.L243:
 1420 0084 F3B2     		uxtb	r3, r6
 1421 0086 E6E7     		b	.L244
 1422              	.L245:
 1423 0088 1AF80930 		ldrb	r3, [r10, r9]	@ zero_extendqisi2
 1424 008c C6F30322 		ubfx	r2, r6, #8, #4
 1425 0090 23F00F03 		bic	r3, r3, #15
 1426 0094 1343     		orrs	r3, r3, r2
 1427 0096 F0E7     		b	.L246
 1428              	.L241:
 1429 0098 016A     		ldr	r1, [r0, #32]
 1430 009a 01EB1421 		add	r1, r1, r4, lsr #8
 1431 009e FFF7FEFF 		bl	move_window
 1432 00a2 0546     		mov	r5, r0
 1433 00a4 38BB     		cbnz	r0, .L240
 1434 00a6 07F13000 		add	r0, r7, #48
 1435 00aa 6400     		lsls	r4, r4, #1
 1436 00ac 04F4FF74 		and	r4, r4, #510
 1437 00b0 B1B2     		uxth	r1, r6
 1438 00b2 2044     		add	r0, r0, r4
 1439 00b4 FFF7FEFF 		bl	st_word
 1440 00b8 0123     		movs	r3, #1
 1441 00ba FB70     		strb	r3, [r7, #3]
 1442 00bc 1BE0     		b	.L240
 1443              	.L242:
 1444 00be 016A     		ldr	r1, [r0, #32]
 1445 00c0 01EBD411 		add	r1, r1, r4, lsr #7
 1446 00c4 FFF7FEFF 		bl	move_window
 1447 00c8 0546     		mov	r5, r0
 1448 00ca A0B9     		cbnz	r0, .L240
 1449 00cc 26F07046 		bic	r6, r6, #-268435456
 1450 00d0 07F13003 		add	r3, r7, #48
 1451 00d4 A400     		lsls	r4, r4, #2
 1452 00d6 04F4FE74 		and	r4, r4, #508
 1453 00da 1C44     		add	r4, r4, r3
 1454 00dc 2046     		mov	r0, r4
 1455 00de FFF7FEFF 		bl	ld_dword
 1456 00e2 00F07041 		and	r1, r0, #-268435456
 1457 00e6 3143     		orrs	r1, r1, r6
 1458 00e8 2046     		mov	r0, r4
 1459 00ea FFF7FEFF 		bl	st_dword
 1460 00ee 0123     		movs	r3, #1
 1461 00f0 FB70     		strb	r3, [r7, #3]
 1462 00f2 00E0     		b	.L240
 1463              	.L247:
 1464 00f4 0225     		movs	r5, #2
 1465              	.L240:
 1466 00f6 2846     		mov	r0, r5
 1467 00f8 BDE8F087 		pop	{r4, r5, r6, r7, r8, r9, r10, pc}
 1468              	.L248:
 1469 00fc 0225     		movs	r5, #2
 1470 00fe FAE7     		b	.L240
 1471              	.L249:
 1472 0100 0225     		movs	r5, #2
 1473 0102 F8E7     		b	.L240
 1475              		.section	.text.get_fat,"ax",%progbits
 1476              		.align	1
ARM GAS  C:\Users\Nathan\AppData\Local\Temp\ccXwghP6.s 			page 26


 1477              		.syntax unified
 1478              		.thumb
 1479              		.thumb_func
 1481              	get_fat:
 1482              		@ args = 0, pretend = 0, frame = 0
 1483              		@ frame_needed = 0, uses_anonymous_args = 0
 1484 0000 F8B5     		push	{r3, r4, r5, r6, r7, lr}
 1485 0002 0568     		ldr	r5, [r0]
 1486 0004 0129     		cmp	r1, #1
 1487 0006 54D9     		bls	.L256
 1488 0008 0C46     		mov	r4, r1
 1489 000a 6B69     		ldr	r3, [r5, #20]
 1490 000c 8B42     		cmp	r3, r1
 1491 000e 52D9     		bls	.L257
 1492 0010 2B78     		ldrb	r3, [r5]	@ zero_extendqisi2
 1493 0012 022B     		cmp	r3, #2
 1494 0014 2BD0     		beq	.L253
 1495 0016 032B     		cmp	r3, #3
 1496 0018 39D0     		beq	.L254
 1497 001a 012B     		cmp	r3, #1
 1498 001c 4DD1     		bne	.L258
 1499 001e 01EB5106 		add	r6, r1, r1, lsr #1
 1500 0022 296A     		ldr	r1, [r5, #32]
 1501 0024 01EB5621 		add	r1, r1, r6, lsr #9
 1502 0028 2846     		mov	r0, r5
 1503 002a FFF7FEFF 		bl	move_window
 1504 002e 10B1     		cbz	r0, .L264
 1505 0030 4FF0FF30 		mov	r0, #-1
 1506 0034 3EE0     		b	.L251
 1507              	.L264:
 1508 0036 771C     		adds	r7, r6, #1
 1509 0038 C6F30806 		ubfx	r6, r6, #0, #9
 1510 003c 2E44     		add	r6, r6, r5
 1511 003e 96F83060 		ldrb	r6, [r6, #48]	@ zero_extendqisi2
 1512 0042 296A     		ldr	r1, [r5, #32]
 1513 0044 01EB5721 		add	r1, r1, r7, lsr #9
 1514 0048 2846     		mov	r0, r5
 1515 004a FFF7FEFF 		bl	move_window
 1516 004e B0BB     		cbnz	r0, .L260
 1517 0050 C7F30807 		ubfx	r7, r7, #0, #9
 1518 0054 2F44     		add	r7, r7, r5
 1519 0056 97F83030 		ldrb	r3, [r7, #48]	@ zero_extendqisi2
 1520 005a 46EA0320 		orr	r0, r6, r3, lsl #8
 1521 005e 14F0010F 		tst	r4, #1
 1522 0062 01D0     		beq	.L255
 1523 0064 0009     		lsrs	r0, r0, #4
 1524 0066 25E0     		b	.L251
 1525              	.L255:
 1526 0068 C0F30B00 		ubfx	r0, r0, #0, #12
 1527 006c 22E0     		b	.L251
 1528              	.L253:
 1529 006e 296A     		ldr	r1, [r5, #32]
 1530 0070 01EB1421 		add	r1, r1, r4, lsr #8
 1531 0074 2846     		mov	r0, r5
 1532 0076 FFF7FEFF 		bl	move_window
 1533 007a 18BB     		cbnz	r0, .L261
 1534 007c 05F13000 		add	r0, r5, #48
ARM GAS  C:\Users\Nathan\AppData\Local\Temp\ccXwghP6.s 			page 27


 1535 0080 6400     		lsls	r4, r4, #1
 1536 0082 04F4FF74 		and	r4, r4, #510
 1537 0086 2044     		add	r0, r0, r4
 1538 0088 FFF7FEFF 		bl	ld_word
 1539 008c 12E0     		b	.L251
 1540              	.L254:
 1541 008e 296A     		ldr	r1, [r5, #32]
 1542 0090 01EBD411 		add	r1, r1, r4, lsr #7
 1543 0094 2846     		mov	r0, r5
 1544 0096 FFF7FEFF 		bl	move_window
 1545 009a B0B9     		cbnz	r0, .L262
 1546 009c 05F13000 		add	r0, r5, #48
 1547 00a0 A400     		lsls	r4, r4, #2
 1548 00a2 04F4FE74 		and	r4, r4, #508
 1549 00a6 2044     		add	r0, r0, r4
 1550 00a8 FFF7FEFF 		bl	ld_dword
 1551 00ac 20F07040 		bic	r0, r0, #-268435456
 1552 00b0 00E0     		b	.L251
 1553              	.L256:
 1554 00b2 0120     		movs	r0, #1
 1555              	.L251:
 1556 00b4 F8BD     		pop	{r3, r4, r5, r6, r7, pc}
 1557              	.L257:
 1558 00b6 0120     		movs	r0, #1
 1559 00b8 FCE7     		b	.L251
 1560              	.L258:
 1561 00ba 0120     		movs	r0, #1
 1562 00bc FAE7     		b	.L251
 1563              	.L260:
 1564 00be 4FF0FF30 		mov	r0, #-1
 1565 00c2 F7E7     		b	.L251
 1566              	.L261:
 1567 00c4 4FF0FF30 		mov	r0, #-1
 1568 00c8 F4E7     		b	.L251
 1569              	.L262:
 1570 00ca 4FF0FF30 		mov	r0, #-1
 1571 00ce F1E7     		b	.L251
 1573              		.section	.text.dir_sdi,"ax",%progbits
 1574              		.align	1
 1575              		.syntax unified
 1576              		.thumb
 1577              		.thumb_func
 1579              	dir_sdi:
 1580              		@ args = 0, pretend = 0, frame = 0
 1581              		@ frame_needed = 0, uses_anonymous_args = 0
 1582 0000 2DE9F041 		push	{r4, r5, r6, r7, r8, lr}
 1583 0004 D0F80080 		ldr	r8, [r0]
 1584 0008 B1F5001F 		cmp	r1, #2097152
 1585 000c 3FD2     		bcs	.L272
 1586 000e 0746     		mov	r7, r0
 1587 0010 0E46     		mov	r6, r1
 1588 0012 11F01F0F 		tst	r1, #31
 1589 0016 3DD1     		bne	.L273
 1590 0018 4161     		str	r1, [r0, #20]
 1591 001a 8468     		ldr	r4, [r0, #8]
 1592 001c E4B9     		cbnz	r4, .L267
 1593 001e 98F80030 		ldrb	r3, [r8]	@ zero_extendqisi2
ARM GAS  C:\Users\Nathan\AppData\Local\Temp\ccXwghP6.s 			page 28


 1594 0022 022B     		cmp	r3, #2
 1595 0024 01D9     		bls	.L268
 1596 0026 D8F82440 		ldr	r4, [r8, #36]
 1597              	.L268:
 1598 002a ACB9     		cbnz	r4, .L267
 1599 002c B8F80830 		ldrh	r3, [r8, #8]
 1600 0030 B3EB561F 		cmp	r3, r6, lsr #5
 1601 0034 30D9     		bls	.L274
 1602 0036 D8F82430 		ldr	r3, [r8, #36]
 1603 003a FB61     		str	r3, [r7, #28]
 1604              	.L269:
 1605 003c BC61     		str	r4, [r7, #24]
 1606 003e FB69     		ldr	r3, [r7, #28]
 1607 0040 93B3     		cbz	r3, .L278
 1608 0042 03EB5623 		add	r3, r3, r6, lsr #9
 1609 0046 FB61     		str	r3, [r7, #28]
 1610 0048 08F13008 		add	r8, r8, #48
 1611 004c C6F30801 		ubfx	r1, r6, #0, #9
 1612 0050 4144     		add	r1, r1, r8
 1613 0052 3962     		str	r1, [r7, #32]
 1614 0054 0020     		movs	r0, #0
 1615 0056 1BE0     		b	.L266
 1616              	.L267:
 1617 0058 B8F80A50 		ldrh	r5, [r8, #10]
 1618 005c 6D02     		lsls	r5, r5, #9
 1619              	.L270:
 1620 005e AE42     		cmp	r6, r5
 1621 0060 0FD3     		bcc	.L280
 1622 0062 2146     		mov	r1, r4
 1623 0064 3846     		mov	r0, r7
 1624 0066 FFF7FEFF 		bl	get_fat
 1625 006a 0446     		mov	r4, r0
 1626 006c B0F1FF3F 		cmp	r0, #-1
 1627 0070 14D0     		beq	.L275
 1628 0072 0128     		cmp	r0, #1
 1629 0074 14D9     		bls	.L276
 1630 0076 D8F81430 		ldr	r3, [r8, #20]
 1631 007a 8342     		cmp	r3, r0
 1632 007c 12D9     		bls	.L277
 1633 007e 761B     		subs	r6, r6, r5
 1634 0080 EDE7     		b	.L270
 1635              	.L280:
 1636 0082 2146     		mov	r1, r4
 1637 0084 4046     		mov	r0, r8
 1638 0086 FFF7FEFF 		bl	clust2sect
 1639 008a F861     		str	r0, [r7, #28]
 1640 008c D6E7     		b	.L269
 1641              	.L272:
 1642 008e 0220     		movs	r0, #2
 1643              	.L266:
 1644 0090 BDE8F081 		pop	{r4, r5, r6, r7, r8, pc}
 1645              	.L273:
 1646 0094 0220     		movs	r0, #2
 1647 0096 FBE7     		b	.L266
 1648              	.L274:
 1649 0098 0220     		movs	r0, #2
 1650 009a F9E7     		b	.L266
ARM GAS  C:\Users\Nathan\AppData\Local\Temp\ccXwghP6.s 			page 29


 1651              	.L275:
 1652 009c 0120     		movs	r0, #1
 1653 009e F7E7     		b	.L266
 1654              	.L276:
 1655 00a0 0220     		movs	r0, #2
 1656 00a2 F5E7     		b	.L266
 1657              	.L277:
 1658 00a4 0220     		movs	r0, #2
 1659 00a6 F3E7     		b	.L266
 1660              	.L278:
 1661 00a8 0220     		movs	r0, #2
 1662 00aa F1E7     		b	.L266
 1664              		.section	.text.create_chain,"ax",%progbits
 1665              		.align	1
 1666              		.syntax unified
 1667              		.thumb
 1668              		.thumb_func
 1670              	create_chain:
 1671              		@ args = 0, pretend = 0, frame = 0
 1672              		@ frame_needed = 0, uses_anonymous_args = 0
 1673 0000 2DE9F041 		push	{r4, r5, r6, r7, r8, lr}
 1674 0004 0546     		mov	r5, r0
 1675 0006 0668     		ldr	r6, [r0]
 1676 0008 0F46     		mov	r7, r1
 1677 000a 51B9     		cbnz	r1, .L282
 1678 000c D6F80C80 		ldr	r8, [r6, #12]
 1679 0010 B8F1000F 		cmp	r8, #0
 1680 0014 12D0     		beq	.L291
 1681 0016 7369     		ldr	r3, [r6, #20]
 1682 0018 4345     		cmp	r3, r8
 1683 001a 11D8     		bhi	.L283
 1684 001c 4FF00108 		mov	r8, #1
 1685 0020 0EE0     		b	.L283
 1686              	.L282:
 1687 0022 FFF7FEFF 		bl	get_fat
 1688 0026 0346     		mov	r3, r0
 1689 0028 0128     		cmp	r0, #1
 1690 002a 47D9     		bls	.L293
 1691 002c B0F1FF3F 		cmp	r0, #-1
 1692 0030 49D0     		beq	.L281
 1693 0032 7269     		ldr	r2, [r6, #20]
 1694 0034 8242     		cmp	r2, r0
 1695 0036 46D8     		bhi	.L281
 1696 0038 B846     		mov	r8, r7
 1697 003a 01E0     		b	.L283
 1698              	.L291:
 1699 003c 4FF00108 		mov	r8, #1
 1700              	.L283:
 1701 0040 4446     		mov	r4, r8
 1702 0042 0CE0     		b	.L287
 1703              	.L285:
 1704 0044 2146     		mov	r1, r4
 1705 0046 2846     		mov	r0, r5
 1706 0048 FFF7FEFF 		bl	get_fat
 1707 004c 0346     		mov	r3, r0
 1708 004e 78B1     		cbz	r0, .L286
 1709 0050 0128     		cmp	r0, #1
ARM GAS  C:\Users\Nathan\AppData\Local\Temp\ccXwghP6.s 			page 30


 1710 0052 38D0     		beq	.L281
 1711 0054 B0F1FF3F 		cmp	r0, #-1
 1712 0058 35D0     		beq	.L281
 1713 005a 4445     		cmp	r4, r8
 1714 005c 32D0     		beq	.L298
 1715              	.L287:
 1716 005e 0134     		adds	r4, r4, #1
 1717 0060 7369     		ldr	r3, [r6, #20]
 1718 0062 A342     		cmp	r3, r4
 1719 0064 EED8     		bhi	.L285
 1720 0066 B8F1010F 		cmp	r8, #1
 1721 006a 29D9     		bls	.L294
 1722 006c 0224     		movs	r4, #2
 1723 006e E9E7     		b	.L285
 1724              	.L286:
 1725 0070 4FF0FF32 		mov	r2, #-1
 1726 0074 2146     		mov	r1, r4
 1727 0076 3046     		mov	r0, r6
 1728 0078 FFF7FEFF 		bl	put_fat
 1729 007c 0346     		mov	r3, r0
 1730 007e B0B9     		cbnz	r0, .L288
 1731 0080 77B9     		cbnz	r7, .L299
 1732              	.L289:
 1733 0082 A3B9     		cbnz	r3, .L288
 1734 0084 F460     		str	r4, [r6, #12]
 1735 0086 3269     		ldr	r2, [r6, #16]
 1736 0088 7369     		ldr	r3, [r6, #20]
 1737 008a 023B     		subs	r3, r3, #2
 1738 008c 9A42     		cmp	r2, r3
 1739 008e 01D8     		bhi	.L290
 1740 0090 013A     		subs	r2, r2, #1
 1741 0092 3261     		str	r2, [r6, #16]
 1742              	.L290:
 1743 0094 3379     		ldrb	r3, [r6, #4]	@ zero_extendqisi2
 1744 0096 43F00103 		orr	r3, r3, #1
 1745 009a 3371     		strb	r3, [r6, #4]
 1746 009c 2346     		mov	r3, r4
 1747 009e 12E0     		b	.L281
 1748              	.L299:
 1749 00a0 2246     		mov	r2, r4
 1750 00a2 3946     		mov	r1, r7
 1751 00a4 3046     		mov	r0, r6
 1752 00a6 FFF7FEFF 		bl	put_fat
 1753 00aa 0346     		mov	r3, r0
 1754 00ac E9E7     		b	.L289
 1755              	.L288:
 1756 00ae 012B     		cmp	r3, #1
 1757 00b0 01D0     		beq	.L300
 1758 00b2 0123     		movs	r3, #1
 1759 00b4 07E0     		b	.L281
 1760              	.L300:
 1761 00b6 4FF0FF33 		mov	r3, #-1
 1762 00ba 04E0     		b	.L281
 1763              	.L293:
 1764 00bc 0123     		movs	r3, #1
 1765 00be 02E0     		b	.L281
 1766              	.L294:
ARM GAS  C:\Users\Nathan\AppData\Local\Temp\ccXwghP6.s 			page 31


 1767 00c0 0023     		movs	r3, #0
 1768 00c2 00E0     		b	.L281
 1769              	.L298:
 1770 00c4 0023     		movs	r3, #0
 1771              	.L281:
 1772 00c6 1846     		mov	r0, r3
 1773 00c8 BDE8F081 		pop	{r4, r5, r6, r7, r8, pc}
 1775              		.section	.text.remove_chain,"ax",%progbits
 1776              		.align	1
 1777              		.syntax unified
 1778              		.thumb
 1779              		.thumb_func
 1781              	remove_chain:
 1782              		@ args = 0, pretend = 0, frame = 0
 1783              		@ frame_needed = 0, uses_anonymous_args = 0
 1784 0000 F8B5     		push	{r3, r4, r5, r6, r7, lr}
 1785 0002 0C46     		mov	r4, r1
 1786 0004 0568     		ldr	r5, [r0]
 1787 0006 0129     		cmp	r1, #1
 1788 0008 2ED9     		bls	.L306
 1789 000a 0646     		mov	r6, r0
 1790 000c 1146     		mov	r1, r2
 1791 000e 6B69     		ldr	r3, [r5, #20]
 1792 0010 A342     		cmp	r3, r4
 1793 0012 2BD9     		bls	.L307
 1794 0014 4AB1     		cbz	r2, .L305
 1795 0016 4FF0FF32 		mov	r2, #-1
 1796 001a 2846     		mov	r0, r5
 1797 001c FFF7FEFF 		bl	put_fat
 1798 0020 0746     		mov	r7, r0
 1799 0022 10B1     		cbz	r0, .L305
 1800 0024 23E0     		b	.L302
 1801              	.L304:
 1802 0026 A242     		cmp	r2, r4
 1803 0028 21D9     		bls	.L302
 1804              	.L305:
 1805 002a 2746     		mov	r7, r4
 1806 002c 2146     		mov	r1, r4
 1807 002e 3046     		mov	r0, r6
 1808 0030 FFF7FEFF 		bl	get_fat
 1809 0034 0446     		mov	r4, r0
 1810 0036 E0B1     		cbz	r0, .L308
 1811 0038 0128     		cmp	r0, #1
 1812 003a 1CD0     		beq	.L309
 1813 003c B0F1FF3F 		cmp	r0, #-1
 1814 0040 1BD0     		beq	.L310
 1815 0042 0022     		movs	r2, #0
 1816 0044 3946     		mov	r1, r7
 1817 0046 2846     		mov	r0, r5
 1818 0048 FFF7FEFF 		bl	put_fat
 1819 004c 0746     		mov	r7, r0
 1820 004e 70B9     		cbnz	r0, .L302
 1821 0050 2B69     		ldr	r3, [r5, #16]
 1822 0052 6A69     		ldr	r2, [r5, #20]
 1823 0054 911E     		subs	r1, r2, #2
 1824 0056 8B42     		cmp	r3, r1
 1825 0058 E5D2     		bcs	.L304
ARM GAS  C:\Users\Nathan\AppData\Local\Temp\ccXwghP6.s 			page 32


 1826 005a 0133     		adds	r3, r3, #1
 1827 005c 2B61     		str	r3, [r5, #16]
 1828 005e 2B79     		ldrb	r3, [r5, #4]	@ zero_extendqisi2
 1829 0060 43F00103 		orr	r3, r3, #1
 1830 0064 2B71     		strb	r3, [r5, #4]
 1831 0066 DEE7     		b	.L304
 1832              	.L306:
 1833 0068 0227     		movs	r7, #2
 1834 006a 00E0     		b	.L302
 1835              	.L307:
 1836 006c 0227     		movs	r7, #2
 1837              	.L302:
 1838 006e 3846     		mov	r0, r7
 1839 0070 F8BD     		pop	{r3, r4, r5, r6, r7, pc}
 1840              	.L308:
 1841 0072 0027     		movs	r7, #0
 1842 0074 FBE7     		b	.L302
 1843              	.L309:
 1844 0076 0227     		movs	r7, #2
 1845 0078 F9E7     		b	.L302
 1846              	.L310:
 1847 007a 0127     		movs	r7, #1
 1848 007c F7E7     		b	.L302
 1850              		.section	.text.dir_remove,"ax",%progbits
 1851              		.align	1
 1852              		.syntax unified
 1853              		.thumb
 1854              		.thumb_func
 1856              	dir_remove:
 1857              		@ args = 0, pretend = 0, frame = 0
 1858              		@ frame_needed = 0, uses_anonymous_args = 0
 1859 0000 38B5     		push	{r3, r4, r5, lr}
 1860 0002 0446     		mov	r4, r0
 1861 0004 0568     		ldr	r5, [r0]
 1862 0006 C169     		ldr	r1, [r0, #28]
 1863 0008 2846     		mov	r0, r5
 1864 000a FFF7FEFF 		bl	move_window
 1865 000e 20B9     		cbnz	r0, .L313
 1866 0010 236A     		ldr	r3, [r4, #32]
 1867 0012 E522     		movs	r2, #229
 1868 0014 1A70     		strb	r2, [r3]
 1869 0016 0123     		movs	r3, #1
 1870 0018 EB70     		strb	r3, [r5, #3]
 1871              	.L313:
 1872 001a 38BD     		pop	{r3, r4, r5, pc}
 1874              		.section	.text.dir_next,"ax",%progbits
 1875              		.align	1
 1876              		.syntax unified
 1877              		.thumb
 1878              		.thumb_func
 1880              	dir_next:
 1881              		@ args = 0, pretend = 0, frame = 0
 1882              		@ frame_needed = 0, uses_anonymous_args = 0
 1883 0000 2DE9F047 		push	{r4, r5, r6, r7, r8, r9, r10, lr}
 1884 0004 0668     		ldr	r6, [r0]
 1885 0006 4569     		ldr	r5, [r0, #20]
 1886 0008 C369     		ldr	r3, [r0, #28]
ARM GAS  C:\Users\Nathan\AppData\Local\Temp\ccXwghP6.s 			page 33


 1887 000a 002B     		cmp	r3, #0
 1888 000c 6CD0     		beq	.L323
 1889 000e 0446     		mov	r4, r0
 1890 0010 8846     		mov	r8, r1
 1891 0012 2035     		adds	r5, r5, #32
 1892 0014 B5F5001F 		cmp	r5, #2097152
 1893 0018 68D2     		bcs	.L324
 1894 001a C5F30807 		ubfx	r7, r5, #0, #9
 1895 001e 3FB9     		cbnz	r7, .L317
 1896 0020 0133     		adds	r3, r3, #1
 1897 0022 C361     		str	r3, [r0, #28]
 1898 0024 8169     		ldr	r1, [r0, #24]
 1899 0026 79B9     		cbnz	r1, .L318
 1900 0028 3389     		ldrh	r3, [r6, #8]
 1901 002a B3EB551F 		cmp	r3, r5, lsr #5
 1902 002e 07D9     		bls	.L333
 1903              	.L317:
 1904 0030 6561     		str	r5, [r4, #20]
 1905 0032 06F13003 		add	r3, r6, #48
 1906 0036 3B44     		add	r3, r3, r7
 1907 0038 2362     		str	r3, [r4, #32]
 1908 003a 0020     		movs	r0, #0
 1909              	.L316:
 1910 003c BDE8F087 		pop	{r4, r5, r6, r7, r8, r9, r10, pc}
 1911              	.L333:
 1912 0040 0023     		movs	r3, #0
 1913 0042 C361     		str	r3, [r0, #28]
 1914 0044 0420     		movs	r0, #4
 1915 0046 F9E7     		b	.L316
 1916              	.L318:
 1917 0048 7389     		ldrh	r3, [r6, #10]
 1918 004a 013B     		subs	r3, r3, #1
 1919 004c 13EA5529 		ands	r9, r3, r5, lsr #9
 1920 0050 EED1     		bne	.L317
 1921 0052 FFF7FEFF 		bl	get_fat
 1922 0056 8246     		mov	r10, r0
 1923 0058 0128     		cmp	r0, #1
 1924 005a 49D9     		bls	.L325
 1925 005c B0F1FF3F 		cmp	r0, #-1
 1926 0060 48D0     		beq	.L326
 1927 0062 7369     		ldr	r3, [r6, #20]
 1928 0064 8342     		cmp	r3, r0
 1929 0066 37D8     		bhi	.L319
 1930 0068 B8F1000F 		cmp	r8, #0
 1931 006c 11D0     		beq	.L334
 1932 006e A169     		ldr	r1, [r4, #24]
 1933 0070 2046     		mov	r0, r4
 1934 0072 FFF7FEFF 		bl	create_chain
 1935 0076 8246     		mov	r10, r0
 1936 0078 0028     		cmp	r0, #0
 1937 007a 3DD0     		beq	.L327
 1938 007c 0128     		cmp	r0, #1
 1939 007e 3DD0     		beq	.L328
 1940 0080 B0F1FF3F 		cmp	r0, #-1
 1941 0084 3CD0     		beq	.L329
 1942 0086 3046     		mov	r0, r6
 1943 0088 FFF7FEFF 		bl	sync_window
ARM GAS  C:\Users\Nathan\AppData\Local\Temp\ccXwghP6.s 			page 34


 1944 008c 28B1     		cbz	r0, .L335
 1945 008e 0120     		movs	r0, #1
 1946 0090 D4E7     		b	.L316
 1947              	.L334:
 1948 0092 0023     		movs	r3, #0
 1949 0094 E361     		str	r3, [r4, #28]
 1950 0096 0420     		movs	r0, #4
 1951 0098 D0E7     		b	.L316
 1952              	.L335:
 1953 009a 4FF40072 		mov	r2, #512
 1954 009e 0021     		movs	r1, #0
 1955 00a0 06F13000 		add	r0, r6, #48
 1956 00a4 FFF7FEFF 		bl	mem_set
 1957 00a8 5146     		mov	r1, r10
 1958 00aa 3046     		mov	r0, r6
 1959 00ac FFF7FEFF 		bl	clust2sect
 1960 00b0 F062     		str	r0, [r6, #44]
 1961              	.L321:
 1962 00b2 7389     		ldrh	r3, [r6, #10]
 1963 00b4 9945     		cmp	r9, r3
 1964 00b6 0BD2     		bcs	.L336
 1965 00b8 0123     		movs	r3, #1
 1966 00ba F370     		strb	r3, [r6, #3]
 1967 00bc 3046     		mov	r0, r6
 1968 00be FFF7FEFF 		bl	sync_window
 1969 00c2 F8B9     		cbnz	r0, .L331
 1970 00c4 09F10109 		add	r9, r9, #1
 1971 00c8 F36A     		ldr	r3, [r6, #44]
 1972 00ca 0133     		adds	r3, r3, #1
 1973 00cc F362     		str	r3, [r6, #44]
 1974 00ce F0E7     		b	.L321
 1975              	.L336:
 1976 00d0 F36A     		ldr	r3, [r6, #44]
 1977 00d2 A3EB0903 		sub	r3, r3, r9
 1978 00d6 F362     		str	r3, [r6, #44]
 1979              	.L319:
 1980 00d8 C4F818A0 		str	r10, [r4, #24]
 1981 00dc 5146     		mov	r1, r10
 1982 00de 3046     		mov	r0, r6
 1983 00e0 FFF7FEFF 		bl	clust2sect
 1984 00e4 E061     		str	r0, [r4, #28]
 1985 00e6 A3E7     		b	.L317
 1986              	.L323:
 1987 00e8 0420     		movs	r0, #4
 1988 00ea A7E7     		b	.L316
 1989              	.L324:
 1990 00ec 0420     		movs	r0, #4
 1991 00ee A5E7     		b	.L316
 1992              	.L325:
 1993 00f0 0220     		movs	r0, #2
 1994 00f2 A3E7     		b	.L316
 1995              	.L326:
 1996 00f4 0120     		movs	r0, #1
 1997 00f6 A1E7     		b	.L316
 1998              	.L327:
 1999 00f8 0720     		movs	r0, #7
 2000 00fa 9FE7     		b	.L316
ARM GAS  C:\Users\Nathan\AppData\Local\Temp\ccXwghP6.s 			page 35


 2001              	.L328:
 2002 00fc 0220     		movs	r0, #2
 2003 00fe 9DE7     		b	.L316
 2004              	.L329:
 2005 0100 0120     		movs	r0, #1
 2006 0102 9BE7     		b	.L316
 2007              	.L331:
 2008 0104 0120     		movs	r0, #1
 2009 0106 99E7     		b	.L316
 2011              		.section	.text.dir_find,"ax",%progbits
 2012              		.align	1
 2013              		.syntax unified
 2014              		.thumb
 2015              		.thumb_func
 2017              	dir_find:
 2018              		@ args = 0, pretend = 0, frame = 0
 2019              		@ frame_needed = 0, uses_anonymous_args = 0
 2020 0000 70B5     		push	{r4, r5, r6, lr}
 2021 0002 0446     		mov	r4, r0
 2022 0004 0668     		ldr	r6, [r0]
 2023 0006 0021     		movs	r1, #0
 2024 0008 FFF7FEFF 		bl	dir_sdi
 2025 000c 0546     		mov	r5, r0
 2026 000e 40B1     		cbz	r0, .L340
 2027              	.L338:
 2028 0010 2846     		mov	r0, r5
 2029 0012 70BD     		pop	{r4, r5, r6, pc}
 2030              	.L339:
 2031 0014 0021     		movs	r1, #0
 2032 0016 2046     		mov	r0, r4
 2033 0018 FFF7FEFF 		bl	dir_next
 2034 001c 0546     		mov	r5, r0
 2035 001e 0028     		cmp	r0, #0
 2036 0020 F6D1     		bne	.L338
 2037              	.L340:
 2038 0022 E169     		ldr	r1, [r4, #28]
 2039 0024 3046     		mov	r0, r6
 2040 0026 FFF7FEFF 		bl	move_window
 2041 002a 0546     		mov	r5, r0
 2042 002c 0028     		cmp	r0, #0
 2043 002e EFD1     		bne	.L338
 2044 0030 206A     		ldr	r0, [r4, #32]
 2045 0032 0378     		ldrb	r3, [r0]	@ zero_extendqisi2
 2046 0034 7BB1     		cbz	r3, .L341
 2047 0036 C37A     		ldrb	r3, [r0, #11]	@ zero_extendqisi2
 2048 0038 03F03F03 		and	r3, r3, #63
 2049 003c A371     		strb	r3, [r4, #6]
 2050 003e C37A     		ldrb	r3, [r0, #11]	@ zero_extendqisi2
 2051 0040 13F0080F 		tst	r3, #8
 2052 0044 E6D1     		bne	.L339
 2053 0046 0B22     		movs	r2, #11
 2054 0048 04F12401 		add	r1, r4, #36
 2055 004c FFF7FEFF 		bl	mem_cmp
 2056 0050 0028     		cmp	r0, #0
 2057 0052 DFD1     		bne	.L339
 2058 0054 DCE7     		b	.L338
 2059              	.L341:
ARM GAS  C:\Users\Nathan\AppData\Local\Temp\ccXwghP6.s 			page 36


 2060 0056 0425     		movs	r5, #4
 2061 0058 DAE7     		b	.L338
 2063              		.section	.text.follow_path,"ax",%progbits
 2064              		.align	1
 2065              		.syntax unified
 2066              		.thumb
 2067              		.thumb_func
 2069              	follow_path:
 2070              		@ args = 0, pretend = 0, frame = 8
 2071              		@ frame_needed = 0, uses_anonymous_args = 0
 2072 0000 30B5     		push	{r4, r5, lr}
 2073 0002 83B0     		sub	sp, sp, #12
 2074 0004 0446     		mov	r4, r0
 2075 0006 0191     		str	r1, [sp, #4]
 2076 0008 0568     		ldr	r5, [r0]
 2077 000a 01E0     		b	.L344
 2078              	.L345:
 2079 000c 0133     		adds	r3, r3, #1
 2080 000e 0193     		str	r3, [sp, #4]
 2081              	.L344:
 2082 0010 019B     		ldr	r3, [sp, #4]
 2083 0012 1A78     		ldrb	r2, [r3]	@ zero_extendqisi2
 2084 0014 2F2A     		cmp	r2, #47
 2085 0016 F9D0     		beq	.L345
 2086 0018 5C2A     		cmp	r2, #92
 2087 001a F7D0     		beq	.L345
 2088 001c 0022     		movs	r2, #0
 2089 001e A260     		str	r2, [r4, #8]
 2090 0020 1B78     		ldrb	r3, [r3]	@ zero_extendqisi2
 2091 0022 1F2B     		cmp	r3, #31
 2092 0024 1ED9     		bls	.L352
 2093              	.L346:
 2094 0026 01A9     		add	r1, sp, #4
 2095 0028 2046     		mov	r0, r4
 2096 002a FFF7FEFF 		bl	create_name
 2097 002e 0346     		mov	r3, r0
 2098 0030 00BB     		cbnz	r0, .L347
 2099 0032 2046     		mov	r0, r4
 2100 0034 FFF7FEFF 		bl	dir_find
 2101 0038 94F82F20 		ldrb	r2, [r4, #47]	@ zero_extendqisi2
 2102 003c 0346     		mov	r3, r0
 2103 003e E0B9     		cbnz	r0, .L353
 2104 0040 12F0040F 		tst	r2, #4
 2105 0044 16D1     		bne	.L347
 2106 0046 A379     		ldrb	r3, [r4, #6]	@ zero_extendqisi2
 2107 0048 13F0100F 		tst	r3, #16
 2108 004c 1CD0     		beq	.L350
 2109 004e 05F13001 		add	r1, r5, #48
 2110 0052 6369     		ldr	r3, [r4, #20]
 2111 0054 C3F30803 		ubfx	r3, r3, #0, #9
 2112 0058 1944     		add	r1, r1, r3
 2113 005a 2846     		mov	r0, r5
 2114 005c FFF7FEFF 		bl	ld_clust
 2115 0060 A060     		str	r0, [r4, #8]
 2116 0062 E0E7     		b	.L346
 2117              	.L352:
 2118 0064 8023     		movs	r3, #128
ARM GAS  C:\Users\Nathan\AppData\Local\Temp\ccXwghP6.s 			page 37


 2119 0066 84F82F30 		strb	r3, [r4, #47]
 2120 006a 1146     		mov	r1, r2
 2121 006c 2046     		mov	r0, r4
 2122 006e FFF7FEFF 		bl	dir_sdi
 2123 0072 0346     		mov	r3, r0
 2124              	.L347:
 2125 0074 1846     		mov	r0, r3
 2126 0076 03B0     		add	sp, sp, #12
 2127              		@ sp needed
 2128 0078 30BD     		pop	{r4, r5, pc}
 2129              	.L353:
 2130 007a 0428     		cmp	r0, #4
 2131 007c FAD1     		bne	.L347
 2132 007e 12F0040F 		tst	r2, #4
 2133 0082 F7D1     		bne	.L347
 2134 0084 0523     		movs	r3, #5
 2135 0086 F5E7     		b	.L347
 2136              	.L350:
 2137 0088 0523     		movs	r3, #5
 2138 008a F3E7     		b	.L347
 2140              		.section	.text.dir_alloc,"ax",%progbits
 2141              		.align	1
 2142              		.syntax unified
 2143              		.thumb
 2144              		.thumb_func
 2146              	dir_alloc:
 2147              		@ args = 0, pretend = 0, frame = 0
 2148              		@ frame_needed = 0, uses_anonymous_args = 0
 2149 0000 F8B5     		push	{r3, r4, r5, r6, r7, lr}
 2150 0002 0446     		mov	r4, r0
 2151 0004 0E46     		mov	r6, r1
 2152 0006 0768     		ldr	r7, [r0]
 2153 0008 0021     		movs	r1, #0
 2154 000a FFF7FEFF 		bl	dir_sdi
 2155 000e 0246     		mov	r2, r0
 2156 0010 C0B9     		cbnz	r0, .L355
 2157 0012 0025     		movs	r5, #0
 2158 0014 08E0     		b	.L358
 2159              	.L356:
 2160 0016 0135     		adds	r5, r5, #1
 2161 0018 B542     		cmp	r5, r6
 2162 001a 13D0     		beq	.L355
 2163              	.L357:
 2164 001c 0121     		movs	r1, #1
 2165 001e 2046     		mov	r0, r4
 2166 0020 FFF7FEFF 		bl	dir_next
 2167 0024 0246     		mov	r2, r0
 2168 0026 68B9     		cbnz	r0, .L355
 2169              	.L358:
 2170 0028 E169     		ldr	r1, [r4, #28]
 2171 002a 3846     		mov	r0, r7
 2172 002c FFF7FEFF 		bl	move_window
 2173 0030 0246     		mov	r2, r0
 2174 0032 38B9     		cbnz	r0, .L355
 2175 0034 236A     		ldr	r3, [r4, #32]
 2176 0036 1B78     		ldrb	r3, [r3]	@ zero_extendqisi2
 2177 0038 E52B     		cmp	r3, #229
ARM GAS  C:\Users\Nathan\AppData\Local\Temp\ccXwghP6.s 			page 38


 2178 003a ECD0     		beq	.L356
 2179 003c 002B     		cmp	r3, #0
 2180 003e EAD0     		beq	.L356
 2181 0040 0025     		movs	r5, #0
 2182 0042 EBE7     		b	.L357
 2183              	.L355:
 2184 0044 042A     		cmp	r2, #4
 2185 0046 01D0     		beq	.L363
 2186              	.L359:
 2187 0048 1046     		mov	r0, r2
 2188 004a F8BD     		pop	{r3, r4, r5, r6, r7, pc}
 2189              	.L363:
 2190 004c 0722     		movs	r2, #7
 2191 004e FBE7     		b	.L359
 2193              		.section	.text.dir_register,"ax",%progbits
 2194              		.align	1
 2195              		.syntax unified
 2196              		.thumb
 2197              		.thumb_func
 2199              	dir_register:
 2200              		@ args = 0, pretend = 0, frame = 0
 2201              		@ frame_needed = 0, uses_anonymous_args = 0
 2202 0000 70B5     		push	{r4, r5, r6, lr}
 2203 0002 0446     		mov	r4, r0
 2204 0004 0668     		ldr	r6, [r0]
 2205 0006 0121     		movs	r1, #1
 2206 0008 FFF7FEFF 		bl	dir_alloc
 2207 000c 0546     		mov	r5, r0
 2208 000e 08B1     		cbz	r0, .L367
 2209              	.L365:
 2210 0010 2846     		mov	r0, r5
 2211 0012 70BD     		pop	{r4, r5, r6, pc}
 2212              	.L367:
 2213 0014 E169     		ldr	r1, [r4, #28]
 2214 0016 3046     		mov	r0, r6
 2215 0018 FFF7FEFF 		bl	move_window
 2216 001c 0546     		mov	r5, r0
 2217 001e 0028     		cmp	r0, #0
 2218 0020 F6D1     		bne	.L365
 2219 0022 2022     		movs	r2, #32
 2220 0024 0021     		movs	r1, #0
 2221 0026 206A     		ldr	r0, [r4, #32]
 2222 0028 FFF7FEFF 		bl	mem_set
 2223 002c 0B22     		movs	r2, #11
 2224 002e 04F12401 		add	r1, r4, #36
 2225 0032 206A     		ldr	r0, [r4, #32]
 2226 0034 FFF7FEFF 		bl	mem_cpy
 2227 0038 0123     		movs	r3, #1
 2228 003a F370     		strb	r3, [r6, #3]
 2229 003c E8E7     		b	.L365
 2231              		.section	.text.dir_read,"ax",%progbits
 2232              		.align	1
 2233              		.syntax unified
 2234              		.thumb
 2235              		.thumb_func
 2237              	dir_read:
 2238              		@ args = 0, pretend = 0, frame = 0
ARM GAS  C:\Users\Nathan\AppData\Local\Temp\ccXwghP6.s 			page 39


 2239              		@ frame_needed = 0, uses_anonymous_args = 0
 2240 0000 F8B5     		push	{r3, r4, r5, r6, r7, lr}
 2241 0002 0446     		mov	r4, r0
 2242 0004 0E46     		mov	r6, r1
 2243 0006 0568     		ldr	r5, [r0]
 2244 0008 0427     		movs	r7, #4
 2245 000a 05E0     		b	.L369
 2246              	.L371:
 2247 000c 0021     		movs	r1, #0
 2248 000e 2046     		mov	r0, r4
 2249 0010 FFF7FEFF 		bl	dir_next
 2250 0014 0746     		mov	r7, r0
 2251 0016 E8B9     		cbnz	r0, .L370
 2252              	.L369:
 2253 0018 E169     		ldr	r1, [r4, #28]
 2254 001a D9B1     		cbz	r1, .L370
 2255 001c 2846     		mov	r0, r5
 2256 001e FFF7FEFF 		bl	move_window
 2257 0022 0746     		mov	r7, r0
 2258 0024 B0B9     		cbnz	r0, .L370
 2259 0026 236A     		ldr	r3, [r4, #32]
 2260 0028 1A78     		ldrb	r2, [r3]	@ zero_extendqisi2
 2261 002a 92B1     		cbz	r2, .L374
 2262 002c DB7A     		ldrb	r3, [r3, #11]	@ zero_extendqisi2
 2263 002e 03F03F03 		and	r3, r3, #63
 2264 0032 A371     		strb	r3, [r4, #6]
 2265 0034 E52A     		cmp	r2, #229
 2266 0036 E9D0     		beq	.L371
 2267 0038 2E2A     		cmp	r2, #46
 2268 003a E7D0     		beq	.L371
 2269 003c 0F2B     		cmp	r3, #15
 2270 003e E5D0     		beq	.L371
 2271 0040 23F02003 		bic	r3, r3, #32
 2272 0044 082B     		cmp	r3, #8
 2273 0046 14BF     		ite	ne
 2274 0048 0023     		movne	r3, #0
 2275 004a 0123     		moveq	r3, #1
 2276 004c B342     		cmp	r3, r6
 2277 004e DDD1     		bne	.L371
 2278 0050 00E0     		b	.L370
 2279              	.L374:
 2280 0052 0427     		movs	r7, #4
 2281              	.L370:
 2282 0054 0FB1     		cbz	r7, .L373
 2283 0056 0023     		movs	r3, #0
 2284 0058 E361     		str	r3, [r4, #28]
 2285              	.L373:
 2286 005a 3846     		mov	r0, r7
 2287 005c F8BD     		pop	{r3, r4, r5, r6, r7, pc}
 2289              		.section	.text.sync_fs,"ax",%progbits
 2290              		.align	1
 2291              		.syntax unified
 2292              		.thumb
 2293              		.thumb_func
 2295              	sync_fs:
 2296              		@ args = 0, pretend = 0, frame = 0
 2297              		@ frame_needed = 0, uses_anonymous_args = 0
ARM GAS  C:\Users\Nathan\AppData\Local\Temp\ccXwghP6.s 			page 40


 2298 0000 70B5     		push	{r4, r5, r6, lr}
 2299 0002 0446     		mov	r4, r0
 2300 0004 FFF7FEFF 		bl	sync_window
 2301 0008 0546     		mov	r5, r0
 2302 000a 48B9     		cbnz	r0, .L377
 2303 000c 2378     		ldrb	r3, [r4]	@ zero_extendqisi2
 2304 000e 032B     		cmp	r3, #3
 2305 0010 08D0     		beq	.L381
 2306              	.L378:
 2307 0012 0022     		movs	r2, #0
 2308 0014 1146     		mov	r1, r2
 2309 0016 6078     		ldrb	r0, [r4, #1]	@ zero_extendqisi2
 2310 0018 FFF7FEFF 		bl	disk_ioctl
 2311 001c 00B1     		cbz	r0, .L377
 2312 001e 0125     		movs	r5, #1
 2313              	.L377:
 2314 0020 2846     		mov	r0, r5
 2315 0022 70BD     		pop	{r4, r5, r6, pc}
 2316              	.L381:
 2317 0024 2379     		ldrb	r3, [r4, #4]	@ zero_extendqisi2
 2318 0026 012B     		cmp	r3, #1
 2319 0028 F3D1     		bne	.L378
 2320 002a 04F13006 		add	r6, r4, #48
 2321 002e 4FF40072 		mov	r2, #512
 2322 0032 0021     		movs	r1, #0
 2323 0034 3046     		mov	r0, r6
 2324 0036 FFF7FEFF 		bl	mem_set
 2325 003a 4AF65521 		movw	r1, #43605
 2326 003e 04F22E20 		addw	r0, r4, #558
 2327 0042 FFF7FEFF 		bl	st_word
 2328 0046 0F49     		ldr	r1, .L382
 2329 0048 3046     		mov	r0, r6
 2330 004a FFF7FEFF 		bl	st_dword
 2331 004e 0E49     		ldr	r1, .L382+4
 2332 0050 04F50570 		add	r0, r4, #532
 2333 0054 FFF7FEFF 		bl	st_dword
 2334 0058 2169     		ldr	r1, [r4, #16]
 2335 005a 04F50670 		add	r0, r4, #536
 2336 005e FFF7FEFF 		bl	st_dword
 2337 0062 E168     		ldr	r1, [r4, #12]
 2338 0064 04F50770 		add	r0, r4, #540
 2339 0068 FFF7FEFF 		bl	st_dword
 2340 006c E269     		ldr	r2, [r4, #28]
 2341 006e 0132     		adds	r2, r2, #1
 2342 0070 E262     		str	r2, [r4, #44]
 2343 0072 0123     		movs	r3, #1
 2344 0074 3146     		mov	r1, r6
 2345 0076 6078     		ldrb	r0, [r4, #1]	@ zero_extendqisi2
 2346 0078 FFF7FEFF 		bl	disk_write
 2347 007c 0023     		movs	r3, #0
 2348 007e 2371     		strb	r3, [r4, #4]
 2349 0080 C7E7     		b	.L378
 2350              	.L383:
 2351 0082 00BF     		.align	2
 2352              	.L382:
 2353 0084 52526141 		.word	1096897106
 2354 0088 72724161 		.word	1631679090
ARM GAS  C:\Users\Nathan\AppData\Local\Temp\ccXwghP6.s 			page 41


 2356              		.section	.text.f_mount,"ax",%progbits
 2357              		.align	1
 2358              		.global	f_mount
 2359              		.syntax unified
 2360              		.thumb
 2361              		.thumb_func
 2363              	f_mount:
 2364              		@ args = 0, pretend = 0, frame = 16
 2365              		@ frame_needed = 0, uses_anonymous_args = 0
 2366 0000 70B5     		push	{r4, r5, r6, lr}
 2367 0002 84B0     		sub	sp, sp, #16
 2368 0004 0190     		str	r0, [sp, #4]
 2369 0006 0091     		str	r1, [sp]
 2370 0008 1646     		mov	r6, r2
 2371 000a 0391     		str	r1, [sp, #12]
 2372 000c 03A8     		add	r0, sp, #12
 2373 000e FFF7FEFF 		bl	get_ldnumber
 2374 0012 041E     		subs	r4, r0, #0
 2375 0014 1CDB     		blt	.L388
 2376 0016 104B     		ldr	r3, .L393
 2377 0018 53F82450 		ldr	r5, [r3, r4, lsl #2]
 2378 001c 25B1     		cbz	r5, .L386
 2379 001e 2846     		mov	r0, r5
 2380 0020 FFF7FEFF 		bl	clear_lock
 2381 0024 0023     		movs	r3, #0
 2382 0026 2B70     		strb	r3, [r5]
 2383              	.L386:
 2384 0028 019B     		ldr	r3, [sp, #4]
 2385 002a 0BB1     		cbz	r3, .L387
 2386 002c 0022     		movs	r2, #0
 2387 002e 1A70     		strb	r2, [r3]
 2388              	.L387:
 2389 0030 019B     		ldr	r3, [sp, #4]
 2390 0032 094A     		ldr	r2, .L393
 2391 0034 42F82430 		str	r3, [r2, r4, lsl #2]
 2392 0038 63B1     		cbz	r3, .L389
 2393 003a 012E     		cmp	r6, #1
 2394 003c 02D0     		beq	.L392
 2395 003e 0020     		movs	r0, #0
 2396              	.L385:
 2397 0040 04B0     		add	sp, sp, #16
 2398              		@ sp needed
 2399 0042 70BD     		pop	{r4, r5, r6, pc}
 2400              	.L392:
 2401 0044 0022     		movs	r2, #0
 2402 0046 01A9     		add	r1, sp, #4
 2403 0048 6846     		mov	r0, sp
 2404 004a FFF7FEFF 		bl	find_volume
 2405 004e F7E7     		b	.L385
 2406              	.L388:
 2407 0050 0B20     		movs	r0, #11
 2408 0052 F5E7     		b	.L385
 2409              	.L389:
 2410 0054 0020     		movs	r0, #0
 2411 0056 F3E7     		b	.L385
 2412              	.L394:
 2413              		.align	2
ARM GAS  C:\Users\Nathan\AppData\Local\Temp\ccXwghP6.s 			page 42


 2414              	.L393:
 2415 0058 00000000 		.word	FatFs
 2417              		.section	.text.f_open,"ax",%progbits
 2418              		.align	1
 2419              		.global	f_open
 2420              		.syntax unified
 2421              		.thumb
 2422              		.thumb_func
 2424              	f_open:
 2425              		@ args = 0, pretend = 0, frame = 64
 2426              		@ frame_needed = 0, uses_anonymous_args = 0
 2427 0000 2DE9F043 		push	{r4, r5, r6, r7, r8, r9, lr}
 2428 0004 91B0     		sub	sp, sp, #68
 2429 0006 0191     		str	r1, [sp, #4]
 2430 0008 0028     		cmp	r0, #0
 2431 000a 00F00581 		beq	.L410
 2432 000e 1446     		mov	r4, r2
 2433 0010 0646     		mov	r6, r0
 2434 0012 02F03F07 		and	r7, r2, #63
 2435 0016 3A46     		mov	r2, r7
 2436 0018 03A9     		add	r1, sp, #12
 2437 001a 01A8     		add	r0, sp, #4
 2438 001c FFF7FEFF 		bl	find_volume
 2439 0020 0546     		mov	r5, r0
 2440 0022 28B1     		cbz	r0, .L423
 2441              	.L397:
 2442 0024 0023     		movs	r3, #0
 2443 0026 3360     		str	r3, [r6]
 2444              	.L396:
 2445 0028 2846     		mov	r0, r5
 2446 002a 11B0     		add	sp, sp, #68
 2447              		@ sp needed
 2448 002c BDE8F083 		pop	{r4, r5, r6, r7, r8, r9, pc}
 2449              	.L423:
 2450 0030 039B     		ldr	r3, [sp, #12]
 2451 0032 0493     		str	r3, [sp, #16]
 2452 0034 0199     		ldr	r1, [sp, #4]
 2453 0036 04A8     		add	r0, sp, #16
 2454 0038 FFF7FEFF 		bl	follow_path
 2455 003c 0546     		mov	r5, r0
 2456 003e 60B9     		cbnz	r0, .L398
 2457 0040 9DF93F30 		ldrsb	r3, [sp, #63]
 2458 0044 002B     		cmp	r3, #0
 2459 0046 52DB     		blt	.L411
 2460 0048 14F03E0F 		tst	r4, #62
 2461 004c 14BF     		ite	ne
 2462 004e 0121     		movne	r1, #1
 2463 0050 0021     		moveq	r1, #0
 2464 0052 04A8     		add	r0, sp, #16
 2465 0054 FFF7FEFF 		bl	chk_lock
 2466 0058 0546     		mov	r5, r0
 2467              	.L398:
 2468 005a 14F01C0F 		tst	r4, #28
 2469 005e 5CD0     		beq	.L399
 2470 0060 002D     		cmp	r5, #0
 2471 0062 50D0     		beq	.L400
 2472 0064 042D     		cmp	r5, #4
ARM GAS  C:\Users\Nathan\AppData\Local\Temp\ccXwghP6.s 			page 43


 2473 0066 44D0     		beq	.L424
 2474              	.L401:
 2475 0068 47F00807 		orr	r7, r7, #8
 2476              	.L402:
 2477 006c 002D     		cmp	r5, #0
 2478 006e D9D1     		bne	.L397
 2479 0070 17F0080F 		tst	r7, #8
 2480 0074 61D0     		beq	.L403
 2481 0076 FFF7FEFF 		bl	get_fattime
 2482 007a 0446     		mov	r4, r0
 2483 007c 0146     		mov	r1, r0
 2484 007e 0C98     		ldr	r0, [sp, #48]
 2485 0080 0E30     		adds	r0, r0, #14
 2486 0082 FFF7FEFF 		bl	st_dword
 2487 0086 2146     		mov	r1, r4
 2488 0088 0C98     		ldr	r0, [sp, #48]
 2489 008a 1630     		adds	r0, r0, #22
 2490 008c FFF7FEFF 		bl	st_dword
 2491 0090 0C9B     		ldr	r3, [sp, #48]
 2492 0092 2022     		movs	r2, #32
 2493 0094 DA72     		strb	r2, [r3, #11]
 2494 0096 DDF80C80 		ldr	r8, [sp, #12]
 2495 009a DDF83090 		ldr	r9, [sp, #48]
 2496 009e 4946     		mov	r1, r9
 2497 00a0 4046     		mov	r0, r8
 2498 00a2 FFF7FEFF 		bl	ld_clust
 2499 00a6 0446     		mov	r4, r0
 2500 00a8 0022     		movs	r2, #0
 2501 00aa 4946     		mov	r1, r9
 2502 00ac 4046     		mov	r0, r8
 2503 00ae FFF7FEFF 		bl	st_clust
 2504 00b2 0021     		movs	r1, #0
 2505 00b4 0C98     		ldr	r0, [sp, #48]
 2506 00b6 1C30     		adds	r0, r0, #28
 2507 00b8 FFF7FEFF 		bl	st_dword
 2508 00bc 039B     		ldr	r3, [sp, #12]
 2509 00be 0122     		movs	r2, #1
 2510 00c0 DA70     		strb	r2, [r3, #3]
 2511 00c2 002C     		cmp	r4, #0
 2512 00c4 39D0     		beq	.L403
 2513 00c6 039B     		ldr	r3, [sp, #12]
 2514 00c8 D3F82C80 		ldr	r8, [r3, #44]
 2515 00cc 0022     		movs	r2, #0
 2516 00ce 2146     		mov	r1, r4
 2517 00d0 04A8     		add	r0, sp, #16
 2518 00d2 FFF7FEFF 		bl	remove_chain
 2519 00d6 0546     		mov	r5, r0
 2520 00d8 0028     		cmp	r0, #0
 2521 00da A3D1     		bne	.L397
 2522 00dc 4146     		mov	r1, r8
 2523 00de 0398     		ldr	r0, [sp, #12]
 2524 00e0 FFF7FEFF 		bl	move_window
 2525 00e4 0546     		mov	r5, r0
 2526 00e6 013C     		subs	r4, r4, #1
 2527 00e8 039B     		ldr	r3, [sp, #12]
 2528 00ea DC60     		str	r4, [r3, #12]
 2529 00ec 25E0     		b	.L403
ARM GAS  C:\Users\Nathan\AppData\Local\Temp\ccXwghP6.s 			page 44


 2530              	.L411:
 2531 00ee 0625     		movs	r5, #6
 2532 00f0 B3E7     		b	.L398
 2533              	.L424:
 2534 00f2 FFF7FEFF 		bl	enq_lock
 2535 00f6 08B9     		cbnz	r0, .L425
 2536 00f8 1225     		movs	r5, #18
 2537 00fa B5E7     		b	.L401
 2538              	.L425:
 2539 00fc 04A8     		add	r0, sp, #16
 2540 00fe FFF7FEFF 		bl	dir_register
 2541 0102 0546     		mov	r5, r0
 2542 0104 B0E7     		b	.L401
 2543              	.L400:
 2544 0106 9DF81630 		ldrb	r3, [sp, #22]	@ zero_extendqisi2
 2545 010a 13F0110F 		tst	r3, #17
 2546 010e 13D1     		bne	.L413
 2547 0110 14F0040F 		tst	r4, #4
 2548 0114 AAD0     		beq	.L402
 2549 0116 0825     		movs	r5, #8
 2550 0118 84E7     		b	.L397
 2551              	.L399:
 2552 011a 002D     		cmp	r5, #0
 2553 011c 82D1     		bne	.L397
 2554 011e 9DF81630 		ldrb	r3, [sp, #22]	@ zero_extendqisi2
 2555 0122 13F0100F 		tst	r3, #16
 2556 0126 73D1     		bne	.L415
 2557 0128 14F0020F 		tst	r4, #2
 2558 012c 05D0     		beq	.L403
 2559 012e 13F0010F 		tst	r3, #1
 2560 0132 02D0     		beq	.L403
 2561 0134 0725     		movs	r5, #7
 2562 0136 75E7     		b	.L397
 2563              	.L413:
 2564 0138 0725     		movs	r5, #7
 2565              	.L403:
 2566 013a 002D     		cmp	r5, #0
 2567 013c 7FF472AF 		bne	.L397
 2568 0140 17F0080F 		tst	r7, #8
 2569 0144 01D0     		beq	.L404
 2570 0146 47F04007 		orr	r7, r7, #64
 2571              	.L404:
 2572 014a 039B     		ldr	r3, [sp, #12]
 2573 014c DB6A     		ldr	r3, [r3, #44]
 2574 014e 7362     		str	r3, [r6, #36]
 2575 0150 0C9B     		ldr	r3, [sp, #48]
 2576 0152 B362     		str	r3, [r6, #40]
 2577 0154 012F     		cmp	r7, #1
 2578 0156 94BF     		ite	ls
 2579 0158 0021     		movls	r1, #0
 2580 015a 0121     		movhi	r1, #1
 2581 015c 04A8     		add	r0, sp, #16
 2582 015e FFF7FEFF 		bl	inc_lock
 2583 0162 3061     		str	r0, [r6, #16]
 2584 0164 08B9     		cbnz	r0, .L426
 2585 0166 0225     		movs	r5, #2
 2586 0168 5CE7     		b	.L397
ARM GAS  C:\Users\Nathan\AppData\Local\Temp\ccXwghP6.s 			page 45


 2587              	.L426:
 2588 016a 039C     		ldr	r4, [sp, #12]
 2589 016c DDF83080 		ldr	r8, [sp, #48]
 2590 0170 4146     		mov	r1, r8
 2591 0172 2046     		mov	r0, r4
 2592 0174 FFF7FEFF 		bl	ld_clust
 2593 0178 B060     		str	r0, [r6, #8]
 2594 017a 08F11C00 		add	r0, r8, #28
 2595 017e FFF7FEFF 		bl	ld_dword
 2596 0182 F060     		str	r0, [r6, #12]
 2597 0184 0021     		movs	r1, #0
 2598 0186 F162     		str	r1, [r6, #44]
 2599 0188 3460     		str	r4, [r6]
 2600 018a E388     		ldrh	r3, [r4, #6]
 2601 018c B380     		strh	r3, [r6, #4]	@ movhi
 2602 018e 3775     		strb	r7, [r6, #20]
 2603 0190 7175     		strb	r1, [r6, #21]
 2604 0192 3162     		str	r1, [r6, #32]
 2605 0194 B161     		str	r1, [r6, #24]
 2606 0196 06F13008 		add	r8, r6, #48
 2607 019a 4FF40072 		mov	r2, #512
 2608 019e 4046     		mov	r0, r8
 2609 01a0 FFF7FEFF 		bl	mem_set
 2610 01a4 17F0200F 		tst	r7, #32
 2611 01a8 2ED0     		beq	.L405
 2612 01aa F468     		ldr	r4, [r6, #12]
 2613 01ac 64B3     		cbz	r4, .L405
 2614 01ae B461     		str	r4, [r6, #24]
 2615 01b0 039B     		ldr	r3, [sp, #12]
 2616 01b2 5F89     		ldrh	r7, [r3, #10]
 2617 01b4 7F02     		lsls	r7, r7, #9
 2618 01b6 B168     		ldr	r1, [r6, #8]
 2619 01b8 01E0     		b	.L406
 2620              	.L418:
 2621 01ba 0225     		movs	r5, #2
 2622              	.L407:
 2623 01bc E41B     		subs	r4, r4, r7
 2624              	.L406:
 2625 01be 65B9     		cbnz	r5, .L408
 2626 01c0 BC42     		cmp	r4, r7
 2627 01c2 0AD9     		bls	.L408
 2628 01c4 3046     		mov	r0, r6
 2629 01c6 FFF7FEFF 		bl	get_fat
 2630 01ca 0146     		mov	r1, r0
 2631 01cc 0128     		cmp	r0, #1
 2632 01ce F4D9     		bls	.L418
 2633 01d0 B0F1FF3F 		cmp	r0, #-1
 2634 01d4 F2D1     		bne	.L407
 2635 01d6 0125     		movs	r5, #1
 2636 01d8 F0E7     		b	.L407
 2637              	.L408:
 2638 01da F161     		str	r1, [r6, #28]
 2639 01dc 002D     		cmp	r5, #0
 2640 01de 7FF421AF 		bne	.L397
 2641 01e2 C4F30803 		ubfx	r3, r4, #0, #9
 2642 01e6 7BB1     		cbz	r3, .L405
 2643 01e8 039F     		ldr	r7, [sp, #12]
ARM GAS  C:\Users\Nathan\AppData\Local\Temp\ccXwghP6.s 			page 46


 2644 01ea 3846     		mov	r0, r7
 2645 01ec FFF7FEFF 		bl	clust2sect
 2646 01f0 08B9     		cbnz	r0, .L427
 2647 01f2 0225     		movs	r5, #2
 2648 01f4 16E7     		b	.L397
 2649              	.L427:
 2650 01f6 00EB5422 		add	r2, r0, r4, lsr #9
 2651 01fa 3262     		str	r2, [r6, #32]
 2652 01fc 0123     		movs	r3, #1
 2653 01fe 4146     		mov	r1, r8
 2654 0200 7878     		ldrb	r0, [r7, #1]	@ zero_extendqisi2
 2655 0202 FFF7FEFF 		bl	disk_read
 2656 0206 28B9     		cbnz	r0, .L421
 2657              	.L405:
 2658 0208 002D     		cmp	r5, #0
 2659 020a 3FF40DAF 		beq	.L396
 2660 020e 09E7     		b	.L397
 2661              	.L415:
 2662 0210 0425     		movs	r5, #4
 2663 0212 07E7     		b	.L397
 2664              	.L421:
 2665 0214 0125     		movs	r5, #1
 2666 0216 05E7     		b	.L397
 2667              	.L410:
 2668 0218 0925     		movs	r5, #9
 2669 021a 05E7     		b	.L396
 2671              		.section	.text.f_read,"ax",%progbits
 2672              		.align	1
 2673              		.global	f_read
 2674              		.syntax unified
 2675              		.thumb
 2676              		.thumb_func
 2678              	f_read:
 2679              		@ args = 0, pretend = 0, frame = 16
 2680              		@ frame_needed = 0, uses_anonymous_args = 0
 2681 0000 2DE9F04F 		push	{r4, r5, r6, r7, r8, r9, r10, fp, lr}
 2682 0004 85B0     		sub	sp, sp, #20
 2683 0006 0446     		mov	r4, r0
 2684 0008 0E46     		mov	r6, r1
 2685 000a 1746     		mov	r7, r2
 2686 000c 9846     		mov	r8, r3
 2687 000e 0023     		movs	r3, #0
 2688 0010 C8F80030 		str	r3, [r8]
 2689 0014 03A9     		add	r1, sp, #12
 2690 0016 FFF7FEFF 		bl	validate
 2691 001a 0190     		str	r0, [sp, #4]
 2692 001c 0028     		cmp	r0, #0
 2693 001e 40F0AE80 		bne	.L431
 2694 0022 637D     		ldrb	r3, [r4, #21]	@ zero_extendqisi2
 2695 0024 0193     		str	r3, [sp, #4]
 2696 0026 002B     		cmp	r3, #0
 2697 0028 40F0A980 		bne	.L431
 2698 002c 237D     		ldrb	r3, [r4, #20]	@ zero_extendqisi2
 2699 002e 13F0010F 		tst	r3, #1
 2700 0032 00F0C380 		beq	.L453
 2701 0036 E568     		ldr	r5, [r4, #12]
 2702 0038 A369     		ldr	r3, [r4, #24]
ARM GAS  C:\Users\Nathan\AppData\Local\Temp\ccXwghP6.s 			page 47


 2703 003a ED1A     		subs	r5, r5, r3
 2704 003c BD42     		cmp	r5, r7
 2705 003e 62D3     		bcc	.L451
 2706 0040 3D46     		mov	r5, r7
 2707 0042 60E0     		b	.L451
 2708              	.L436:
 2709 0044 E36A     		ldr	r3, [r4, #44]
 2710 0046 1BB1     		cbz	r3, .L438
 2711 0048 2046     		mov	r0, r4
 2712 004a FFF7FEFF 		bl	clmt_clust
 2713 004e 6AE0     		b	.L437
 2714              	.L438:
 2715 0050 E169     		ldr	r1, [r4, #28]
 2716 0052 2046     		mov	r0, r4
 2717 0054 FFF7FEFF 		bl	get_fat
 2718 0058 65E0     		b	.L437
 2719              	.L460:
 2720 005a 4FF0020A 		mov	r10, #2
 2721 005e 84F815A0 		strb	r10, [r4, #21]
 2722 0062 CDF804A0 		str	r10, [sp, #4]
 2723 0066 8AE0     		b	.L431
 2724              	.L461:
 2725 0068 4FF0010A 		mov	r10, #1
 2726 006c 84F815A0 		strb	r10, [r4, #21]
 2727 0070 CDF804A0 		str	r10, [sp, #4]
 2728 0074 83E0     		b	.L431
 2729              	.L462:
 2730 0076 4FF0020A 		mov	r10, #2
 2731 007a 84F815A0 		strb	r10, [r4, #21]
 2732 007e CDF804A0 		str	r10, [sp, #4]
 2733 0082 7CE0     		b	.L431
 2734              	.L444:
 2735 0084 94F91430 		ldrsb	r3, [r4, #20]
 2736 0088 002B     		cmp	r3, #0
 2737 008a 02DB     		blt	.L457
 2738              	.L445:
 2739 008c 4FEA4A27 		lsl	r7, r10, #9
 2740 0090 2FE0     		b	.L446
 2741              	.L457:
 2742 0092 206A     		ldr	r0, [r4, #32]
 2743 0094 A0EB0900 		sub	r0, r0, r9
 2744 0098 5045     		cmp	r0, r10
 2745 009a F7D2     		bcs	.L445
 2746 009c 4FF40072 		mov	r2, #512
 2747 00a0 04F13001 		add	r1, r4, #48
 2748 00a4 06EB4020 		add	r0, r6, r0, lsl #9
 2749 00a8 FFF7FEFF 		bl	mem_cpy
 2750 00ac EEE7     		b	.L445
 2751              	.L442:
 2752 00ae 226A     		ldr	r2, [r4, #32]
 2753 00b0 4A45     		cmp	r2, r9
 2754 00b2 0DD0     		beq	.L447
 2755 00b4 94F91430 		ldrsb	r3, [r4, #20]
 2756 00b8 002B     		cmp	r3, #0
 2757 00ba 64DB     		blt	.L458
 2758              	.L448:
 2759 00bc 0123     		movs	r3, #1
ARM GAS  C:\Users\Nathan\AppData\Local\Temp\ccXwghP6.s 			page 48


 2760 00be 4A46     		mov	r2, r9
 2761 00c0 04F13001 		add	r1, r4, #48
 2762 00c4 0398     		ldr	r0, [sp, #12]
 2763 00c6 4078     		ldrb	r0, [r0, #1]	@ zero_extendqisi2
 2764 00c8 FFF7FEFF 		bl	disk_read
 2765 00cc 0028     		cmp	r0, #0
 2766 00ce 6ED1     		bne	.L459
 2767              	.L447:
 2768 00d0 C4F82090 		str	r9, [r4, #32]
 2769              	.L434:
 2770 00d4 A369     		ldr	r3, [r4, #24]
 2771 00d6 C3F30803 		ubfx	r3, r3, #0, #9
 2772 00da C3F50077 		rsb	r7, r3, #512
 2773 00de BD42     		cmp	r5, r7
 2774 00e0 00D2     		bcs	.L450
 2775 00e2 2F46     		mov	r7, r5
 2776              	.L450:
 2777 00e4 04F13001 		add	r1, r4, #48
 2778 00e8 3A46     		mov	r2, r7
 2779 00ea 1944     		add	r1, r1, r3
 2780 00ec 3046     		mov	r0, r6
 2781 00ee FFF7FEFF 		bl	mem_cpy
 2782              	.L446:
 2783 00f2 3E44     		add	r6, r6, r7
 2784 00f4 A369     		ldr	r3, [r4, #24]
 2785 00f6 3B44     		add	r3, r3, r7
 2786 00f8 A361     		str	r3, [r4, #24]
 2787 00fa D8F80030 		ldr	r3, [r8]
 2788 00fe 3B44     		add	r3, r3, r7
 2789 0100 C8F80030 		str	r3, [r8]
 2790 0104 ED1B     		subs	r5, r5, r7
 2791              	.L451:
 2792 0106 002D     		cmp	r5, #0
 2793 0108 39D0     		beq	.L431
 2794 010a A169     		ldr	r1, [r4, #24]
 2795 010c C1F30803 		ubfx	r3, r1, #0, #9
 2796 0110 002B     		cmp	r3, #0
 2797 0112 DFD1     		bne	.L434
 2798 0114 039B     		ldr	r3, [sp, #12]
 2799 0116 5F89     		ldrh	r7, [r3, #10]
 2800 0118 013F     		subs	r7, r7, #1
 2801 011a 17EA5127 		ands	r7, r7, r1, lsr #9
 2802 011e 08D1     		bne	.L435
 2803 0120 0029     		cmp	r1, #0
 2804 0122 8FD1     		bne	.L436
 2805 0124 A068     		ldr	r0, [r4, #8]
 2806              	.L437:
 2807 0126 0128     		cmp	r0, #1
 2808 0128 97D9     		bls	.L460
 2809 012a B0F1FF3F 		cmp	r0, #-1
 2810 012e 9BD0     		beq	.L461
 2811 0130 E061     		str	r0, [r4, #28]
 2812              	.L435:
 2813 0132 DDF80CB0 		ldr	fp, [sp, #12]
 2814 0136 E169     		ldr	r1, [r4, #28]
 2815 0138 5846     		mov	r0, fp
 2816 013a FFF7FEFF 		bl	clust2sect
ARM GAS  C:\Users\Nathan\AppData\Local\Temp\ccXwghP6.s 			page 49


 2817 013e 8146     		mov	r9, r0
 2818 0140 0028     		cmp	r0, #0
 2819 0142 98D0     		beq	.L462
 2820 0144 B944     		add	r9, r9, r7
 2821 0146 4FEA552A 		lsr	r10, r5, #9
 2822 014a B5F5007F 		cmp	r5, #512
 2823 014e AED3     		bcc	.L442
 2824 0150 07EB0A03 		add	r3, r7, r10
 2825 0154 BBF80A20 		ldrh	r2, [fp, #10]
 2826 0158 9342     		cmp	r3, r2
 2827 015a 01D9     		bls	.L443
 2828 015c A2EB070A 		sub	r10, r2, r7
 2829              	.L443:
 2830 0160 5346     		mov	r3, r10
 2831 0162 4A46     		mov	r2, r9
 2832 0164 3146     		mov	r1, r6
 2833 0166 9BF80100 		ldrb	r0, [fp, #1]	@ zero_extendqisi2
 2834 016a FFF7FEFF 		bl	disk_read
 2835 016e 0028     		cmp	r0, #0
 2836 0170 88D0     		beq	.L444
 2837 0172 4FF0010A 		mov	r10, #1
 2838 0176 84F815A0 		strb	r10, [r4, #21]
 2839 017a CDF804A0 		str	r10, [sp, #4]
 2840              	.L431:
 2841 017e 0198     		ldr	r0, [sp, #4]
 2842 0180 05B0     		add	sp, sp, #20
 2843              		@ sp needed
 2844 0182 BDE8F08F 		pop	{r4, r5, r6, r7, r8, r9, r10, fp, pc}
 2845              	.L458:
 2846 0186 0123     		movs	r3, #1
 2847 0188 04F13001 		add	r1, r4, #48
 2848 018c 9BF80100 		ldrb	r0, [fp, #1]	@ zero_extendqisi2
 2849 0190 FFF7FEFF 		bl	disk_write
 2850 0194 20B9     		cbnz	r0, .L463
 2851 0196 237D     		ldrb	r3, [r4, #20]	@ zero_extendqisi2
 2852 0198 03F07F03 		and	r3, r3, #127
 2853 019c 2375     		strb	r3, [r4, #20]
 2854 019e 8DE7     		b	.L448
 2855              	.L463:
 2856 01a0 4FF0010A 		mov	r10, #1
 2857 01a4 84F815A0 		strb	r10, [r4, #21]
 2858 01a8 CDF804A0 		str	r10, [sp, #4]
 2859 01ac E7E7     		b	.L431
 2860              	.L459:
 2861 01ae 4FF0010A 		mov	r10, #1
 2862 01b2 84F815A0 		strb	r10, [r4, #21]
 2863 01b6 CDF804A0 		str	r10, [sp, #4]
 2864 01ba E0E7     		b	.L431
 2865              	.L453:
 2866 01bc 0723     		movs	r3, #7
 2867 01be 0193     		str	r3, [sp, #4]
 2868 01c0 DDE7     		b	.L431
 2870              		.section	.text.f_write,"ax",%progbits
 2871              		.align	1
 2872              		.global	f_write
 2873              		.syntax unified
 2874              		.thumb
ARM GAS  C:\Users\Nathan\AppData\Local\Temp\ccXwghP6.s 			page 50


 2875              		.thumb_func
 2877              	f_write:
 2878              		@ args = 0, pretend = 0, frame = 16
 2879              		@ frame_needed = 0, uses_anonymous_args = 0
 2880 0000 2DE9F04F 		push	{r4, r5, r6, r7, r8, r9, r10, fp, lr}
 2881 0004 85B0     		sub	sp, sp, #20
 2882 0006 0446     		mov	r4, r0
 2883 0008 0E46     		mov	r6, r1
 2884 000a 1546     		mov	r5, r2
 2885 000c 9846     		mov	r8, r3
 2886 000e 0023     		movs	r3, #0
 2887 0010 C8F80030 		str	r3, [r8]
 2888 0014 03A9     		add	r1, sp, #12
 2889 0016 FFF7FEFF 		bl	validate
 2890 001a 0190     		str	r0, [sp, #4]
 2891 001c 0028     		cmp	r0, #0
 2892 001e 49D1     		bne	.L467
 2893 0020 637D     		ldrb	r3, [r4, #21]	@ zero_extendqisi2
 2894 0022 0193     		str	r3, [sp, #4]
 2895 0024 002B     		cmp	r3, #0
 2896 0026 45D1     		bne	.L467
 2897 0028 237D     		ldrb	r3, [r4, #20]	@ zero_extendqisi2
 2898 002a 13F0020F 		tst	r3, #2
 2899 002e 00F0E280 		beq	.L490
 2900 0032 A369     		ldr	r3, [r4, #24]
 2901 0034 EB42     		cmn	r3, r5
 2902 0036 C0F0B080 		bcc	.L488
 2903 003a DD43     		mvns	r5, r3
 2904 003c ADE0     		b	.L488
 2905              	.L471:
 2906 003e E36A     		ldr	r3, [r4, #44]
 2907 0040 002B     		cmp	r3, #0
 2908 0042 3BD0     		beq	.L474
 2909 0044 2046     		mov	r0, r4
 2910 0046 FFF7FEFF 		bl	clmt_clust
 2911              	.L473:
 2912 004a 0028     		cmp	r0, #0
 2913 004c 00F0CE80 		beq	.L475
 2914              	.L472:
 2915 0050 0128     		cmp	r0, #1
 2916 0052 38D0     		beq	.L493
 2917 0054 B0F1FF3F 		cmp	r0, #-1
 2918 0058 3CD0     		beq	.L494
 2919 005a E061     		str	r0, [r4, #28]
 2920 005c A368     		ldr	r3, [r4, #8]
 2921 005e 03B9     		cbnz	r3, .L470
 2922 0060 A060     		str	r0, [r4, #8]
 2923              	.L470:
 2924 0062 94F91430 		ldrsb	r3, [r4, #20]
 2925 0066 002B     		cmp	r3, #0
 2926 0068 3BDB     		blt	.L495
 2927              	.L478:
 2928 006a DDF80CB0 		ldr	fp, [sp, #12]
 2929 006e E169     		ldr	r1, [r4, #28]
 2930 0070 5846     		mov	r0, fp
 2931 0072 FFF7FEFF 		bl	clust2sect
 2932 0076 8146     		mov	r9, r0
ARM GAS  C:\Users\Nathan\AppData\Local\Temp\ccXwghP6.s 			page 51


 2933 0078 0028     		cmp	r0, #0
 2934 007a 47D0     		beq	.L496
 2935 007c B944     		add	r9, r9, r7
 2936 007e 4FEA552A 		lsr	r10, r5, #9
 2937 0082 B5F5007F 		cmp	r5, #512
 2938 0086 5DD3     		bcc	.L481
 2939 0088 07EB0A03 		add	r3, r7, r10
 2940 008c BBF80A20 		ldrh	r2, [fp, #10]
 2941 0090 9342     		cmp	r3, r2
 2942 0092 01D9     		bls	.L482
 2943 0094 A2EB070A 		sub	r10, r2, r7
 2944              	.L482:
 2945 0098 5346     		mov	r3, r10
 2946 009a 4A46     		mov	r2, r9
 2947 009c 3146     		mov	r1, r6
 2948 009e 9BF80100 		ldrb	r0, [fp, #1]	@ zero_extendqisi2
 2949 00a2 FFF7FEFF 		bl	disk_write
 2950 00a6 C0B3     		cbz	r0, .L483
 2951 00a8 4FF0010A 		mov	r10, #1
 2952 00ac 84F815A0 		strb	r10, [r4, #21]
 2953 00b0 CDF804A0 		str	r10, [sp, #4]
 2954              	.L467:
 2955 00b4 0198     		ldr	r0, [sp, #4]
 2956 00b6 05B0     		add	sp, sp, #20
 2957              		@ sp needed
 2958 00b8 BDE8F08F 		pop	{r4, r5, r6, r7, r8, r9, r10, fp, pc}
 2959              	.L474:
 2960 00bc E169     		ldr	r1, [r4, #28]
 2961 00be 2046     		mov	r0, r4
 2962 00c0 FFF7FEFF 		bl	create_chain
 2963 00c4 C1E7     		b	.L473
 2964              	.L493:
 2965 00c6 4FF0020A 		mov	r10, #2
 2966 00ca 84F815A0 		strb	r10, [r4, #21]
 2967 00ce CDF804A0 		str	r10, [sp, #4]
 2968 00d2 EFE7     		b	.L467
 2969              	.L494:
 2970 00d4 4FF0010A 		mov	r10, #1
 2971 00d8 84F815A0 		strb	r10, [r4, #21]
 2972 00dc CDF804A0 		str	r10, [sp, #4]
 2973 00e0 E8E7     		b	.L467
 2974              	.L495:
 2975 00e2 0123     		movs	r3, #1
 2976 00e4 226A     		ldr	r2, [r4, #32]
 2977 00e6 04F13001 		add	r1, r4, #48
 2978 00ea 0398     		ldr	r0, [sp, #12]
 2979 00ec 4078     		ldrb	r0, [r0, #1]	@ zero_extendqisi2
 2980 00ee FFF7FEFF 		bl	disk_write
 2981 00f2 20B9     		cbnz	r0, .L497
 2982 00f4 237D     		ldrb	r3, [r4, #20]	@ zero_extendqisi2
 2983 00f6 03F07F03 		and	r3, r3, #127
 2984 00fa 2375     		strb	r3, [r4, #20]
 2985 00fc B5E7     		b	.L478
 2986              	.L497:
 2987 00fe 4FF0010A 		mov	r10, #1
 2988 0102 84F815A0 		strb	r10, [r4, #21]
 2989 0106 CDF804A0 		str	r10, [sp, #4]
ARM GAS  C:\Users\Nathan\AppData\Local\Temp\ccXwghP6.s 			page 52


 2990 010a D3E7     		b	.L467
 2991              	.L496:
 2992 010c 4FF0020A 		mov	r10, #2
 2993 0110 84F815A0 		strb	r10, [r4, #21]
 2994 0114 CDF804A0 		str	r10, [sp, #4]
 2995 0118 CCE7     		b	.L467
 2996              	.L483:
 2997 011a 216A     		ldr	r1, [r4, #32]
 2998 011c A1EB0901 		sub	r1, r1, r9
 2999 0120 5145     		cmp	r1, r10
 3000 0122 02D3     		bcc	.L498
 3001              	.L484:
 3002 0124 4FEA4A27 		lsl	r7, r10, #9
 3003 0128 28E0     		b	.L485
 3004              	.L498:
 3005 012a 4FF40072 		mov	r2, #512
 3006 012e 06EB4121 		add	r1, r6, r1, lsl #9
 3007 0132 04F13000 		add	r0, r4, #48
 3008 0136 FFF7FEFF 		bl	mem_cpy
 3009 013a 237D     		ldrb	r3, [r4, #20]	@ zero_extendqisi2
 3010 013c 03F07F03 		and	r3, r3, #127
 3011 0140 2375     		strb	r3, [r4, #20]
 3012 0142 EFE7     		b	.L484
 3013              	.L481:
 3014 0144 236A     		ldr	r3, [r4, #32]
 3015 0146 4B45     		cmp	r3, r9
 3016 0148 03D0     		beq	.L486
 3017 014a A269     		ldr	r2, [r4, #24]
 3018 014c E368     		ldr	r3, [r4, #12]
 3019 014e 9A42     		cmp	r2, r3
 3020 0150 3BD3     		bcc	.L499
 3021              	.L486:
 3022 0152 C4F82090 		str	r9, [r4, #32]
 3023              	.L469:
 3024 0156 A369     		ldr	r3, [r4, #24]
 3025 0158 C3F30803 		ubfx	r3, r3, #0, #9
 3026 015c C3F50077 		rsb	r7, r3, #512
 3027 0160 BD42     		cmp	r5, r7
 3028 0162 00D2     		bcs	.L487
 3029 0164 2F46     		mov	r7, r5
 3030              	.L487:
 3031 0166 04F13000 		add	r0, r4, #48
 3032 016a 3A46     		mov	r2, r7
 3033 016c 3146     		mov	r1, r6
 3034 016e 1844     		add	r0, r0, r3
 3035 0170 FFF7FEFF 		bl	mem_cpy
 3036 0174 237D     		ldrb	r3, [r4, #20]	@ zero_extendqisi2
 3037 0176 63F07F03 		orn	r3, r3, #127
 3038 017a 2375     		strb	r3, [r4, #20]
 3039              	.L485:
 3040 017c 3E44     		add	r6, r6, r7
 3041 017e A369     		ldr	r3, [r4, #24]
 3042 0180 3B44     		add	r3, r3, r7
 3043 0182 A361     		str	r3, [r4, #24]
 3044 0184 E268     		ldr	r2, [r4, #12]
 3045 0186 9342     		cmp	r3, r2
 3046 0188 38BF     		it	cc
ARM GAS  C:\Users\Nathan\AppData\Local\Temp\ccXwghP6.s 			page 53


 3047 018a 1346     		movcc	r3, r2
 3048 018c E360     		str	r3, [r4, #12]
 3049 018e D8F80030 		ldr	r3, [r8]
 3050 0192 3B44     		add	r3, r3, r7
 3051 0194 C8F80030 		str	r3, [r8]
 3052 0198 ED1B     		subs	r5, r5, r7
 3053              	.L488:
 3054 019a 3DB3     		cbz	r5, .L475
 3055 019c A169     		ldr	r1, [r4, #24]
 3056 019e C1F30803 		ubfx	r3, r1, #0, #9
 3057 01a2 002B     		cmp	r3, #0
 3058 01a4 D7D1     		bne	.L469
 3059 01a6 039B     		ldr	r3, [sp, #12]
 3060 01a8 5F89     		ldrh	r7, [r3, #10]
 3061 01aa 013F     		subs	r7, r7, #1
 3062 01ac 17EA5127 		ands	r7, r7, r1, lsr #9
 3063 01b0 7FF457AF 		bne	.L470
 3064 01b4 0029     		cmp	r1, #0
 3065 01b6 7FF442AF 		bne	.L471
 3066 01ba A068     		ldr	r0, [r4, #8]
 3067 01bc 0028     		cmp	r0, #0
 3068 01be 7FF447AF 		bne	.L472
 3069 01c2 2046     		mov	r0, r4
 3070 01c4 FFF7FEFF 		bl	create_chain
 3071 01c8 3FE7     		b	.L473
 3072              	.L499:
 3073 01ca 0123     		movs	r3, #1
 3074 01cc 4A46     		mov	r2, r9
 3075 01ce 04F13001 		add	r1, r4, #48
 3076 01d2 9BF80100 		ldrb	r0, [fp, #1]	@ zero_extendqisi2
 3077 01d6 FFF7FEFF 		bl	disk_read
 3078 01da 0028     		cmp	r0, #0
 3079 01dc B9D0     		beq	.L486
 3080 01de 4FF0010A 		mov	r10, #1
 3081 01e2 84F815A0 		strb	r10, [r4, #21]
 3082 01e6 CDF804A0 		str	r10, [sp, #4]
 3083 01ea 63E7     		b	.L467
 3084              	.L475:
 3085 01ec 237D     		ldrb	r3, [r4, #20]	@ zero_extendqisi2
 3086 01ee 43F04003 		orr	r3, r3, #64
 3087 01f2 2375     		strb	r3, [r4, #20]
 3088 01f4 5EE7     		b	.L467
 3089              	.L490:
 3090 01f6 0723     		movs	r3, #7
 3091 01f8 0193     		str	r3, [sp, #4]
 3092 01fa 5BE7     		b	.L467
 3094              		.section	.text.putc_bfd,"ax",%progbits
 3095              		.align	1
 3096              		.syntax unified
 3097              		.thumb
 3098              		.thumb_func
 3100              	putc_bfd:
 3101              		@ args = 0, pretend = 0, frame = 8
 3102              		@ frame_needed = 0, uses_anonymous_args = 0
 3103 0000 70B5     		push	{r4, r5, r6, lr}
 3104 0002 82B0     		sub	sp, sp, #8
 3105 0004 0446     		mov	r4, r0
ARM GAS  C:\Users\Nathan\AppData\Local\Temp\ccXwghP6.s 			page 54


 3106 0006 0D46     		mov	r5, r1
 3107 0008 0A29     		cmp	r1, #10
 3108 000a 0DD0     		beq	.L507
 3109              	.L501:
 3110 000c 6368     		ldr	r3, [r4, #4]
 3111 000e 002B     		cmp	r3, #0
 3112 0010 08DB     		blt	.L500
 3113 0012 5E1C     		adds	r6, r3, #1
 3114 0014 2344     		add	r3, r3, r4
 3115 0016 1D73     		strb	r5, [r3, #12]
 3116 0018 3C2E     		cmp	r6, #60
 3117 001a 09DC     		bgt	.L508
 3118              	.L504:
 3119 001c 6660     		str	r6, [r4, #4]
 3120 001e A368     		ldr	r3, [r4, #8]
 3121 0020 0133     		adds	r3, r3, #1
 3122 0022 A360     		str	r3, [r4, #8]
 3123              	.L500:
 3124 0024 02B0     		add	sp, sp, #8
 3125              		@ sp needed
 3126 0026 70BD     		pop	{r4, r5, r6, pc}
 3127              	.L507:
 3128 0028 0D21     		movs	r1, #13
 3129 002a FFF7E9FF 		bl	putc_bfd
 3130 002e EDE7     		b	.L501
 3131              	.L508:
 3132 0030 2146     		mov	r1, r4
 3133 0032 51F80C0B 		ldr	r0, [r1], #12
 3134 0036 01AB     		add	r3, sp, #4
 3135 0038 3246     		mov	r2, r6
 3136 003a FFF7FEFF 		bl	f_write
 3137 003e 019B     		ldr	r3, [sp, #4]
 3138 0040 9E42     		cmp	r6, r3
 3139 0042 02D0     		beq	.L509
 3140 0044 4FF0FF36 		mov	r6, #-1
 3141 0048 E8E7     		b	.L504
 3142              	.L509:
 3143 004a 0026     		movs	r6, #0
 3144 004c E6E7     		b	.L504
 3146              		.section	.text.putc_flush,"ax",%progbits
 3147              		.align	1
 3148              		.syntax unified
 3149              		.thumb
 3150              		.thumb_func
 3152              	putc_flush:
 3153              		@ args = 0, pretend = 0, frame = 8
 3154              		@ frame_needed = 0, uses_anonymous_args = 0
 3155 0000 4268     		ldr	r2, [r0, #4]
 3156 0002 002A     		cmp	r2, #0
 3157 0004 10DB     		blt	.L512
 3158 0006 10B5     		push	{r4, lr}
 3159 0008 82B0     		sub	sp, sp, #8
 3160 000a 0446     		mov	r4, r0
 3161 000c 0146     		mov	r1, r0
 3162 000e 51F80C0B 		ldr	r0, [r1], #12
 3163 0012 01AB     		add	r3, sp, #4
 3164 0014 FFF7FEFF 		bl	f_write
ARM GAS  C:\Users\Nathan\AppData\Local\Temp\ccXwghP6.s 			page 55


 3165 0018 48B9     		cbnz	r0, .L513
 3166 001a 6268     		ldr	r2, [r4, #4]
 3167 001c 019B     		ldr	r3, [sp, #4]
 3168 001e 9A42     		cmp	r2, r3
 3169 0020 08D1     		bne	.L514
 3170 0022 A068     		ldr	r0, [r4, #8]
 3171              	.L510:
 3172 0024 02B0     		add	sp, sp, #8
 3173              		@ sp needed
 3174 0026 10BD     		pop	{r4, pc}
 3175              	.L512:
 3176 0028 4FF0FF30 		mov	r0, #-1
 3177 002c 7047     		bx	lr
 3178              	.L513:
 3179 002e 4FF0FF30 		mov	r0, #-1
 3180 0032 F7E7     		b	.L510
 3181              	.L514:
 3182 0034 4FF0FF30 		mov	r0, #-1
 3183 0038 F4E7     		b	.L510
 3185              		.section	.text.f_sync,"ax",%progbits
 3186              		.align	1
 3187              		.global	f_sync
 3188              		.syntax unified
 3189              		.thumb
 3190              		.thumb_func
 3192              	f_sync:
 3193              		@ args = 0, pretend = 0, frame = 8
 3194              		@ frame_needed = 0, uses_anonymous_args = 0
 3195 0000 70B5     		push	{r4, r5, r6, lr}
 3196 0002 82B0     		sub	sp, sp, #8
 3197 0004 0446     		mov	r4, r0
 3198 0006 01A9     		add	r1, sp, #4
 3199 0008 FFF7FEFF 		bl	validate
 3200 000c 70B9     		cbnz	r0, .L520
 3201 000e 237D     		ldrb	r3, [r4, #20]	@ zero_extendqisi2
 3202 0010 13F0400F 		tst	r3, #64
 3203 0014 0AD0     		beq	.L520
 3204 0016 13F0800F 		tst	r3, #128
 3205 001a 09D1     		bne	.L524
 3206              	.L521:
 3207 001c FFF7FEFF 		bl	get_fattime
 3208 0020 0546     		mov	r5, r0
 3209 0022 616A     		ldr	r1, [r4, #36]
 3210 0024 0198     		ldr	r0, [sp, #4]
 3211 0026 FFF7FEFF 		bl	move_window
 3212 002a 78B1     		cbz	r0, .L525
 3213              	.L520:
 3214 002c 02B0     		add	sp, sp, #8
 3215              		@ sp needed
 3216 002e 70BD     		pop	{r4, r5, r6, pc}
 3217              	.L524:
 3218 0030 0123     		movs	r3, #1
 3219 0032 226A     		ldr	r2, [r4, #32]
 3220 0034 04F13001 		add	r1, r4, #48
 3221 0038 0198     		ldr	r0, [sp, #4]
 3222 003a 4078     		ldrb	r0, [r0, #1]	@ zero_extendqisi2
 3223 003c FFF7FEFF 		bl	disk_write
ARM GAS  C:\Users\Nathan\AppData\Local\Temp\ccXwghP6.s 			page 56


 3224 0040 40BB     		cbnz	r0, .L522
 3225 0042 237D     		ldrb	r3, [r4, #20]	@ zero_extendqisi2
 3226 0044 03F07F03 		and	r3, r3, #127
 3227 0048 2375     		strb	r3, [r4, #20]
 3228 004a E7E7     		b	.L521
 3229              	.L525:
 3230 004c A66A     		ldr	r6, [r4, #40]
 3231 004e F37A     		ldrb	r3, [r6, #11]	@ zero_extendqisi2
 3232 0050 43F02003 		orr	r3, r3, #32
 3233 0054 F372     		strb	r3, [r6, #11]
 3234 0056 A268     		ldr	r2, [r4, #8]
 3235 0058 3146     		mov	r1, r6
 3236 005a 2068     		ldr	r0, [r4]
 3237 005c FFF7FEFF 		bl	st_clust
 3238 0060 E168     		ldr	r1, [r4, #12]
 3239 0062 06F11C00 		add	r0, r6, #28
 3240 0066 FFF7FEFF 		bl	st_dword
 3241 006a 2946     		mov	r1, r5
 3242 006c 06F11600 		add	r0, r6, #22
 3243 0070 FFF7FEFF 		bl	st_dword
 3244 0074 0021     		movs	r1, #0
 3245 0076 06F11200 		add	r0, r6, #18
 3246 007a FFF7FEFF 		bl	st_word
 3247 007e 019B     		ldr	r3, [sp, #4]
 3248 0080 0122     		movs	r2, #1
 3249 0082 DA70     		strb	r2, [r3, #3]
 3250 0084 0198     		ldr	r0, [sp, #4]
 3251 0086 FFF7FEFF 		bl	sync_fs
 3252 008a 237D     		ldrb	r3, [r4, #20]	@ zero_extendqisi2
 3253 008c 23F04003 		bic	r3, r3, #64
 3254 0090 2375     		strb	r3, [r4, #20]
 3255 0092 CBE7     		b	.L520
 3256              	.L522:
 3257 0094 0120     		movs	r0, #1
 3258 0096 C9E7     		b	.L520
 3260              		.section	.text.f_close,"ax",%progbits
 3261              		.align	1
 3262              		.global	f_close
 3263              		.syntax unified
 3264              		.thumb
 3265              		.thumb_func
 3267              	f_close:
 3268              		@ args = 0, pretend = 0, frame = 8
 3269              		@ frame_needed = 0, uses_anonymous_args = 0
 3270 0000 10B5     		push	{r4, lr}
 3271 0002 82B0     		sub	sp, sp, #8
 3272 0004 0446     		mov	r4, r0
 3273 0006 FFF7FEFF 		bl	f_sync
 3274 000a 08B1     		cbz	r0, .L529
 3275              	.L527:
 3276 000c 02B0     		add	sp, sp, #8
 3277              		@ sp needed
 3278 000e 10BD     		pop	{r4, pc}
 3279              	.L529:
 3280 0010 01A9     		add	r1, sp, #4
 3281 0012 2046     		mov	r0, r4
 3282 0014 FFF7FEFF 		bl	validate
ARM GAS  C:\Users\Nathan\AppData\Local\Temp\ccXwghP6.s 			page 57


 3283 0018 0028     		cmp	r0, #0
 3284 001a F7D1     		bne	.L527
 3285 001c 2069     		ldr	r0, [r4, #16]
 3286 001e FFF7FEFF 		bl	dec_lock
 3287 0022 0028     		cmp	r0, #0
 3288 0024 F2D1     		bne	.L527
 3289 0026 2060     		str	r0, [r4]
 3290 0028 F0E7     		b	.L527
 3292              		.section	.text.f_lseek,"ax",%progbits
 3293              		.align	1
 3294              		.global	f_lseek
 3295              		.syntax unified
 3296              		.thumb
 3297              		.thumb_func
 3299              	f_lseek:
 3300              		@ args = 0, pretend = 0, frame = 8
 3301              		@ frame_needed = 0, uses_anonymous_args = 0
 3302 0000 2DE9F04F 		push	{r4, r5, r6, r7, r8, r9, r10, fp, lr}
 3303 0004 83B0     		sub	sp, sp, #12
 3304 0006 0446     		mov	r4, r0
 3305 0008 0D46     		mov	r5, r1
 3306 000a 01A9     		add	r1, sp, #4
 3307 000c FFF7FEFF 		bl	validate
 3308 0010 0646     		mov	r6, r0
 3309 0012 78B9     		cbnz	r0, .L533
 3310 0014 667D     		ldrb	r6, [r4, #21]	@ zero_extendqisi2
 3311 0016 6EB9     		cbnz	r6, .L533
 3312 0018 E36A     		ldr	r3, [r4, #44]
 3313 001a 002B     		cmp	r3, #0
 3314 001c 00F08980 		beq	.L534
 3315 0020 B5F1FF3F 		cmp	r5, #-1
 3316 0024 0AD0     		beq	.L574
 3317 0026 E768     		ldr	r7, [r4, #12]
 3318 0028 AF42     		cmp	r7, r5
 3319 002a 00D3     		bcc	.L542
 3320 002c 2F46     		mov	r7, r5
 3321              	.L542:
 3322 002e A761     		str	r7, [r4, #24]
 3323 0030 002F     		cmp	r7, #0
 3324 0032 3FD1     		bne	.L575
 3325              	.L533:
 3326 0034 3046     		mov	r0, r6
 3327 0036 03B0     		add	sp, sp, #12
 3328              		@ sp needed
 3329 0038 BDE8F08F 		pop	{r4, r5, r6, r7, r8, r9, r10, fp, pc}
 3330              	.L574:
 3331 003c 9846     		mov	r8, r3
 3332 003e 58F804BB 		ldr	fp, [r8], #4
 3333 0042 D4F808A0 		ldr	r10, [r4, #8]
 3334 0046 BAF1000F 		cmp	r10, #0
 3335 004a 27D0     		beq	.L567
 3336 004c 4FF00209 		mov	r9, #2
 3337              	.L541:
 3338 0050 09F10209 		add	r9, r9, #2
 3339 0054 5146     		mov	r1, r10
 3340 0056 0027     		movs	r7, #0
 3341              	.L539:
ARM GAS  C:\Users\Nathan\AppData\Local\Temp\ccXwghP6.s 			page 58


 3342 0058 0137     		adds	r7, r7, #1
 3343 005a 0D46     		mov	r5, r1
 3344 005c 2046     		mov	r0, r4
 3345 005e FFF7FEFF 		bl	get_fat
 3346 0062 0146     		mov	r1, r0
 3347 0064 0128     		cmp	r0, #1
 3348 0066 13D9     		bls	.L576
 3349 0068 B0F1FF3F 		cmp	r0, #-1
 3350 006c 13D0     		beq	.L577
 3351 006e 0135     		adds	r5, r5, #1
 3352 0070 8542     		cmp	r5, r0
 3353 0072 F1D0     		beq	.L539
 3354 0074 CB45     		cmp	fp, r9
 3355 0076 05D3     		bcc	.L540
 3356 0078 4346     		mov	r3, r8
 3357 007a 43F8087B 		str	r7, [r3], #8
 3358 007e C8F804A0 		str	r10, [r8, #4]
 3359 0082 9846     		mov	r8, r3
 3360              	.L540:
 3361 0084 019B     		ldr	r3, [sp, #4]
 3362 0086 5B69     		ldr	r3, [r3, #20]
 3363 0088 8B42     		cmp	r3, r1
 3364 008a 09D9     		bls	.L536
 3365 008c 8A46     		mov	r10, r1
 3366 008e DFE7     		b	.L541
 3367              	.L576:
 3368 0090 0226     		movs	r6, #2
 3369 0092 6675     		strb	r6, [r4, #21]
 3370 0094 CEE7     		b	.L533
 3371              	.L577:
 3372 0096 0126     		movs	r6, #1
 3373 0098 6675     		strb	r6, [r4, #21]
 3374 009a CBE7     		b	.L533
 3375              	.L567:
 3376 009c 4FF00209 		mov	r9, #2
 3377              	.L536:
 3378 00a0 E36A     		ldr	r3, [r4, #44]
 3379 00a2 C3F80090 		str	r9, [r3]
 3380 00a6 D945     		cmp	r9, fp
 3381 00a8 00F2EC80 		bhi	.L569
 3382 00ac 0023     		movs	r3, #0
 3383 00ae C8F80030 		str	r3, [r8]
 3384 00b2 BFE7     		b	.L533
 3385              	.L575:
 3386 00b4 07F1FF38 		add	r8, r7, #-1
 3387 00b8 4146     		mov	r1, r8
 3388 00ba 2046     		mov	r0, r4
 3389 00bc FFF7FEFF 		bl	clmt_clust
 3390 00c0 0146     		mov	r1, r0
 3391 00c2 E061     		str	r0, [r4, #28]
 3392 00c4 019D     		ldr	r5, [sp, #4]
 3393 00c6 2846     		mov	r0, r5
 3394 00c8 FFF7FEFF 		bl	clust2sect
 3395 00cc E0B1     		cbz	r0, .L578
 3396 00ce 6989     		ldrh	r1, [r5, #10]
 3397 00d0 0139     		subs	r1, r1, #1
 3398 00d2 01EA5821 		and	r1, r1, r8, lsr #9
ARM GAS  C:\Users\Nathan\AppData\Local\Temp\ccXwghP6.s 			page 59


 3399 00d6 01EB0008 		add	r8, r1, r0
 3400 00da C7F30807 		ubfx	r7, r7, #0, #9
 3401 00de 002F     		cmp	r7, #0
 3402 00e0 A8D0     		beq	.L533
 3403 00e2 226A     		ldr	r2, [r4, #32]
 3404 00e4 4245     		cmp	r2, r8
 3405 00e6 A5D0     		beq	.L533
 3406 00e8 94F91430 		ldrsb	r3, [r4, #20]
 3407 00ec 002B     		cmp	r3, #0
 3408 00ee 0EDB     		blt	.L579
 3409              	.L544:
 3410 00f0 0123     		movs	r3, #1
 3411 00f2 4246     		mov	r2, r8
 3412 00f4 04F13001 		add	r1, r4, #48
 3413 00f8 0198     		ldr	r0, [sp, #4]
 3414 00fa 4078     		ldrb	r0, [r0, #1]	@ zero_extendqisi2
 3415 00fc FFF7FEFF 		bl	disk_read
 3416 0100 A0B9     		cbnz	r0, .L580
 3417 0102 C4F82080 		str	r8, [r4, #32]
 3418 0106 95E7     		b	.L533
 3419              	.L578:
 3420 0108 0226     		movs	r6, #2
 3421 010a 6675     		strb	r6, [r4, #21]
 3422 010c 92E7     		b	.L533
 3423              	.L579:
 3424 010e 0123     		movs	r3, #1
 3425 0110 04F13001 		add	r1, r4, #48
 3426 0114 6878     		ldrb	r0, [r5, #1]	@ zero_extendqisi2
 3427 0116 FFF7FEFF 		bl	disk_write
 3428 011a 20B9     		cbnz	r0, .L581
 3429 011c 237D     		ldrb	r3, [r4, #20]	@ zero_extendqisi2
 3430 011e 03F07F03 		and	r3, r3, #127
 3431 0122 2375     		strb	r3, [r4, #20]
 3432 0124 E4E7     		b	.L544
 3433              	.L581:
 3434 0126 0126     		movs	r6, #1
 3435 0128 6675     		strb	r6, [r4, #21]
 3436 012a 83E7     		b	.L533
 3437              	.L580:
 3438 012c 0126     		movs	r6, #1
 3439 012e 6675     		strb	r6, [r4, #21]
 3440 0130 80E7     		b	.L533
 3441              	.L534:
 3442 0132 E368     		ldr	r3, [r4, #12]
 3443 0134 AB42     		cmp	r3, r5
 3444 0136 04D2     		bcs	.L547
 3445 0138 227D     		ldrb	r2, [r4, #20]	@ zero_extendqisi2
 3446 013a 12F0020F 		tst	r2, #2
 3447 013e 00D1     		bne	.L547
 3448 0140 1D46     		mov	r5, r3
 3449              	.L547:
 3450 0142 A369     		ldr	r3, [r4, #24]
 3451 0144 0022     		movs	r2, #0
 3452 0146 A261     		str	r2, [r4, #24]
 3453 0148 DDB1     		cbz	r5, .L548
 3454 014a 019A     		ldr	r2, [sp, #4]
 3455 014c B2F80A80 		ldrh	r8, [r2, #10]
ARM GAS  C:\Users\Nathan\AppData\Local\Temp\ccXwghP6.s 			page 60


 3456 0150 4FEA4828 		lsl	r8, r8, #9
 3457 0154 73B1     		cbz	r3, .L549
 3458 0156 6A1E     		subs	r2, r5, #1
 3459 0158 B2FBF8F2 		udiv	r2, r2, r8
 3460 015c 013B     		subs	r3, r3, #1
 3461 015e B3FBF8F1 		udiv	r1, r3, r8
 3462 0162 8A42     		cmp	r2, r1
 3463 0164 06D3     		bcc	.L549
 3464 0166 C8F10002 		rsb	r2, r8, #0
 3465 016a 1340     		ands	r3, r3, r2
 3466 016c A361     		str	r3, [r4, #24]
 3467 016e EF1A     		subs	r7, r5, r3
 3468 0170 E569     		ldr	r5, [r4, #28]
 3469 0172 04E0     		b	.L550
 3470              	.L549:
 3471 0174 A068     		ldr	r0, [r4, #8]
 3472 0176 30B3     		cbz	r0, .L582
 3473              	.L551:
 3474 0178 E061     		str	r0, [r4, #28]
 3475 017a 2F46     		mov	r7, r5
 3476 017c 0546     		mov	r5, r0
 3477              	.L550:
 3478 017e 002D     		cmp	r5, #0
 3479 0180 41D1     		bne	.L554
 3480              	.L548:
 3481 0182 A369     		ldr	r3, [r4, #24]
 3482 0184 E268     		ldr	r2, [r4, #12]
 3483 0186 9342     		cmp	r3, r2
 3484 0188 04D9     		bls	.L563
 3485 018a E360     		str	r3, [r4, #12]
 3486 018c 227D     		ldrb	r2, [r4, #20]	@ zero_extendqisi2
 3487 018e 42F04002 		orr	r2, r2, #64
 3488 0192 2275     		strb	r2, [r4, #20]
 3489              	.L563:
 3490 0194 C3F30803 		ubfx	r3, r3, #0, #9
 3491 0198 002B     		cmp	r3, #0
 3492 019a 3FF44BAF 		beq	.L533
 3493 019e 226A     		ldr	r2, [r4, #32]
 3494 01a0 AA42     		cmp	r2, r5
 3495 01a2 3FF447AF 		beq	.L533
 3496 01a6 94F91430 		ldrsb	r3, [r4, #20]
 3497 01aa 002B     		cmp	r3, #0
 3498 01ac 57DB     		blt	.L583
 3499              	.L564:
 3500 01ae 0123     		movs	r3, #1
 3501 01b0 2A46     		mov	r2, r5
 3502 01b2 04F13001 		add	r1, r4, #48
 3503 01b6 0198     		ldr	r0, [sp, #4]
 3504 01b8 4078     		ldrb	r0, [r0, #1]	@ zero_extendqisi2
 3505 01ba FFF7FEFF 		bl	disk_read
 3506 01be 0028     		cmp	r0, #0
 3507 01c0 5DD1     		bne	.L584
 3508 01c2 2562     		str	r5, [r4, #32]
 3509 01c4 36E7     		b	.L533
 3510              	.L582:
 3511 01c6 0021     		movs	r1, #0
 3512 01c8 2046     		mov	r0, r4
ARM GAS  C:\Users\Nathan\AppData\Local\Temp\ccXwghP6.s 			page 61


 3513 01ca FFF7FEFF 		bl	create_chain
 3514 01ce 0128     		cmp	r0, #1
 3515 01d0 04D0     		beq	.L585
 3516 01d2 B0F1FF3F 		cmp	r0, #-1
 3517 01d6 04D0     		beq	.L586
 3518 01d8 A060     		str	r0, [r4, #8]
 3519 01da CDE7     		b	.L551
 3520              	.L585:
 3521 01dc 0226     		movs	r6, #2
 3522 01de 6675     		strb	r6, [r4, #21]
 3523 01e0 28E7     		b	.L533
 3524              	.L586:
 3525 01e2 0126     		movs	r6, #1
 3526 01e4 6675     		strb	r6, [r4, #21]
 3527 01e6 25E7     		b	.L533
 3528              	.L555:
 3529 01e8 2946     		mov	r1, r5
 3530 01ea 2046     		mov	r0, r4
 3531 01ec FFF7FEFF 		bl	get_fat
 3532 01f0 0546     		mov	r5, r0
 3533              	.L557:
 3534 01f2 B5F1FF3F 		cmp	r5, #-1
 3535 01f6 27D0     		beq	.L587
 3536 01f8 012D     		cmp	r5, #1
 3537 01fa 28D9     		bls	.L559
 3538 01fc 019B     		ldr	r3, [sp, #4]
 3539 01fe 5B69     		ldr	r3, [r3, #20]
 3540 0200 AB42     		cmp	r3, r5
 3541 0202 24D9     		bls	.L559
 3542 0204 E561     		str	r5, [r4, #28]
 3543              	.L554:
 3544 0206 4745     		cmp	r7, r8
 3545 0208 10D9     		bls	.L556
 3546 020a A7EB0807 		sub	r7, r7, r8
 3547 020e A369     		ldr	r3, [r4, #24]
 3548 0210 4344     		add	r3, r3, r8
 3549 0212 A361     		str	r3, [r4, #24]
 3550 0214 237D     		ldrb	r3, [r4, #20]	@ zero_extendqisi2
 3551 0216 13F0020F 		tst	r3, #2
 3552 021a E5D0     		beq	.L555
 3553 021c 2946     		mov	r1, r5
 3554 021e 2046     		mov	r0, r4
 3555 0220 FFF7FEFF 		bl	create_chain
 3556 0224 0546     		mov	r5, r0
 3557 0226 0028     		cmp	r0, #0
 3558 0228 E3D1     		bne	.L557
 3559 022a 0746     		mov	r7, r0
 3560              	.L556:
 3561 022c A369     		ldr	r3, [r4, #24]
 3562 022e 3B44     		add	r3, r3, r7
 3563 0230 A361     		str	r3, [r4, #24]
 3564 0232 C7F30803 		ubfx	r3, r7, #0, #9
 3565 0236 83B1     		cbz	r3, .L572
 3566 0238 2946     		mov	r1, r5
 3567 023a 0198     		ldr	r0, [sp, #4]
 3568 023c FFF7FEFF 		bl	clust2sect
 3569 0240 40B1     		cbz	r0, .L588
ARM GAS  C:\Users\Nathan\AppData\Local\Temp\ccXwghP6.s 			page 62


 3570 0242 00EB5725 		add	r5, r0, r7, lsr #9
 3571 0246 9CE7     		b	.L548
 3572              	.L587:
 3573 0248 0126     		movs	r6, #1
 3574 024a 6675     		strb	r6, [r4, #21]
 3575 024c F2E6     		b	.L533
 3576              	.L559:
 3577 024e 0226     		movs	r6, #2
 3578 0250 6675     		strb	r6, [r4, #21]
 3579 0252 EFE6     		b	.L533
 3580              	.L588:
 3581 0254 0226     		movs	r6, #2
 3582 0256 6675     		strb	r6, [r4, #21]
 3583 0258 ECE6     		b	.L533
 3584              	.L572:
 3585 025a 1D46     		mov	r5, r3
 3586 025c 91E7     		b	.L548
 3587              	.L583:
 3588 025e 0123     		movs	r3, #1
 3589 0260 04F13001 		add	r1, r4, #48
 3590 0264 0198     		ldr	r0, [sp, #4]
 3591 0266 4078     		ldrb	r0, [r0, #1]	@ zero_extendqisi2
 3592 0268 FFF7FEFF 		bl	disk_write
 3593 026c 20B9     		cbnz	r0, .L589
 3594 026e 237D     		ldrb	r3, [r4, #20]	@ zero_extendqisi2
 3595 0270 03F07F03 		and	r3, r3, #127
 3596 0274 2375     		strb	r3, [r4, #20]
 3597 0276 9AE7     		b	.L564
 3598              	.L589:
 3599 0278 0126     		movs	r6, #1
 3600 027a 6675     		strb	r6, [r4, #21]
 3601 027c DAE6     		b	.L533
 3602              	.L584:
 3603 027e 0126     		movs	r6, #1
 3604 0280 6675     		strb	r6, [r4, #21]
 3605 0282 D7E6     		b	.L533
 3606              	.L569:
 3607 0284 1126     		movs	r6, #17
 3608 0286 D5E6     		b	.L533
 3610              		.section	.text.f_opendir,"ax",%progbits
 3611              		.align	1
 3612              		.global	f_opendir
 3613              		.syntax unified
 3614              		.thumb
 3615              		.thumb_func
 3617              	f_opendir:
 3618              		@ args = 0, pretend = 0, frame = 16
 3619              		@ frame_needed = 0, uses_anonymous_args = 0
 3620 0000 30B5     		push	{r4, r5, lr}
 3621 0002 85B0     		sub	sp, sp, #20
 3622 0004 0191     		str	r1, [sp, #4]
 3623 0006 0028     		cmp	r0, #0
 3624 0008 3FD0     		beq	.L597
 3625 000a 0546     		mov	r5, r0
 3626 000c 0022     		movs	r2, #0
 3627 000e 03A9     		add	r1, sp, #12
 3628 0010 01A8     		add	r0, sp, #4
ARM GAS  C:\Users\Nathan\AppData\Local\Temp\ccXwghP6.s 			page 63


 3629 0012 FFF7FEFF 		bl	find_volume
 3630 0016 0446     		mov	r4, r0
 3631 0018 20B1     		cbz	r0, .L602
 3632              	.L592:
 3633 001a 0023     		movs	r3, #0
 3634 001c 2B60     		str	r3, [r5]
 3635              	.L591:
 3636 001e 2046     		mov	r0, r4
 3637 0020 05B0     		add	sp, sp, #20
 3638              		@ sp needed
 3639 0022 30BD     		pop	{r4, r5, pc}
 3640              	.L602:
 3641 0024 039B     		ldr	r3, [sp, #12]
 3642 0026 2B60     		str	r3, [r5]
 3643 0028 0199     		ldr	r1, [sp, #4]
 3644 002a 2846     		mov	r0, r5
 3645 002c FFF7FEFF 		bl	follow_path
 3646 0030 0446     		mov	r4, r0
 3647 0032 18BB     		cbnz	r0, .L593
 3648 0034 95F92F30 		ldrsb	r3, [r5, #47]
 3649 0038 002B     		cmp	r3, #0
 3650 003a 08DB     		blt	.L594
 3651 003c AB79     		ldrb	r3, [r5, #6]	@ zero_extendqisi2
 3652 003e 13F0100F 		tst	r3, #16
 3653 0042 1AD0     		beq	.L598
 3654 0044 296A     		ldr	r1, [r5, #32]
 3655 0046 0398     		ldr	r0, [sp, #12]
 3656 0048 FFF7FEFF 		bl	ld_clust
 3657 004c A860     		str	r0, [r5, #8]
 3658              	.L594:
 3659 004e 039B     		ldr	r3, [sp, #12]
 3660 0050 DB88     		ldrh	r3, [r3, #6]
 3661 0052 AB80     		strh	r3, [r5, #4]	@ movhi
 3662 0054 0021     		movs	r1, #0
 3663 0056 2846     		mov	r0, r5
 3664 0058 FFF7FEFF 		bl	dir_sdi
 3665 005c 0446     		mov	r4, r0
 3666 005e 68B9     		cbnz	r0, .L593
 3667 0060 AB68     		ldr	r3, [r5, #8]
 3668 0062 13B9     		cbnz	r3, .L603
 3669 0064 0023     		movs	r3, #0
 3670 0066 2B61     		str	r3, [r5, #16]
 3671 0068 08E0     		b	.L593
 3672              	.L603:
 3673 006a 0021     		movs	r1, #0
 3674 006c 2846     		mov	r0, r5
 3675 006e FFF7FEFF 		bl	inc_lock
 3676 0072 2861     		str	r0, [r5, #16]
 3677 0074 10B9     		cbnz	r0, .L593
 3678 0076 1224     		movs	r4, #18
 3679 0078 02E0     		b	.L596
 3680              	.L598:
 3681 007a 0524     		movs	r4, #5
 3682              	.L593:
 3683 007c 042C     		cmp	r4, #4
 3684 007e 02D0     		beq	.L604
 3685              	.L596:
ARM GAS  C:\Users\Nathan\AppData\Local\Temp\ccXwghP6.s 			page 64


 3686 0080 002C     		cmp	r4, #0
 3687 0082 CCD0     		beq	.L591
 3688 0084 C9E7     		b	.L592
 3689              	.L604:
 3690 0086 0524     		movs	r4, #5
 3691 0088 C7E7     		b	.L592
 3692              	.L597:
 3693 008a 0924     		movs	r4, #9
 3694 008c C7E7     		b	.L591
 3696              		.section	.text.f_closedir,"ax",%progbits
 3697              		.align	1
 3698              		.global	f_closedir
 3699              		.syntax unified
 3700              		.thumb
 3701              		.thumb_func
 3703              	f_closedir:
 3704              		@ args = 0, pretend = 0, frame = 8
 3705              		@ frame_needed = 0, uses_anonymous_args = 0
 3706 0000 10B5     		push	{r4, lr}
 3707 0002 82B0     		sub	sp, sp, #8
 3708 0004 0446     		mov	r4, r0
 3709 0006 01A9     		add	r1, sp, #4
 3710 0008 FFF7FEFF 		bl	validate
 3711 000c 20B9     		cbnz	r0, .L606
 3712 000e 2369     		ldr	r3, [r4, #16]
 3713 0010 23B9     		cbnz	r3, .L609
 3714              	.L607:
 3715 0012 08B9     		cbnz	r0, .L606
 3716 0014 0023     		movs	r3, #0
 3717 0016 2360     		str	r3, [r4]
 3718              	.L606:
 3719 0018 02B0     		add	sp, sp, #8
 3720              		@ sp needed
 3721 001a 10BD     		pop	{r4, pc}
 3722              	.L609:
 3723 001c 1846     		mov	r0, r3
 3724 001e FFF7FEFF 		bl	dec_lock
 3725 0022 F6E7     		b	.L607
 3727              		.section	.text.f_readdir,"ax",%progbits
 3728              		.align	1
 3729              		.global	f_readdir
 3730              		.syntax unified
 3731              		.thumb
 3732              		.thumb_func
 3734              	f_readdir:
 3735              		@ args = 0, pretend = 0, frame = 8
 3736              		@ frame_needed = 0, uses_anonymous_args = 0
 3737 0000 70B5     		push	{r4, r5, r6, lr}
 3738 0002 82B0     		sub	sp, sp, #8
 3739 0004 0446     		mov	r4, r0
 3740 0006 0D46     		mov	r5, r1
 3741 0008 01A9     		add	r1, sp, #4
 3742 000a FFF7FEFF 		bl	validate
 3743 000e 0646     		mov	r6, r0
 3744 0010 C0B9     		cbnz	r0, .L611
 3745 0012 95B1     		cbz	r5, .L616
 3746 0014 0021     		movs	r1, #0
ARM GAS  C:\Users\Nathan\AppData\Local\Temp\ccXwghP6.s 			page 65


 3747 0016 2046     		mov	r0, r4
 3748 0018 FFF7FEFF 		bl	dir_read
 3749 001c 0428     		cmp	r0, #4
 3750 001e 00D0     		beq	.L613
 3751 0020 98B9     		cbnz	r0, .L614
 3752              	.L613:
 3753 0022 2946     		mov	r1, r5
 3754 0024 2046     		mov	r0, r4
 3755 0026 FFF7FEFF 		bl	get_fileinfo
 3756 002a 0021     		movs	r1, #0
 3757 002c 2046     		mov	r0, r4
 3758 002e FFF7FEFF 		bl	dir_next
 3759 0032 0428     		cmp	r0, #4
 3760 0034 06D0     		beq	.L611
 3761 0036 0646     		mov	r6, r0
 3762 0038 04E0     		b	.L611
 3763              	.L616:
 3764 003a 0021     		movs	r1, #0
 3765 003c 2046     		mov	r0, r4
 3766 003e FFF7FEFF 		bl	dir_sdi
 3767 0042 0646     		mov	r6, r0
 3768              	.L611:
 3769 0044 3046     		mov	r0, r6
 3770 0046 02B0     		add	sp, sp, #8
 3771              		@ sp needed
 3772 0048 70BD     		pop	{r4, r5, r6, pc}
 3773              	.L614:
 3774 004a 0646     		mov	r6, r0
 3775 004c FAE7     		b	.L611
 3777              		.section	.text.f_stat,"ax",%progbits
 3778              		.align	1
 3779              		.global	f_stat
 3780              		.syntax unified
 3781              		.thumb
 3782              		.thumb_func
 3784              	f_stat:
 3785              		@ args = 0, pretend = 0, frame = 56
 3786              		@ frame_needed = 0, uses_anonymous_args = 0
 3787 0000 30B5     		push	{r4, r5, lr}
 3788 0002 8FB0     		sub	sp, sp, #60
 3789 0004 0190     		str	r0, [sp, #4]
 3790 0006 0C46     		mov	r4, r1
 3791 0008 0022     		movs	r2, #0
 3792 000a 02A9     		add	r1, sp, #8
 3793 000c 01A8     		add	r0, sp, #4
 3794 000e FFF7FEFF 		bl	find_volume
 3795 0012 0546     		mov	r5, r0
 3796 0014 10B1     		cbz	r0, .L621
 3797              	.L618:
 3798 0016 2846     		mov	r0, r5
 3799 0018 0FB0     		add	sp, sp, #60
 3800              		@ sp needed
 3801 001a 30BD     		pop	{r4, r5, pc}
 3802              	.L621:
 3803 001c 0199     		ldr	r1, [sp, #4]
 3804 001e 02A8     		add	r0, sp, #8
 3805 0020 FFF7FEFF 		bl	follow_path
ARM GAS  C:\Users\Nathan\AppData\Local\Temp\ccXwghP6.s 			page 66


 3806 0024 0546     		mov	r5, r0
 3807 0026 0028     		cmp	r0, #0
 3808 0028 F5D1     		bne	.L618
 3809 002a 9DF93730 		ldrsb	r3, [sp, #55]
 3810 002e 002B     		cmp	r3, #0
 3811 0030 06DB     		blt	.L619
 3812 0032 002C     		cmp	r4, #0
 3813 0034 EFD0     		beq	.L618
 3814 0036 2146     		mov	r1, r4
 3815 0038 02A8     		add	r0, sp, #8
 3816 003a FFF7FEFF 		bl	get_fileinfo
 3817 003e EAE7     		b	.L618
 3818              	.L619:
 3819 0040 0625     		movs	r5, #6
 3820 0042 E8E7     		b	.L618
 3822              		.section	.text.f_getfree,"ax",%progbits
 3823              		.align	1
 3824              		.global	f_getfree
 3825              		.syntax unified
 3826              		.thumb
 3827              		.thumb_func
 3829              	f_getfree:
 3830              		@ args = 0, pretend = 0, frame = 32
 3831              		@ frame_needed = 0, uses_anonymous_args = 0
 3832 0000 2DE9F047 		push	{r4, r5, r6, r7, r8, r9, r10, lr}
 3833 0004 88B0     		sub	sp, sp, #32
 3834 0006 0190     		str	r0, [sp, #4]
 3835 0008 8846     		mov	r8, r1
 3836 000a 1446     		mov	r4, r2
 3837 000c 0022     		movs	r2, #0
 3838 000e 07A9     		add	r1, sp, #28
 3839 0010 01A8     		add	r0, sp, #4
 3840 0012 FFF7FEFF 		bl	find_volume
 3841 0016 8146     		mov	r9, r0
 3842 0018 0028     		cmp	r0, #0
 3843 001a 59D1     		bne	.L623
 3844 001c 079B     		ldr	r3, [sp, #28]
 3845 001e 2360     		str	r3, [r4]
 3846 0020 1A69     		ldr	r2, [r3, #16]
 3847 0022 5D69     		ldr	r5, [r3, #20]
 3848 0024 A91E     		subs	r1, r5, #2
 3849 0026 8A42     		cmp	r2, r1
 3850 0028 02D8     		bhi	.L624
 3851 002a C8F80020 		str	r2, [r8]
 3852 002e 4FE0     		b	.L623
 3853              	.L624:
 3854 0030 1E78     		ldrb	r6, [r3]	@ zero_extendqisi2
 3855 0032 012E     		cmp	r6, #1
 3856 0034 05D0     		beq	.L638
 3857 0036 D3F820A0 		ldr	r10, [r3, #32]
 3858 003a 0024     		movs	r4, #0
 3859 003c 2646     		mov	r6, r4
 3860 003e 2746     		mov	r7, r4
 3861 0040 2FE0     		b	.L634
 3862              	.L638:
 3863 0042 0293     		str	r3, [sp, #8]
 3864 0044 0224     		movs	r4, #2
ARM GAS  C:\Users\Nathan\AppData\Local\Temp\ccXwghP6.s 			page 67


 3865 0046 0027     		movs	r7, #0
 3866 0048 04E0     		b	.L628
 3867              	.L627:
 3868 004a 0134     		adds	r4, r4, #1
 3869 004c 079B     		ldr	r3, [sp, #28]
 3870 004e 5B69     		ldr	r3, [r3, #20]
 3871 0050 A342     		cmp	r3, r4
 3872 0052 35D9     		bls	.L626
 3873              	.L628:
 3874 0054 2146     		mov	r1, r4
 3875 0056 02A8     		add	r0, sp, #8
 3876 0058 FFF7FEFF 		bl	get_fat
 3877 005c B0F1FF3F 		cmp	r0, #-1
 3878 0060 2DD0     		beq	.L635
 3879 0062 0128     		cmp	r0, #1
 3880 0064 38D0     		beq	.L636
 3881 0066 0028     		cmp	r0, #0
 3882 0068 EFD1     		bne	.L627
 3883 006a 0137     		adds	r7, r7, #1
 3884 006c EDE7     		b	.L627
 3885              	.L639:
 3886 006e 0AF10106 		add	r6, r10, #1
 3887 0072 5146     		mov	r1, r10
 3888 0074 0798     		ldr	r0, [sp, #28]
 3889 0076 FFF7FEFF 		bl	move_window
 3890 007a 8146     		mov	r9, r0
 3891 007c 00BB     		cbnz	r0, .L626
 3892 007e 079C     		ldr	r4, [sp, #28]
 3893 0080 3034     		adds	r4, r4, #48
 3894 0082 B246     		mov	r10, r6
 3895 0084 4FF40076 		mov	r6, #512
 3896 0088 0DE0     		b	.L629
 3897              	.L640:
 3898 008a 2046     		mov	r0, r4
 3899 008c FFF7FEFF 		bl	ld_word
 3900 0090 00B9     		cbnz	r0, .L631
 3901 0092 0137     		adds	r7, r7, #1
 3902              	.L631:
 3903 0094 0234     		adds	r4, r4, #2
 3904 0096 023E     		subs	r6, r6, #2
 3905 0098 01E0     		b	.L632
 3906              	.L633:
 3907 009a 0434     		adds	r4, r4, #4
 3908 009c 043E     		subs	r6, r6, #4
 3909              	.L632:
 3910 009e 013D     		subs	r5, r5, #1
 3911 00a0 0ED0     		beq	.L626
 3912              	.L634:
 3913 00a2 002E     		cmp	r6, #0
 3914 00a4 E3D0     		beq	.L639
 3915              	.L629:
 3916 00a6 079B     		ldr	r3, [sp, #28]
 3917 00a8 1B78     		ldrb	r3, [r3]	@ zero_extendqisi2
 3918 00aa 022B     		cmp	r3, #2
 3919 00ac EDD0     		beq	.L640
 3920 00ae 2046     		mov	r0, r4
 3921 00b0 FFF7FEFF 		bl	ld_dword
ARM GAS  C:\Users\Nathan\AppData\Local\Temp\ccXwghP6.s 			page 68


 3922 00b4 30F07043 		bics	r3, r0, #-268435456
 3923 00b8 EFD1     		bne	.L633
 3924 00ba 0137     		adds	r7, r7, #1
 3925 00bc EDE7     		b	.L633
 3926              	.L635:
 3927 00be B146     		mov	r9, r6
 3928              	.L626:
 3929 00c0 C8F80070 		str	r7, [r8]
 3930 00c4 079B     		ldr	r3, [sp, #28]
 3931 00c6 1F61     		str	r7, [r3, #16]
 3932 00c8 1A79     		ldrb	r2, [r3, #4]	@ zero_extendqisi2
 3933 00ca 42F00102 		orr	r2, r2, #1
 3934 00ce 1A71     		strb	r2, [r3, #4]
 3935              	.L623:
 3936 00d0 4846     		mov	r0, r9
 3937 00d2 08B0     		add	sp, sp, #32
 3938              		@ sp needed
 3939 00d4 BDE8F087 		pop	{r4, r5, r6, r7, r8, r9, r10, pc}
 3940              	.L636:
 3941 00d8 4FF00209 		mov	r9, #2
 3942 00dc F0E7     		b	.L626
 3944              		.section	.text.f_truncate,"ax",%progbits
 3945              		.align	1
 3946              		.global	f_truncate
 3947              		.syntax unified
 3948              		.thumb
 3949              		.thumb_func
 3951              	f_truncate:
 3952              		@ args = 0, pretend = 0, frame = 8
 3953              		@ frame_needed = 0, uses_anonymous_args = 0
 3954 0000 30B5     		push	{r4, r5, lr}
 3955 0002 83B0     		sub	sp, sp, #12
 3956 0004 0446     		mov	r4, r0
 3957 0006 01A9     		add	r1, sp, #4
 3958 0008 FFF7FEFF 		bl	validate
 3959 000c 0546     		mov	r5, r0
 3960 000e 0028     		cmp	r0, #0
 3961 0010 49D1     		bne	.L644
 3962 0012 657D     		ldrb	r5, [r4, #21]	@ zero_extendqisi2
 3963 0014 002D     		cmp	r5, #0
 3964 0016 46D1     		bne	.L644
 3965 0018 237D     		ldrb	r3, [r4, #20]	@ zero_extendqisi2
 3966 001a 13F0020F 		tst	r3, #2
 3967 001e 41D0     		beq	.L649
 3968 0020 A369     		ldr	r3, [r4, #24]
 3969 0022 E268     		ldr	r2, [r4, #12]
 3970 0024 9342     		cmp	r3, r2
 3971 0026 3ED2     		bcs	.L644
 3972 0028 FBB9     		cbnz	r3, .L645
 3973 002a 0022     		movs	r2, #0
 3974 002c A168     		ldr	r1, [r4, #8]
 3975 002e 2046     		mov	r0, r4
 3976 0030 FFF7FEFF 		bl	remove_chain
 3977 0034 0546     		mov	r5, r0
 3978 0036 0023     		movs	r3, #0
 3979 0038 A360     		str	r3, [r4, #8]
 3980              	.L646:
ARM GAS  C:\Users\Nathan\AppData\Local\Temp\ccXwghP6.s 			page 69


 3981 003a A369     		ldr	r3, [r4, #24]
 3982 003c E360     		str	r3, [r4, #12]
 3983 003e 237D     		ldrb	r3, [r4, #20]	@ zero_extendqisi2
 3984 0040 43F04003 		orr	r3, r3, #64
 3985 0044 2375     		strb	r3, [r4, #20]
 3986 0046 5DBB     		cbnz	r5, .L648
 3987 0048 13F0800F 		tst	r3, #128
 3988 004c 2BD0     		beq	.L644
 3989 004e 0123     		movs	r3, #1
 3990 0050 226A     		ldr	r2, [r4, #32]
 3991 0052 04F13001 		add	r1, r4, #48
 3992 0056 0198     		ldr	r0, [sp, #4]
 3993 0058 4078     		ldrb	r0, [r0, #1]	@ zero_extendqisi2
 3994 005a FFF7FEFF 		bl	disk_write
 3995 005e F0B9     		cbnz	r0, .L652
 3996 0060 237D     		ldrb	r3, [r4, #20]	@ zero_extendqisi2
 3997 0062 03F07F03 		and	r3, r3, #127
 3998 0066 2375     		strb	r3, [r4, #20]
 3999 0068 1DE0     		b	.L644
 4000              	.L645:
 4001 006a E169     		ldr	r1, [r4, #28]
 4002 006c 2046     		mov	r0, r4
 4003 006e FFF7FEFF 		bl	get_fat
 4004 0072 B0F1FF3F 		cmp	r0, #-1
 4005 0076 0ED0     		beq	.L650
 4006 0078 0128     		cmp	r0, #1
 4007 007a 0ED0     		beq	.L654
 4008              	.L647:
 4009 007c 002D     		cmp	r5, #0
 4010 007e DCD1     		bne	.L646
 4011 0080 019B     		ldr	r3, [sp, #4]
 4012 0082 5B69     		ldr	r3, [r3, #20]
 4013 0084 8342     		cmp	r3, r0
 4014 0086 D8D9     		bls	.L646
 4015 0088 E269     		ldr	r2, [r4, #28]
 4016 008a 0146     		mov	r1, r0
 4017 008c 2046     		mov	r0, r4
 4018 008e FFF7FEFF 		bl	remove_chain
 4019 0092 0546     		mov	r5, r0
 4020 0094 D1E7     		b	.L646
 4021              	.L650:
 4022 0096 0125     		movs	r5, #1
 4023 0098 F0E7     		b	.L647
 4024              	.L654:
 4025 009a 0225     		movs	r5, #2
 4026 009c CDE7     		b	.L646
 4027              	.L652:
 4028 009e 0125     		movs	r5, #1
 4029              	.L648:
 4030 00a0 6575     		strb	r5, [r4, #21]
 4031 00a2 00E0     		b	.L644
 4032              	.L649:
 4033 00a4 0725     		movs	r5, #7
 4034              	.L644:
 4035 00a6 2846     		mov	r0, r5
 4036 00a8 03B0     		add	sp, sp, #12
 4037              		@ sp needed
ARM GAS  C:\Users\Nathan\AppData\Local\Temp\ccXwghP6.s 			page 70


 4038 00aa 30BD     		pop	{r4, r5, pc}
 4040              		.section	.text.f_unlink,"ax",%progbits
 4041              		.align	1
 4042              		.global	f_unlink
 4043              		.syntax unified
 4044              		.thumb
 4045              		.thumb_func
 4047              	f_unlink:
 4048              		@ args = 0, pretend = 0, frame = 112
 4049              		@ frame_needed = 0, uses_anonymous_args = 0
 4050 0000 F0B5     		push	{r4, r5, r6, r7, lr}
 4051 0002 9DB0     		sub	sp, sp, #116
 4052 0004 0190     		str	r0, [sp, #4]
 4053 0006 0222     		movs	r2, #2
 4054 0008 03A9     		add	r1, sp, #12
 4055 000a 01A8     		add	r0, sp, #4
 4056 000c FFF7FEFF 		bl	find_volume
 4057 0010 039B     		ldr	r3, [sp, #12]
 4058 0012 1093     		str	r3, [sp, #64]
 4059 0014 0446     		mov	r4, r0
 4060 0016 10B1     		cbz	r0, .L664
 4061              	.L656:
 4062 0018 2046     		mov	r0, r4
 4063 001a 1DB0     		add	sp, sp, #116
 4064              		@ sp needed
 4065 001c F0BD     		pop	{r4, r5, r6, r7, pc}
 4066              	.L664:
 4067 001e 0199     		ldr	r1, [sp, #4]
 4068 0020 10A8     		add	r0, sp, #64
 4069 0022 FFF7FEFF 		bl	follow_path
 4070 0026 0446     		mov	r4, r0
 4071 0028 0028     		cmp	r0, #0
 4072 002a F5D1     		bne	.L656
 4073 002c 0221     		movs	r1, #2
 4074 002e 10A8     		add	r0, sp, #64
 4075 0030 FFF7FEFF 		bl	chk_lock
 4076 0034 0446     		mov	r4, r0
 4077 0036 0028     		cmp	r0, #0
 4078 0038 EED1     		bne	.L656
 4079 003a 9DF96F30 		ldrsb	r3, [sp, #111]
 4080 003e 002B     		cmp	r3, #0
 4081 0040 38DB     		blt	.L660
 4082 0042 9DF84650 		ldrb	r5, [sp, #70]	@ zero_extendqisi2
 4083 0046 15F0010F 		tst	r5, #1
 4084 004a 35D1     		bne	.L661
 4085 004c 039F     		ldr	r7, [sp, #12]
 4086 004e 1899     		ldr	r1, [sp, #96]
 4087 0050 3846     		mov	r0, r7
 4088 0052 FFF7FEFF 		bl	ld_clust
 4089 0056 0646     		mov	r6, r0
 4090 0058 15F0100F 		tst	r5, #16
 4091 005c 0FD1     		bne	.L665
 4092              	.L657:
 4093 005e 002C     		cmp	r4, #0
 4094 0060 DAD1     		bne	.L656
 4095              	.L658:
 4096 0062 10A8     		add	r0, sp, #64
ARM GAS  C:\Users\Nathan\AppData\Local\Temp\ccXwghP6.s 			page 71


 4097 0064 FFF7FEFF 		bl	dir_remove
 4098 0068 0446     		mov	r4, r0
 4099 006a 0028     		cmp	r0, #0
 4100 006c D4D1     		bne	.L656
 4101 006e D6B9     		cbnz	r6, .L666
 4102              	.L659:
 4103 0070 002C     		cmp	r4, #0
 4104 0072 D1D1     		bne	.L656
 4105 0074 0398     		ldr	r0, [sp, #12]
 4106 0076 FFF7FEFF 		bl	sync_fs
 4107 007a 0446     		mov	r4, r0
 4108 007c CCE7     		b	.L656
 4109              	.L665:
 4110 007e 0497     		str	r7, [sp, #16]
 4111 0080 0690     		str	r0, [sp, #24]
 4112 0082 0021     		movs	r1, #0
 4113 0084 04A8     		add	r0, sp, #16
 4114 0086 FFF7FEFF 		bl	dir_sdi
 4115 008a 0446     		mov	r4, r0
 4116 008c 0028     		cmp	r0, #0
 4117 008e C3D1     		bne	.L656
 4118 0090 0021     		movs	r1, #0
 4119 0092 04A8     		add	r0, sp, #16
 4120 0094 FFF7FEFF 		bl	dir_read
 4121 0098 0446     		mov	r4, r0
 4122 009a 10B1     		cbz	r0, .L662
 4123 009c 0428     		cmp	r0, #4
 4124 009e DED1     		bne	.L657
 4125 00a0 DFE7     		b	.L658
 4126              	.L662:
 4127 00a2 0724     		movs	r4, #7
 4128 00a4 DBE7     		b	.L657
 4129              	.L666:
 4130 00a6 0022     		movs	r2, #0
 4131 00a8 3146     		mov	r1, r6
 4132 00aa 10A8     		add	r0, sp, #64
 4133 00ac FFF7FEFF 		bl	remove_chain
 4134 00b0 0446     		mov	r4, r0
 4135 00b2 DDE7     		b	.L659
 4136              	.L660:
 4137 00b4 0624     		movs	r4, #6
 4138 00b6 AFE7     		b	.L656
 4139              	.L661:
 4140 00b8 0724     		movs	r4, #7
 4141 00ba ADE7     		b	.L656
 4143              		.section	.text.f_mkdir,"ax",%progbits
 4144              		.align	1
 4145              		.global	f_mkdir
 4146              		.syntax unified
 4147              		.thumb
 4148              		.thumb_func
 4150              	f_mkdir:
 4151              		@ args = 0, pretend = 0, frame = 64
 4152              		@ frame_needed = 0, uses_anonymous_args = 0
 4153 0000 2DE9F04F 		push	{r4, r5, r6, r7, r8, r9, r10, fp, lr}
 4154 0004 91B0     		sub	sp, sp, #68
 4155 0006 0190     		str	r0, [sp, #4]
ARM GAS  C:\Users\Nathan\AppData\Local\Temp\ccXwghP6.s 			page 72


 4156 0008 0222     		movs	r2, #2
 4157 000a 03A9     		add	r1, sp, #12
 4158 000c 01A8     		add	r0, sp, #4
 4159 000e FFF7FEFF 		bl	find_volume
 4160 0012 039B     		ldr	r3, [sp, #12]
 4161 0014 0493     		str	r3, [sp, #16]
 4162 0016 0446     		mov	r4, r0
 4163 0018 18B1     		cbz	r0, .L684
 4164              	.L668:
 4165 001a 2046     		mov	r0, r4
 4166 001c 11B0     		add	sp, sp, #68
 4167              		@ sp needed
 4168 001e BDE8F08F 		pop	{r4, r5, r6, r7, r8, r9, r10, fp, pc}
 4169              	.L684:
 4170 0022 0199     		ldr	r1, [sp, #4]
 4171 0024 04A8     		add	r0, sp, #16
 4172 0026 FFF7FEFF 		bl	follow_path
 4173 002a 0028     		cmp	r0, #0
 4174 002c 00F09680 		beq	.L677
 4175 0030 0428     		cmp	r0, #4
 4176 0032 01D0     		beq	.L685
 4177 0034 0446     		mov	r4, r0
 4178 0036 F0E7     		b	.L668
 4179              	.L685:
 4180 0038 0021     		movs	r1, #0
 4181 003a 04A8     		add	r0, sp, #16
 4182 003c FFF7FEFF 		bl	create_chain
 4183 0040 039A     		ldr	r2, [sp, #12]
 4184 0042 5389     		ldrh	r3, [r2, #10]
 4185 0044 5B02     		lsls	r3, r3, #9
 4186 0046 0793     		str	r3, [sp, #28]
 4187 0048 8146     		mov	r9, r0
 4188 004a 18B1     		cbz	r0, .L679
 4189 004c 0128     		cmp	r0, #1
 4190 004e 02D1     		bne	.L669
 4191 0050 0224     		movs	r4, #2
 4192 0052 03E0     		b	.L670
 4193              	.L679:
 4194 0054 0724     		movs	r4, #7
 4195              	.L669:
 4196 0056 B9F1FF3F 		cmp	r9, #-1
 4197 005a 56D0     		beq	.L686
 4198              	.L670:
 4199 005c 002C     		cmp	r4, #0
 4200 005e 4FD0     		beq	.L687
 4201              	.L671:
 4202 0060 FFF7FEFF 		bl	get_fattime
 4203 0064 8246     		mov	r10, r0
 4204 0066 002C     		cmp	r4, #0
 4205 0068 57D1     		bne	.L672
 4206 006a 039E     		ldr	r6, [sp, #12]
 4207 006c 4946     		mov	r1, r9
 4208 006e 3046     		mov	r0, r6
 4209 0070 FFF7FEFF 		bl	clust2sect
 4210 0074 0546     		mov	r5, r0
 4211 0076 06F13008 		add	r8, r6, #48
 4212 007a 4FF40072 		mov	r2, #512
ARM GAS  C:\Users\Nathan\AppData\Local\Temp\ccXwghP6.s 			page 73


 4213 007e 0021     		movs	r1, #0
 4214 0080 4046     		mov	r0, r8
 4215 0082 FFF7FEFF 		bl	mem_set
 4216 0086 0B22     		movs	r2, #11
 4217 0088 2021     		movs	r1, #32
 4218 008a 4046     		mov	r0, r8
 4219 008c FFF7FEFF 		bl	mem_set
 4220 0090 4FF02E0B 		mov	fp, #46
 4221 0094 86F830B0 		strb	fp, [r6, #48]
 4222 0098 1023     		movs	r3, #16
 4223 009a 86F83B30 		strb	r3, [r6, #59]
 4224 009e 5146     		mov	r1, r10
 4225 00a0 06F14600 		add	r0, r6, #70
 4226 00a4 FFF7FEFF 		bl	st_dword
 4227 00a8 4A46     		mov	r2, r9
 4228 00aa 4146     		mov	r1, r8
 4229 00ac 0398     		ldr	r0, [sp, #12]
 4230 00ae FFF7FEFF 		bl	st_clust
 4231 00b2 06F15007 		add	r7, r6, #80
 4232 00b6 2022     		movs	r2, #32
 4233 00b8 4146     		mov	r1, r8
 4234 00ba 3846     		mov	r0, r7
 4235 00bc FFF7FEFF 		bl	mem_cpy
 4236 00c0 86F851B0 		strb	fp, [r6, #81]
 4237 00c4 069A     		ldr	r2, [sp, #24]
 4238 00c6 0398     		ldr	r0, [sp, #12]
 4239 00c8 0378     		ldrb	r3, [r0]	@ zero_extendqisi2
 4240 00ca 032B     		cmp	r3, #3
 4241 00cc 1FD0     		beq	.L688
 4242              	.L673:
 4243 00ce 3946     		mov	r1, r7
 4244 00d0 FFF7FEFF 		bl	st_clust
 4245 00d4 039B     		ldr	r3, [sp, #12]
 4246 00d6 5E89     		ldrh	r6, [r3, #10]
 4247              	.L674:
 4248 00d8 F6B1     		cbz	r6, .L675
 4249 00da 6F1C     		adds	r7, r5, #1
 4250 00dc 039B     		ldr	r3, [sp, #12]
 4251 00de DD62     		str	r5, [r3, #44]
 4252 00e0 0122     		movs	r2, #1
 4253 00e2 DA70     		strb	r2, [r3, #3]
 4254 00e4 0398     		ldr	r0, [sp, #12]
 4255 00e6 FFF7FEFF 		bl	sync_window
 4256 00ea 0446     		mov	r4, r0
 4257 00ec A0B9     		cbnz	r0, .L675
 4258 00ee 4FF40072 		mov	r2, #512
 4259 00f2 0021     		movs	r1, #0
 4260 00f4 4046     		mov	r0, r8
 4261 00f6 FFF7FEFF 		bl	mem_set
 4262 00fa 013E     		subs	r6, r6, #1
 4263 00fc 3D46     		mov	r5, r7
 4264 00fe EBE7     		b	.L674
 4265              	.L687:
 4266 0100 1046     		mov	r0, r2
 4267 0102 FFF7FEFF 		bl	sync_window
 4268 0106 0446     		mov	r4, r0
 4269 0108 AAE7     		b	.L671
ARM GAS  C:\Users\Nathan\AppData\Local\Temp\ccXwghP6.s 			page 74


 4270              	.L686:
 4271 010a 0124     		movs	r4, #1
 4272 010c A8E7     		b	.L671
 4273              	.L688:
 4274 010e 436A     		ldr	r3, [r0, #36]
 4275 0110 9342     		cmp	r3, r2
 4276 0112 DCD1     		bne	.L673
 4277 0114 0022     		movs	r2, #0
 4278 0116 DAE7     		b	.L673
 4279              	.L675:
 4280 0118 2CB1     		cbz	r4, .L689
 4281              	.L672:
 4282 011a 0022     		movs	r2, #0
 4283 011c 4946     		mov	r1, r9
 4284 011e 04A8     		add	r0, sp, #16
 4285 0120 FFF7FEFF 		bl	remove_chain
 4286 0124 79E7     		b	.L668
 4287              	.L689:
 4288 0126 04A8     		add	r0, sp, #16
 4289 0128 FFF7FEFF 		bl	dir_register
 4290 012c 0446     		mov	r4, r0
 4291 012e 0028     		cmp	r0, #0
 4292 0130 F3D1     		bne	.L672
 4293 0132 0C9C     		ldr	r4, [sp, #48]
 4294 0134 5146     		mov	r1, r10
 4295 0136 04F11600 		add	r0, r4, #22
 4296 013a FFF7FEFF 		bl	st_dword
 4297 013e 4A46     		mov	r2, r9
 4298 0140 2146     		mov	r1, r4
 4299 0142 0398     		ldr	r0, [sp, #12]
 4300 0144 FFF7FEFF 		bl	st_clust
 4301 0148 1023     		movs	r3, #16
 4302 014a E372     		strb	r3, [r4, #11]
 4303 014c 039B     		ldr	r3, [sp, #12]
 4304 014e 0122     		movs	r2, #1
 4305 0150 DA70     		strb	r2, [r3, #3]
 4306 0152 0398     		ldr	r0, [sp, #12]
 4307 0154 FFF7FEFF 		bl	sync_fs
 4308 0158 0446     		mov	r4, r0
 4309 015a 5EE7     		b	.L668
 4310              	.L677:
 4311 015c 0824     		movs	r4, #8
 4312 015e 5CE7     		b	.L668
 4314              		.section	.text.f_rename,"ax",%progbits
 4315              		.align	1
 4316              		.global	f_rename
 4317              		.syntax unified
 4318              		.thumb
 4319              		.thumb_func
 4321              	f_rename:
 4322              		@ args = 0, pretend = 0, frame = 136
 4323              		@ frame_needed = 0, uses_anonymous_args = 0
 4324 0000 30B5     		push	{r4, r5, lr}
 4325 0002 A3B0     		sub	sp, sp, #140
 4326 0004 0190     		str	r0, [sp, #4]
 4327 0006 0091     		str	r1, [sp]
 4328 0008 6846     		mov	r0, sp
ARM GAS  C:\Users\Nathan\AppData\Local\Temp\ccXwghP6.s 			page 75


 4329 000a FFF7FEFF 		bl	get_ldnumber
 4330 000e 0222     		movs	r2, #2
 4331 0010 09A9     		add	r1, sp, #36
 4332 0012 01A8     		add	r0, sp, #4
 4333 0014 FFF7FEFF 		bl	find_volume
 4334 0018 0446     		mov	r4, r0
 4335 001a 10B1     		cbz	r0, .L700
 4336              	.L691:
 4337 001c 2046     		mov	r0, r4
 4338 001e 23B0     		add	sp, sp, #140
 4339              		@ sp needed
 4340 0020 30BD     		pop	{r4, r5, pc}
 4341              	.L700:
 4342 0022 099B     		ldr	r3, [sp, #36]
 4343 0024 1693     		str	r3, [sp, #88]
 4344 0026 0199     		ldr	r1, [sp, #4]
 4345 0028 16A8     		add	r0, sp, #88
 4346 002a FFF7FEFF 		bl	follow_path
 4347 002e 0446     		mov	r4, r0
 4348 0030 48B9     		cbnz	r0, .L692
 4349 0032 9DF88730 		ldrb	r3, [sp, #135]	@ zero_extendqisi2
 4350 0036 13F0A00F 		tst	r3, #160
 4351 003a 72D1     		bne	.L696
 4352 003c 0221     		movs	r1, #2
 4353 003e 16A8     		add	r0, sp, #88
 4354 0040 FFF7FEFF 		bl	chk_lock
 4355 0044 0446     		mov	r4, r0
 4356              	.L692:
 4357 0046 002C     		cmp	r4, #0
 4358 0048 E8D1     		bne	.L691
 4359 004a 1522     		movs	r2, #21
 4360 004c 1E99     		ldr	r1, [sp, #120]
 4361 004e 0B31     		adds	r1, r1, #11
 4362 0050 03A8     		add	r0, sp, #12
 4363 0052 FFF7FEFF 		bl	mem_cpy
 4364 0056 3022     		movs	r2, #48
 4365 0058 16A9     		add	r1, sp, #88
 4366 005a 0AA8     		add	r0, sp, #40
 4367 005c FFF7FEFF 		bl	mem_cpy
 4368 0060 0099     		ldr	r1, [sp]
 4369 0062 0AA8     		add	r0, sp, #40
 4370 0064 FFF7FEFF 		bl	follow_path
 4371 0068 0446     		mov	r4, r0
 4372 006a 58B9     		cbnz	r0, .L693
 4373 006c 0C9A     		ldr	r2, [sp, #48]
 4374 006e 189B     		ldr	r3, [sp, #96]
 4375 0070 9A42     		cmp	r2, r3
 4376 0072 01D0     		beq	.L701
 4377 0074 0824     		movs	r4, #8
 4378 0076 07E0     		b	.L694
 4379              	.L701:
 4380 0078 0F9A     		ldr	r2, [sp, #60]
 4381 007a 1B9B     		ldr	r3, [sp, #108]
 4382 007c 9A42     		cmp	r2, r3
 4383 007e 10D0     		beq	.L695
 4384 0080 0824     		movs	r4, #8
 4385 0082 01E0     		b	.L694
ARM GAS  C:\Users\Nathan\AppData\Local\Temp\ccXwghP6.s 			page 76


 4386              	.L693:
 4387 0084 0428     		cmp	r0, #4
 4388 0086 0CD0     		beq	.L695
 4389              	.L694:
 4390 0088 002C     		cmp	r4, #0
 4391 008a C7D1     		bne	.L691
 4392 008c 16A8     		add	r0, sp, #88
 4393 008e FFF7FEFF 		bl	dir_remove
 4394 0092 0446     		mov	r4, r0
 4395 0094 0028     		cmp	r0, #0
 4396 0096 C1D1     		bne	.L691
 4397 0098 0998     		ldr	r0, [sp, #36]
 4398 009a FFF7FEFF 		bl	sync_fs
 4399 009e 0446     		mov	r4, r0
 4400 00a0 BCE7     		b	.L691
 4401              	.L695:
 4402 00a2 0AA8     		add	r0, sp, #40
 4403 00a4 FFF7FEFF 		bl	dir_register
 4404 00a8 0446     		mov	r4, r0
 4405 00aa 0028     		cmp	r0, #0
 4406 00ac B6D1     		bne	.L691
 4407 00ae 129D     		ldr	r5, [sp, #72]
 4408 00b0 1322     		movs	r2, #19
 4409 00b2 0DF10E01 		add	r1, sp, #14
 4410 00b6 05F10D00 		add	r0, r5, #13
 4411 00ba FFF7FEFF 		bl	mem_cpy
 4412 00be 9DF80C30 		ldrb	r3, [sp, #12]	@ zero_extendqisi2
 4413 00c2 43F02003 		orr	r3, r3, #32
 4414 00c6 EB72     		strb	r3, [r5, #11]
 4415 00c8 099B     		ldr	r3, [sp, #36]
 4416 00ca 0122     		movs	r2, #1
 4417 00cc DA70     		strb	r2, [r3, #3]
 4418 00ce EB7A     		ldrb	r3, [r5, #11]	@ zero_extendqisi2
 4419 00d0 13F0100F 		tst	r3, #16
 4420 00d4 D8D0     		beq	.L694
 4421 00d6 189A     		ldr	r2, [sp, #96]
 4422 00d8 0C9B     		ldr	r3, [sp, #48]
 4423 00da 9A42     		cmp	r2, r3
 4424 00dc D4D0     		beq	.L694
 4425 00de 099C     		ldr	r4, [sp, #36]
 4426 00e0 2946     		mov	r1, r5
 4427 00e2 2046     		mov	r0, r4
 4428 00e4 FFF7FEFF 		bl	ld_clust
 4429 00e8 0146     		mov	r1, r0
 4430 00ea 2046     		mov	r0, r4
 4431 00ec FFF7FEFF 		bl	clust2sect
 4432 00f0 0146     		mov	r1, r0
 4433 00f2 08B9     		cbnz	r0, .L702
 4434 00f4 0224     		movs	r4, #2
 4435 00f6 91E7     		b	.L691
 4436              	.L702:
 4437 00f8 2046     		mov	r0, r4
 4438 00fa FFF7FEFF 		bl	move_window
 4439 00fe 099B     		ldr	r3, [sp, #36]
 4440 0100 03F15001 		add	r1, r3, #80
 4441 0104 0446     		mov	r4, r0
 4442 0106 0028     		cmp	r0, #0
ARM GAS  C:\Users\Nathan\AppData\Local\Temp\ccXwghP6.s 			page 77


 4443 0108 88D1     		bne	.L691
 4444 010a 93F85120 		ldrb	r2, [r3, #81]	@ zero_extendqisi2
 4445 010e 2E2A     		cmp	r2, #46
 4446 0110 BAD1     		bne	.L694
 4447 0112 0C9A     		ldr	r2, [sp, #48]
 4448 0114 1846     		mov	r0, r3
 4449 0116 FFF7FEFF 		bl	st_clust
 4450 011a 099B     		ldr	r3, [sp, #36]
 4451 011c 0122     		movs	r2, #1
 4452 011e DA70     		strb	r2, [r3, #3]
 4453 0120 B2E7     		b	.L694
 4454              	.L696:
 4455 0122 0624     		movs	r4, #6
 4456 0124 7AE7     		b	.L691
 4458              		.section	.rodata.f_mkfs.str1.4,"aMS",%progbits,1
 4459              		.align	2
 4460              	.LC1:
 4461 0000 EBFE904D 		.ascii	"\353\376\220MSDOS5.0\000"
 4461      53444F53 
 4461      352E3000 
 4462              		.align	2
 4463              	.LC2:
 4464 000c 4E4F204E 		.ascii	"NO NAME    FAT32   \000"
 4464      414D4520 
 4464      20202046 
 4464      41543332 
 4464      20202000 
 4465              		.align	2
 4466              	.LC3:
 4467 0020 4E4F204E 		.ascii	"NO NAME    FAT     \000"
 4467      414D4520 
 4467      20202046 
 4467      41542020 
 4467      20202000 
 4468              		.section	.text.f_mkfs,"ax",%progbits
 4469              		.align	1
 4470              		.global	f_mkfs
 4471              		.syntax unified
 4472              		.thumb
 4473              		.thumb_func
 4475              	f_mkfs:
 4476              		@ args = 4, pretend = 0, frame = 48
 4477              		@ frame_needed = 0, uses_anonymous_args = 0
 4478 0000 2DE9F04F 		push	{r4, r5, r6, r7, r8, r9, r10, fp, lr}
 4479 0004 8DB0     		sub	sp, sp, #52
 4480 0006 0990     		str	r0, [sp, #36]
 4481 0008 0F46     		mov	r7, r1
 4482 000a 1646     		mov	r6, r2
 4483 000c 0093     		str	r3, [sp]
 4484 000e 09A8     		add	r0, sp, #36
 4485 0010 FFF7FEFF 		bl	get_ldnumber
 4486 0014 0028     		cmp	r0, #0
 4487 0016 C0F20583 		blt	.L747
 4488 001a 8F4B     		ldr	r3, .L799
 4489 001c 53F82030 		ldr	r3, [r3, r0, lsl #2]
 4490 0020 0BB1     		cbz	r3, .L705
 4491 0022 0022     		movs	r2, #0
ARM GAS  C:\Users\Nathan\AppData\Local\Temp\ccXwghP6.s 			page 78


 4492 0024 1A70     		strb	r2, [r3]
 4493              	.L705:
 4494 0026 C4B2     		uxtb	r4, r0
 4495 0028 2046     		mov	r0, r4
 4496 002a FFF7FEFF 		bl	disk_initialize
 4497 002e 10F0010F 		tst	r0, #1
 4498 0032 40F0F982 		bne	.L748
 4499 0036 10F0040F 		tst	r0, #4
 4500 003a 40F0F782 		bne	.L749
 4501 003e 0BAA     		add	r2, sp, #44
 4502 0040 0321     		movs	r1, #3
 4503 0042 2046     		mov	r0, r4
 4504 0044 FFF7FEFF 		bl	disk_ioctl
 4505 0048 38B9     		cbnz	r0, .L706
 4506 004a 0B9B     		ldr	r3, [sp, #44]
 4507 004c 2BB1     		cbz	r3, .L706
 4508 004e B3F5004F 		cmp	r3, #32768
 4509 0052 02D8     		bhi	.L706
 4510 0054 5A1E     		subs	r2, r3, #1
 4511 0056 1342     		tst	r3, r2
 4512 0058 01D0     		beq	.L707
 4513              	.L706:
 4514 005a 0123     		movs	r3, #1
 4515 005c 0B93     		str	r3, [sp, #44]
 4516              	.L707:
 4517 005e 3EB1     		cbz	r6, .L708
 4518 0060 B6F5007F 		cmp	r6, #512
 4519 0064 C0F0E682 		bcc	.L750
 4520 0068 B6F1807F 		cmp	r6, #16777216
 4521 006c 00F2E482 		bhi	.L751
 4522              	.L708:
 4523 0070 731E     		subs	r3, r6, #1
 4524 0072 3340     		ands	r3, r3, r6
 4525 0074 0193     		str	r3, [sp, #4]
 4526 0076 40F0E182 		bne	.L752
 4527 007a 4FEA5629 		lsr	r9, r6, #9
 4528 007e 169A     		ldr	r2, [sp, #88]
 4529 0080 520A     		lsrs	r2, r2, #9
 4530 0082 0292     		str	r2, [sp, #8]
 4531 0084 169D     		ldr	r5, [sp, #88]
 4532 0086 6FF30805 		bfc	r5, #0, #9
 4533 008a 002D     		cmp	r5, #0
 4534 008c 00F0D882 		beq	.L753
 4535 0090 0AAA     		add	r2, sp, #40
 4536 0092 0121     		movs	r1, #1
 4537 0094 2046     		mov	r0, r4
 4538 0096 FFF7FEFF 		bl	disk_ioctl
 4539 009a 0028     		cmp	r0, #0
 4540 009c 40F0D282 		bne	.L754
 4541 00a0 17F00802 		ands	r2, r7, #8
 4542 00a4 0392     		str	r2, [sp, #12]
 4543 00a6 23D0     		beq	.L755
 4544 00a8 DDF804B0 		ldr	fp, [sp, #4]
 4545              	.L709:
 4546 00ac 0A99     		ldr	r1, [sp, #40]
 4547 00ae 5945     		cmp	r1, fp
 4548 00b0 C0F0CA82 		bcc	.L756
ARM GAS  C:\Users\Nathan\AppData\Local\Temp\ccXwghP6.s 			page 79


 4549 00b4 A1EB0B01 		sub	r1, r1, fp
 4550 00b8 0A91     		str	r1, [sp, #40]
 4551 00ba 7F29     		cmp	r1, #127
 4552 00bc 40F2C682 		bls	.L757
 4553 00c0 B6F5813F 		cmp	r6, #66048
 4554 00c4 80F0C482 		bcs	.L758
 4555 00c8 17F00200 		ands	r0, r7, #2
 4556 00cc 06D0     		beq	.L710
 4557 00ce 07F00703 		and	r3, r7, #7
 4558 00d2 022B     		cmp	r3, #2
 4559 00d4 0FD0     		beq	.L759
 4560 00d6 17F0010F 		tst	r7, #1
 4561 00da 12D0     		beq	.L760
 4562              	.L710:
 4563 00dc 17F0010F 		tst	r7, #1
 4564 00e0 00F0B882 		beq	.L761
 4565 00e4 4FF0020A 		mov	r10, #2
 4566 00e8 8E46     		mov	lr, r1
 4567 00ea 4946     		mov	r1, r9
 4568 00ec 0494     		str	r4, [sp, #16]
 4569 00ee 64E0     		b	.L712
 4570              	.L755:
 4571 00f0 4FF03F0B 		mov	fp, #63
 4572 00f4 DAE7     		b	.L709
 4573              	.L759:
 4574 00f6 4FF0030A 		mov	r10, #3
 4575 00fa 8E46     		mov	lr, r1
 4576 00fc 4946     		mov	r1, r9
 4577 00fe 0494     		str	r4, [sp, #16]
 4578 0100 5BE0     		b	.L712
 4579              	.L760:
 4580 0102 4FF0030A 		mov	r10, #3
 4581 0106 8E46     		mov	lr, r1
 4582 0108 4946     		mov	r1, r9
 4583 010a 0494     		str	r4, [sp, #16]
 4584 010c 55E0     		b	.L712
 4585              	.L767:
 4586 010e 1946     		mov	r1, r3
 4587 0110 53E0     		b	.L712
 4588              	.L768:
 4589 0112 4FF0030A 		mov	r10, #3
 4590 0116 50E0     		b	.L712
 4591              	.L788:
 4592 0118 91B1     		cbz	r1, .L786
 4593 011a 0F46     		mov	r7, r1
 4594              	.L714:
 4595 011c BEFBF7F3 		udiv	r3, lr, r7
 4596 0120 9E00     		lsls	r6, r3, #2
 4597 0122 06F20726 		addw	r6, r6, #519
 4598 0126 760A     		lsrs	r6, r6, #9
 4599 0128 A3F57F43 		sub	r3, r3, #65280
 4600 012c F63B     		subs	r3, r3, #246
 4601 012e 4B4A     		ldr	r2, .L799+4
 4602 0130 9342     		cmp	r3, r2
 4603 0132 00F29182 		bhi	.L763
 4604 0136 DDF80490 		ldr	r9, [sp, #4]
 4605 013a 4FF0200C 		mov	ip, #32
ARM GAS  C:\Users\Nathan\AppData\Local\Temp\ccXwghP6.s 			page 80


 4606 013e 51E0     		b	.L717
 4607              	.L786:
 4608 0140 4FEA5E44 		lsr	r4, lr, #17
 4609 0144 0A46     		mov	r2, r1
 4610 0146 0127     		movs	r7, #1
 4611 0148 01E0     		b	.L715
 4612              	.L716:
 4613 014a 0132     		adds	r2, r2, #1
 4614 014c 7F00     		lsls	r7, r7, #1
 4615              	.L715:
 4616 014e 444B     		ldr	r3, .L799+8
 4617 0150 33F81230 		ldrh	r3, [r3, r2, lsl #1]
 4618 0154 002B     		cmp	r3, #0
 4619 0156 E1D0     		beq	.L714
 4620 0158 A342     		cmp	r3, r4
 4621 015a F6D9     		bls	.L716
 4622 015c DEE7     		b	.L714
 4623              	.L789:
 4624 015e 4FEA1E34 		lsr	r4, lr, #12
 4625 0162 0A46     		mov	r2, r1
 4626 0164 0127     		movs	r7, #1
 4627              	.L719:
 4628 0166 3F4B     		ldr	r3, .L799+12
 4629 0168 33F81230 		ldrh	r3, [r3, r2, lsl #1]
 4630 016c 5BB3     		cbz	r3, .L718
 4631 016e A342     		cmp	r3, r4
 4632 0170 29D8     		bhi	.L718
 4633 0172 0132     		adds	r2, r2, #1
 4634 0174 7F00     		lsls	r7, r7, #1
 4635 0176 F6E7     		b	.L719
 4636              	.L721:
 4637 0178 03EB4306 		add	r6, r3, r3, lsl #1
 4638 017c 0136     		adds	r6, r6, #1
 4639 017e 7608     		lsrs	r6, r6, #1
 4640 0180 0336     		adds	r6, r6, #3
 4641 0182 4FF0010A 		mov	r10, #1
 4642 0186 26E0     		b	.L722
 4643              	.L790:
 4644 0188 9444     		add	ip, ip, r2
 4645 018a 9044     		add	r8, r8, r2
 4646 018c 39E0     		b	.L724
 4647              	.L791:
 4648 018e 4FF6F572 		movw	r2, #65525
 4649 0192 9342     		cmp	r3, r2
 4650 0194 46D8     		bhi	.L725
 4651 0196 0029     		cmp	r1, #0
 4652 0198 40F06282 		bne	.L766
 4653 019c 7908     		lsrs	r1, r7, #1
 4654 019e 012F     		cmp	r7, #1
 4655 01a0 0BD8     		bhi	.L712
 4656 01a2 0E20     		movs	r0, #14
 4657 01a4 43E2     		b	.L704
 4658              	.L728:
 4659 01a6 40F6F572 		movw	r2, #4085
 4660 01aa 9342     		cmp	r3, r2
 4661 01ac 5CD8     		bhi	.L727
 4662 01ae 0029     		cmp	r1, #0
ARM GAS  C:\Users\Nathan\AppData\Local\Temp\ccXwghP6.s 			page 81


 4663 01b0 40F05A82 		bne	.L770
 4664 01b4 7900     		lsls	r1, r7, #1
 4665 01b6 8029     		cmp	r1, #128
 4666 01b8 4BD8     		bhi	.L787
 4667              	.L712:
 4668 01ba BAF1030F 		cmp	r10, #3
 4669 01be ABD0     		beq	.L788
 4670 01c0 0029     		cmp	r1, #0
 4671 01c2 CCD0     		beq	.L789
 4672 01c4 0F46     		mov	r7, r1
 4673              	.L718:
 4674 01c6 BEFBF7F3 		udiv	r3, lr, r7
 4675 01ca 40F6F572 		movw	r2, #4085
 4676 01ce 9342     		cmp	r3, r2
 4677 01d0 D2D9     		bls	.L721
 4678 01d2 9E1C     		adds	r6, r3, #2
 4679 01d4 7600     		lsls	r6, r6, #1
 4680              	.L722:
 4681 01d6 06F2FF16 		addw	r6, r6, #511
 4682 01da 760A     		lsrs	r6, r6, #9
 4683 01dc 4FF02009 		mov	r9, #32
 4684 01e0 4FF0010C 		mov	ip, #1
 4685              	.L717:
 4686 01e4 0CEB0B08 		add	r8, ip, fp
 4687 01e8 06EB0803 		add	r3, r6, r8
 4688 01ec 4B44     		add	r3, r3, r9
 4689 01ee 0B9C     		ldr	r4, [sp, #44]
 4690 01f0 E218     		adds	r2, r4, r3
 4691 01f2 013A     		subs	r2, r2, #1
 4692 01f4 6442     		rsbs	r4, r4, #0
 4693 01f6 2240     		ands	r2, r2, r4
 4694 01f8 D21A     		subs	r2, r2, r3
 4695 01fa BAF1030F 		cmp	r10, #3
 4696 01fe C3D0     		beq	.L790
 4697 0200 1644     		add	r6, r6, r2
 4698              	.L724:
 4699 0202 03EB0713 		add	r3, r3, r7, lsl #4
 4700 0206 A3EB0B03 		sub	r3, r3, fp
 4701 020a 9E45     		cmp	lr, r3
 4702 020c C0F02682 		bcc	.L765
 4703 0210 AEEB0C03 		sub	r3, lr, ip
 4704 0214 9B1B     		subs	r3, r3, r6
 4705 0216 A3EB0903 		sub	r3, r3, r9
 4706 021a B3FBF7F3 		udiv	r3, r3, r7
 4707 021e BAF1030F 		cmp	r10, #3
 4708 0222 B4D0     		beq	.L791
 4709              	.L725:
 4710 0224 BAF1020F 		cmp	r10, #2
 4711 0228 1ED1     		bne	.L727
 4712 022a 4FF6F572 		movw	r2, #65525
 4713 022e 9342     		cmp	r3, r2
 4714 0230 B9D9     		bls	.L728
 4715 0232 19B9     		cbnz	r1, .L729
 4716 0234 7B00     		lsls	r3, r7, #1
 4717 0236 402B     		cmp	r3, #64
 4718 0238 7FF669AF 		bls	.L767
 4719              	.L729:
ARM GAS  C:\Users\Nathan\AppData\Local\Temp\ccXwghP6.s 			page 82


 4720 023c 0028     		cmp	r0, #0
 4721 023e 7FF468AF 		bne	.L768
 4722 0242 0029     		cmp	r1, #0
 4723 0244 40F00E82 		bne	.L769
 4724 0248 7900     		lsls	r1, r7, #1
 4725 024a 8029     		cmp	r1, #128
 4726 024c B5D9     		bls	.L712
 4727 024e 0E20     		movs	r0, #14
 4728 0250 EDE1     		b	.L704
 4729              	.L787:
 4730 0252 0E20     		movs	r0, #14
 4731 0254 EBE1     		b	.L704
 4732              	.L800:
 4733 0256 00BF     		.align	2
 4734              	.L799:
 4735 0258 00000000 		.word	FatFs
 4736 025c FFFFFE0F 		.word	268369919
 4737 0260 00000000 		.word	cst32.1
 4738 0264 00000000 		.word	cst.0
 4739              	.L727:
 4740 0268 CDF81C90 		str	r9, [sp, #28]
 4741 026c CDF81480 		str	r8, [sp, #20]
 4742 0270 CDF818C0 		str	ip, [sp, #24]
 4743 0274 049C     		ldr	r4, [sp, #16]
 4744 0276 9846     		mov	r8, r3
 4745 0278 BAF1010F 		cmp	r10, #1
 4746 027c 04D1     		bne	.L730
 4747 027e 40F6F573 		movw	r3, #4085
 4748 0282 9845     		cmp	r8, r3
 4749 0284 00F2F281 		bhi	.L771
 4750              	.L730:
 4751 0288 4FF40072 		mov	r2, #512
 4752 028c 0021     		movs	r1, #0
 4753 028e DDF80090 		ldr	r9, [sp]
 4754 0292 4846     		mov	r0, r9
 4755 0294 FFF7FEFF 		bl	mem_set
 4756 0298 0B22     		movs	r2, #11
 4757 029a B849     		ldr	r1, .L801
 4758 029c 4846     		mov	r0, r9
 4759 029e FFF7FEFF 		bl	mem_cpy
 4760 02a2 4FF40071 		mov	r1, #512
 4761 02a6 CDF80090 		str	r9, [sp]
 4762 02aa 09F10B00 		add	r0, r9, #11
 4763 02ae FFF7FEFF 		bl	st_word
 4764 02b2 009B     		ldr	r3, [sp]
 4765 02b4 5F73     		strb	r7, [r3, #13]
 4766 02b6 BDF81810 		ldrh	r1, [sp, #24]
 4767 02ba 03F10E00 		add	r0, r3, #14
 4768 02be FFF7FEFF 		bl	st_word
 4769 02c2 0123     		movs	r3, #1
 4770 02c4 009A     		ldr	r2, [sp]
 4771 02c6 1374     		strb	r3, [r2, #16]
 4772 02c8 02F11100 		add	r0, r2, #17
 4773 02cc BAF1030F 		cmp	r10, #3
 4774 02d0 00F09780 		beq	.L792
 4775 02d4 4FF40071 		mov	r1, #512
 4776              	.L731:
ARM GAS  C:\Users\Nathan\AppData\Local\Temp\ccXwghP6.s 			page 83


 4777 02d8 FFF7FEFF 		bl	st_word
 4778 02dc 0A99     		ldr	r1, [sp, #40]
 4779 02de B1F5803F 		cmp	r1, #65536
 4780 02e2 80F09080 		bcs	.L732
 4781 02e6 89B2     		uxth	r1, r1
 4782 02e8 009B     		ldr	r3, [sp]
 4783 02ea 03F11300 		add	r0, r3, #19
 4784 02ee FFF7FEFF 		bl	st_word
 4785              	.L733:
 4786 02f2 F823     		movs	r3, #248
 4787 02f4 009A     		ldr	r2, [sp]
 4788 02f6 5375     		strb	r3, [r2, #21]
 4789 02f8 3F21     		movs	r1, #63
 4790 02fa 02F11800 		add	r0, r2, #24
 4791 02fe FFF7FEFF 		bl	st_word
 4792 0302 FF21     		movs	r1, #255
 4793 0304 009A     		ldr	r2, [sp]
 4794 0306 02F11A00 		add	r0, r2, #26
 4795 030a FFF7FEFF 		bl	st_word
 4796 030e 5946     		mov	r1, fp
 4797 0310 009A     		ldr	r2, [sp]
 4798 0312 02F11C00 		add	r0, r2, #28
 4799 0316 FFF7FEFF 		bl	st_dword
 4800 031a BAF1030F 		cmp	r10, #3
 4801 031e 78D0     		beq	.L793
 4802 0320 FFF7FEFF 		bl	get_fattime
 4803 0324 0146     		mov	r1, r0
 4804 0326 009A     		ldr	r2, [sp]
 4805 0328 02F12700 		add	r0, r2, #39
 4806 032c FFF7FEFF 		bl	st_dword
 4807 0330 B1B2     		uxth	r1, r6
 4808 0332 009A     		ldr	r2, [sp]
 4809 0334 02F11600 		add	r0, r2, #22
 4810 0338 FFF7FEFF 		bl	st_word
 4811 033c 8023     		movs	r3, #128
 4812 033e 0098     		ldr	r0, [sp]
 4813 0340 80F82430 		strb	r3, [r0, #36]
 4814 0344 2923     		movs	r3, #41
 4815 0346 80F82630 		strb	r3, [r0, #38]
 4816 034a 1322     		movs	r2, #19
 4817 034c 8C49     		ldr	r1, .L801+4
 4818 034e 2B30     		adds	r0, r0, #43
 4819 0350 FFF7FEFF 		bl	mem_cpy
 4820              	.L735:
 4821 0354 009B     		ldr	r3, [sp]
 4822 0356 03F5FF79 		add	r9, r3, #510
 4823 035a 4AF65521 		movw	r1, #43605
 4824 035e 4846     		mov	r0, r9
 4825 0360 FFF7FEFF 		bl	st_word
 4826 0364 0123     		movs	r3, #1
 4827 0366 5A46     		mov	r2, fp
 4828 0368 0099     		ldr	r1, [sp]
 4829 036a 2046     		mov	r0, r4
 4830 036c FFF7FEFF 		bl	disk_write
 4831 0370 0028     		cmp	r0, #0
 4832 0372 40F07D81 		bne	.L773
 4833 0376 BAF1030F 		cmp	r10, #3
ARM GAS  C:\Users\Nathan\AppData\Local\Temp\ccXwghP6.s 			page 84


 4834 037a 77D0     		beq	.L794
 4835              	.L736:
 4836 037c 2A46     		mov	r2, r5
 4837 037e 0021     		movs	r1, #0
 4838 0380 DDF80080 		ldr	r8, [sp]
 4839 0384 4046     		mov	r0, r8
 4840 0386 FFF7FEFF 		bl	mem_set
 4841 038a 0497     		str	r7, [sp, #16]
 4842 038c CDF81890 		str	r9, [sp, #24]
 4843 0390 5D46     		mov	r5, fp
 4844 0392 DDF808B0 		ldr	fp, [sp, #8]
 4845 0396 C146     		mov	r9, r8
 4846              	.L737:
 4847 0398 019B     		ldr	r3, [sp, #4]
 4848 039a 002B     		cmp	r3, #0
 4849 039c 00F0A080 		beq	.L742
 4850 03a0 049F     		ldr	r7, [sp, #16]
 4851 03a2 DDF81890 		ldr	r9, [sp, #24]
 4852 03a6 AB46     		mov	fp, r5
 4853 03a8 BAF1030F 		cmp	r10, #3
 4854 03ac 00F0DB80 		beq	.L795
 4855 03b0 CDF804A0 		str	r10, [sp, #4]
 4856 03b4 079E     		ldr	r6, [sp, #28]
 4857 03b6 059F     		ldr	r7, [sp, #20]
 4858 03b8 DDF80880 		ldr	r8, [sp, #8]
 4859 03bc DDF800A0 		ldr	r10, [sp]
 4860              	.L744:
 4861 03c0 3546     		mov	r5, r6
 4862 03c2 4645     		cmp	r6, r8
 4863 03c4 28BF     		it	cs
 4864 03c6 4546     		movcs	r5, r8
 4865 03c8 2B46     		mov	r3, r5
 4866 03ca 3A46     		mov	r2, r7
 4867 03cc 5146     		mov	r1, r10
 4868 03ce 2046     		mov	r0, r4
 4869 03d0 FFF7FEFF 		bl	disk_write
 4870 03d4 0028     		cmp	r0, #0
 4871 03d6 40F04F81 		bne	.L776
 4872 03da 2F44     		add	r7, r7, r5
 4873 03dc 761B     		subs	r6, r6, r5
 4874 03de EFD1     		bne	.L744
 4875 03e0 DDF804A0 		ldr	r10, [sp, #4]
 4876 03e4 BAF1030F 		cmp	r10, #3
 4877 03e8 00F0D480 		beq	.L777
 4878 03ec 0A9B     		ldr	r3, [sp, #40]
 4879 03ee B3F5803F 		cmp	r3, #65536
 4880 03f2 80F01581 		bcs	.L778
 4881 03f6 BAF1020F 		cmp	r10, #2
 4882 03fa 00F0BD80 		beq	.L796
 4883 03fe 0127     		movs	r7, #1
 4884 0400 C9E0     		b	.L745
 4885              	.L792:
 4886 0402 0021     		movs	r1, #0
 4887 0404 68E7     		b	.L731
 4888              	.L732:
 4889 0406 009B     		ldr	r3, [sp]
 4890 0408 03F12000 		add	r0, r3, #32
ARM GAS  C:\Users\Nathan\AppData\Local\Temp\ccXwghP6.s 			page 85


 4891 040c FFF7FEFF 		bl	st_dword
 4892 0410 6FE7     		b	.L733
 4893              	.L793:
 4894 0412 FFF7FEFF 		bl	get_fattime
 4895 0416 0146     		mov	r1, r0
 4896 0418 009A     		ldr	r2, [sp]
 4897 041a 02F14300 		add	r0, r2, #67
 4898 041e FFF7FEFF 		bl	st_dword
 4899 0422 3146     		mov	r1, r6
 4900 0424 009A     		ldr	r2, [sp]
 4901 0426 02F12400 		add	r0, r2, #36
 4902 042a FFF7FEFF 		bl	st_dword
 4903 042e 0221     		movs	r1, #2
 4904 0430 009A     		ldr	r2, [sp]
 4905 0432 02F12C00 		add	r0, r2, #44
 4906 0436 FFF7FEFF 		bl	st_dword
 4907 043a 0121     		movs	r1, #1
 4908 043c 009A     		ldr	r2, [sp]
 4909 043e 02F13000 		add	r0, r2, #48
 4910 0442 FFF7FEFF 		bl	st_word
 4911 0446 0621     		movs	r1, #6
 4912 0448 009A     		ldr	r2, [sp]
 4913 044a 02F13200 		add	r0, r2, #50
 4914 044e FFF7FEFF 		bl	st_word
 4915 0452 8023     		movs	r3, #128
 4916 0454 0098     		ldr	r0, [sp]
 4917 0456 80F84030 		strb	r3, [r0, #64]
 4918 045a 2923     		movs	r3, #41
 4919 045c 80F84230 		strb	r3, [r0, #66]
 4920 0460 1322     		movs	r2, #19
 4921 0462 4849     		ldr	r1, .L801+8
 4922 0464 4730     		adds	r0, r0, #71
 4923 0466 FFF7FEFF 		bl	mem_cpy
 4924 046a 73E7     		b	.L735
 4925              	.L794:
 4926 046c 0123     		movs	r3, #1
 4927 046e 0BF10602 		add	r2, fp, #6
 4928 0472 0099     		ldr	r1, [sp]
 4929 0474 2046     		mov	r0, r4
 4930 0476 FFF7FEFF 		bl	disk_write
 4931 047a 4FF40072 		mov	r2, #512
 4932 047e 0021     		movs	r1, #0
 4933 0480 0098     		ldr	r0, [sp]
 4934 0482 FFF7FEFF 		bl	mem_set
 4935 0486 4049     		ldr	r1, .L801+12
 4936 0488 0098     		ldr	r0, [sp]
 4937 048a FFF7FEFF 		bl	st_dword
 4938 048e 3F49     		ldr	r1, .L801+16
 4939 0490 009B     		ldr	r3, [sp]
 4940 0492 03F5F270 		add	r0, r3, #484
 4941 0496 FFF7FEFF 		bl	st_dword
 4942 049a 08F1FF31 		add	r1, r8, #-1
 4943 049e 009B     		ldr	r3, [sp]
 4944 04a0 03F5F470 		add	r0, r3, #488
 4945 04a4 FFF7FEFF 		bl	st_dword
 4946 04a8 0221     		movs	r1, #2
 4947 04aa 009B     		ldr	r3, [sp]
ARM GAS  C:\Users\Nathan\AppData\Local\Temp\ccXwghP6.s 			page 86


 4948 04ac 03F5F670 		add	r0, r3, #492
 4949 04b0 FFF7FEFF 		bl	st_dword
 4950 04b4 4AF65521 		movw	r1, #43605
 4951 04b8 4846     		mov	r0, r9
 4952 04ba FFF7FEFF 		bl	st_word
 4953 04be 0123     		movs	r3, #1
 4954 04c0 0BF10702 		add	r2, fp, #7
 4955 04c4 DDF80080 		ldr	r8, [sp]
 4956 04c8 4146     		mov	r1, r8
 4957 04ca 2046     		mov	r0, r4
 4958 04cc FFF7FEFF 		bl	disk_write
 4959 04d0 0123     		movs	r3, #1
 4960 04d2 0BEB0302 		add	r2, fp, r3
 4961 04d6 4146     		mov	r1, r8
 4962 04d8 2046     		mov	r0, r4
 4963 04da FFF7FEFF 		bl	disk_write
 4964 04de 4DE7     		b	.L736
 4965              	.L742:
 4966 04e0 BAF1030F 		cmp	r10, #3
 4967 04e4 2BD0     		beq	.L797
 4968 04e6 BAF1010F 		cmp	r10, #1
 4969 04ea 3AD0     		beq	.L798
 4970 04ec 6FF00701 		mvn	r1, #7
 4971              	.L740:
 4972 04f0 4846     		mov	r0, r9
 4973 04f2 FFF7FEFF 		bl	st_dword
 4974              	.L739:
 4975 04f6 3746     		mov	r7, r6
 4976 04f8 CDF820A0 		str	r10, [sp, #32]
 4977 04fc DDF81480 		ldr	r8, [sp, #20]
 4978              	.L741:
 4979 0500 BA46     		mov	r10, r7
 4980 0502 5F45     		cmp	r7, fp
 4981 0504 28BF     		it	cs
 4982 0506 DA46     		movcs	r10, fp
 4983 0508 5346     		mov	r3, r10
 4984 050a 4246     		mov	r2, r8
 4985 050c 4946     		mov	r1, r9
 4986 050e 2046     		mov	r0, r4
 4987 0510 FFF7FEFF 		bl	disk_write
 4988 0514 0028     		cmp	r0, #0
 4989 0516 40F0AD80 		bne	.L775
 4990 051a 4FF40072 		mov	r2, #512
 4991 051e 0021     		movs	r1, #0
 4992 0520 4846     		mov	r0, r9
 4993 0522 FFF7FEFF 		bl	mem_set
 4994 0526 D044     		add	r8, r8, r10
 4995 0528 B7EB0A07 		subs	r7, r7, r10
 4996 052c E8D1     		bne	.L741
 4997 052e DDF820A0 		ldr	r10, [sp, #32]
 4998 0532 CDF81480 		str	r8, [sp, #20]
 4999 0536 019B     		ldr	r3, [sp, #4]
 5000 0538 0133     		adds	r3, r3, #1
 5001 053a 0193     		str	r3, [sp, #4]
 5002 053c 2CE7     		b	.L737
 5003              	.L797:
 5004 053e 6FF00701 		mvn	r1, #7
ARM GAS  C:\Users\Nathan\AppData\Local\Temp\ccXwghP6.s 			page 87


 5005 0542 4846     		mov	r0, r9
 5006 0544 FFF7FEFF 		bl	st_dword
 5007 0548 4FF0FF31 		mov	r1, #-1
 5008 054c 09F10400 		add	r0, r9, #4
 5009 0550 FFF7FEFF 		bl	st_dword
 5010 0554 6FF07041 		mvn	r1, #-268435456
 5011 0558 09F10800 		add	r0, r9, #8
 5012 055c FFF7FEFF 		bl	st_dword
 5013 0560 C9E7     		b	.L739
 5014              	.L798:
 5015 0562 0B49     		ldr	r1, .L801+20
 5016 0564 C4E7     		b	.L740
 5017              	.L795:
 5018 0566 3E46     		mov	r6, r7
 5019 0568 CDF804A0 		str	r10, [sp, #4]
 5020 056c 059F     		ldr	r7, [sp, #20]
 5021 056e DDF80880 		ldr	r8, [sp, #8]
 5022 0572 DDF800A0 		ldr	r10, [sp]
 5023 0576 23E7     		b	.L744
 5024              	.L796:
 5025 0578 0427     		movs	r7, #4
 5026 057a 0CE0     		b	.L745
 5027              	.L802:
 5028              		.align	2
 5029              	.L801:
 5030 057c 00000000 		.word	.LC1
 5031 0580 20000000 		.word	.LC3
 5032 0584 0C000000 		.word	.LC2
 5033 0588 52526141 		.word	1096897106
 5034 058c 72724161 		.word	1631679090
 5035 0590 F8FFFF00 		.word	16777208
 5036              	.L777:
 5037 0594 0C27     		movs	r7, #12
 5038              	.L745:
 5039 0596 039B     		ldr	r3, [sp, #12]
 5040 0598 D3BB     		cbnz	r3, .L746
 5041 059a 4FF40072 		mov	r2, #512
 5042 059e 0021     		movs	r1, #0
 5043 05a0 009E     		ldr	r6, [sp]
 5044 05a2 3046     		mov	r0, r6
 5045 05a4 FFF7FEFF 		bl	mem_set
 5046 05a8 4AF65521 		movw	r1, #43605
 5047 05ac 4846     		mov	r0, r9
 5048 05ae FFF7FEFF 		bl	st_word
 5049 05b2 0025     		movs	r5, #0
 5050 05b4 3146     		mov	r1, r6
 5051 05b6 86F8BE51 		strb	r5, [r6, #446]
 5052 05ba 0126     		movs	r6, #1
 5053 05bc 81F8BF61 		strb	r6, [r1, #447]
 5054 05c0 81F8C061 		strb	r6, [r1, #448]
 5055 05c4 81F8C151 		strb	r5, [r1, #449]
 5056 05c8 81F8C271 		strb	r7, [r1, #450]
 5057 05cc 0A9B     		ldr	r3, [sp, #40]
 5058 05ce 5B44     		add	r3, r3, fp
 5059 05d0 43F6C162 		movw	r2, #16065
 5060 05d4 B3FBF2F3 		udiv	r3, r3, r2
 5061 05d8 FE22     		movs	r2, #254
ARM GAS  C:\Users\Nathan\AppData\Local\Temp\ccXwghP6.s 			page 88


 5062 05da 81F8C321 		strb	r2, [r1, #451]
 5063 05de 9A08     		lsrs	r2, r3, #2
 5064 05e0 42F03F02 		orr	r2, r2, #63
 5065 05e4 0F46     		mov	r7, r1
 5066 05e6 81F8C421 		strb	r2, [r1, #452]
 5067 05ea 81F8C531 		strb	r3, [r1, #453]
 5068 05ee 5946     		mov	r1, fp
 5069 05f0 07F5E370 		add	r0, r7, #454
 5070 05f4 FFF7FEFF 		bl	st_dword
 5071 05f8 0A99     		ldr	r1, [sp, #40]
 5072 05fa 07F5E570 		add	r0, r7, #458
 5073 05fe FFF7FEFF 		bl	st_dword
 5074 0602 3346     		mov	r3, r6
 5075 0604 2A46     		mov	r2, r5
 5076 0606 3946     		mov	r1, r7
 5077 0608 2046     		mov	r0, r4
 5078 060a FFF7FEFF 		bl	disk_write
 5079 060e A8BB     		cbnz	r0, .L780
 5080              	.L746:
 5081 0610 0022     		movs	r2, #0
 5082 0612 1146     		mov	r1, r2
 5083 0614 2046     		mov	r0, r4
 5084 0616 FFF7FEFF 		bl	disk_ioctl
 5085 061a 40B1     		cbz	r0, .L704
 5086 061c 0120     		movs	r0, #1
 5087 061e 06E0     		b	.L704
 5088              	.L778:
 5089 0620 0627     		movs	r7, #6
 5090 0622 B8E7     		b	.L745
 5091              	.L747:
 5092 0624 0B20     		movs	r0, #11
 5093 0626 02E0     		b	.L704
 5094              	.L748:
 5095 0628 0320     		movs	r0, #3
 5096 062a 00E0     		b	.L704
 5097              	.L749:
 5098 062c 0A20     		movs	r0, #10
 5099              	.L704:
 5100 062e 0DB0     		add	sp, sp, #52
 5101              		@ sp needed
 5102 0630 BDE8F08F 		pop	{r4, r5, r6, r7, r8, r9, r10, fp, pc}
 5103              	.L750:
 5104 0634 1320     		movs	r0, #19
 5105 0636 FAE7     		b	.L704
 5106              	.L751:
 5107 0638 1320     		movs	r0, #19
 5108 063a F8E7     		b	.L704
 5109              	.L752:
 5110 063c 1320     		movs	r0, #19
 5111 063e F6E7     		b	.L704
 5112              	.L753:
 5113 0640 0E20     		movs	r0, #14
 5114 0642 F4E7     		b	.L704
 5115              	.L754:
 5116 0644 0120     		movs	r0, #1
 5117 0646 F2E7     		b	.L704
 5118              	.L756:
ARM GAS  C:\Users\Nathan\AppData\Local\Temp\ccXwghP6.s 			page 89


 5119 0648 0E20     		movs	r0, #14
 5120 064a F0E7     		b	.L704
 5121              	.L757:
 5122 064c 0E20     		movs	r0, #14
 5123 064e EEE7     		b	.L704
 5124              	.L758:
 5125 0650 1320     		movs	r0, #19
 5126 0652 ECE7     		b	.L704
 5127              	.L761:
 5128 0654 1320     		movs	r0, #19
 5129 0656 EAE7     		b	.L704
 5130              	.L763:
 5131 0658 0E20     		movs	r0, #14
 5132 065a E8E7     		b	.L704
 5133              	.L765:
 5134 065c 0E20     		movs	r0, #14
 5135 065e E6E7     		b	.L704
 5136              	.L766:
 5137 0660 0E20     		movs	r0, #14
 5138 0662 E4E7     		b	.L704
 5139              	.L769:
 5140 0664 0E20     		movs	r0, #14
 5141 0666 E2E7     		b	.L704
 5142              	.L770:
 5143 0668 0E20     		movs	r0, #14
 5144 066a E0E7     		b	.L704
 5145              	.L771:
 5146 066c 0E20     		movs	r0, #14
 5147 066e DEE7     		b	.L704
 5148              	.L773:
 5149 0670 0120     		movs	r0, #1
 5150 0672 DCE7     		b	.L704
 5151              	.L775:
 5152 0674 0120     		movs	r0, #1
 5153 0676 DAE7     		b	.L704
 5154              	.L776:
 5155 0678 0120     		movs	r0, #1
 5156 067a D8E7     		b	.L704
 5157              	.L780:
 5158 067c 0120     		movs	r0, #1
 5159 067e D6E7     		b	.L704
 5161              		.section	.text.f_gets,"ax",%progbits
 5162              		.align	1
 5163              		.global	f_gets
 5164              		.syntax unified
 5165              		.thumb
 5166              		.thumb_func
 5168              	f_gets:
 5169              		@ args = 0, pretend = 0, frame = 8
 5170              		@ frame_needed = 0, uses_anonymous_args = 0
 5171 0000 2DE9F041 		push	{r4, r5, r6, r7, r8, lr}
 5172 0004 82B0     		sub	sp, sp, #8
 5173 0006 8046     		mov	r8, r0
 5174 0008 0E46     		mov	r6, r1
 5175 000a 1746     		mov	r7, r2
 5176 000c 0446     		mov	r4, r0
 5177 000e 0025     		movs	r5, #0
ARM GAS  C:\Users\Nathan\AppData\Local\Temp\ccXwghP6.s 			page 90


 5178 0010 01E0     		b	.L804
 5179              	.L809:
 5180 0012 A446     		mov	ip, r4
 5181              	.L806:
 5182 0014 6446     		mov	r4, ip
 5183              	.L804:
 5184 0016 731E     		subs	r3, r6, #1
 5185 0018 AB42     		cmp	r3, r5
 5186 001a 13DD     		ble	.L805
 5187 001c 6B46     		mov	r3, sp
 5188 001e 0122     		movs	r2, #1
 5189 0020 01A9     		add	r1, sp, #4
 5190 0022 3846     		mov	r0, r7
 5191 0024 FFF7FEFF 		bl	f_read
 5192 0028 009B     		ldr	r3, [sp]
 5193 002a 012B     		cmp	r3, #1
 5194 002c 0AD1     		bne	.L805
 5195 002e 9DF80430 		ldrb	r3, [sp, #4]	@ zero_extendqisi2
 5196 0032 0D2B     		cmp	r3, #13
 5197 0034 EDD0     		beq	.L809
 5198 0036 A446     		mov	ip, r4
 5199 0038 0CF8013B 		strb	r3, [ip], #1
 5200 003c 0135     		adds	r5, r5, #1
 5201 003e 0A2B     		cmp	r3, #10
 5202 0040 E8D1     		bne	.L806
 5203 0042 6446     		mov	r4, ip
 5204              	.L805:
 5205 0044 0023     		movs	r3, #0
 5206 0046 2370     		strb	r3, [r4]
 5207 0048 1DB1     		cbz	r5, .L811
 5208 004a 4046     		mov	r0, r8
 5209              	.L803:
 5210 004c 02B0     		add	sp, sp, #8
 5211              		@ sp needed
 5212 004e BDE8F081 		pop	{r4, r5, r6, r7, r8, pc}
 5213              	.L811:
 5214 0052 0020     		movs	r0, #0
 5215 0054 FAE7     		b	.L803
 5217              		.section	.text.f_putc,"ax",%progbits
 5218              		.align	1
 5219              		.global	f_putc
 5220              		.syntax unified
 5221              		.thumb
 5222              		.thumb_func
 5224              	f_putc:
 5225              		@ args = 0, pretend = 0, frame = 80
 5226              		@ frame_needed = 0, uses_anonymous_args = 0
 5227 0000 10B5     		push	{r4, lr}
 5228 0002 94B0     		sub	sp, sp, #80
 5229 0004 0446     		mov	r4, r0
 5230 0006 01A8     		add	r0, sp, #4
 5231 0008 FFF7FEFF 		bl	putc_init
 5232 000c 2146     		mov	r1, r4
 5233 000e 01A8     		add	r0, sp, #4
 5234 0010 FFF7FEFF 		bl	putc_bfd
 5235 0014 01A8     		add	r0, sp, #4
 5236 0016 FFF7FEFF 		bl	putc_flush
ARM GAS  C:\Users\Nathan\AppData\Local\Temp\ccXwghP6.s 			page 91


 5237 001a 14B0     		add	sp, sp, #80
 5238              		@ sp needed
 5239 001c 10BD     		pop	{r4, pc}
 5241              		.section	.text.f_puts,"ax",%progbits
 5242              		.align	1
 5243              		.global	f_puts
 5244              		.syntax unified
 5245              		.thumb
 5246              		.thumb_func
 5248              	f_puts:
 5249              		@ args = 0, pretend = 0, frame = 80
 5250              		@ frame_needed = 0, uses_anonymous_args = 0
 5251 0000 10B5     		push	{r4, lr}
 5252 0002 94B0     		sub	sp, sp, #80
 5253 0004 0446     		mov	r4, r0
 5254 0006 01A8     		add	r0, sp, #4
 5255 0008 FFF7FEFF 		bl	putc_init
 5256 000c 03E0     		b	.L816
 5257              	.L817:
 5258 000e 0134     		adds	r4, r4, #1
 5259 0010 01A8     		add	r0, sp, #4
 5260 0012 FFF7FEFF 		bl	putc_bfd
 5261              	.L816:
 5262 0016 2178     		ldrb	r1, [r4]	@ zero_extendqisi2
 5263 0018 0029     		cmp	r1, #0
 5264 001a F8D1     		bne	.L817
 5265 001c 01A8     		add	r0, sp, #4
 5266 001e FFF7FEFF 		bl	putc_flush
 5267 0022 14B0     		add	sp, sp, #80
 5268              		@ sp needed
 5269 0024 10BD     		pop	{r4, pc}
 5271              		.section	.text.f_printf,"ax",%progbits
 5272              		.align	1
 5273              		.global	f_printf
 5274              		.syntax unified
 5275              		.thumb
 5276              		.thumb_func
 5278              	f_printf:
 5279              		@ args = 4, pretend = 12, frame = 112
 5280              		@ frame_needed = 0, uses_anonymous_args = 1
 5281 0000 0EB4     		push	{r1, r2, r3}
 5282 0002 2DE9F047 		push	{r4, r5, r6, r7, r8, r9, r10, lr}
 5283 0006 9DB0     		sub	sp, sp, #116
 5284 0008 0146     		mov	r1, r0
 5285 000a 25AC     		add	r4, sp, #148
 5286 000c 54F8046B 		ldr	r6, [r4], #4
 5287 0010 08A8     		add	r0, sp, #32
 5288 0012 FFF7FEFF 		bl	putc_init
 5289 0016 1B94     		str	r4, [sp, #108]
 5290              	.L820:
 5291 0018 3446     		mov	r4, r6
 5292 001a 14F8011B 		ldrb	r1, [r4], #1	@ zero_extendqisi2
 5293 001e 0029     		cmp	r1, #0
 5294 0020 00F00481 		beq	.L821
 5295 0024 2529     		cmp	r1, #37
 5296 0026 04D0     		beq	.L822
 5297 0028 08A8     		add	r0, sp, #32
ARM GAS  C:\Users\Nathan\AppData\Local\Temp\ccXwghP6.s 			page 92


 5298 002a FFF7FEFF 		bl	putc_bfd
 5299 002e 2646     		mov	r6, r4
 5300 0030 F2E7     		b	.L820
 5301              	.L822:
 5302 0032 B31C     		adds	r3, r6, #2
 5303 0034 2178     		ldrb	r1, [r4]	@ zero_extendqisi2
 5304 0036 3029     		cmp	r1, #48
 5305 0038 04D0     		beq	.L872
 5306 003a 2D29     		cmp	r1, #45
 5307 003c 06D0     		beq	.L873
 5308 003e 0025     		movs	r5, #0
 5309              	.L825:
 5310 0040 0024     		movs	r4, #0
 5311 0042 0EE0     		b	.L826
 5312              	.L872:
 5313 0044 F31C     		adds	r3, r6, #3
 5314 0046 6178     		ldrb	r1, [r4, #1]	@ zero_extendqisi2
 5315 0048 0125     		movs	r5, #1
 5316 004a F9E7     		b	.L825
 5317              	.L873:
 5318 004c F31C     		adds	r3, r6, #3
 5319 004e 6178     		ldrb	r1, [r4, #1]	@ zero_extendqisi2
 5320 0050 0225     		movs	r5, #2
 5321 0052 F5E7     		b	.L825
 5322              	.L827:
 5323 0054 04EB8404 		add	r4, r4, r4, lsl #2
 5324 0058 01EB4404 		add	r4, r1, r4, lsl #1
 5325 005c 303C     		subs	r4, r4, #48
 5326 005e 13F8011B 		ldrb	r1, [r3], #1	@ zero_extendqisi2
 5327              	.L826:
 5328 0062 A1F13002 		sub	r2, r1, #48
 5329 0066 D2B2     		uxtb	r2, r2
 5330 0068 092A     		cmp	r2, #9
 5331 006a F3D9     		bls	.L827
 5332 006c 6C29     		cmp	r1, #108
 5333 006e 03D0     		beq	.L828
 5334 0070 4C29     		cmp	r1, #76
 5335 0072 01D0     		beq	.L828
 5336 0074 1E46     		mov	r6, r3
 5337 0076 04E0     		b	.L829
 5338              	.L828:
 5339 0078 45F00405 		orr	r5, r5, #4
 5340 007c 1E46     		mov	r6, r3
 5341 007e 16F8011B 		ldrb	r1, [r6], #1	@ zero_extendqisi2
 5342              	.L829:
 5343 0082 0029     		cmp	r1, #0
 5344 0084 00F0D280 		beq	.L821
 5345 0088 A1F16103 		sub	r3, r1, #97
 5346 008c DBB2     		uxtb	r3, r3
 5347 008e 192B     		cmp	r3, #25
 5348 0090 14D8     		bhi	.L866
 5349 0092 A1F12003 		sub	r3, r1, #32
 5350 0096 DBB2     		uxtb	r3, r3
 5351              	.L830:
 5352 0098 A3F14202 		sub	r2, r3, #66
 5353 009c 162A     		cmp	r2, #22
 5354 009e 55D8     		bhi	.L831
ARM GAS  C:\Users\Nathan\AppData\Local\Temp\ccXwghP6.s 			page 93


 5355 00a0 DFE802F0 		tbb	[pc, r2]
 5356              	.L833:
 5357 00a4 58       		.byte	(.L838-.L833)/2
 5358 00a5 3D       		.byte	(.L837-.L833)/2
 5359 00a6 45       		.byte	(.L834-.L833)/2
 5360 00a7 54       		.byte	(.L831-.L833)/2
 5361 00a8 54       		.byte	(.L831-.L833)/2
 5362 00a9 54       		.byte	(.L831-.L833)/2
 5363 00aa 54       		.byte	(.L831-.L833)/2
 5364 00ab 54       		.byte	(.L831-.L833)/2
 5365 00ac 54       		.byte	(.L831-.L833)/2
 5366 00ad 54       		.byte	(.L831-.L833)/2
 5367 00ae 54       		.byte	(.L831-.L833)/2
 5368 00af 54       		.byte	(.L831-.L833)/2
 5369 00b0 54       		.byte	(.L831-.L833)/2
 5370 00b1 5A       		.byte	(.L867-.L833)/2
 5371 00b2 54       		.byte	(.L831-.L833)/2
 5372 00b3 54       		.byte	(.L831-.L833)/2
 5373 00b4 54       		.byte	(.L831-.L833)/2
 5374 00b5 0E       		.byte	(.L835-.L833)/2
 5375 00b6 54       		.byte	(.L831-.L833)/2
 5376 00b7 45       		.byte	(.L834-.L833)/2
 5377 00b8 54       		.byte	(.L831-.L833)/2
 5378 00b9 54       		.byte	(.L831-.L833)/2
 5379 00ba 52       		.byte	(.L832-.L833)/2
 5380 00bb 00       		.p2align 1
 5381              	.L866:
 5382 00bc 0B46     		mov	r3, r1
 5383 00be EBE7     		b	.L830
 5384              	.L835:
 5385 00c0 1B9B     		ldr	r3, [sp, #108]
 5386 00c2 1A1D     		adds	r2, r3, #4
 5387 00c4 1B92     		str	r2, [sp, #108]
 5388 00c6 D3F80080 		ldr	r8, [r3]
 5389 00ca 0027     		movs	r7, #0
 5390 00cc 00E0     		b	.L839
 5391              	.L840:
 5392 00ce 0137     		adds	r7, r7, #1
 5393              	.L839:
 5394 00d0 18F80730 		ldrb	r3, [r8, r7]	@ zero_extendqisi2
 5395 00d4 002B     		cmp	r3, #0
 5396 00d6 FAD1     		bne	.L840
 5397 00d8 15F0020F 		tst	r5, #2
 5398 00dc 10D1     		bne	.L844
 5399 00de 05E0     		b	.L841
 5400              	.L843:
 5401 00e0 2021     		movs	r1, #32
 5402 00e2 0DEB0100 		add	r0, sp, r1
 5403 00e6 FFF7FEFF 		bl	putc_bfd
 5404 00ea 2F46     		mov	r7, r5
 5405              	.L841:
 5406 00ec 7D1C     		adds	r5, r7, #1
 5407 00ee A742     		cmp	r7, r4
 5408 00f0 F6D3     		bcc	.L843
 5409 00f2 2F46     		mov	r7, r5
 5410 00f4 04E0     		b	.L844
 5411              	.L845:
ARM GAS  C:\Users\Nathan\AppData\Local\Temp\ccXwghP6.s 			page 94


 5412 00f6 08F10108 		add	r8, r8, #1
 5413 00fa 08A8     		add	r0, sp, #32
 5414 00fc FFF7FEFF 		bl	putc_bfd
 5415              	.L844:
 5416 0100 98F80010 		ldrb	r1, [r8]	@ zero_extendqisi2
 5417 0104 0029     		cmp	r1, #0
 5418 0106 F6D1     		bne	.L845
 5419 0108 05E0     		b	.L846
 5420              	.L847:
 5421 010a 2021     		movs	r1, #32
 5422 010c 0DEB0100 		add	r0, sp, r1
 5423 0110 FFF7FEFF 		bl	putc_bfd
 5424 0114 2F46     		mov	r7, r5
 5425              	.L846:
 5426 0116 7D1C     		adds	r5, r7, #1
 5427 0118 A742     		cmp	r7, r4
 5428 011a F6D3     		bcc	.L847
 5429 011c 7CE7     		b	.L820
 5430              	.L837:
 5431 011e 1B9B     		ldr	r3, [sp, #108]
 5432 0120 1A1D     		adds	r2, r3, #4
 5433 0122 1B92     		str	r2, [sp, #108]
 5434 0124 1978     		ldrb	r1, [r3]	@ zero_extendqisi2
 5435 0126 08A8     		add	r0, sp, #32
 5436 0128 FFF7FEFF 		bl	putc_bfd
 5437 012c 74E7     		b	.L820
 5438              	.L834:
 5439 012e 0A20     		movs	r0, #10
 5440              	.L836:
 5441 0130 15F0040F 		tst	r5, #4
 5442 0134 12D0     		beq	.L848
 5443 0136 1B9A     		ldr	r2, [sp, #108]
 5444 0138 171D     		adds	r7, r2, #4
 5445 013a 1B97     		str	r7, [sp, #108]
 5446 013c 1268     		ldr	r2, [r2]
 5447 013e 442B     		cmp	r3, #68
 5448 0140 17D0     		beq	.L849
 5449              	.L850:
 5450 0142 4FF0000C 		mov	ip, #0
 5451 0146 2AE0     		b	.L855
 5452              	.L832:
 5453 0148 1020     		movs	r0, #16
 5454 014a F1E7     		b	.L836
 5455              	.L831:
 5456 014c 08A8     		add	r0, sp, #32
 5457 014e FFF7FEFF 		bl	putc_bfd
 5458 0152 61E7     		b	.L820
 5459              	.L838:
 5460 0154 0220     		movs	r0, #2
 5461 0156 EBE7     		b	.L836
 5462              	.L867:
 5463 0158 0820     		movs	r0, #8
 5464 015a E9E7     		b	.L836
 5465              	.L848:
 5466 015c 442B     		cmp	r3, #68
 5467 015e 04D0     		beq	.L874
 5468 0160 1B9B     		ldr	r3, [sp, #108]
ARM GAS  C:\Users\Nathan\AppData\Local\Temp\ccXwghP6.s 			page 95


 5469 0162 1A1D     		adds	r2, r3, #4
 5470 0164 1B92     		str	r2, [sp, #108]
 5471 0166 1A68     		ldr	r2, [r3]
 5472 0168 EBE7     		b	.L850
 5473              	.L874:
 5474 016a 1B9B     		ldr	r3, [sp, #108]
 5475 016c 1A1D     		adds	r2, r3, #4
 5476 016e 1B92     		str	r2, [sp, #108]
 5477 0170 1A68     		ldr	r2, [r3]
 5478              	.L849:
 5479 0172 002A     		cmp	r2, #0
 5480 0174 E5DA     		bge	.L850
 5481 0176 5242     		rsbs	r2, r2, #0
 5482 0178 45F00805 		orr	r5, r5, #8
 5483 017c E1E7     		b	.L850
 5484              	.L875:
 5485 017e 2727     		movs	r7, #39
 5486              	.L853:
 5487 0180 3B44     		add	r3, r3, r7
 5488 0182 DBB2     		uxtb	r3, r3
 5489              	.L852:
 5490 0184 0CF10107 		add	r7, ip, #1
 5491 0188 3033     		adds	r3, r3, #48
 5492 018a 0CF17009 		add	r9, ip, #112
 5493 018e E944     		add	r9, sp, r9
 5494 0190 09F8703C 		strb	r3, [r9, #-112]
 5495 0194 C645     		cmp	lr, r8
 5496 0196 10D8     		bhi	.L854
 5497 0198 1F2F     		cmp	r7, #31
 5498 019a 0ED8     		bhi	.L854
 5499 019c BC46     		mov	ip, r7
 5500              	.L855:
 5501 019e 8646     		mov	lr, r0
 5502 01a0 B2FBF0F7 		udiv	r7, r2, r0
 5503 01a4 00FB1723 		mls	r3, r0, r7, r2
 5504 01a8 DBB2     		uxtb	r3, r3
 5505 01aa 9046     		mov	r8, r2
 5506 01ac 3A46     		mov	r2, r7
 5507 01ae 092B     		cmp	r3, #9
 5508 01b0 E8D9     		bls	.L852
 5509 01b2 7829     		cmp	r1, #120
 5510 01b4 E3D0     		beq	.L875
 5511 01b6 0727     		movs	r7, #7
 5512 01b8 E2E7     		b	.L853
 5513              	.L854:
 5514 01ba 15F0080F 		tst	r5, #8
 5515 01be 08D0     		beq	.L856
 5516 01c0 07F17003 		add	r3, r7, #112
 5517 01c4 0DEB0307 		add	r7, sp, r3
 5518 01c8 2D23     		movs	r3, #45
 5519 01ca 07F8703C 		strb	r3, [r7, #-112]
 5520 01ce 0CF10207 		add	r7, ip, #2
 5521              	.L856:
 5522 01d2 15F0010F 		tst	r5, #1
 5523 01d6 03D0     		beq	.L870
 5524 01d8 4FF0300A 		mov	r10, #48
 5525              	.L857:
ARM GAS  C:\Users\Nathan\AppData\Local\Temp\ccXwghP6.s 			page 96


 5526 01dc B846     		mov	r8, r7
 5527 01de 07E0     		b	.L858
 5528              	.L870:
 5529 01e0 4FF0200A 		mov	r10, #32
 5530 01e4 FAE7     		b	.L857
 5531              	.L860:
 5532 01e6 5146     		mov	r1, r10
 5533 01e8 08A8     		add	r0, sp, #32
 5534 01ea FFF7FEFF 		bl	putc_bfd
 5535 01ee C846     		mov	r8, r9
 5536              	.L858:
 5537 01f0 15F0020F 		tst	r5, #2
 5538 01f4 04D1     		bne	.L861
 5539 01f6 08F10109 		add	r9, r8, #1
 5540 01fa A045     		cmp	r8, r4
 5541 01fc F3D3     		bcc	.L860
 5542 01fe C846     		mov	r8, r9
 5543              	.L861:
 5544 0200 013F     		subs	r7, r7, #1
 5545 0202 07F17003 		add	r3, r7, #112
 5546 0206 6B44     		add	r3, sp, r3
 5547 0208 13F8701C 		ldrb	r1, [r3, #-112]	@ zero_extendqisi2
 5548 020c 08A8     		add	r0, sp, #32
 5549 020e FFF7FEFF 		bl	putc_bfd
 5550 0212 002F     		cmp	r7, #0
 5551 0214 F4D1     		bne	.L861
 5552              	.L862:
 5553 0216 08F10105 		add	r5, r8, #1
 5554 021a A045     		cmp	r8, r4
 5555 021c BFF4FCAE 		bcs	.L820
 5556 0220 5146     		mov	r1, r10
 5557 0222 08A8     		add	r0, sp, #32
 5558 0224 FFF7FEFF 		bl	putc_bfd
 5559 0228 A846     		mov	r8, r5
 5560 022a F4E7     		b	.L862
 5561              	.L821:
 5562 022c 08A8     		add	r0, sp, #32
 5563 022e FFF7FEFF 		bl	putc_flush
 5564 0232 1DB0     		add	sp, sp, #116
 5565              		@ sp needed
 5566 0234 BDE8F047 		pop	{r4, r5, r6, r7, r8, r9, r10, lr}
 5567 0238 03B0     		add	sp, sp, #12
 5568 023a 7047     		bx	lr
 5570              		.section	.rodata.cst.0,"a"
 5571              		.align	2
 5574              	cst.0:
 5575 0000 0100     		.short	1
 5576 0002 0400     		.short	4
 5577 0004 1000     		.short	16
 5578 0006 4000     		.short	64
 5579 0008 0001     		.short	256
 5580 000a 0002     		.short	512
 5581 000c 0000     		.short	0
 5582              		.section	.rodata.cst32.1,"a"
 5583              		.align	2
 5586              	cst32.1:
 5587 0000 0100     		.short	1
ARM GAS  C:\Users\Nathan\AppData\Local\Temp\ccXwghP6.s 			page 97


 5588 0002 0200     		.short	2
 5589 0004 0400     		.short	4
 5590 0006 0800     		.short	8
 5591 0008 1000     		.short	16
 5592 000a 2000     		.short	32
 5593 000c 0000     		.short	0
 5594              		.section	.rodata.ExCvt,"a"
 5595              		.align	2
 5598              	ExCvt:
 5599 0000 43554541 		.ascii	"CUEAAAACEEEIIIAAE\222\222OOOUUYOUO\234O\236\237AIOU"
 5599      41414143 
 5599      45454549 
 5599      49494141 
 5599      4592924F 
 5600 0024 A5A5A6A7 		.ascii	"\245\245\246\247\250\251\252\253\254\255\256\257\260"
 5600      A8A9AAAB 
 5600      ACADAEAF 
 5600      B0
 5601 0031 B1B2B3B4 		.ascii	"\261\262\263\264AAA\270\271\272\273\274\275\276\277"
 5601      414141B8 
 5601      B9BABBBC 
 5601      BDBEBF
 5602 0040 C0C1C2C3 		.ascii	"\300\301\302\303\304\305AA\310\311\312\313\314\315\316"
 5602      C4C54141 
 5602      C8C9CACB 
 5602      CCCDCE
 5603 004f CFD1D145 		.ascii	"\317\321\321EEEIIII\331\332\333\334\335I\337O\341OO"
 5603      45454949 
 5603      4949D9DA 
 5603      DBDCDD49 
 5603      DF4FE14F 
 5604 0064 4F4FE6E8 		.ascii	"OO\346\350\350UUUYY\356\357\360\361\362\363\364\365"
 5604      E8555555 
 5604      5959EEEF 
 5604      F0F1F2F3 
 5604      F4F5
 5605 0076 F6F7F8F9 		.ascii	"\366\367\370\371\372\373\374\375\376\377"
 5605      FAFBFCFD 
 5605      FEFF
 5606              		.section	.bss.Files,"aw",%nobits
 5607              		.align	2
 5610              	Files:
 5611 0000 00000000 		.space	32
 5611      00000000 
 5611      00000000 
 5611      00000000 
 5611      00000000 
 5612              		.section	.bss.Fsid,"aw",%nobits
 5613              		.align	1
 5616              	Fsid:
 5617 0000 0000     		.space	2
 5618              		.section	.bss.FatFs,"aw",%nobits
 5619              		.align	2
 5622              	FatFs:
 5623 0000 00000000 		.space	4
 5624              		.ident	"GCC: (Arm GNU Toolchain 13.3.Rel1 (Build arm-13.24)) 13.3.1 20240614"
ARM GAS  C:\Users\Nathan\AppData\Local\Temp\ccXwghP6.s 			page 98

