ARM GAS  C:\Users\Nathan\AppData\Local\Temp\ccnGQm3b.s 			page 1


   1              		.cpu cortex-m4
   2              		.arch armv7e-m
   3              		.fpu fpv4-sp-d16
   4              		.eabi_attribute 27, 1
   5              		.eabi_attribute 28, 1
   6              		.eabi_attribute 20, 1
   7              		.eabi_attribute 21, 1
   8              		.eabi_attribute 23, 3
   9              		.eabi_attribute 24, 1
  10              		.eabi_attribute 25, 1
  11              		.eabi_attribute 26, 1
  12              		.eabi_attribute 30, 1
  13              		.eabi_attribute 34, 1
  14              		.eabi_attribute 18, 4
  15              		.file	"lsm6dsm_reg.c"
  16              		.text
  17              		.section	.text.lsm6dsm_read_reg,"ax",%progbits
  18              		.align	1
  19              		.weak	lsm6dsm_read_reg
  20              		.syntax unified
  21              		.thumb
  22              		.thumb_func
  24              	lsm6dsm_read_reg:
  25              		@ args = 0, pretend = 0, frame = 0
  26              		@ frame_needed = 0, uses_anonymous_args = 0
  27 0000 20B1     		cbz	r0, .L3
  28 0002 10B5     		push	{r4, lr}
  29 0004 4468     		ldr	r4, [r0, #4]
  30 0006 C068     		ldr	r0, [r0, #12]
  31 0008 A047     		blx	r4
  32 000a 10BD     		pop	{r4, pc}
  33              	.L3:
  34 000c 4FF0FF30 		mov	r0, #-1
  35 0010 7047     		bx	lr
  37              		.section	.text.lsm6dsm_write_reg,"ax",%progbits
  38              		.align	1
  39              		.weak	lsm6dsm_write_reg
  40              		.syntax unified
  41              		.thumb
  42              		.thumb_func
  44              	lsm6dsm_write_reg:
  45              		@ args = 0, pretend = 0, frame = 0
  46              		@ frame_needed = 0, uses_anonymous_args = 0
  47 0000 20B1     		cbz	r0, .L10
  48 0002 10B5     		push	{r4, lr}
  49 0004 0468     		ldr	r4, [r0]
  50 0006 C068     		ldr	r0, [r0, #12]
  51 0008 A047     		blx	r4
  52 000a 10BD     		pop	{r4, pc}
  53              	.L10:
  54 000c 4FF0FF30 		mov	r0, #-1
  55 0010 7047     		bx	lr
  57              		.section	.text.lsm6dsm_from_fs2g_to_mg,"ax",%progbits
  58              		.align	1
  59              		.global	lsm6dsm_from_fs2g_to_mg
  60              		.syntax unified
  61              		.thumb
ARM GAS  C:\Users\Nathan\AppData\Local\Temp\ccnGQm3b.s 			page 2


  62              		.thumb_func
  64              	lsm6dsm_from_fs2g_to_mg:
  65              		@ args = 0, pretend = 0, frame = 0
  66              		@ frame_needed = 0, uses_anonymous_args = 0
  67              		@ link register save eliminated.
  68 0000 07EE900A 		vmov	s15, r0	@ int
  69 0004 F8EEE77A 		vcvt.f32.s32	s15, s15
  70 0008 9FED020A 		vldr.32	s0, .L16
  71 000c 27EE800A 		vmul.f32	s0, s15, s0
  72 0010 7047     		bx	lr
  73              	.L17:
  74 0012 00BF     		.align	2
  75              	.L16:
  76 0014 23DB793D 		.word	1031396131
  78              		.section	.text.lsm6dsm_from_fs4g_to_mg,"ax",%progbits
  79              		.align	1
  80              		.global	lsm6dsm_from_fs4g_to_mg
  81              		.syntax unified
  82              		.thumb
  83              		.thumb_func
  85              	lsm6dsm_from_fs4g_to_mg:
  86              		@ args = 0, pretend = 0, frame = 0
  87              		@ frame_needed = 0, uses_anonymous_args = 0
  88              		@ link register save eliminated.
  89 0000 07EE900A 		vmov	s15, r0	@ int
  90 0004 F8EEE77A 		vcvt.f32.s32	s15, s15
  91 0008 9FED020A 		vldr.32	s0, .L19
  92 000c 27EE800A 		vmul.f32	s0, s15, s0
  93 0010 7047     		bx	lr
  94              	.L20:
  95 0012 00BF     		.align	2
  96              	.L19:
  97 0014 23DBF93D 		.word	1039784739
  99              		.section	.text.lsm6dsm_from_fs8g_to_mg,"ax",%progbits
 100              		.align	1
 101              		.global	lsm6dsm_from_fs8g_to_mg
 102              		.syntax unified
 103              		.thumb
 104              		.thumb_func
 106              	lsm6dsm_from_fs8g_to_mg:
 107              		@ args = 0, pretend = 0, frame = 0
 108              		@ frame_needed = 0, uses_anonymous_args = 0
 109              		@ link register save eliminated.
 110 0000 07EE900A 		vmov	s15, r0	@ int
 111 0004 F8EEE77A 		vcvt.f32.s32	s15, s15
 112 0008 9FED020A 		vldr.32	s0, .L22
 113 000c 27EE800A 		vmul.f32	s0, s15, s0
 114 0010 7047     		bx	lr
 115              	.L23:
 116 0012 00BF     		.align	2
 117              	.L22:
 118 0014 23DB793E 		.word	1048173347
 120              		.section	.text.lsm6dsm_from_fs16g_to_mg,"ax",%progbits
 121              		.align	1
 122              		.global	lsm6dsm_from_fs16g_to_mg
 123              		.syntax unified
 124              		.thumb
ARM GAS  C:\Users\Nathan\AppData\Local\Temp\ccnGQm3b.s 			page 3


 125              		.thumb_func
 127              	lsm6dsm_from_fs16g_to_mg:
 128              		@ args = 0, pretend = 0, frame = 0
 129              		@ frame_needed = 0, uses_anonymous_args = 0
 130              		@ link register save eliminated.
 131 0000 07EE900A 		vmov	s15, r0	@ int
 132 0004 F8EEE77A 		vcvt.f32.s32	s15, s15
 133 0008 9FED020A 		vldr.32	s0, .L25
 134 000c 27EE800A 		vmul.f32	s0, s15, s0
 135 0010 7047     		bx	lr
 136              	.L26:
 137 0012 00BF     		.align	2
 138              	.L25:
 139 0014 23DBF93E 		.word	1056561955
 141              		.section	.text.lsm6dsm_from_fs125dps_to_mdps,"ax",%progbits
 142              		.align	1
 143              		.global	lsm6dsm_from_fs125dps_to_mdps
 144              		.syntax unified
 145              		.thumb
 146              		.thumb_func
 148              	lsm6dsm_from_fs125dps_to_mdps:
 149              		@ args = 0, pretend = 0, frame = 0
 150              		@ frame_needed = 0, uses_anonymous_args = 0
 151              		@ link register save eliminated.
 152 0000 07EE900A 		vmov	s15, r0	@ int
 153 0004 F8EEE77A 		vcvt.f32.s32	s15, s15
 154 0008 9FED020A 		vldr.32	s0, .L28
 155 000c 27EE800A 		vmul.f32	s0, s15, s0
 156 0010 7047     		bx	lr
 157              	.L29:
 158 0012 00BF     		.align	2
 159              	.L28:
 160 0014 00008C40 		.word	1082916864
 162              		.section	.text.lsm6dsm_from_fs250dps_to_mdps,"ax",%progbits
 163              		.align	1
 164              		.global	lsm6dsm_from_fs250dps_to_mdps
 165              		.syntax unified
 166              		.thumb
 167              		.thumb_func
 169              	lsm6dsm_from_fs250dps_to_mdps:
 170              		@ args = 0, pretend = 0, frame = 0
 171              		@ frame_needed = 0, uses_anonymous_args = 0
 172              		@ link register save eliminated.
 173 0000 07EE900A 		vmov	s15, r0	@ int
 174 0004 F8EEE77A 		vcvt.f32.s32	s15, s15
 175 0008 9FED020A 		vldr.32	s0, .L31
 176 000c 27EE800A 		vmul.f32	s0, s15, s0
 177 0010 7047     		bx	lr
 178              	.L32:
 179 0012 00BF     		.align	2
 180              	.L31:
 181 0014 00000C41 		.word	1091305472
 183              		.section	.text.lsm6dsm_from_fs500dps_to_mdps,"ax",%progbits
 184              		.align	1
 185              		.global	lsm6dsm_from_fs500dps_to_mdps
 186              		.syntax unified
 187              		.thumb
ARM GAS  C:\Users\Nathan\AppData\Local\Temp\ccnGQm3b.s 			page 4


 188              		.thumb_func
 190              	lsm6dsm_from_fs500dps_to_mdps:
 191              		@ args = 0, pretend = 0, frame = 0
 192              		@ frame_needed = 0, uses_anonymous_args = 0
 193              		@ link register save eliminated.
 194 0000 07EE900A 		vmov	s15, r0	@ int
 195 0004 F8EEE77A 		vcvt.f32.s32	s15, s15
 196 0008 9FED020A 		vldr.32	s0, .L34
 197 000c 27EE800A 		vmul.f32	s0, s15, s0
 198 0010 7047     		bx	lr
 199              	.L35:
 200 0012 00BF     		.align	2
 201              	.L34:
 202 0014 00008C41 		.word	1099694080
 204              		.section	.text.lsm6dsm_from_fs1000dps_to_mdps,"ax",%progbits
 205              		.align	1
 206              		.global	lsm6dsm_from_fs1000dps_to_mdps
 207              		.syntax unified
 208              		.thumb
 209              		.thumb_func
 211              	lsm6dsm_from_fs1000dps_to_mdps:
 212              		@ args = 0, pretend = 0, frame = 0
 213              		@ frame_needed = 0, uses_anonymous_args = 0
 214              		@ link register save eliminated.
 215 0000 07EE900A 		vmov	s15, r0	@ int
 216 0004 F8EEE77A 		vcvt.f32.s32	s15, s15
 217 0008 9FED020A 		vldr.32	s0, .L37
 218 000c 27EE800A 		vmul.f32	s0, s15, s0
 219 0010 7047     		bx	lr
 220              	.L38:
 221 0012 00BF     		.align	2
 222              	.L37:
 223 0014 00000C42 		.word	1108082688
 225              		.section	.text.lsm6dsm_from_fs2000dps_to_mdps,"ax",%progbits
 226              		.align	1
 227              		.global	lsm6dsm_from_fs2000dps_to_mdps
 228              		.syntax unified
 229              		.thumb
 230              		.thumb_func
 232              	lsm6dsm_from_fs2000dps_to_mdps:
 233              		@ args = 0, pretend = 0, frame = 0
 234              		@ frame_needed = 0, uses_anonymous_args = 0
 235              		@ link register save eliminated.
 236 0000 07EE900A 		vmov	s15, r0	@ int
 237 0004 F8EEE77A 		vcvt.f32.s32	s15, s15
 238 0008 9FED020A 		vldr.32	s0, .L40
 239 000c 27EE800A 		vmul.f32	s0, s15, s0
 240 0010 7047     		bx	lr
 241              	.L41:
 242 0012 00BF     		.align	2
 243              	.L40:
 244 0014 00008C42 		.word	1116471296
 246              		.section	.text.lsm6dsm_from_lsb_to_celsius,"ax",%progbits
 247              		.align	1
 248              		.global	lsm6dsm_from_lsb_to_celsius
 249              		.syntax unified
 250              		.thumb
ARM GAS  C:\Users\Nathan\AppData\Local\Temp\ccnGQm3b.s 			page 5


 251              		.thumb_func
 253              	lsm6dsm_from_lsb_to_celsius:
 254              		@ args = 0, pretend = 0, frame = 0
 255              		@ frame_needed = 0, uses_anonymous_args = 0
 256              		@ link register save eliminated.
 257 0000 07EE900A 		vmov	s15, r0	@ int
 258 0004 F8EEE77A 		vcvt.f32.s32	s15, s15
 259 0008 9FED047A 		vldr.32	s14, .L43
 260 000c 67EE877A 		vmul.f32	s15, s15, s14
 261 0010 B3EE090A 		vmov.f32	s0, #2.5e+1
 262 0014 37EE800A 		vadd.f32	s0, s15, s0
 263 0018 7047     		bx	lr
 264              	.L44:
 265 001a 00BF     		.align	2
 266              	.L43:
 267 001c 0000803B 		.word	998244352
 269              		.section	.text.lsm6dsm_xl_full_scale_set,"ax",%progbits
 270              		.align	1
 271              		.global	lsm6dsm_xl_full_scale_set
 272              		.syntax unified
 273              		.thumb
 274              		.thumb_func
 276              	lsm6dsm_xl_full_scale_set:
 277              		@ args = 0, pretend = 0, frame = 8
 278              		@ frame_needed = 0, uses_anonymous_args = 0
 279 0000 30B5     		push	{r4, r5, lr}
 280 0002 83B0     		sub	sp, sp, #12
 281 0004 0446     		mov	r4, r0
 282 0006 0D46     		mov	r5, r1
 283 0008 0123     		movs	r3, #1
 284 000a 01AA     		add	r2, sp, #4
 285 000c 1021     		movs	r1, #16
 286 000e FFF7FEFF 		bl	lsm6dsm_read_reg
 287 0012 08B1     		cbz	r0, .L48
 288              	.L45:
 289 0014 03B0     		add	sp, sp, #12
 290              		@ sp needed
 291 0016 30BD     		pop	{r4, r5, pc}
 292              	.L48:
 293 0018 9DF80430 		ldrb	r3, [sp, #4]	@ zero_extendqisi2
 294 001c 65F38303 		bfi	r3, r5, #2, #2
 295 0020 8DF80430 		strb	r3, [sp, #4]
 296 0024 0123     		movs	r3, #1
 297 0026 01AA     		add	r2, sp, #4
 298 0028 1021     		movs	r1, #16
 299 002a 2046     		mov	r0, r4
 300 002c FFF7FEFF 		bl	lsm6dsm_write_reg
 301 0030 F0E7     		b	.L45
 303              		.section	.text.lsm6dsm_xl_full_scale_get,"ax",%progbits
 304              		.align	1
 305              		.global	lsm6dsm_xl_full_scale_get
 306              		.syntax unified
 307              		.thumb
 308              		.thumb_func
 310              	lsm6dsm_xl_full_scale_get:
 311              		@ args = 0, pretend = 0, frame = 8
 312              		@ frame_needed = 0, uses_anonymous_args = 0
ARM GAS  C:\Users\Nathan\AppData\Local\Temp\ccnGQm3b.s 			page 6


 313 0000 10B5     		push	{r4, lr}
 314 0002 82B0     		sub	sp, sp, #8
 315 0004 0C46     		mov	r4, r1
 316 0006 0123     		movs	r3, #1
 317 0008 01AA     		add	r2, sp, #4
 318 000a 1021     		movs	r1, #16
 319 000c FFF7FEFF 		bl	lsm6dsm_read_reg
 320 0010 9DF80430 		ldrb	r3, [sp, #4]	@ zero_extendqisi2
 321 0014 C3F38103 		ubfx	r3, r3, #2, #2
 322 0018 032B     		cmp	r3, #3
 323 001a 10D8     		bhi	.L50
 324 001c DFE803F0 		tbb	[pc, r3]
 325              	.L52:
 326 0020 02       		.byte	(.L55-.L52)/2
 327 0021 06       		.byte	(.L54-.L52)/2
 328 0022 09       		.byte	(.L53-.L52)/2
 329 0023 0C       		.byte	(.L51-.L52)/2
 330              		.p2align 1
 331              	.L55:
 332 0024 0023     		movs	r3, #0
 333 0026 2370     		strb	r3, [r4]
 334              	.L49:
 335 0028 02B0     		add	sp, sp, #8
 336              		@ sp needed
 337 002a 10BD     		pop	{r4, pc}
 338              	.L54:
 339 002c 0123     		movs	r3, #1
 340 002e 2370     		strb	r3, [r4]
 341 0030 FAE7     		b	.L49
 342              	.L53:
 343 0032 0223     		movs	r3, #2
 344 0034 2370     		strb	r3, [r4]
 345 0036 F7E7     		b	.L49
 346              	.L51:
 347 0038 0323     		movs	r3, #3
 348 003a 2370     		strb	r3, [r4]
 349 003c F4E7     		b	.L49
 350              	.L50:
 351 003e 0023     		movs	r3, #0
 352 0040 2370     		strb	r3, [r4]
 353 0042 F1E7     		b	.L49
 355              		.section	.text.lsm6dsm_xl_data_rate_set,"ax",%progbits
 356              		.align	1
 357              		.global	lsm6dsm_xl_data_rate_set
 358              		.syntax unified
 359              		.thumb
 360              		.thumb_func
 362              	lsm6dsm_xl_data_rate_set:
 363              		@ args = 0, pretend = 0, frame = 8
 364              		@ frame_needed = 0, uses_anonymous_args = 0
 365 0000 30B5     		push	{r4, r5, lr}
 366 0002 83B0     		sub	sp, sp, #12
 367 0004 0446     		mov	r4, r0
 368 0006 0D46     		mov	r5, r1
 369 0008 0123     		movs	r3, #1
 370 000a 01AA     		add	r2, sp, #4
 371 000c 1021     		movs	r1, #16
ARM GAS  C:\Users\Nathan\AppData\Local\Temp\ccnGQm3b.s 			page 7


 372 000e FFF7FEFF 		bl	lsm6dsm_read_reg
 373 0012 08B1     		cbz	r0, .L61
 374              	.L58:
 375 0014 03B0     		add	sp, sp, #12
 376              		@ sp needed
 377 0016 30BD     		pop	{r4, r5, pc}
 378              	.L61:
 379 0018 9DF80430 		ldrb	r3, [sp, #4]	@ zero_extendqisi2
 380 001c 65F30713 		bfi	r3, r5, #4, #4
 381 0020 8DF80430 		strb	r3, [sp, #4]
 382 0024 0123     		movs	r3, #1
 383 0026 01AA     		add	r2, sp, #4
 384 0028 1021     		movs	r1, #16
 385 002a 2046     		mov	r0, r4
 386 002c FFF7FEFF 		bl	lsm6dsm_write_reg
 387 0030 F0E7     		b	.L58
 389              		.section	.text.lsm6dsm_xl_data_rate_get,"ax",%progbits
 390              		.align	1
 391              		.global	lsm6dsm_xl_data_rate_get
 392              		.syntax unified
 393              		.thumb
 394              		.thumb_func
 396              	lsm6dsm_xl_data_rate_get:
 397              		@ args = 0, pretend = 0, frame = 8
 398              		@ frame_needed = 0, uses_anonymous_args = 0
 399 0000 10B5     		push	{r4, lr}
 400 0002 82B0     		sub	sp, sp, #8
 401 0004 0C46     		mov	r4, r1
 402 0006 0123     		movs	r3, #1
 403 0008 01AA     		add	r2, sp, #4
 404 000a 1021     		movs	r1, #16
 405 000c FFF7FEFF 		bl	lsm6dsm_read_reg
 406 0010 9DF80430 		ldrb	r3, [sp, #4]	@ zero_extendqisi2
 407 0014 1B09     		lsrs	r3, r3, #4
 408 0016 0B2B     		cmp	r3, #11
 409 0018 2CD8     		bhi	.L63
 410 001a DFE803F0 		tbb	[pc, r3]
 411              	.L65:
 412 001e 06       		.byte	(.L76-.L65)/2
 413 001f 0A       		.byte	(.L75-.L65)/2
 414 0020 0D       		.byte	(.L74-.L65)/2
 415 0021 10       		.byte	(.L73-.L65)/2
 416 0022 13       		.byte	(.L72-.L65)/2
 417 0023 16       		.byte	(.L71-.L65)/2
 418 0024 19       		.byte	(.L70-.L65)/2
 419 0025 1C       		.byte	(.L69-.L65)/2
 420 0026 1F       		.byte	(.L68-.L65)/2
 421 0027 22       		.byte	(.L67-.L65)/2
 422 0028 25       		.byte	(.L66-.L65)/2
 423 0029 28       		.byte	(.L64-.L65)/2
 424              		.p2align 1
 425              	.L76:
 426 002a 0023     		movs	r3, #0
 427 002c 2370     		strb	r3, [r4]
 428              	.L62:
 429 002e 02B0     		add	sp, sp, #8
 430              		@ sp needed
ARM GAS  C:\Users\Nathan\AppData\Local\Temp\ccnGQm3b.s 			page 8


 431 0030 10BD     		pop	{r4, pc}
 432              	.L75:
 433 0032 0123     		movs	r3, #1
 434 0034 2370     		strb	r3, [r4]
 435 0036 FAE7     		b	.L62
 436              	.L74:
 437 0038 0223     		movs	r3, #2
 438 003a 2370     		strb	r3, [r4]
 439 003c F7E7     		b	.L62
 440              	.L73:
 441 003e 0323     		movs	r3, #3
 442 0040 2370     		strb	r3, [r4]
 443 0042 F4E7     		b	.L62
 444              	.L72:
 445 0044 0423     		movs	r3, #4
 446 0046 2370     		strb	r3, [r4]
 447 0048 F1E7     		b	.L62
 448              	.L71:
 449 004a 0523     		movs	r3, #5
 450 004c 2370     		strb	r3, [r4]
 451 004e EEE7     		b	.L62
 452              	.L70:
 453 0050 0623     		movs	r3, #6
 454 0052 2370     		strb	r3, [r4]
 455 0054 EBE7     		b	.L62
 456              	.L69:
 457 0056 0723     		movs	r3, #7
 458 0058 2370     		strb	r3, [r4]
 459 005a E8E7     		b	.L62
 460              	.L68:
 461 005c 0823     		movs	r3, #8
 462 005e 2370     		strb	r3, [r4]
 463 0060 E5E7     		b	.L62
 464              	.L67:
 465 0062 0923     		movs	r3, #9
 466 0064 2370     		strb	r3, [r4]
 467 0066 E2E7     		b	.L62
 468              	.L66:
 469 0068 0A23     		movs	r3, #10
 470 006a 2370     		strb	r3, [r4]
 471 006c DFE7     		b	.L62
 472              	.L64:
 473 006e 0B23     		movs	r3, #11
 474 0070 2370     		strb	r3, [r4]
 475 0072 DCE7     		b	.L62
 476              	.L63:
 477 0074 0023     		movs	r3, #0
 478 0076 2370     		strb	r3, [r4]
 479 0078 D9E7     		b	.L62
 481              		.section	.text.lsm6dsm_gy_full_scale_set,"ax",%progbits
 482              		.align	1
 483              		.global	lsm6dsm_gy_full_scale_set
 484              		.syntax unified
 485              		.thumb
 486              		.thumb_func
 488              	lsm6dsm_gy_full_scale_set:
 489              		@ args = 0, pretend = 0, frame = 8
ARM GAS  C:\Users\Nathan\AppData\Local\Temp\ccnGQm3b.s 			page 9


 490              		@ frame_needed = 0, uses_anonymous_args = 0
 491 0000 30B5     		push	{r4, r5, lr}
 492 0002 83B0     		sub	sp, sp, #12
 493 0004 0446     		mov	r4, r0
 494 0006 0D46     		mov	r5, r1
 495 0008 0123     		movs	r3, #1
 496 000a 01AA     		add	r2, sp, #4
 497 000c 1121     		movs	r1, #17
 498 000e FFF7FEFF 		bl	lsm6dsm_read_reg
 499 0012 08B1     		cbz	r0, .L82
 500              	.L79:
 501 0014 03B0     		add	sp, sp, #12
 502              		@ sp needed
 503 0016 30BD     		pop	{r4, r5, pc}
 504              	.L82:
 505 0018 9DF80430 		ldrb	r3, [sp, #4]	@ zero_extendqisi2
 506 001c 65F34303 		bfi	r3, r5, #1, #3
 507 0020 8DF80430 		strb	r3, [sp, #4]
 508 0024 0123     		movs	r3, #1
 509 0026 01AA     		add	r2, sp, #4
 510 0028 1121     		movs	r1, #17
 511 002a 2046     		mov	r0, r4
 512 002c FFF7FEFF 		bl	lsm6dsm_write_reg
 513 0030 F0E7     		b	.L79
 515              		.section	.text.lsm6dsm_gy_full_scale_get,"ax",%progbits
 516              		.align	1
 517              		.global	lsm6dsm_gy_full_scale_get
 518              		.syntax unified
 519              		.thumb
 520              		.thumb_func
 522              	lsm6dsm_gy_full_scale_get:
 523              		@ args = 0, pretend = 0, frame = 8
 524              		@ frame_needed = 0, uses_anonymous_args = 0
 525 0000 10B5     		push	{r4, lr}
 526 0002 82B0     		sub	sp, sp, #8
 527 0004 0C46     		mov	r4, r1
 528 0006 0123     		movs	r3, #1
 529 0008 01AA     		add	r2, sp, #4
 530 000a 1121     		movs	r1, #17
 531 000c FFF7FEFF 		bl	lsm6dsm_read_reg
 532 0010 9DF80430 		ldrb	r3, [sp, #4]	@ zero_extendqisi2
 533 0014 C3F34203 		ubfx	r3, r3, #1, #3
 534 0018 062B     		cmp	r3, #6
 535 001a 15D8     		bhi	.L84
 536 001c DFE803F0 		tbb	[pc, r3]
 537              	.L86:
 538 0020 04       		.byte	(.L90-.L86)/2
 539 0021 08       		.byte	(.L89-.L86)/2
 540 0022 0B       		.byte	(.L88-.L86)/2
 541 0023 14       		.byte	(.L84-.L86)/2
 542 0024 0E       		.byte	(.L87-.L86)/2
 543 0025 14       		.byte	(.L84-.L86)/2
 544 0026 11       		.byte	(.L85-.L86)/2
 545 0027 00       		.p2align 1
 546              	.L90:
 547 0028 0023     		movs	r3, #0
 548 002a 2370     		strb	r3, [r4]
ARM GAS  C:\Users\Nathan\AppData\Local\Temp\ccnGQm3b.s 			page 10


 549              	.L83:
 550 002c 02B0     		add	sp, sp, #8
 551              		@ sp needed
 552 002e 10BD     		pop	{r4, pc}
 553              	.L89:
 554 0030 0123     		movs	r3, #1
 555 0032 2370     		strb	r3, [r4]
 556 0034 FAE7     		b	.L83
 557              	.L88:
 558 0036 0223     		movs	r3, #2
 559 0038 2370     		strb	r3, [r4]
 560 003a F7E7     		b	.L83
 561              	.L87:
 562 003c 0423     		movs	r3, #4
 563 003e 2370     		strb	r3, [r4]
 564 0040 F4E7     		b	.L83
 565              	.L85:
 566 0042 0623     		movs	r3, #6
 567 0044 2370     		strb	r3, [r4]
 568 0046 F1E7     		b	.L83
 569              	.L84:
 570 0048 0023     		movs	r3, #0
 571 004a 2370     		strb	r3, [r4]
 572 004c EEE7     		b	.L83
 574              		.section	.text.lsm6dsm_gy_data_rate_set,"ax",%progbits
 575              		.align	1
 576              		.global	lsm6dsm_gy_data_rate_set
 577              		.syntax unified
 578              		.thumb
 579              		.thumb_func
 581              	lsm6dsm_gy_data_rate_set:
 582              		@ args = 0, pretend = 0, frame = 8
 583              		@ frame_needed = 0, uses_anonymous_args = 0
 584 0000 30B5     		push	{r4, r5, lr}
 585 0002 83B0     		sub	sp, sp, #12
 586 0004 0446     		mov	r4, r0
 587 0006 0D46     		mov	r5, r1
 588 0008 0123     		movs	r3, #1
 589 000a 01AA     		add	r2, sp, #4
 590 000c 1121     		movs	r1, #17
 591 000e FFF7FEFF 		bl	lsm6dsm_read_reg
 592 0012 08B1     		cbz	r0, .L96
 593              	.L93:
 594 0014 03B0     		add	sp, sp, #12
 595              		@ sp needed
 596 0016 30BD     		pop	{r4, r5, pc}
 597              	.L96:
 598 0018 9DF80430 		ldrb	r3, [sp, #4]	@ zero_extendqisi2
 599 001c 65F30713 		bfi	r3, r5, #4, #4
 600 0020 8DF80430 		strb	r3, [sp, #4]
 601 0024 0123     		movs	r3, #1
 602 0026 01AA     		add	r2, sp, #4
 603 0028 1121     		movs	r1, #17
 604 002a 2046     		mov	r0, r4
 605 002c FFF7FEFF 		bl	lsm6dsm_write_reg
 606 0030 F0E7     		b	.L93
 608              		.section	.text.lsm6dsm_gy_data_rate_get,"ax",%progbits
ARM GAS  C:\Users\Nathan\AppData\Local\Temp\ccnGQm3b.s 			page 11


 609              		.align	1
 610              		.global	lsm6dsm_gy_data_rate_get
 611              		.syntax unified
 612              		.thumb
 613              		.thumb_func
 615              	lsm6dsm_gy_data_rate_get:
 616              		@ args = 0, pretend = 0, frame = 8
 617              		@ frame_needed = 0, uses_anonymous_args = 0
 618 0000 10B5     		push	{r4, lr}
 619 0002 82B0     		sub	sp, sp, #8
 620 0004 0C46     		mov	r4, r1
 621 0006 0123     		movs	r3, #1
 622 0008 01AA     		add	r2, sp, #4
 623 000a 1121     		movs	r1, #17
 624 000c FFF7FEFF 		bl	lsm6dsm_read_reg
 625 0010 9DF80430 		ldrb	r3, [sp, #4]	@ zero_extendqisi2
 626 0014 1B09     		lsrs	r3, r3, #4
 627 0016 0A2B     		cmp	r3, #10
 628 0018 29D8     		bhi	.L98
 629 001a DFE803F0 		tbb	[pc, r3]
 630              	.L100:
 631 001e 06       		.byte	(.L110-.L100)/2
 632 001f 0A       		.byte	(.L109-.L100)/2
 633 0020 0D       		.byte	(.L108-.L100)/2
 634 0021 10       		.byte	(.L107-.L100)/2
 635 0022 13       		.byte	(.L106-.L100)/2
 636 0023 16       		.byte	(.L105-.L100)/2
 637 0024 19       		.byte	(.L104-.L100)/2
 638 0025 1C       		.byte	(.L103-.L100)/2
 639 0026 1F       		.byte	(.L102-.L100)/2
 640 0027 22       		.byte	(.L101-.L100)/2
 641 0028 25       		.byte	(.L99-.L100)/2
 642 0029 00       		.p2align 1
 643              	.L110:
 644 002a 0023     		movs	r3, #0
 645 002c 2370     		strb	r3, [r4]
 646              	.L97:
 647 002e 02B0     		add	sp, sp, #8
 648              		@ sp needed
 649 0030 10BD     		pop	{r4, pc}
 650              	.L109:
 651 0032 0123     		movs	r3, #1
 652 0034 2370     		strb	r3, [r4]
 653 0036 FAE7     		b	.L97
 654              	.L108:
 655 0038 0223     		movs	r3, #2
 656 003a 2370     		strb	r3, [r4]
 657 003c F7E7     		b	.L97
 658              	.L107:
 659 003e 0323     		movs	r3, #3
 660 0040 2370     		strb	r3, [r4]
 661 0042 F4E7     		b	.L97
 662              	.L106:
 663 0044 0423     		movs	r3, #4
 664 0046 2370     		strb	r3, [r4]
 665 0048 F1E7     		b	.L97
 666              	.L105:
ARM GAS  C:\Users\Nathan\AppData\Local\Temp\ccnGQm3b.s 			page 12


 667 004a 0523     		movs	r3, #5
 668 004c 2370     		strb	r3, [r4]
 669 004e EEE7     		b	.L97
 670              	.L104:
 671 0050 0623     		movs	r3, #6
 672 0052 2370     		strb	r3, [r4]
 673 0054 EBE7     		b	.L97
 674              	.L103:
 675 0056 0723     		movs	r3, #7
 676 0058 2370     		strb	r3, [r4]
 677 005a E8E7     		b	.L97
 678              	.L102:
 679 005c 0823     		movs	r3, #8
 680 005e 2370     		strb	r3, [r4]
 681 0060 E5E7     		b	.L97
 682              	.L101:
 683 0062 0923     		movs	r3, #9
 684 0064 2370     		strb	r3, [r4]
 685 0066 E2E7     		b	.L97
 686              	.L99:
 687 0068 0A23     		movs	r3, #10
 688 006a 2370     		strb	r3, [r4]
 689 006c DFE7     		b	.L97
 690              	.L98:
 691 006e 0023     		movs	r3, #0
 692 0070 2370     		strb	r3, [r4]
 693 0072 DCE7     		b	.L97
 695              		.section	.text.lsm6dsm_block_data_update_set,"ax",%progbits
 696              		.align	1
 697              		.global	lsm6dsm_block_data_update_set
 698              		.syntax unified
 699              		.thumb
 700              		.thumb_func
 702              	lsm6dsm_block_data_update_set:
 703              		@ args = 0, pretend = 0, frame = 8
 704              		@ frame_needed = 0, uses_anonymous_args = 0
 705 0000 30B5     		push	{r4, r5, lr}
 706 0002 83B0     		sub	sp, sp, #12
 707 0004 0446     		mov	r4, r0
 708 0006 0D46     		mov	r5, r1
 709 0008 0123     		movs	r3, #1
 710 000a 01AA     		add	r2, sp, #4
 711 000c 1221     		movs	r1, #18
 712 000e FFF7FEFF 		bl	lsm6dsm_read_reg
 713 0012 08B1     		cbz	r0, .L116
 714              	.L113:
 715 0014 03B0     		add	sp, sp, #12
 716              		@ sp needed
 717 0016 30BD     		pop	{r4, r5, pc}
 718              	.L116:
 719 0018 9DF80430 		ldrb	r3, [sp, #4]	@ zero_extendqisi2
 720 001c 65F38613 		bfi	r3, r5, #6, #1
 721 0020 8DF80430 		strb	r3, [sp, #4]
 722 0024 0123     		movs	r3, #1
 723 0026 01AA     		add	r2, sp, #4
 724 0028 1221     		movs	r1, #18
 725 002a 2046     		mov	r0, r4
ARM GAS  C:\Users\Nathan\AppData\Local\Temp\ccnGQm3b.s 			page 13


 726 002c FFF7FEFF 		bl	lsm6dsm_write_reg
 727 0030 F0E7     		b	.L113
 729              		.section	.text.lsm6dsm_block_data_update_get,"ax",%progbits
 730              		.align	1
 731              		.global	lsm6dsm_block_data_update_get
 732              		.syntax unified
 733              		.thumb
 734              		.thumb_func
 736              	lsm6dsm_block_data_update_get:
 737              		@ args = 0, pretend = 0, frame = 8
 738              		@ frame_needed = 0, uses_anonymous_args = 0
 739 0000 10B5     		push	{r4, lr}
 740 0002 82B0     		sub	sp, sp, #8
 741 0004 0C46     		mov	r4, r1
 742 0006 0123     		movs	r3, #1
 743 0008 01AA     		add	r2, sp, #4
 744 000a 1221     		movs	r1, #18
 745 000c FFF7FEFF 		bl	lsm6dsm_read_reg
 746 0010 9DF80430 		ldrb	r3, [sp, #4]	@ zero_extendqisi2
 747 0014 C3F38013 		ubfx	r3, r3, #6, #1
 748 0018 2370     		strb	r3, [r4]
 749 001a 02B0     		add	sp, sp, #8
 750              		@ sp needed
 751 001c 10BD     		pop	{r4, pc}
 753              		.section	.text.lsm6dsm_xl_offset_weight_set,"ax",%progbits
 754              		.align	1
 755              		.global	lsm6dsm_xl_offset_weight_set
 756              		.syntax unified
 757              		.thumb
 758              		.thumb_func
 760              	lsm6dsm_xl_offset_weight_set:
 761              		@ args = 0, pretend = 0, frame = 8
 762              		@ frame_needed = 0, uses_anonymous_args = 0
 763 0000 30B5     		push	{r4, r5, lr}
 764 0002 83B0     		sub	sp, sp, #12
 765 0004 0446     		mov	r4, r0
 766 0006 0D46     		mov	r5, r1
 767 0008 0123     		movs	r3, #1
 768 000a 01AA     		add	r2, sp, #4
 769 000c 1521     		movs	r1, #21
 770 000e FFF7FEFF 		bl	lsm6dsm_read_reg
 771 0012 08B1     		cbz	r0, .L122
 772              	.L119:
 773 0014 03B0     		add	sp, sp, #12
 774              		@ sp needed
 775 0016 30BD     		pop	{r4, r5, pc}
 776              	.L122:
 777 0018 9DF80430 		ldrb	r3, [sp, #4]	@ zero_extendqisi2
 778 001c 65F3C303 		bfi	r3, r5, #3, #1
 779 0020 8DF80430 		strb	r3, [sp, #4]
 780 0024 0123     		movs	r3, #1
 781 0026 01AA     		add	r2, sp, #4
 782 0028 1521     		movs	r1, #21
 783 002a 2046     		mov	r0, r4
 784 002c FFF7FEFF 		bl	lsm6dsm_write_reg
 785 0030 F0E7     		b	.L119
 787              		.section	.text.lsm6dsm_xl_offset_weight_get,"ax",%progbits
ARM GAS  C:\Users\Nathan\AppData\Local\Temp\ccnGQm3b.s 			page 14


 788              		.align	1
 789              		.global	lsm6dsm_xl_offset_weight_get
 790              		.syntax unified
 791              		.thumb
 792              		.thumb_func
 794              	lsm6dsm_xl_offset_weight_get:
 795              		@ args = 0, pretend = 0, frame = 8
 796              		@ frame_needed = 0, uses_anonymous_args = 0
 797 0000 10B5     		push	{r4, lr}
 798 0002 82B0     		sub	sp, sp, #8
 799 0004 0C46     		mov	r4, r1
 800 0006 0123     		movs	r3, #1
 801 0008 01AA     		add	r2, sp, #4
 802 000a 1521     		movs	r1, #21
 803 000c FFF7FEFF 		bl	lsm6dsm_read_reg
 804 0010 9DF80430 		ldrb	r3, [sp, #4]	@ zero_extendqisi2
 805 0014 C3F3C002 		ubfx	r2, r3, #3, #1
 806 0018 13F0080F 		tst	r3, #8
 807 001c 03D0     		beq	.L124
 808 001e 32B9     		cbnz	r2, .L125
 809 0020 0023     		movs	r3, #0
 810 0022 2370     		strb	r3, [r4]
 811 0024 01E0     		b	.L123
 812              	.L124:
 813 0026 0023     		movs	r3, #0
 814 0028 2370     		strb	r3, [r4]
 815              	.L123:
 816 002a 02B0     		add	sp, sp, #8
 817              		@ sp needed
 818 002c 10BD     		pop	{r4, pc}
 819              	.L125:
 820 002e 0123     		movs	r3, #1
 821 0030 2370     		strb	r3, [r4]
 822 0032 FAE7     		b	.L123
 824              		.section	.text.lsm6dsm_xl_power_mode_set,"ax",%progbits
 825              		.align	1
 826              		.global	lsm6dsm_xl_power_mode_set
 827              		.syntax unified
 828              		.thumb
 829              		.thumb_func
 831              	lsm6dsm_xl_power_mode_set:
 832              		@ args = 0, pretend = 0, frame = 8
 833              		@ frame_needed = 0, uses_anonymous_args = 0
 834 0000 30B5     		push	{r4, r5, lr}
 835 0002 83B0     		sub	sp, sp, #12
 836 0004 0446     		mov	r4, r0
 837 0006 0D46     		mov	r5, r1
 838 0008 0123     		movs	r3, #1
 839 000a 01AA     		add	r2, sp, #4
 840 000c 1521     		movs	r1, #21
 841 000e FFF7FEFF 		bl	lsm6dsm_read_reg
 842 0012 08B1     		cbz	r0, .L133
 843              	.L130:
 844 0014 03B0     		add	sp, sp, #12
 845              		@ sp needed
 846 0016 30BD     		pop	{r4, r5, pc}
 847              	.L133:
ARM GAS  C:\Users\Nathan\AppData\Local\Temp\ccnGQm3b.s 			page 15


 848 0018 9DF80430 		ldrb	r3, [sp, #4]	@ zero_extendqisi2
 849 001c 65F30413 		bfi	r3, r5, #4, #1
 850 0020 8DF80430 		strb	r3, [sp, #4]
 851 0024 0123     		movs	r3, #1
 852 0026 01AA     		add	r2, sp, #4
 853 0028 1521     		movs	r1, #21
 854 002a 2046     		mov	r0, r4
 855 002c FFF7FEFF 		bl	lsm6dsm_write_reg
 856 0030 F0E7     		b	.L130
 858              		.section	.text.lsm6dsm_xl_power_mode_get,"ax",%progbits
 859              		.align	1
 860              		.global	lsm6dsm_xl_power_mode_get
 861              		.syntax unified
 862              		.thumb
 863              		.thumb_func
 865              	lsm6dsm_xl_power_mode_get:
 866              		@ args = 0, pretend = 0, frame = 8
 867              		@ frame_needed = 0, uses_anonymous_args = 0
 868 0000 10B5     		push	{r4, lr}
 869 0002 82B0     		sub	sp, sp, #8
 870 0004 0C46     		mov	r4, r1
 871 0006 0123     		movs	r3, #1
 872 0008 01AA     		add	r2, sp, #4
 873 000a 1521     		movs	r1, #21
 874 000c FFF7FEFF 		bl	lsm6dsm_read_reg
 875 0010 9DF80430 		ldrb	r3, [sp, #4]	@ zero_extendqisi2
 876 0014 C3F30012 		ubfx	r2, r3, #4, #1
 877 0018 13F0100F 		tst	r3, #16
 878 001c 03D0     		beq	.L135
 879 001e 32B9     		cbnz	r2, .L136
 880 0020 0023     		movs	r3, #0
 881 0022 2370     		strb	r3, [r4]
 882 0024 01E0     		b	.L134
 883              	.L135:
 884 0026 0023     		movs	r3, #0
 885 0028 2370     		strb	r3, [r4]
 886              	.L134:
 887 002a 02B0     		add	sp, sp, #8
 888              		@ sp needed
 889 002c 10BD     		pop	{r4, pc}
 890              	.L136:
 891 002e 0123     		movs	r3, #1
 892 0030 2370     		strb	r3, [r4]
 893 0032 FAE7     		b	.L134
 895              		.section	.text.lsm6dsm_rounding_on_status_set,"ax",%progbits
 896              		.align	1
 897              		.global	lsm6dsm_rounding_on_status_set
 898              		.syntax unified
 899              		.thumb
 900              		.thumb_func
 902              	lsm6dsm_rounding_on_status_set:
 903              		@ args = 0, pretend = 0, frame = 8
 904              		@ frame_needed = 0, uses_anonymous_args = 0
 905 0000 30B5     		push	{r4, r5, lr}
 906 0002 83B0     		sub	sp, sp, #12
 907 0004 0446     		mov	r4, r0
 908 0006 0D46     		mov	r5, r1
ARM GAS  C:\Users\Nathan\AppData\Local\Temp\ccnGQm3b.s 			page 16


 909 0008 0123     		movs	r3, #1
 910 000a 01AA     		add	r2, sp, #4
 911 000c 1621     		movs	r1, #22
 912 000e FFF7FEFF 		bl	lsm6dsm_read_reg
 913 0012 08B1     		cbz	r0, .L144
 914              	.L141:
 915 0014 03B0     		add	sp, sp, #12
 916              		@ sp needed
 917 0016 30BD     		pop	{r4, r5, pc}
 918              	.L144:
 919 0018 9DF80430 		ldrb	r3, [sp, #4]	@ zero_extendqisi2
 920 001c 65F38203 		bfi	r3, r5, #2, #1
 921 0020 8DF80430 		strb	r3, [sp, #4]
 922 0024 0123     		movs	r3, #1
 923 0026 01AA     		add	r2, sp, #4
 924 0028 1621     		movs	r1, #22
 925 002a 2046     		mov	r0, r4
 926 002c FFF7FEFF 		bl	lsm6dsm_write_reg
 927 0030 F0E7     		b	.L141
 929              		.section	.text.lsm6dsm_rounding_on_status_get,"ax",%progbits
 930              		.align	1
 931              		.global	lsm6dsm_rounding_on_status_get
 932              		.syntax unified
 933              		.thumb
 934              		.thumb_func
 936              	lsm6dsm_rounding_on_status_get:
 937              		@ args = 0, pretend = 0, frame = 8
 938              		@ frame_needed = 0, uses_anonymous_args = 0
 939 0000 10B5     		push	{r4, lr}
 940 0002 82B0     		sub	sp, sp, #8
 941 0004 0C46     		mov	r4, r1
 942 0006 0123     		movs	r3, #1
 943 0008 01AA     		add	r2, sp, #4
 944 000a 1621     		movs	r1, #22
 945 000c FFF7FEFF 		bl	lsm6dsm_read_reg
 946 0010 9DF80430 		ldrb	r3, [sp, #4]	@ zero_extendqisi2
 947 0014 C3F38002 		ubfx	r2, r3, #2, #1
 948 0018 13F0040F 		tst	r3, #4
 949 001c 03D0     		beq	.L146
 950 001e 32B9     		cbnz	r2, .L147
 951 0020 0023     		movs	r3, #0
 952 0022 2370     		strb	r3, [r4]
 953 0024 01E0     		b	.L145
 954              	.L146:
 955 0026 0023     		movs	r3, #0
 956 0028 2370     		strb	r3, [r4]
 957              	.L145:
 958 002a 02B0     		add	sp, sp, #8
 959              		@ sp needed
 960 002c 10BD     		pop	{r4, pc}
 961              	.L147:
 962 002e 0123     		movs	r3, #1
 963 0030 2370     		strb	r3, [r4]
 964 0032 FAE7     		b	.L145
 966              		.section	.text.lsm6dsm_gy_power_mode_set,"ax",%progbits
 967              		.align	1
 968              		.global	lsm6dsm_gy_power_mode_set
ARM GAS  C:\Users\Nathan\AppData\Local\Temp\ccnGQm3b.s 			page 17


 969              		.syntax unified
 970              		.thumb
 971              		.thumb_func
 973              	lsm6dsm_gy_power_mode_set:
 974              		@ args = 0, pretend = 0, frame = 8
 975              		@ frame_needed = 0, uses_anonymous_args = 0
 976 0000 30B5     		push	{r4, r5, lr}
 977 0002 83B0     		sub	sp, sp, #12
 978 0004 0446     		mov	r4, r0
 979 0006 0D46     		mov	r5, r1
 980 0008 0123     		movs	r3, #1
 981 000a 01AA     		add	r2, sp, #4
 982 000c 1621     		movs	r1, #22
 983 000e FFF7FEFF 		bl	lsm6dsm_read_reg
 984 0012 08B1     		cbz	r0, .L155
 985              	.L152:
 986 0014 03B0     		add	sp, sp, #12
 987              		@ sp needed
 988 0016 30BD     		pop	{r4, r5, pc}
 989              	.L155:
 990 0018 9DF80430 		ldrb	r3, [sp, #4]	@ zero_extendqisi2
 991 001c 65F3C713 		bfi	r3, r5, #7, #1
 992 0020 8DF80430 		strb	r3, [sp, #4]
 993 0024 0123     		movs	r3, #1
 994 0026 01AA     		add	r2, sp, #4
 995 0028 1621     		movs	r1, #22
 996 002a 2046     		mov	r0, r4
 997 002c FFF7FEFF 		bl	lsm6dsm_write_reg
 998 0030 F0E7     		b	.L152
 1000              		.section	.text.lsm6dsm_gy_power_mode_get,"ax",%progbits
 1001              		.align	1
 1002              		.global	lsm6dsm_gy_power_mode_get
 1003              		.syntax unified
 1004              		.thumb
 1005              		.thumb_func
 1007              	lsm6dsm_gy_power_mode_get:
 1008              		@ args = 0, pretend = 0, frame = 8
 1009              		@ frame_needed = 0, uses_anonymous_args = 0
 1010 0000 10B5     		push	{r4, lr}
 1011 0002 82B0     		sub	sp, sp, #8
 1012 0004 0C46     		mov	r4, r1
 1013 0006 0123     		movs	r3, #1
 1014 0008 01AA     		add	r2, sp, #4
 1015 000a 1621     		movs	r1, #22
 1016 000c FFF7FEFF 		bl	lsm6dsm_read_reg
 1017 0010 9DF80430 		ldrb	r3, [sp, #4]	@ zero_extendqisi2
 1018 0014 DB09     		lsrs	r3, r3, #7
 1019 0016 03D0     		beq	.L157
 1020 0018 33B9     		cbnz	r3, .L158
 1021 001a 0023     		movs	r3, #0
 1022 001c 2370     		strb	r3, [r4]
 1023 001e 01E0     		b	.L156
 1024              	.L157:
 1025 0020 0023     		movs	r3, #0
 1026 0022 2370     		strb	r3, [r4]
 1027              	.L156:
 1028 0024 02B0     		add	sp, sp, #8
ARM GAS  C:\Users\Nathan\AppData\Local\Temp\ccnGQm3b.s 			page 18


 1029              		@ sp needed
 1030 0026 10BD     		pop	{r4, pc}
 1031              	.L158:
 1032 0028 0123     		movs	r3, #1
 1033 002a 2370     		strb	r3, [r4]
 1034 002c FAE7     		b	.L156
 1036              		.section	.text.lsm6dsm_status_reg_get,"ax",%progbits
 1037              		.align	1
 1038              		.global	lsm6dsm_status_reg_get
 1039              		.syntax unified
 1040              		.thumb
 1041              		.thumb_func
 1043              	lsm6dsm_status_reg_get:
 1044              		@ args = 0, pretend = 0, frame = 0
 1045              		@ frame_needed = 0, uses_anonymous_args = 0
 1046 0000 08B5     		push	{r3, lr}
 1047 0002 0A46     		mov	r2, r1
 1048 0004 0123     		movs	r3, #1
 1049 0006 1E21     		movs	r1, #30
 1050 0008 FFF7FEFF 		bl	lsm6dsm_read_reg
 1051 000c 08BD     		pop	{r3, pc}
 1053              		.section	.text.lsm6dsm_xl_flag_data_ready_get,"ax",%progbits
 1054              		.align	1
 1055              		.global	lsm6dsm_xl_flag_data_ready_get
 1056              		.syntax unified
 1057              		.thumb
 1058              		.thumb_func
 1060              	lsm6dsm_xl_flag_data_ready_get:
 1061              		@ args = 0, pretend = 0, frame = 8
 1062              		@ frame_needed = 0, uses_anonymous_args = 0
 1063 0000 10B5     		push	{r4, lr}
 1064 0002 82B0     		sub	sp, sp, #8
 1065 0004 0C46     		mov	r4, r1
 1066 0006 0123     		movs	r3, #1
 1067 0008 01AA     		add	r2, sp, #4
 1068 000a 1E21     		movs	r1, #30
 1069 000c FFF7FEFF 		bl	lsm6dsm_read_reg
 1070 0010 9DF80430 		ldrb	r3, [sp, #4]	@ zero_extendqisi2
 1071 0014 C3F30003 		ubfx	r3, r3, #0, #1
 1072 0018 2370     		strb	r3, [r4]
 1073 001a 02B0     		add	sp, sp, #8
 1074              		@ sp needed
 1075 001c 10BD     		pop	{r4, pc}
 1077              		.section	.text.lsm6dsm_gy_flag_data_ready_get,"ax",%progbits
 1078              		.align	1
 1079              		.global	lsm6dsm_gy_flag_data_ready_get
 1080              		.syntax unified
 1081              		.thumb
 1082              		.thumb_func
 1084              	lsm6dsm_gy_flag_data_ready_get:
 1085              		@ args = 0, pretend = 0, frame = 8
 1086              		@ frame_needed = 0, uses_anonymous_args = 0
 1087 0000 10B5     		push	{r4, lr}
 1088 0002 82B0     		sub	sp, sp, #8
 1089 0004 0C46     		mov	r4, r1
 1090 0006 0123     		movs	r3, #1
 1091 0008 01AA     		add	r2, sp, #4
ARM GAS  C:\Users\Nathan\AppData\Local\Temp\ccnGQm3b.s 			page 19


 1092 000a 1E21     		movs	r1, #30
 1093 000c FFF7FEFF 		bl	lsm6dsm_read_reg
 1094 0010 9DF80430 		ldrb	r3, [sp, #4]	@ zero_extendqisi2
 1095 0014 C3F34003 		ubfx	r3, r3, #1, #1
 1096 0018 2370     		strb	r3, [r4]
 1097 001a 02B0     		add	sp, sp, #8
 1098              		@ sp needed
 1099 001c 10BD     		pop	{r4, pc}
 1101              		.section	.text.lsm6dsm_temp_flag_data_ready_get,"ax",%progbits
 1102              		.align	1
 1103              		.global	lsm6dsm_temp_flag_data_ready_get
 1104              		.syntax unified
 1105              		.thumb
 1106              		.thumb_func
 1108              	lsm6dsm_temp_flag_data_ready_get:
 1109              		@ args = 0, pretend = 0, frame = 8
 1110              		@ frame_needed = 0, uses_anonymous_args = 0
 1111 0000 10B5     		push	{r4, lr}
 1112 0002 82B0     		sub	sp, sp, #8
 1113 0004 0C46     		mov	r4, r1
 1114 0006 0123     		movs	r3, #1
 1115 0008 01AA     		add	r2, sp, #4
 1116 000a 1E21     		movs	r1, #30
 1117 000c FFF7FEFF 		bl	lsm6dsm_read_reg
 1118 0010 9DF80430 		ldrb	r3, [sp, #4]	@ zero_extendqisi2
 1119 0014 C3F38003 		ubfx	r3, r3, #2, #1
 1120 0018 2370     		strb	r3, [r4]
 1121 001a 02B0     		add	sp, sp, #8
 1122              		@ sp needed
 1123 001c 10BD     		pop	{r4, pc}
 1125              		.section	.text.lsm6dsm_xl_usr_offset_set,"ax",%progbits
 1126              		.align	1
 1127              		.global	lsm6dsm_xl_usr_offset_set
 1128              		.syntax unified
 1129              		.thumb
 1130              		.thumb_func
 1132              	lsm6dsm_xl_usr_offset_set:
 1133              		@ args = 0, pretend = 0, frame = 0
 1134              		@ frame_needed = 0, uses_anonymous_args = 0
 1135 0000 08B5     		push	{r3, lr}
 1136 0002 0A46     		mov	r2, r1
 1137 0004 0323     		movs	r3, #3
 1138 0006 7321     		movs	r1, #115
 1139 0008 FFF7FEFF 		bl	lsm6dsm_write_reg
 1140 000c 08BD     		pop	{r3, pc}
 1142              		.section	.text.lsm6dsm_xl_usr_offset_get,"ax",%progbits
 1143              		.align	1
 1144              		.global	lsm6dsm_xl_usr_offset_get
 1145              		.syntax unified
 1146              		.thumb
 1147              		.thumb_func
 1149              	lsm6dsm_xl_usr_offset_get:
 1150              		@ args = 0, pretend = 0, frame = 0
 1151              		@ frame_needed = 0, uses_anonymous_args = 0
 1152 0000 08B5     		push	{r3, lr}
 1153 0002 0A46     		mov	r2, r1
 1154 0004 0323     		movs	r3, #3
ARM GAS  C:\Users\Nathan\AppData\Local\Temp\ccnGQm3b.s 			page 20


 1155 0006 7321     		movs	r1, #115
 1156 0008 FFF7FEFF 		bl	lsm6dsm_read_reg
 1157 000c 08BD     		pop	{r3, pc}
 1159              		.section	.text.lsm6dsm_timestamp_set,"ax",%progbits
 1160              		.align	1
 1161              		.global	lsm6dsm_timestamp_set
 1162              		.syntax unified
 1163              		.thumb
 1164              		.thumb_func
 1166              	lsm6dsm_timestamp_set:
 1167              		@ args = 0, pretend = 0, frame = 8
 1168              		@ frame_needed = 0, uses_anonymous_args = 0
 1169 0000 30B5     		push	{r4, r5, lr}
 1170 0002 83B0     		sub	sp, sp, #12
 1171 0004 0546     		mov	r5, r0
 1172 0006 0C46     		mov	r4, r1
 1173 0008 0123     		movs	r3, #1
 1174 000a 01AA     		add	r2, sp, #4
 1175 000c 1921     		movs	r1, #25
 1176 000e FFF7FEFF 		bl	lsm6dsm_read_reg
 1177 0012 40B9     		cbnz	r0, .L175
 1178 0014 04F00102 		and	r2, r4, #1
 1179 0018 9DF80430 		ldrb	r3, [sp, #4]	@ zero_extendqisi2
 1180 001c 62F34513 		bfi	r3, r2, #5, #1
 1181 0020 8DF80430 		strb	r3, [sp, #4]
 1182 0024 0CB9     		cbnz	r4, .L178
 1183              	.L175:
 1184 0026 03B0     		add	sp, sp, #12
 1185              		@ sp needed
 1186 0028 30BD     		pop	{r4, r5, pc}
 1187              	.L178:
 1188 002a DBB2     		uxtb	r3, r3
 1189 002c 62F38203 		bfi	r3, r2, #2, #1
 1190 0030 8DF80430 		strb	r3, [sp, #4]
 1191 0034 0123     		movs	r3, #1
 1192 0036 01AA     		add	r2, sp, #4
 1193 0038 1921     		movs	r1, #25
 1194 003a 2846     		mov	r0, r5
 1195 003c FFF7FEFF 		bl	lsm6dsm_write_reg
 1196 0040 F1E7     		b	.L175
 1198              		.section	.text.lsm6dsm_timestamp_get,"ax",%progbits
 1199              		.align	1
 1200              		.global	lsm6dsm_timestamp_get
 1201              		.syntax unified
 1202              		.thumb
 1203              		.thumb_func
 1205              	lsm6dsm_timestamp_get:
 1206              		@ args = 0, pretend = 0, frame = 8
 1207              		@ frame_needed = 0, uses_anonymous_args = 0
 1208 0000 10B5     		push	{r4, lr}
 1209 0002 82B0     		sub	sp, sp, #8
 1210 0004 0C46     		mov	r4, r1
 1211 0006 0123     		movs	r3, #1
 1212 0008 01AA     		add	r2, sp, #4
 1213 000a 1921     		movs	r1, #25
 1214 000c FFF7FEFF 		bl	lsm6dsm_read_reg
 1215 0010 9DF80430 		ldrb	r3, [sp, #4]	@ zero_extendqisi2
ARM GAS  C:\Users\Nathan\AppData\Local\Temp\ccnGQm3b.s 			page 21


 1216 0014 C3F34013 		ubfx	r3, r3, #5, #1
 1217 0018 2370     		strb	r3, [r4]
 1218 001a 02B0     		add	sp, sp, #8
 1219              		@ sp needed
 1220 001c 10BD     		pop	{r4, pc}
 1222              		.section	.text.lsm6dsm_timestamp_res_set,"ax",%progbits
 1223              		.align	1
 1224              		.global	lsm6dsm_timestamp_res_set
 1225              		.syntax unified
 1226              		.thumb
 1227              		.thumb_func
 1229              	lsm6dsm_timestamp_res_set:
 1230              		@ args = 0, pretend = 0, frame = 8
 1231              		@ frame_needed = 0, uses_anonymous_args = 0
 1232 0000 30B5     		push	{r4, r5, lr}
 1233 0002 83B0     		sub	sp, sp, #12
 1234 0004 0446     		mov	r4, r0
 1235 0006 0D46     		mov	r5, r1
 1236 0008 0123     		movs	r3, #1
 1237 000a 01AA     		add	r2, sp, #4
 1238 000c 5C21     		movs	r1, #92
 1239 000e FFF7FEFF 		bl	lsm6dsm_read_reg
 1240 0012 08B1     		cbz	r0, .L184
 1241              	.L181:
 1242 0014 03B0     		add	sp, sp, #12
 1243              		@ sp needed
 1244 0016 30BD     		pop	{r4, r5, pc}
 1245              	.L184:
 1246 0018 9DF80430 		ldrb	r3, [sp, #4]	@ zero_extendqisi2
 1247 001c 65F30413 		bfi	r3, r5, #4, #1
 1248 0020 8DF80430 		strb	r3, [sp, #4]
 1249 0024 0123     		movs	r3, #1
 1250 0026 01AA     		add	r2, sp, #4
 1251 0028 5C21     		movs	r1, #92
 1252 002a 2046     		mov	r0, r4
 1253 002c FFF7FEFF 		bl	lsm6dsm_write_reg
 1254 0030 F0E7     		b	.L181
 1256              		.section	.text.lsm6dsm_timestamp_res_get,"ax",%progbits
 1257              		.align	1
 1258              		.global	lsm6dsm_timestamp_res_get
 1259              		.syntax unified
 1260              		.thumb
 1261              		.thumb_func
 1263              	lsm6dsm_timestamp_res_get:
 1264              		@ args = 0, pretend = 0, frame = 8
 1265              		@ frame_needed = 0, uses_anonymous_args = 0
 1266 0000 10B5     		push	{r4, lr}
 1267 0002 82B0     		sub	sp, sp, #8
 1268 0004 0C46     		mov	r4, r1
 1269 0006 0123     		movs	r3, #1
 1270 0008 01AA     		add	r2, sp, #4
 1271 000a 5C21     		movs	r1, #92
 1272 000c FFF7FEFF 		bl	lsm6dsm_read_reg
 1273 0010 9DF80430 		ldrb	r3, [sp, #4]	@ zero_extendqisi2
 1274 0014 C3F30012 		ubfx	r2, r3, #4, #1
 1275 0018 13F0100F 		tst	r3, #16
 1276 001c 03D0     		beq	.L186
ARM GAS  C:\Users\Nathan\AppData\Local\Temp\ccnGQm3b.s 			page 22


 1277 001e 32B9     		cbnz	r2, .L187
 1278 0020 0023     		movs	r3, #0
 1279 0022 2370     		strb	r3, [r4]
 1280 0024 01E0     		b	.L185
 1281              	.L186:
 1282 0026 0023     		movs	r3, #0
 1283 0028 2370     		strb	r3, [r4]
 1284              	.L185:
 1285 002a 02B0     		add	sp, sp, #8
 1286              		@ sp needed
 1287 002c 10BD     		pop	{r4, pc}
 1288              	.L187:
 1289 002e 0123     		movs	r3, #1
 1290 0030 2370     		strb	r3, [r4]
 1291 0032 FAE7     		b	.L185
 1293              		.section	.text.lsm6dsm_rounding_mode_set,"ax",%progbits
 1294              		.align	1
 1295              		.global	lsm6dsm_rounding_mode_set
 1296              		.syntax unified
 1297              		.thumb
 1298              		.thumb_func
 1300              	lsm6dsm_rounding_mode_set:
 1301              		@ args = 0, pretend = 0, frame = 8
 1302              		@ frame_needed = 0, uses_anonymous_args = 0
 1303 0000 30B5     		push	{r4, r5, lr}
 1304 0002 83B0     		sub	sp, sp, #12
 1305 0004 0446     		mov	r4, r0
 1306 0006 0D46     		mov	r5, r1
 1307 0008 0123     		movs	r3, #1
 1308 000a 01AA     		add	r2, sp, #4
 1309 000c 1421     		movs	r1, #20
 1310 000e FFF7FEFF 		bl	lsm6dsm_read_reg
 1311 0012 08B1     		cbz	r0, .L195
 1312              	.L192:
 1313 0014 03B0     		add	sp, sp, #12
 1314              		@ sp needed
 1315 0016 30BD     		pop	{r4, r5, pc}
 1316              	.L195:
 1317 0018 9DF80430 		ldrb	r3, [sp, #4]	@ zero_extendqisi2
 1318 001c 65F34713 		bfi	r3, r5, #5, #3
 1319 0020 8DF80430 		strb	r3, [sp, #4]
 1320 0024 0123     		movs	r3, #1
 1321 0026 01AA     		add	r2, sp, #4
 1322 0028 1421     		movs	r1, #20
 1323 002a 2046     		mov	r0, r4
 1324 002c FFF7FEFF 		bl	lsm6dsm_write_reg
 1325 0030 F0E7     		b	.L192
 1327              		.section	.text.lsm6dsm_rounding_mode_get,"ax",%progbits
 1328              		.align	1
 1329              		.global	lsm6dsm_rounding_mode_get
 1330              		.syntax unified
 1331              		.thumb
 1332              		.thumb_func
 1334              	lsm6dsm_rounding_mode_get:
 1335              		@ args = 0, pretend = 0, frame = 8
 1336              		@ frame_needed = 0, uses_anonymous_args = 0
 1337 0000 10B5     		push	{r4, lr}
ARM GAS  C:\Users\Nathan\AppData\Local\Temp\ccnGQm3b.s 			page 23


 1338 0002 82B0     		sub	sp, sp, #8
 1339 0004 0C46     		mov	r4, r1
 1340 0006 0123     		movs	r3, #1
 1341 0008 01AA     		add	r2, sp, #4
 1342 000a 1421     		movs	r1, #20
 1343 000c FFF7FEFF 		bl	lsm6dsm_read_reg
 1344 0010 9DF80430 		ldrb	r3, [sp, #4]	@ zero_extendqisi2
 1345 0014 5B09     		lsrs	r3, r3, #5
 1346 0016 072B     		cmp	r3, #7
 1347 0018 1ED8     		bhi	.L197
 1348 001a DFE803F0 		tbb	[pc, r3]
 1349              	.L199:
 1350 001e 04       		.byte	(.L206-.L199)/2
 1351 001f 08       		.byte	(.L205-.L199)/2
 1352 0020 0B       		.byte	(.L204-.L199)/2
 1353 0021 0E       		.byte	(.L203-.L199)/2
 1354 0022 11       		.byte	(.L202-.L199)/2
 1355 0023 14       		.byte	(.L201-.L199)/2
 1356 0024 17       		.byte	(.L200-.L199)/2
 1357 0025 1A       		.byte	(.L198-.L199)/2
 1358              		.p2align 1
 1359              	.L206:
 1360 0026 0023     		movs	r3, #0
 1361 0028 2370     		strb	r3, [r4]
 1362              	.L196:
 1363 002a 02B0     		add	sp, sp, #8
 1364              		@ sp needed
 1365 002c 10BD     		pop	{r4, pc}
 1366              	.L205:
 1367 002e 0123     		movs	r3, #1
 1368 0030 2370     		strb	r3, [r4]
 1369 0032 FAE7     		b	.L196
 1370              	.L204:
 1371 0034 0223     		movs	r3, #2
 1372 0036 2370     		strb	r3, [r4]
 1373 0038 F7E7     		b	.L196
 1374              	.L203:
 1375 003a 0323     		movs	r3, #3
 1376 003c 2370     		strb	r3, [r4]
 1377 003e F4E7     		b	.L196
 1378              	.L202:
 1379 0040 0423     		movs	r3, #4
 1380 0042 2370     		strb	r3, [r4]
 1381 0044 F1E7     		b	.L196
 1382              	.L201:
 1383 0046 0523     		movs	r3, #5
 1384 0048 2370     		strb	r3, [r4]
 1385 004a EEE7     		b	.L196
 1386              	.L200:
 1387 004c 0623     		movs	r3, #6
 1388 004e 2370     		strb	r3, [r4]
 1389 0050 EBE7     		b	.L196
 1390              	.L198:
 1391 0052 0723     		movs	r3, #7
 1392 0054 2370     		strb	r3, [r4]
 1393 0056 E8E7     		b	.L196
 1394              	.L197:
ARM GAS  C:\Users\Nathan\AppData\Local\Temp\ccnGQm3b.s 			page 24


 1395 0058 0023     		movs	r3, #0
 1396 005a 2370     		strb	r3, [r4]
 1397 005c E5E7     		b	.L196
 1399              		.section	.text.lsm6dsm_temperature_raw_get,"ax",%progbits
 1400              		.align	1
 1401              		.global	lsm6dsm_temperature_raw_get
 1402              		.syntax unified
 1403              		.thumb
 1404              		.thumb_func
 1406              	lsm6dsm_temperature_raw_get:
 1407              		@ args = 0, pretend = 0, frame = 8
 1408              		@ frame_needed = 0, uses_anonymous_args = 0
 1409 0000 10B5     		push	{r4, lr}
 1410 0002 82B0     		sub	sp, sp, #8
 1411 0004 0C46     		mov	r4, r1
 1412 0006 0223     		movs	r3, #2
 1413 0008 01AA     		add	r2, sp, #4
 1414 000a 2021     		movs	r1, #32
 1415 000c FFF7FEFF 		bl	lsm6dsm_read_reg
 1416 0010 9DF80520 		ldrb	r2, [sp, #5]	@ zero_extendqisi2
 1417 0014 2280     		strh	r2, [r4]	@ movhi
 1418 0016 9DF80430 		ldrb	r3, [sp, #4]	@ zero_extendqisi2
 1419 001a 03EB0223 		add	r3, r3, r2, lsl #8
 1420 001e 2380     		strh	r3, [r4]	@ movhi
 1421 0020 02B0     		add	sp, sp, #8
 1422              		@ sp needed
 1423 0022 10BD     		pop	{r4, pc}
 1425              		.section	.text.lsm6dsm_angular_rate_raw_get,"ax",%progbits
 1426              		.align	1
 1427              		.global	lsm6dsm_angular_rate_raw_get
 1428              		.syntax unified
 1429              		.thumb
 1430              		.thumb_func
 1432              	lsm6dsm_angular_rate_raw_get:
 1433              		@ args = 0, pretend = 0, frame = 8
 1434              		@ frame_needed = 0, uses_anonymous_args = 0
 1435 0000 10B5     		push	{r4, lr}
 1436 0002 82B0     		sub	sp, sp, #8
 1437 0004 0C46     		mov	r4, r1
 1438 0006 0623     		movs	r3, #6
 1439 0008 6A46     		mov	r2, sp
 1440 000a 2221     		movs	r1, #34
 1441 000c FFF7FEFF 		bl	lsm6dsm_read_reg
 1442 0010 9DF80120 		ldrb	r2, [sp, #1]	@ zero_extendqisi2
 1443 0014 2280     		strh	r2, [r4]	@ movhi
 1444 0016 9DF80030 		ldrb	r3, [sp]	@ zero_extendqisi2
 1445 001a 03EB0223 		add	r3, r3, r2, lsl #8
 1446 001e 2380     		strh	r3, [r4]	@ movhi
 1447 0020 9DF80320 		ldrb	r2, [sp, #3]	@ zero_extendqisi2
 1448 0024 6280     		strh	r2, [r4, #2]	@ movhi
 1449 0026 9DF80230 		ldrb	r3, [sp, #2]	@ zero_extendqisi2
 1450 002a 03EB0223 		add	r3, r3, r2, lsl #8
 1451 002e 6380     		strh	r3, [r4, #2]	@ movhi
 1452 0030 9DF80520 		ldrb	r2, [sp, #5]	@ zero_extendqisi2
 1453 0034 A280     		strh	r2, [r4, #4]	@ movhi
 1454 0036 9DF80430 		ldrb	r3, [sp, #4]	@ zero_extendqisi2
 1455 003a 03EB0223 		add	r3, r3, r2, lsl #8
ARM GAS  C:\Users\Nathan\AppData\Local\Temp\ccnGQm3b.s 			page 25


 1456 003e A380     		strh	r3, [r4, #4]	@ movhi
 1457 0040 02B0     		add	sp, sp, #8
 1458              		@ sp needed
 1459 0042 10BD     		pop	{r4, pc}
 1461              		.section	.text.lsm6dsm_acceleration_raw_get,"ax",%progbits
 1462              		.align	1
 1463              		.global	lsm6dsm_acceleration_raw_get
 1464              		.syntax unified
 1465              		.thumb
 1466              		.thumb_func
 1468              	lsm6dsm_acceleration_raw_get:
 1469              		@ args = 0, pretend = 0, frame = 8
 1470              		@ frame_needed = 0, uses_anonymous_args = 0
 1471 0000 10B5     		push	{r4, lr}
 1472 0002 82B0     		sub	sp, sp, #8
 1473 0004 0C46     		mov	r4, r1
 1474 0006 0623     		movs	r3, #6
 1475 0008 6A46     		mov	r2, sp
 1476 000a 2821     		movs	r1, #40
 1477 000c FFF7FEFF 		bl	lsm6dsm_read_reg
 1478 0010 9DF80120 		ldrb	r2, [sp, #1]	@ zero_extendqisi2
 1479 0014 2280     		strh	r2, [r4]	@ movhi
 1480 0016 9DF80030 		ldrb	r3, [sp]	@ zero_extendqisi2
 1481 001a 03EB0223 		add	r3, r3, r2, lsl #8
 1482 001e 2380     		strh	r3, [r4]	@ movhi
 1483 0020 9DF80320 		ldrb	r2, [sp, #3]	@ zero_extendqisi2
 1484 0024 6280     		strh	r2, [r4, #2]	@ movhi
 1485 0026 9DF80230 		ldrb	r3, [sp, #2]	@ zero_extendqisi2
 1486 002a 03EB0223 		add	r3, r3, r2, lsl #8
 1487 002e 6380     		strh	r3, [r4, #2]	@ movhi
 1488 0030 9DF80520 		ldrb	r2, [sp, #5]	@ zero_extendqisi2
 1489 0034 A280     		strh	r2, [r4, #4]	@ movhi
 1490 0036 9DF80430 		ldrb	r3, [sp, #4]	@ zero_extendqisi2
 1491 003a 03EB0223 		add	r3, r3, r2, lsl #8
 1492 003e A380     		strh	r3, [r4, #4]	@ movhi
 1493 0040 02B0     		add	sp, sp, #8
 1494              		@ sp needed
 1495 0042 10BD     		pop	{r4, pc}
 1497              		.section	.text.lsm6dsm_mag_calibrated_raw_get,"ax",%progbits
 1498              		.align	1
 1499              		.global	lsm6dsm_mag_calibrated_raw_get
 1500              		.syntax unified
 1501              		.thumb
 1502              		.thumb_func
 1504              	lsm6dsm_mag_calibrated_raw_get:
 1505              		@ args = 0, pretend = 0, frame = 8
 1506              		@ frame_needed = 0, uses_anonymous_args = 0
 1507 0000 10B5     		push	{r4, lr}
 1508 0002 82B0     		sub	sp, sp, #8
 1509 0004 0C46     		mov	r4, r1
 1510 0006 0623     		movs	r3, #6
 1511 0008 6A46     		mov	r2, sp
 1512 000a 6621     		movs	r1, #102
 1513 000c FFF7FEFF 		bl	lsm6dsm_read_reg
 1514 0010 9DF80120 		ldrb	r2, [sp, #1]	@ zero_extendqisi2
 1515 0014 2280     		strh	r2, [r4]	@ movhi
 1516 0016 9DF80030 		ldrb	r3, [sp]	@ zero_extendqisi2
ARM GAS  C:\Users\Nathan\AppData\Local\Temp\ccnGQm3b.s 			page 26


 1517 001a 03EB0223 		add	r3, r3, r2, lsl #8
 1518 001e 2380     		strh	r3, [r4]	@ movhi
 1519 0020 9DF80320 		ldrb	r2, [sp, #3]	@ zero_extendqisi2
 1520 0024 6280     		strh	r2, [r4, #2]	@ movhi
 1521 0026 9DF80230 		ldrb	r3, [sp, #2]	@ zero_extendqisi2
 1522 002a 03EB0223 		add	r3, r3, r2, lsl #8
 1523 002e 6380     		strh	r3, [r4, #2]	@ movhi
 1524 0030 9DF80520 		ldrb	r2, [sp, #5]	@ zero_extendqisi2
 1525 0034 A280     		strh	r2, [r4, #4]	@ movhi
 1526 0036 9DF80430 		ldrb	r3, [sp, #4]	@ zero_extendqisi2
 1527 003a 03EB0223 		add	r3, r3, r2, lsl #8
 1528 003e A380     		strh	r3, [r4, #4]	@ movhi
 1529 0040 02B0     		add	sp, sp, #8
 1530              		@ sp needed
 1531 0042 10BD     		pop	{r4, pc}
 1533              		.section	.text.lsm6dsm_fifo_raw_data_get,"ax",%progbits
 1534              		.align	1
 1535              		.global	lsm6dsm_fifo_raw_data_get
 1536              		.syntax unified
 1537              		.thumb
 1538              		.thumb_func
 1540              	lsm6dsm_fifo_raw_data_get:
 1541              		@ args = 0, pretend = 0, frame = 0
 1542              		@ frame_needed = 0, uses_anonymous_args = 0
 1543 0000 08B5     		push	{r3, lr}
 1544 0002 1346     		mov	r3, r2
 1545 0004 0A46     		mov	r2, r1
 1546 0006 3E21     		movs	r1, #62
 1547 0008 FFF7FEFF 		bl	lsm6dsm_read_reg
 1548 000c 08BD     		pop	{r3, pc}
 1550              		.section	.text.lsm6dsm_mem_bank_set,"ax",%progbits
 1551              		.align	1
 1552              		.global	lsm6dsm_mem_bank_set
 1553              		.syntax unified
 1554              		.thumb
 1555              		.thumb_func
 1557              	lsm6dsm_mem_bank_set:
 1558              		@ args = 0, pretend = 0, frame = 8
 1559              		@ frame_needed = 0, uses_anonymous_args = 0
 1560 0000 30B5     		push	{r4, r5, lr}
 1561 0002 83B0     		sub	sp, sp, #12
 1562 0004 0446     		mov	r4, r0
 1563 0006 0D46     		mov	r5, r1
 1564 0008 0123     		movs	r3, #1
 1565 000a 01AA     		add	r2, sp, #4
 1566 000c 1946     		mov	r1, r3
 1567 000e FFF7FEFF 		bl	lsm6dsm_read_reg
 1568 0012 08B1     		cbz	r0, .L222
 1569              	.L219:
 1570 0014 03B0     		add	sp, sp, #12
 1571              		@ sp needed
 1572 0016 30BD     		pop	{r4, r5, pc}
 1573              	.L222:
 1574 0018 9DF80430 		ldrb	r3, [sp, #4]	@ zero_extendqisi2
 1575 001c 65F34713 		bfi	r3, r5, #5, #3
 1576 0020 8DF80430 		strb	r3, [sp, #4]
 1577 0024 0123     		movs	r3, #1
ARM GAS  C:\Users\Nathan\AppData\Local\Temp\ccnGQm3b.s 			page 27


 1578 0026 01AA     		add	r2, sp, #4
 1579 0028 1946     		mov	r1, r3
 1580 002a 2046     		mov	r0, r4
 1581 002c FFF7FEFF 		bl	lsm6dsm_write_reg
 1582 0030 F0E7     		b	.L219
 1584              		.section	.text.lsm6dsm_all_sources_get,"ax",%progbits
 1585              		.align	1
 1586              		.global	lsm6dsm_all_sources_get
 1587              		.syntax unified
 1588              		.thumb
 1589              		.thumb_func
 1591              	lsm6dsm_all_sources_get:
 1592              		@ args = 0, pretend = 0, frame = 0
 1593              		@ frame_needed = 0, uses_anonymous_args = 0
 1594 0000 38B5     		push	{r3, r4, r5, lr}
 1595 0002 0546     		mov	r5, r0
 1596 0004 0C46     		mov	r4, r1
 1597 0006 0123     		movs	r3, #1
 1598 0008 0A46     		mov	r2, r1
 1599 000a 1B21     		movs	r1, #27
 1600 000c FFF7FEFF 		bl	lsm6dsm_read_reg
 1601 0010 0346     		mov	r3, r0
 1602 0012 10B1     		cbz	r0, .L227
 1603              	.L224:
 1604 0014 93B1     		cbz	r3, .L228
 1605              	.L223:
 1606 0016 1846     		mov	r0, r3
 1607 0018 38BD     		pop	{r3, r4, r5, pc}
 1608              	.L227:
 1609 001a 0123     		movs	r3, #1
 1610 001c E218     		adds	r2, r4, r3
 1611 001e 1C21     		movs	r1, #28
 1612 0020 2846     		mov	r0, r5
 1613 0022 FFF7FEFF 		bl	lsm6dsm_read_reg
 1614 0026 0346     		mov	r3, r0
 1615 0028 0028     		cmp	r0, #0
 1616 002a F4D1     		bne	.L223
 1617 002c 0123     		movs	r3, #1
 1618 002e A21C     		adds	r2, r4, #2
 1619 0030 1D21     		movs	r1, #29
 1620 0032 2846     		mov	r0, r5
 1621 0034 FFF7FEFF 		bl	lsm6dsm_read_reg
 1622 0038 0346     		mov	r3, r0
 1623 003a EBE7     		b	.L224
 1624              	.L228:
 1625 003c 0123     		movs	r3, #1
 1626 003e E21C     		adds	r2, r4, #3
 1627 0040 1E21     		movs	r1, #30
 1628 0042 2846     		mov	r0, r5
 1629 0044 FFF7FEFF 		bl	lsm6dsm_read_reg
 1630 0048 0346     		mov	r3, r0
 1631 004a 0028     		cmp	r0, #0
 1632 004c E3D1     		bne	.L223
 1633 004e 0123     		movs	r3, #1
 1634 0050 221D     		adds	r2, r4, #4
 1635 0052 5321     		movs	r1, #83
 1636 0054 2846     		mov	r0, r5
ARM GAS  C:\Users\Nathan\AppData\Local\Temp\ccnGQm3b.s 			page 28


 1637 0056 FFF7FEFF 		bl	lsm6dsm_read_reg
 1638 005a 0346     		mov	r3, r0
 1639 005c 0028     		cmp	r0, #0
 1640 005e DAD1     		bne	.L223
 1641 0060 0123     		movs	r3, #1
 1642 0062 621D     		adds	r2, r4, #5
 1643 0064 5421     		movs	r1, #84
 1644 0066 2846     		mov	r0, r5
 1645 0068 FFF7FEFF 		bl	lsm6dsm_read_reg
 1646 006c 0346     		mov	r3, r0
 1647 006e 0028     		cmp	r0, #0
 1648 0070 D1D1     		bne	.L223
 1649 0072 0123     		movs	r3, #1
 1650 0074 A21D     		adds	r2, r4, #6
 1651 0076 5521     		movs	r1, #85
 1652 0078 2846     		mov	r0, r5
 1653 007a FFF7FEFF 		bl	lsm6dsm_read_reg
 1654 007e 0346     		mov	r3, r0
 1655 0080 0028     		cmp	r0, #0
 1656 0082 C8D1     		bne	.L223
 1657 0084 0521     		movs	r1, #5
 1658 0086 2846     		mov	r0, r5
 1659 0088 FFF7FEFF 		bl	lsm6dsm_mem_bank_set
 1660 008c 0346     		mov	r3, r0
 1661 008e 0028     		cmp	r0, #0
 1662 0090 C1D1     		bne	.L223
 1663 0092 0123     		movs	r3, #1
 1664 0094 E21D     		adds	r2, r4, #7
 1665 0096 5921     		movs	r1, #89
 1666 0098 2846     		mov	r0, r5
 1667 009a FFF7FEFF 		bl	lsm6dsm_read_reg
 1668 009e 0346     		mov	r3, r0
 1669 00a0 0028     		cmp	r0, #0
 1670 00a2 B8D1     		bne	.L223
 1671 00a4 0021     		movs	r1, #0
 1672 00a6 2846     		mov	r0, r5
 1673 00a8 FFF7FEFF 		bl	lsm6dsm_mem_bank_set
 1674 00ac 0346     		mov	r3, r0
 1675 00ae B2E7     		b	.L223
 1677              		.section	.text.lsm6dsm_mem_bank_get,"ax",%progbits
 1678              		.align	1
 1679              		.global	lsm6dsm_mem_bank_get
 1680              		.syntax unified
 1681              		.thumb
 1682              		.thumb_func
 1684              	lsm6dsm_mem_bank_get:
 1685              		@ args = 0, pretend = 0, frame = 8
 1686              		@ frame_needed = 0, uses_anonymous_args = 0
 1687 0000 10B5     		push	{r4, lr}
 1688 0002 82B0     		sub	sp, sp, #8
 1689 0004 0C46     		mov	r4, r1
 1690 0006 0123     		movs	r3, #1
 1691 0008 01AA     		add	r2, sp, #4
 1692 000a 1946     		mov	r1, r3
 1693 000c FFF7FEFF 		bl	lsm6dsm_read_reg
 1694 0010 9DF80430 		ldrb	r3, [sp, #4]	@ zero_extendqisi2
 1695 0014 5B09     		lsrs	r3, r3, #5
ARM GAS  C:\Users\Nathan\AppData\Local\Temp\ccnGQm3b.s 			page 29


 1696 0016 04D0     		beq	.L230
 1697 0018 052B     		cmp	r3, #5
 1698 001a 06D0     		beq	.L231
 1699 001c 0023     		movs	r3, #0
 1700 001e 2370     		strb	r3, [r4]
 1701 0020 01E0     		b	.L229
 1702              	.L230:
 1703 0022 0023     		movs	r3, #0
 1704 0024 2370     		strb	r3, [r4]
 1705              	.L229:
 1706 0026 02B0     		add	sp, sp, #8
 1707              		@ sp needed
 1708 0028 10BD     		pop	{r4, pc}
 1709              	.L231:
 1710 002a 0523     		movs	r3, #5
 1711 002c 2370     		strb	r3, [r4]
 1712 002e FAE7     		b	.L229
 1714              		.section	.text.lsm6dsm_data_ready_mode_set,"ax",%progbits
 1715              		.align	1
 1716              		.global	lsm6dsm_data_ready_mode_set
 1717              		.syntax unified
 1718              		.thumb
 1719              		.thumb_func
 1721              	lsm6dsm_data_ready_mode_set:
 1722              		@ args = 0, pretend = 0, frame = 8
 1723              		@ frame_needed = 0, uses_anonymous_args = 0
 1724 0000 30B5     		push	{r4, r5, lr}
 1725 0002 83B0     		sub	sp, sp, #12
 1726 0004 0446     		mov	r4, r0
 1727 0006 0D46     		mov	r5, r1
 1728 0008 0123     		movs	r3, #1
 1729 000a 01AA     		add	r2, sp, #4
 1730 000c 0B21     		movs	r1, #11
 1731 000e FFF7FEFF 		bl	lsm6dsm_read_reg
 1732 0012 08B1     		cbz	r0, .L239
 1733              	.L236:
 1734 0014 03B0     		add	sp, sp, #12
 1735              		@ sp needed
 1736 0016 30BD     		pop	{r4, r5, pc}
 1737              	.L239:
 1738 0018 9DF80430 		ldrb	r3, [sp, #4]	@ zero_extendqisi2
 1739 001c 65F3C713 		bfi	r3, r5, #7, #1
 1740 0020 8DF80430 		strb	r3, [sp, #4]
 1741 0024 0123     		movs	r3, #1
 1742 0026 01AA     		add	r2, sp, #4
 1743 0028 0B21     		movs	r1, #11
 1744 002a 2046     		mov	r0, r4
 1745 002c FFF7FEFF 		bl	lsm6dsm_write_reg
 1746 0030 F0E7     		b	.L236
 1748              		.section	.text.lsm6dsm_data_ready_mode_get,"ax",%progbits
 1749              		.align	1
 1750              		.global	lsm6dsm_data_ready_mode_get
 1751              		.syntax unified
 1752              		.thumb
 1753              		.thumb_func
 1755              	lsm6dsm_data_ready_mode_get:
 1756              		@ args = 0, pretend = 0, frame = 8
ARM GAS  C:\Users\Nathan\AppData\Local\Temp\ccnGQm3b.s 			page 30


 1757              		@ frame_needed = 0, uses_anonymous_args = 0
 1758 0000 10B5     		push	{r4, lr}
 1759 0002 82B0     		sub	sp, sp, #8
 1760 0004 0C46     		mov	r4, r1
 1761 0006 0123     		movs	r3, #1
 1762 0008 01AA     		add	r2, sp, #4
 1763 000a 0B21     		movs	r1, #11
 1764 000c FFF7FEFF 		bl	lsm6dsm_read_reg
 1765 0010 9DF80430 		ldrb	r3, [sp, #4]	@ zero_extendqisi2
 1766 0014 DB09     		lsrs	r3, r3, #7
 1767 0016 03D0     		beq	.L241
 1768 0018 33B9     		cbnz	r3, .L242
 1769 001a 0023     		movs	r3, #0
 1770 001c 2370     		strb	r3, [r4]
 1771 001e 01E0     		b	.L240
 1772              	.L241:
 1773 0020 0023     		movs	r3, #0
 1774 0022 2370     		strb	r3, [r4]
 1775              	.L240:
 1776 0024 02B0     		add	sp, sp, #8
 1777              		@ sp needed
 1778 0026 10BD     		pop	{r4, pc}
 1779              	.L242:
 1780 0028 0123     		movs	r3, #1
 1781 002a 2370     		strb	r3, [r4]
 1782 002c FAE7     		b	.L240
 1784              		.section	.text.lsm6dsm_device_id_get,"ax",%progbits
 1785              		.align	1
 1786              		.global	lsm6dsm_device_id_get
 1787              		.syntax unified
 1788              		.thumb
 1789              		.thumb_func
 1791              	lsm6dsm_device_id_get:
 1792              		@ args = 0, pretend = 0, frame = 0
 1793              		@ frame_needed = 0, uses_anonymous_args = 0
 1794 0000 08B5     		push	{r3, lr}
 1795 0002 0A46     		mov	r2, r1
 1796 0004 0123     		movs	r3, #1
 1797 0006 0F21     		movs	r1, #15
 1798 0008 FFF7FEFF 		bl	lsm6dsm_read_reg
 1799 000c 08BD     		pop	{r3, pc}
 1801              		.section	.text.lsm6dsm_reset_set,"ax",%progbits
 1802              		.align	1
 1803              		.global	lsm6dsm_reset_set
 1804              		.syntax unified
 1805              		.thumb
 1806              		.thumb_func
 1808              	lsm6dsm_reset_set:
 1809              		@ args = 0, pretend = 0, frame = 8
 1810              		@ frame_needed = 0, uses_anonymous_args = 0
 1811 0000 30B5     		push	{r4, r5, lr}
 1812 0002 83B0     		sub	sp, sp, #12
 1813 0004 0446     		mov	r4, r0
 1814 0006 0D46     		mov	r5, r1
 1815 0008 0123     		movs	r3, #1
 1816 000a 01AA     		add	r2, sp, #4
 1817 000c 1221     		movs	r1, #18
ARM GAS  C:\Users\Nathan\AppData\Local\Temp\ccnGQm3b.s 			page 31


 1818 000e FFF7FEFF 		bl	lsm6dsm_read_reg
 1819 0012 08B1     		cbz	r0, .L252
 1820              	.L249:
 1821 0014 03B0     		add	sp, sp, #12
 1822              		@ sp needed
 1823 0016 30BD     		pop	{r4, r5, pc}
 1824              	.L252:
 1825 0018 9DF80430 		ldrb	r3, [sp, #4]	@ zero_extendqisi2
 1826 001c 65F30003 		bfi	r3, r5, #0, #1
 1827 0020 8DF80430 		strb	r3, [sp, #4]
 1828 0024 0123     		movs	r3, #1
 1829 0026 01AA     		add	r2, sp, #4
 1830 0028 1221     		movs	r1, #18
 1831 002a 2046     		mov	r0, r4
 1832 002c FFF7FEFF 		bl	lsm6dsm_write_reg
 1833 0030 F0E7     		b	.L249
 1835              		.section	.text.lsm6dsm_reset_get,"ax",%progbits
 1836              		.align	1
 1837              		.global	lsm6dsm_reset_get
 1838              		.syntax unified
 1839              		.thumb
 1840              		.thumb_func
 1842              	lsm6dsm_reset_get:
 1843              		@ args = 0, pretend = 0, frame = 8
 1844              		@ frame_needed = 0, uses_anonymous_args = 0
 1845 0000 10B5     		push	{r4, lr}
 1846 0002 82B0     		sub	sp, sp, #8
 1847 0004 0C46     		mov	r4, r1
 1848 0006 0123     		movs	r3, #1
 1849 0008 01AA     		add	r2, sp, #4
 1850 000a 1221     		movs	r1, #18
 1851 000c FFF7FEFF 		bl	lsm6dsm_read_reg
 1852 0010 9DF80430 		ldrb	r3, [sp, #4]	@ zero_extendqisi2
 1853 0014 C3F30003 		ubfx	r3, r3, #0, #1
 1854 0018 2370     		strb	r3, [r4]
 1855 001a 02B0     		add	sp, sp, #8
 1856              		@ sp needed
 1857 001c 10BD     		pop	{r4, pc}
 1859              		.section	.text.lsm6dsm_data_format_set,"ax",%progbits
 1860              		.align	1
 1861              		.global	lsm6dsm_data_format_set
 1862              		.syntax unified
 1863              		.thumb
 1864              		.thumb_func
 1866              	lsm6dsm_data_format_set:
 1867              		@ args = 0, pretend = 0, frame = 8
 1868              		@ frame_needed = 0, uses_anonymous_args = 0
 1869 0000 30B5     		push	{r4, r5, lr}
 1870 0002 83B0     		sub	sp, sp, #12
 1871 0004 0446     		mov	r4, r0
 1872 0006 0D46     		mov	r5, r1
 1873 0008 0123     		movs	r3, #1
 1874 000a 01AA     		add	r2, sp, #4
 1875 000c 1221     		movs	r1, #18
 1876 000e FFF7FEFF 		bl	lsm6dsm_read_reg
 1877 0012 08B1     		cbz	r0, .L258
 1878              	.L255:
ARM GAS  C:\Users\Nathan\AppData\Local\Temp\ccnGQm3b.s 			page 32


 1879 0014 03B0     		add	sp, sp, #12
 1880              		@ sp needed
 1881 0016 30BD     		pop	{r4, r5, pc}
 1882              	.L258:
 1883 0018 9DF80430 		ldrb	r3, [sp, #4]	@ zero_extendqisi2
 1884 001c 65F34103 		bfi	r3, r5, #1, #1
 1885 0020 8DF80430 		strb	r3, [sp, #4]
 1886 0024 0123     		movs	r3, #1
 1887 0026 01AA     		add	r2, sp, #4
 1888 0028 1221     		movs	r1, #18
 1889 002a 2046     		mov	r0, r4
 1890 002c FFF7FEFF 		bl	lsm6dsm_write_reg
 1891 0030 F0E7     		b	.L255
 1893              		.section	.text.lsm6dsm_data_format_get,"ax",%progbits
 1894              		.align	1
 1895              		.global	lsm6dsm_data_format_get
 1896              		.syntax unified
 1897              		.thumb
 1898              		.thumb_func
 1900              	lsm6dsm_data_format_get:
 1901              		@ args = 0, pretend = 0, frame = 8
 1902              		@ frame_needed = 0, uses_anonymous_args = 0
 1903 0000 10B5     		push	{r4, lr}
 1904 0002 82B0     		sub	sp, sp, #8
 1905 0004 0C46     		mov	r4, r1
 1906 0006 0123     		movs	r3, #1
 1907 0008 01AA     		add	r2, sp, #4
 1908 000a 1221     		movs	r1, #18
 1909 000c FFF7FEFF 		bl	lsm6dsm_read_reg
 1910 0010 9DF80430 		ldrb	r3, [sp, #4]	@ zero_extendqisi2
 1911 0014 C3F34002 		ubfx	r2, r3, #1, #1
 1912 0018 13F0020F 		tst	r3, #2
 1913 001c 03D0     		beq	.L260
 1914 001e 32B9     		cbnz	r2, .L261
 1915 0020 0023     		movs	r3, #0
 1916 0022 2370     		strb	r3, [r4]
 1917 0024 01E0     		b	.L259
 1918              	.L260:
 1919 0026 0023     		movs	r3, #0
 1920 0028 2370     		strb	r3, [r4]
 1921              	.L259:
 1922 002a 02B0     		add	sp, sp, #8
 1923              		@ sp needed
 1924 002c 10BD     		pop	{r4, pc}
 1925              	.L261:
 1926 002e 0123     		movs	r3, #1
 1927 0030 2370     		strb	r3, [r4]
 1928 0032 FAE7     		b	.L259
 1930              		.section	.text.lsm6dsm_auto_increment_set,"ax",%progbits
 1931              		.align	1
 1932              		.global	lsm6dsm_auto_increment_set
 1933              		.syntax unified
 1934              		.thumb
 1935              		.thumb_func
 1937              	lsm6dsm_auto_increment_set:
 1938              		@ args = 0, pretend = 0, frame = 8
 1939              		@ frame_needed = 0, uses_anonymous_args = 0
ARM GAS  C:\Users\Nathan\AppData\Local\Temp\ccnGQm3b.s 			page 33


 1940 0000 30B5     		push	{r4, r5, lr}
 1941 0002 83B0     		sub	sp, sp, #12
 1942 0004 0446     		mov	r4, r0
 1943 0006 0D46     		mov	r5, r1
 1944 0008 0123     		movs	r3, #1
 1945 000a 01AA     		add	r2, sp, #4
 1946 000c 1221     		movs	r1, #18
 1947 000e FFF7FEFF 		bl	lsm6dsm_read_reg
 1948 0012 08B1     		cbz	r0, .L269
 1949              	.L266:
 1950 0014 03B0     		add	sp, sp, #12
 1951              		@ sp needed
 1952 0016 30BD     		pop	{r4, r5, pc}
 1953              	.L269:
 1954 0018 9DF80430 		ldrb	r3, [sp, #4]	@ zero_extendqisi2
 1955 001c 65F38203 		bfi	r3, r5, #2, #1
 1956 0020 8DF80430 		strb	r3, [sp, #4]
 1957 0024 0123     		movs	r3, #1
 1958 0026 01AA     		add	r2, sp, #4
 1959 0028 1221     		movs	r1, #18
 1960 002a 2046     		mov	r0, r4
 1961 002c FFF7FEFF 		bl	lsm6dsm_write_reg
 1962 0030 F0E7     		b	.L266
 1964              		.section	.text.lsm6dsm_auto_increment_get,"ax",%progbits
 1965              		.align	1
 1966              		.global	lsm6dsm_auto_increment_get
 1967              		.syntax unified
 1968              		.thumb
 1969              		.thumb_func
 1971              	lsm6dsm_auto_increment_get:
 1972              		@ args = 0, pretend = 0, frame = 8
 1973              		@ frame_needed = 0, uses_anonymous_args = 0
 1974 0000 10B5     		push	{r4, lr}
 1975 0002 82B0     		sub	sp, sp, #8
 1976 0004 0C46     		mov	r4, r1
 1977 0006 0123     		movs	r3, #1
 1978 0008 01AA     		add	r2, sp, #4
 1979 000a 1221     		movs	r1, #18
 1980 000c FFF7FEFF 		bl	lsm6dsm_read_reg
 1981 0010 9DF80430 		ldrb	r3, [sp, #4]	@ zero_extendqisi2
 1982 0014 C3F38003 		ubfx	r3, r3, #2, #1
 1983 0018 2370     		strb	r3, [r4]
 1984 001a 02B0     		add	sp, sp, #8
 1985              		@ sp needed
 1986 001c 10BD     		pop	{r4, pc}
 1988              		.section	.text.lsm6dsm_boot_set,"ax",%progbits
 1989              		.align	1
 1990              		.global	lsm6dsm_boot_set
 1991              		.syntax unified
 1992              		.thumb
 1993              		.thumb_func
 1995              	lsm6dsm_boot_set:
 1996              		@ args = 0, pretend = 0, frame = 8
 1997              		@ frame_needed = 0, uses_anonymous_args = 0
 1998 0000 30B5     		push	{r4, r5, lr}
 1999 0002 83B0     		sub	sp, sp, #12
 2000 0004 0446     		mov	r4, r0
ARM GAS  C:\Users\Nathan\AppData\Local\Temp\ccnGQm3b.s 			page 34


 2001 0006 0D46     		mov	r5, r1
 2002 0008 0123     		movs	r3, #1
 2003 000a 01AA     		add	r2, sp, #4
 2004 000c 1221     		movs	r1, #18
 2005 000e FFF7FEFF 		bl	lsm6dsm_read_reg
 2006 0012 08B1     		cbz	r0, .L275
 2007              	.L272:
 2008 0014 03B0     		add	sp, sp, #12
 2009              		@ sp needed
 2010 0016 30BD     		pop	{r4, r5, pc}
 2011              	.L275:
 2012 0018 9DF80430 		ldrb	r3, [sp, #4]	@ zero_extendqisi2
 2013 001c 65F3C713 		bfi	r3, r5, #7, #1
 2014 0020 8DF80430 		strb	r3, [sp, #4]
 2015 0024 0123     		movs	r3, #1
 2016 0026 01AA     		add	r2, sp, #4
 2017 0028 1221     		movs	r1, #18
 2018 002a 2046     		mov	r0, r4
 2019 002c FFF7FEFF 		bl	lsm6dsm_write_reg
 2020 0030 F0E7     		b	.L272
 2022              		.section	.text.lsm6dsm_boot_get,"ax",%progbits
 2023              		.align	1
 2024              		.global	lsm6dsm_boot_get
 2025              		.syntax unified
 2026              		.thumb
 2027              		.thumb_func
 2029              	lsm6dsm_boot_get:
 2030              		@ args = 0, pretend = 0, frame = 8
 2031              		@ frame_needed = 0, uses_anonymous_args = 0
 2032 0000 10B5     		push	{r4, lr}
 2033 0002 82B0     		sub	sp, sp, #8
 2034 0004 0C46     		mov	r4, r1
 2035 0006 0123     		movs	r3, #1
 2036 0008 01AA     		add	r2, sp, #4
 2037 000a 1221     		movs	r1, #18
 2038 000c FFF7FEFF 		bl	lsm6dsm_read_reg
 2039 0010 9DF80430 		ldrb	r3, [sp, #4]	@ zero_extendqisi2
 2040 0014 C3F3C013 		ubfx	r3, r3, #7, #1
 2041 0018 2370     		strb	r3, [r4]
 2042 001a 02B0     		add	sp, sp, #8
 2043              		@ sp needed
 2044 001c 10BD     		pop	{r4, pc}
 2046              		.section	.text.lsm6dsm_xl_self_test_set,"ax",%progbits
 2047              		.align	1
 2048              		.global	lsm6dsm_xl_self_test_set
 2049              		.syntax unified
 2050              		.thumb
 2051              		.thumb_func
 2053              	lsm6dsm_xl_self_test_set:
 2054              		@ args = 0, pretend = 0, frame = 8
 2055              		@ frame_needed = 0, uses_anonymous_args = 0
 2056 0000 30B5     		push	{r4, r5, lr}
 2057 0002 83B0     		sub	sp, sp, #12
 2058 0004 0446     		mov	r4, r0
 2059 0006 0D46     		mov	r5, r1
 2060 0008 0123     		movs	r3, #1
 2061 000a 01AA     		add	r2, sp, #4
ARM GAS  C:\Users\Nathan\AppData\Local\Temp\ccnGQm3b.s 			page 35


 2062 000c 1421     		movs	r1, #20
 2063 000e FFF7FEFF 		bl	lsm6dsm_read_reg
 2064 0012 08B1     		cbz	r0, .L281
 2065              	.L278:
 2066 0014 03B0     		add	sp, sp, #12
 2067              		@ sp needed
 2068 0016 30BD     		pop	{r4, r5, pc}
 2069              	.L281:
 2070 0018 9DF80430 		ldrb	r3, [sp, #4]	@ zero_extendqisi2
 2071 001c 65F30103 		bfi	r3, r5, #0, #2
 2072 0020 8DF80430 		strb	r3, [sp, #4]
 2073 0024 0123     		movs	r3, #1
 2074 0026 01AA     		add	r2, sp, #4
 2075 0028 1421     		movs	r1, #20
 2076 002a 2046     		mov	r0, r4
 2077 002c FFF7FEFF 		bl	lsm6dsm_write_reg
 2078 0030 F0E7     		b	.L278
 2080              		.section	.text.lsm6dsm_xl_self_test_get,"ax",%progbits
 2081              		.align	1
 2082              		.global	lsm6dsm_xl_self_test_get
 2083              		.syntax unified
 2084              		.thumb
 2085              		.thumb_func
 2087              	lsm6dsm_xl_self_test_get:
 2088              		@ args = 0, pretend = 0, frame = 8
 2089              		@ frame_needed = 0, uses_anonymous_args = 0
 2090 0000 10B5     		push	{r4, lr}
 2091 0002 82B0     		sub	sp, sp, #8
 2092 0004 0C46     		mov	r4, r1
 2093 0006 0123     		movs	r3, #1
 2094 0008 01AA     		add	r2, sp, #4
 2095 000a 1421     		movs	r1, #20
 2096 000c FFF7FEFF 		bl	lsm6dsm_read_reg
 2097 0010 9DF80430 		ldrb	r3, [sp, #4]	@ zero_extendqisi2
 2098 0014 03F00303 		and	r3, r3, #3
 2099 0018 012B     		cmp	r3, #1
 2100 001a 05D0     		beq	.L283
 2101 001c 022B     		cmp	r3, #2
 2102 001e 06D0     		beq	.L284
 2103 0020 43B9     		cbnz	r3, .L285
 2104 0022 2370     		strb	r3, [r4]
 2105              	.L282:
 2106 0024 02B0     		add	sp, sp, #8
 2107              		@ sp needed
 2108 0026 10BD     		pop	{r4, pc}
 2109              	.L283:
 2110 0028 0123     		movs	r3, #1
 2111 002a 2370     		strb	r3, [r4]
 2112 002c FAE7     		b	.L282
 2113              	.L284:
 2114 002e 0223     		movs	r3, #2
 2115 0030 2370     		strb	r3, [r4]
 2116 0032 F7E7     		b	.L282
 2117              	.L285:
 2118 0034 0023     		movs	r3, #0
 2119 0036 2370     		strb	r3, [r4]
 2120 0038 F4E7     		b	.L282
ARM GAS  C:\Users\Nathan\AppData\Local\Temp\ccnGQm3b.s 			page 36


 2122              		.section	.text.lsm6dsm_gy_self_test_set,"ax",%progbits
 2123              		.align	1
 2124              		.global	lsm6dsm_gy_self_test_set
 2125              		.syntax unified
 2126              		.thumb
 2127              		.thumb_func
 2129              	lsm6dsm_gy_self_test_set:
 2130              		@ args = 0, pretend = 0, frame = 8
 2131              		@ frame_needed = 0, uses_anonymous_args = 0
 2132 0000 30B5     		push	{r4, r5, lr}
 2133 0002 83B0     		sub	sp, sp, #12
 2134 0004 0446     		mov	r4, r0
 2135 0006 0D46     		mov	r5, r1
 2136 0008 0123     		movs	r3, #1
 2137 000a 01AA     		add	r2, sp, #4
 2138 000c 1421     		movs	r1, #20
 2139 000e FFF7FEFF 		bl	lsm6dsm_read_reg
 2140 0012 08B1     		cbz	r0, .L291
 2141              	.L288:
 2142 0014 03B0     		add	sp, sp, #12
 2143              		@ sp needed
 2144 0016 30BD     		pop	{r4, r5, pc}
 2145              	.L291:
 2146 0018 9DF80430 		ldrb	r3, [sp, #4]	@ zero_extendqisi2
 2147 001c 65F38303 		bfi	r3, r5, #2, #2
 2148 0020 8DF80430 		strb	r3, [sp, #4]
 2149 0024 0123     		movs	r3, #1
 2150 0026 01AA     		add	r2, sp, #4
 2151 0028 1421     		movs	r1, #20
 2152 002a 2046     		mov	r0, r4
 2153 002c FFF7FEFF 		bl	lsm6dsm_write_reg
 2154 0030 F0E7     		b	.L288
 2156              		.section	.text.lsm6dsm_gy_self_test_get,"ax",%progbits
 2157              		.align	1
 2158              		.global	lsm6dsm_gy_self_test_get
 2159              		.syntax unified
 2160              		.thumb
 2161              		.thumb_func
 2163              	lsm6dsm_gy_self_test_get:
 2164              		@ args = 0, pretend = 0, frame = 8
 2165              		@ frame_needed = 0, uses_anonymous_args = 0
 2166 0000 10B5     		push	{r4, lr}
 2167 0002 82B0     		sub	sp, sp, #8
 2168 0004 0C46     		mov	r4, r1
 2169 0006 0123     		movs	r3, #1
 2170 0008 01AA     		add	r2, sp, #4
 2171 000a 1421     		movs	r1, #20
 2172 000c FFF7FEFF 		bl	lsm6dsm_read_reg
 2173 0010 9DF80430 		ldrb	r3, [sp, #4]	@ zero_extendqisi2
 2174 0014 C3F38103 		ubfx	r3, r3, #2, #2
 2175 0018 012B     		cmp	r3, #1
 2176 001a 05D0     		beq	.L293
 2177 001c 032B     		cmp	r3, #3
 2178 001e 06D0     		beq	.L294
 2179 0020 43B9     		cbnz	r3, .L295
 2180 0022 2370     		strb	r3, [r4]
 2181              	.L292:
ARM GAS  C:\Users\Nathan\AppData\Local\Temp\ccnGQm3b.s 			page 37


 2182 0024 02B0     		add	sp, sp, #8
 2183              		@ sp needed
 2184 0026 10BD     		pop	{r4, pc}
 2185              	.L293:
 2186 0028 0123     		movs	r3, #1
 2187 002a 2370     		strb	r3, [r4]
 2188 002c FAE7     		b	.L292
 2189              	.L294:
 2190 002e 0323     		movs	r3, #3
 2191 0030 2370     		strb	r3, [r4]
 2192 0032 F7E7     		b	.L292
 2193              	.L295:
 2194 0034 0023     		movs	r3, #0
 2195 0036 2370     		strb	r3, [r4]
 2196 0038 F4E7     		b	.L292
 2198              		.section	.text.lsm6dsm_filter_settling_mask_set,"ax",%progbits
 2199              		.align	1
 2200              		.global	lsm6dsm_filter_settling_mask_set
 2201              		.syntax unified
 2202              		.thumb
 2203              		.thumb_func
 2205              	lsm6dsm_filter_settling_mask_set:
 2206              		@ args = 0, pretend = 0, frame = 8
 2207              		@ frame_needed = 0, uses_anonymous_args = 0
 2208 0000 30B5     		push	{r4, r5, lr}
 2209 0002 83B0     		sub	sp, sp, #12
 2210 0004 0446     		mov	r4, r0
 2211 0006 0D46     		mov	r5, r1
 2212 0008 0123     		movs	r3, #1
 2213 000a 01AA     		add	r2, sp, #4
 2214 000c 1321     		movs	r1, #19
 2215 000e FFF7FEFF 		bl	lsm6dsm_read_reg
 2216 0012 08B1     		cbz	r0, .L301
 2217              	.L298:
 2218 0014 03B0     		add	sp, sp, #12
 2219              		@ sp needed
 2220 0016 30BD     		pop	{r4, r5, pc}
 2221              	.L301:
 2222 0018 9DF80430 		ldrb	r3, [sp, #4]	@ zero_extendqisi2
 2223 001c 65F3C303 		bfi	r3, r5, #3, #1
 2224 0020 8DF80430 		strb	r3, [sp, #4]
 2225 0024 0123     		movs	r3, #1
 2226 0026 01AA     		add	r2, sp, #4
 2227 0028 1321     		movs	r1, #19
 2228 002a 2046     		mov	r0, r4
 2229 002c FFF7FEFF 		bl	lsm6dsm_write_reg
 2230 0030 F0E7     		b	.L298
 2232              		.section	.text.lsm6dsm_filter_settling_mask_get,"ax",%progbits
 2233              		.align	1
 2234              		.global	lsm6dsm_filter_settling_mask_get
 2235              		.syntax unified
 2236              		.thumb
 2237              		.thumb_func
 2239              	lsm6dsm_filter_settling_mask_get:
 2240              		@ args = 0, pretend = 0, frame = 8
 2241              		@ frame_needed = 0, uses_anonymous_args = 0
 2242 0000 10B5     		push	{r4, lr}
ARM GAS  C:\Users\Nathan\AppData\Local\Temp\ccnGQm3b.s 			page 38


 2243 0002 82B0     		sub	sp, sp, #8
 2244 0004 0C46     		mov	r4, r1
 2245 0006 0123     		movs	r3, #1
 2246 0008 01AA     		add	r2, sp, #4
 2247 000a 1321     		movs	r1, #19
 2248 000c FFF7FEFF 		bl	lsm6dsm_read_reg
 2249 0010 9DF80430 		ldrb	r3, [sp, #4]	@ zero_extendqisi2
 2250 0014 C3F3C003 		ubfx	r3, r3, #3, #1
 2251 0018 2370     		strb	r3, [r4]
 2252 001a 02B0     		add	sp, sp, #8
 2253              		@ sp needed
 2254 001c 10BD     		pop	{r4, pc}
 2256              		.section	.text.lsm6dsm_xl_hp_path_internal_set,"ax",%progbits
 2257              		.align	1
 2258              		.global	lsm6dsm_xl_hp_path_internal_set
 2259              		.syntax unified
 2260              		.thumb
 2261              		.thumb_func
 2263              	lsm6dsm_xl_hp_path_internal_set:
 2264              		@ args = 0, pretend = 0, frame = 8
 2265              		@ frame_needed = 0, uses_anonymous_args = 0
 2266 0000 30B5     		push	{r4, r5, lr}
 2267 0002 83B0     		sub	sp, sp, #12
 2268 0004 0446     		mov	r4, r0
 2269 0006 0D46     		mov	r5, r1
 2270 0008 0123     		movs	r3, #1
 2271 000a 01AA     		add	r2, sp, #4
 2272 000c 5821     		movs	r1, #88
 2273 000e FFF7FEFF 		bl	lsm6dsm_read_reg
 2274 0012 08B1     		cbz	r0, .L307
 2275              	.L304:
 2276 0014 03B0     		add	sp, sp, #12
 2277              		@ sp needed
 2278 0016 30BD     		pop	{r4, r5, pc}
 2279              	.L307:
 2280 0018 9DF80430 		ldrb	r3, [sp, #4]	@ zero_extendqisi2
 2281 001c 65F30413 		bfi	r3, r5, #4, #1
 2282 0020 8DF80430 		strb	r3, [sp, #4]
 2283 0024 0123     		movs	r3, #1
 2284 0026 01AA     		add	r2, sp, #4
 2285 0028 5821     		movs	r1, #88
 2286 002a 2046     		mov	r0, r4
 2287 002c FFF7FEFF 		bl	lsm6dsm_write_reg
 2288 0030 F0E7     		b	.L304
 2290              		.section	.text.lsm6dsm_xl_hp_path_internal_get,"ax",%progbits
 2291              		.align	1
 2292              		.global	lsm6dsm_xl_hp_path_internal_get
 2293              		.syntax unified
 2294              		.thumb
 2295              		.thumb_func
 2297              	lsm6dsm_xl_hp_path_internal_get:
 2298              		@ args = 0, pretend = 0, frame = 8
 2299              		@ frame_needed = 0, uses_anonymous_args = 0
 2300 0000 10B5     		push	{r4, lr}
 2301 0002 82B0     		sub	sp, sp, #8
 2302 0004 0C46     		mov	r4, r1
 2303 0006 0123     		movs	r3, #1
ARM GAS  C:\Users\Nathan\AppData\Local\Temp\ccnGQm3b.s 			page 39


 2304 0008 01AA     		add	r2, sp, #4
 2305 000a 5821     		movs	r1, #88
 2306 000c FFF7FEFF 		bl	lsm6dsm_read_reg
 2307 0010 9DF80430 		ldrb	r3, [sp, #4]	@ zero_extendqisi2
 2308 0014 C3F30012 		ubfx	r2, r3, #4, #1
 2309 0018 13F0100F 		tst	r3, #16
 2310 001c 03D0     		beq	.L309
 2311 001e 32B9     		cbnz	r2, .L310
 2312 0020 0023     		movs	r3, #0
 2313 0022 2370     		strb	r3, [r4]
 2314 0024 01E0     		b	.L308
 2315              	.L309:
 2316 0026 0023     		movs	r3, #0
 2317 0028 2370     		strb	r3, [r4]
 2318              	.L308:
 2319 002a 02B0     		add	sp, sp, #8
 2320              		@ sp needed
 2321 002c 10BD     		pop	{r4, pc}
 2322              	.L310:
 2323 002e 0123     		movs	r3, #1
 2324 0030 2370     		strb	r3, [r4]
 2325 0032 FAE7     		b	.L308
 2327              		.section	.text.lsm6dsm_xl_filter_analog_set,"ax",%progbits
 2328              		.align	1
 2329              		.global	lsm6dsm_xl_filter_analog_set
 2330              		.syntax unified
 2331              		.thumb
 2332              		.thumb_func
 2334              	lsm6dsm_xl_filter_analog_set:
 2335              		@ args = 0, pretend = 0, frame = 8
 2336              		@ frame_needed = 0, uses_anonymous_args = 0
 2337 0000 30B5     		push	{r4, r5, lr}
 2338 0002 83B0     		sub	sp, sp, #12
 2339 0004 0446     		mov	r4, r0
 2340 0006 0D46     		mov	r5, r1
 2341 0008 0123     		movs	r3, #1
 2342 000a 01AA     		add	r2, sp, #4
 2343 000c 1021     		movs	r1, #16
 2344 000e FFF7FEFF 		bl	lsm6dsm_read_reg
 2345 0012 08B1     		cbz	r0, .L318
 2346              	.L315:
 2347 0014 03B0     		add	sp, sp, #12
 2348              		@ sp needed
 2349 0016 30BD     		pop	{r4, r5, pc}
 2350              	.L318:
 2351 0018 9DF80430 		ldrb	r3, [sp, #4]	@ zero_extendqisi2
 2352 001c 65F30003 		bfi	r3, r5, #0, #1
 2353 0020 8DF80430 		strb	r3, [sp, #4]
 2354 0024 0123     		movs	r3, #1
 2355 0026 01AA     		add	r2, sp, #4
 2356 0028 1021     		movs	r1, #16
 2357 002a 2046     		mov	r0, r4
 2358 002c FFF7FEFF 		bl	lsm6dsm_write_reg
 2359 0030 F0E7     		b	.L315
 2361              		.section	.text.lsm6dsm_xl_filter_analog_get,"ax",%progbits
 2362              		.align	1
 2363              		.global	lsm6dsm_xl_filter_analog_get
ARM GAS  C:\Users\Nathan\AppData\Local\Temp\ccnGQm3b.s 			page 40


 2364              		.syntax unified
 2365              		.thumb
 2366              		.thumb_func
 2368              	lsm6dsm_xl_filter_analog_get:
 2369              		@ args = 0, pretend = 0, frame = 8
 2370              		@ frame_needed = 0, uses_anonymous_args = 0
 2371 0000 10B5     		push	{r4, lr}
 2372 0002 82B0     		sub	sp, sp, #8
 2373 0004 0C46     		mov	r4, r1
 2374 0006 0123     		movs	r3, #1
 2375 0008 01AA     		add	r2, sp, #4
 2376 000a 1021     		movs	r1, #16
 2377 000c FFF7FEFF 		bl	lsm6dsm_read_reg
 2378 0010 9DF80430 		ldrb	r3, [sp, #4]	@ zero_extendqisi2
 2379 0014 13F00103 		ands	r3, r3, #1
 2380 0018 03D0     		beq	.L320
 2381 001a 33B9     		cbnz	r3, .L321
 2382 001c 0023     		movs	r3, #0
 2383 001e 2370     		strb	r3, [r4]
 2384 0020 01E0     		b	.L319
 2385              	.L320:
 2386 0022 0023     		movs	r3, #0
 2387 0024 2370     		strb	r3, [r4]
 2388              	.L319:
 2389 0026 02B0     		add	sp, sp, #8
 2390              		@ sp needed
 2391 0028 10BD     		pop	{r4, pc}
 2392              	.L321:
 2393 002a 0123     		movs	r3, #1
 2394 002c 2370     		strb	r3, [r4]
 2395 002e FAE7     		b	.L319
 2397              		.section	.text.lsm6dsm_xl_lp1_bandwidth_set,"ax",%progbits
 2398              		.align	1
 2399              		.global	lsm6dsm_xl_lp1_bandwidth_set
 2400              		.syntax unified
 2401              		.thumb
 2402              		.thumb_func
 2404              	lsm6dsm_xl_lp1_bandwidth_set:
 2405              		@ args = 0, pretend = 0, frame = 8
 2406              		@ frame_needed = 0, uses_anonymous_args = 0
 2407 0000 30B5     		push	{r4, r5, lr}
 2408 0002 83B0     		sub	sp, sp, #12
 2409 0004 0546     		mov	r5, r0
 2410 0006 0C46     		mov	r4, r1
 2411 0008 0123     		movs	r3, #1
 2412 000a 01AA     		add	r2, sp, #4
 2413 000c 1021     		movs	r1, #16
 2414 000e FFF7FEFF 		bl	lsm6dsm_read_reg
 2415 0012 08B1     		cbz	r0, .L329
 2416              	.L326:
 2417 0014 03B0     		add	sp, sp, #12
 2418              		@ sp needed
 2419 0016 30BD     		pop	{r4, r5, pc}
 2420              	.L329:
 2421 0018 9DF80430 		ldrb	r3, [sp, #4]	@ zero_extendqisi2
 2422 001c 64F34103 		bfi	r3, r4, #1, #1
 2423 0020 8DF80430 		strb	r3, [sp, #4]
ARM GAS  C:\Users\Nathan\AppData\Local\Temp\ccnGQm3b.s 			page 41


 2424 0024 0123     		movs	r3, #1
 2425 0026 01AA     		add	r2, sp, #4
 2426 0028 1021     		movs	r1, #16
 2427 002a 2846     		mov	r0, r5
 2428 002c FFF7FEFF 		bl	lsm6dsm_write_reg
 2429 0030 0028     		cmp	r0, #0
 2430 0032 EFD1     		bne	.L326
 2431 0034 0123     		movs	r3, #1
 2432 0036 6A46     		mov	r2, sp
 2433 0038 1721     		movs	r1, #23
 2434 003a 2846     		mov	r0, r5
 2435 003c FFF7FEFF 		bl	lsm6dsm_read_reg
 2436 0040 0028     		cmp	r0, #0
 2437 0042 E7D1     		bne	.L326
 2438 0044 9DF80030 		ldrb	r3, [sp]	@ zero_extendqisi2
 2439 0048 23F08003 		bic	r3, r3, #128
 2440 004c 8DF80030 		strb	r3, [sp]
 2441 0050 DBB2     		uxtb	r3, r3
 2442 0052 23F00403 		bic	r3, r3, #4
 2443 0056 8DF80030 		strb	r3, [sp]
 2444 005a 0123     		movs	r3, #1
 2445 005c 6A46     		mov	r2, sp
 2446 005e 1721     		movs	r1, #23
 2447 0060 2846     		mov	r0, r5
 2448 0062 FFF7FEFF 		bl	lsm6dsm_write_reg
 2449 0066 D5E7     		b	.L326
 2451              		.section	.text.lsm6dsm_xl_lp1_bandwidth_get,"ax",%progbits
 2452              		.align	1
 2453              		.global	lsm6dsm_xl_lp1_bandwidth_get
 2454              		.syntax unified
 2455              		.thumb
 2456              		.thumb_func
 2458              	lsm6dsm_xl_lp1_bandwidth_get:
 2459              		@ args = 0, pretend = 0, frame = 8
 2460              		@ frame_needed = 0, uses_anonymous_args = 0
 2461 0000 30B5     		push	{r4, r5, lr}
 2462 0002 83B0     		sub	sp, sp, #12
 2463 0004 0446     		mov	r4, r0
 2464 0006 0D46     		mov	r5, r1
 2465 0008 0123     		movs	r3, #1
 2466 000a 6A46     		mov	r2, sp
 2467 000c 1721     		movs	r1, #23
 2468 000e FFF7FEFF 		bl	lsm6dsm_read_reg
 2469 0012 30B9     		cbnz	r0, .L330
 2470 0014 9DF80030 		ldrb	r3, [sp]	@ zero_extendqisi2
 2471 0018 13F0840F 		tst	r3, #132
 2472 001c 03D0     		beq	.L332
 2473 001e 0223     		movs	r3, #2
 2474 0020 2B70     		strb	r3, [r5]
 2475              	.L330:
 2476 0022 03B0     		add	sp, sp, #12
 2477              		@ sp needed
 2478 0024 30BD     		pop	{r4, r5, pc}
 2479              	.L332:
 2480 0026 0123     		movs	r3, #1
 2481 0028 01AA     		add	r2, sp, #4
 2482 002a 1021     		movs	r1, #16
ARM GAS  C:\Users\Nathan\AppData\Local\Temp\ccnGQm3b.s 			page 42


 2483 002c 2046     		mov	r0, r4
 2484 002e FFF7FEFF 		bl	lsm6dsm_read_reg
 2485 0032 9DF80430 		ldrb	r3, [sp, #4]	@ zero_extendqisi2
 2486 0036 C3F34002 		ubfx	r2, r3, #1, #1
 2487 003a 13F0020F 		tst	r3, #2
 2488 003e 03D0     		beq	.L333
 2489 0040 2AB9     		cbnz	r2, .L334
 2490 0042 0023     		movs	r3, #0
 2491 0044 2B70     		strb	r3, [r5]
 2492 0046 ECE7     		b	.L330
 2493              	.L333:
 2494 0048 0023     		movs	r3, #0
 2495 004a 2B70     		strb	r3, [r5]
 2496 004c E9E7     		b	.L330
 2497              	.L334:
 2498 004e 0123     		movs	r3, #1
 2499 0050 2B70     		strb	r3, [r5]
 2500 0052 E6E7     		b	.L330
 2502              		.section	.text.lsm6dsm_xl_lp2_bandwidth_set,"ax",%progbits
 2503              		.align	1
 2504              		.global	lsm6dsm_xl_lp2_bandwidth_set
 2505              		.syntax unified
 2506              		.thumb
 2507              		.thumb_func
 2509              	lsm6dsm_xl_lp2_bandwidth_set:
 2510              		@ args = 0, pretend = 0, frame = 8
 2511              		@ frame_needed = 0, uses_anonymous_args = 0
 2512 0000 30B5     		push	{r4, r5, lr}
 2513 0002 83B0     		sub	sp, sp, #12
 2514 0004 0546     		mov	r5, r0
 2515 0006 0C46     		mov	r4, r1
 2516 0008 0123     		movs	r3, #1
 2517 000a 01AA     		add	r2, sp, #4
 2518 000c 1721     		movs	r1, #23
 2519 000e FFF7FEFF 		bl	lsm6dsm_read_reg
 2520 0012 08B1     		cbz	r0, .L341
 2521              	.L338:
 2522 0014 03B0     		add	sp, sp, #12
 2523              		@ sp needed
 2524 0016 30BD     		pop	{r4, r5, pc}
 2525              	.L341:
 2526 0018 C4F30012 		ubfx	r2, r4, #4, #1
 2527 001c 9DF80430 		ldrb	r3, [sp, #4]	@ zero_extendqisi2
 2528 0020 62F3C303 		bfi	r3, r2, #3, #1
 2529 0024 8DF80430 		strb	r3, [sp, #4]
 2530 0028 DBB2     		uxtb	r3, r3
 2531 002a 64F34613 		bfi	r3, r4, #5, #2
 2532 002e 8DF80430 		strb	r3, [sp, #4]
 2533 0032 DBB2     		uxtb	r3, r3
 2534 0034 43F08003 		orr	r3, r3, #128
 2535 0038 8DF80430 		strb	r3, [sp, #4]
 2536 003c DBB2     		uxtb	r3, r3
 2537 003e 23F00403 		bic	r3, r3, #4
 2538 0042 8DF80430 		strb	r3, [sp, #4]
 2539 0046 0123     		movs	r3, #1
 2540 0048 01AA     		add	r2, sp, #4
 2541 004a 1721     		movs	r1, #23
ARM GAS  C:\Users\Nathan\AppData\Local\Temp\ccnGQm3b.s 			page 43


 2542 004c 2846     		mov	r0, r5
 2543 004e FFF7FEFF 		bl	lsm6dsm_write_reg
 2544 0052 DFE7     		b	.L338
 2546              		.section	.text.lsm6dsm_xl_lp2_bandwidth_get,"ax",%progbits
 2547              		.align	1
 2548              		.global	lsm6dsm_xl_lp2_bandwidth_get
 2549              		.syntax unified
 2550              		.thumb
 2551              		.thumb_func
 2553              	lsm6dsm_xl_lp2_bandwidth_get:
 2554              		@ args = 0, pretend = 0, frame = 8
 2555              		@ frame_needed = 0, uses_anonymous_args = 0
 2556 0000 10B5     		push	{r4, lr}
 2557 0002 82B0     		sub	sp, sp, #8
 2558 0004 0C46     		mov	r4, r1
 2559 0006 0123     		movs	r3, #1
 2560 0008 01AA     		add	r2, sp, #4
 2561 000a 1721     		movs	r1, #23
 2562 000c FFF7FEFF 		bl	lsm6dsm_read_reg
 2563 0010 38B9     		cbnz	r0, .L342
 2564 0012 9DF80430 		ldrb	r3, [sp, #4]	@ zero_extendqisi2
 2565 0016 03F08403 		and	r3, r3, #132
 2566 001a 802B     		cmp	r3, #128
 2567 001c 03D0     		beq	.L344
 2568 001e 2023     		movs	r3, #32
 2569 0020 2370     		strb	r3, [r4]
 2570              	.L342:
 2571 0022 02B0     		add	sp, sp, #8
 2572              		@ sp needed
 2573 0024 10BD     		pop	{r4, pc}
 2574              	.L344:
 2575 0026 9DF80430 		ldrb	r3, [sp, #4]	@ zero_extendqisi2
 2576 002a C3F3C002 		ubfx	r2, r3, #3, #1
 2577 002e C3F34113 		ubfx	r3, r3, #5, #2
 2578 0032 03EB0213 		add	r3, r3, r2, lsl #4
 2579 0036 132B     		cmp	r3, #19
 2580 0038 23D8     		bhi	.L345
 2581 003a DFE803F0 		tbb	[pc, r3]
 2582              	.L347:
 2583 003e 0A       		.byte	(.L354-.L347)/2
 2584 003f 0D       		.byte	(.L353-.L347)/2
 2585 0040 10       		.byte	(.L352-.L347)/2
 2586 0041 13       		.byte	(.L351-.L347)/2
 2587 0042 22       		.byte	(.L345-.L347)/2
 2588 0043 22       		.byte	(.L345-.L347)/2
 2589 0044 22       		.byte	(.L345-.L347)/2
 2590 0045 22       		.byte	(.L345-.L347)/2
 2591 0046 22       		.byte	(.L345-.L347)/2
 2592 0047 22       		.byte	(.L345-.L347)/2
 2593 0048 22       		.byte	(.L345-.L347)/2
 2594 0049 22       		.byte	(.L345-.L347)/2
 2595 004a 22       		.byte	(.L345-.L347)/2
 2596 004b 22       		.byte	(.L345-.L347)/2
 2597 004c 22       		.byte	(.L345-.L347)/2
 2598 004d 22       		.byte	(.L345-.L347)/2
 2599 004e 16       		.byte	(.L350-.L347)/2
 2600 004f 19       		.byte	(.L349-.L347)/2
ARM GAS  C:\Users\Nathan\AppData\Local\Temp\ccnGQm3b.s 			page 44


 2601 0050 1C       		.byte	(.L348-.L347)/2
 2602 0051 1F       		.byte	(.L346-.L347)/2
 2603              		.p2align 1
 2604              	.L354:
 2605 0052 0023     		movs	r3, #0
 2606 0054 2370     		strb	r3, [r4]
 2607 0056 E4E7     		b	.L342
 2608              	.L353:
 2609 0058 0123     		movs	r3, #1
 2610 005a 2370     		strb	r3, [r4]
 2611 005c E1E7     		b	.L342
 2612              	.L352:
 2613 005e 0223     		movs	r3, #2
 2614 0060 2370     		strb	r3, [r4]
 2615 0062 DEE7     		b	.L342
 2616              	.L351:
 2617 0064 0323     		movs	r3, #3
 2618 0066 2370     		strb	r3, [r4]
 2619 0068 DBE7     		b	.L342
 2620              	.L350:
 2621 006a 1023     		movs	r3, #16
 2622 006c 2370     		strb	r3, [r4]
 2623 006e D8E7     		b	.L342
 2624              	.L349:
 2625 0070 1123     		movs	r3, #17
 2626 0072 2370     		strb	r3, [r4]
 2627 0074 D5E7     		b	.L342
 2628              	.L348:
 2629 0076 1223     		movs	r3, #18
 2630 0078 2370     		strb	r3, [r4]
 2631 007a D2E7     		b	.L342
 2632              	.L346:
 2633 007c 1323     		movs	r3, #19
 2634 007e 2370     		strb	r3, [r4]
 2635 0080 CFE7     		b	.L342
 2636              	.L345:
 2637 0082 0023     		movs	r3, #0
 2638 0084 2370     		strb	r3, [r4]
 2639 0086 CCE7     		b	.L342
 2641              		.section	.text.lsm6dsm_xl_reference_mode_set,"ax",%progbits
 2642              		.align	1
 2643              		.global	lsm6dsm_xl_reference_mode_set
 2644              		.syntax unified
 2645              		.thumb
 2646              		.thumb_func
 2648              	lsm6dsm_xl_reference_mode_set:
 2649              		@ args = 0, pretend = 0, frame = 8
 2650              		@ frame_needed = 0, uses_anonymous_args = 0
 2651 0000 30B5     		push	{r4, r5, lr}
 2652 0002 83B0     		sub	sp, sp, #12
 2653 0004 0446     		mov	r4, r0
 2654 0006 0D46     		mov	r5, r1
 2655 0008 0123     		movs	r3, #1
 2656 000a 01AA     		add	r2, sp, #4
 2657 000c 1721     		movs	r1, #23
 2658 000e FFF7FEFF 		bl	lsm6dsm_read_reg
 2659 0012 08B1     		cbz	r0, .L359
ARM GAS  C:\Users\Nathan\AppData\Local\Temp\ccnGQm3b.s 			page 45


 2660              	.L356:
 2661 0014 03B0     		add	sp, sp, #12
 2662              		@ sp needed
 2663 0016 30BD     		pop	{r4, r5, pc}
 2664              	.L359:
 2665 0018 9DF80430 		ldrb	r3, [sp, #4]	@ zero_extendqisi2
 2666 001c 65F30413 		bfi	r3, r5, #4, #1
 2667 0020 8DF80430 		strb	r3, [sp, #4]
 2668 0024 0123     		movs	r3, #1
 2669 0026 01AA     		add	r2, sp, #4
 2670 0028 1721     		movs	r1, #23
 2671 002a 2046     		mov	r0, r4
 2672 002c FFF7FEFF 		bl	lsm6dsm_write_reg
 2673 0030 F0E7     		b	.L356
 2675              		.section	.text.lsm6dsm_xl_reference_mode_get,"ax",%progbits
 2676              		.align	1
 2677              		.global	lsm6dsm_xl_reference_mode_get
 2678              		.syntax unified
 2679              		.thumb
 2680              		.thumb_func
 2682              	lsm6dsm_xl_reference_mode_get:
 2683              		@ args = 0, pretend = 0, frame = 8
 2684              		@ frame_needed = 0, uses_anonymous_args = 0
 2685 0000 10B5     		push	{r4, lr}
 2686 0002 82B0     		sub	sp, sp, #8
 2687 0004 0C46     		mov	r4, r1
 2688 0006 0123     		movs	r3, #1
 2689 0008 01AA     		add	r2, sp, #4
 2690 000a 1721     		movs	r1, #23
 2691 000c FFF7FEFF 		bl	lsm6dsm_read_reg
 2692 0010 9DF80430 		ldrb	r3, [sp, #4]	@ zero_extendqisi2
 2693 0014 C3F30013 		ubfx	r3, r3, #4, #1
 2694 0018 2370     		strb	r3, [r4]
 2695 001a 02B0     		add	sp, sp, #8
 2696              		@ sp needed
 2697 001c 10BD     		pop	{r4, pc}
 2699              		.section	.text.lsm6dsm_xl_hp_bandwidth_set,"ax",%progbits
 2700              		.align	1
 2701              		.global	lsm6dsm_xl_hp_bandwidth_set
 2702              		.syntax unified
 2703              		.thumb
 2704              		.thumb_func
 2706              	lsm6dsm_xl_hp_bandwidth_set:
 2707              		@ args = 0, pretend = 0, frame = 8
 2708              		@ frame_needed = 0, uses_anonymous_args = 0
 2709 0000 30B5     		push	{r4, r5, lr}
 2710 0002 83B0     		sub	sp, sp, #12
 2711 0004 0546     		mov	r5, r0
 2712 0006 0C46     		mov	r4, r1
 2713 0008 0123     		movs	r3, #1
 2714 000a 01AA     		add	r2, sp, #4
 2715 000c 1721     		movs	r1, #23
 2716 000e FFF7FEFF 		bl	lsm6dsm_read_reg
 2717 0012 08B1     		cbz	r0, .L365
 2718              	.L362:
 2719 0014 03B0     		add	sp, sp, #12
 2720              		@ sp needed
ARM GAS  C:\Users\Nathan\AppData\Local\Temp\ccnGQm3b.s 			page 46


 2721 0016 30BD     		pop	{r4, r5, pc}
 2722              	.L365:
 2723 0018 9DF80430 		ldrb	r3, [sp, #4]	@ zero_extendqisi2
 2724 001c 23F00803 		bic	r3, r3, #8
 2725 0020 8DF80430 		strb	r3, [sp, #4]
 2726 0024 DBB2     		uxtb	r3, r3
 2727 0026 64F34613 		bfi	r3, r4, #5, #2
 2728 002a 8DF80430 		strb	r3, [sp, #4]
 2729 002e DBB2     		uxtb	r3, r3
 2730 0030 43F00403 		orr	r3, r3, #4
 2731 0034 8DF80430 		strb	r3, [sp, #4]
 2732 0038 0123     		movs	r3, #1
 2733 003a 01AA     		add	r2, sp, #4
 2734 003c 1721     		movs	r1, #23
 2735 003e 2846     		mov	r0, r5
 2736 0040 FFF7FEFF 		bl	lsm6dsm_write_reg
 2737 0044 E6E7     		b	.L362
 2739              		.section	.text.lsm6dsm_xl_hp_bandwidth_get,"ax",%progbits
 2740              		.align	1
 2741              		.global	lsm6dsm_xl_hp_bandwidth_get
 2742              		.syntax unified
 2743              		.thumb
 2744              		.thumb_func
 2746              	lsm6dsm_xl_hp_bandwidth_get:
 2747              		@ args = 0, pretend = 0, frame = 8
 2748              		@ frame_needed = 0, uses_anonymous_args = 0
 2749 0000 10B5     		push	{r4, lr}
 2750 0002 82B0     		sub	sp, sp, #8
 2751 0004 0C46     		mov	r4, r1
 2752 0006 0123     		movs	r3, #1
 2753 0008 01AA     		add	r2, sp, #4
 2754 000a 1721     		movs	r1, #23
 2755 000c FFF7FEFF 		bl	lsm6dsm_read_reg
 2756 0010 9DF80430 		ldrb	r3, [sp, #4]	@ zero_extendqisi2
 2757 0014 13F0040F 		tst	r3, #4
 2758 0018 01D1     		bne	.L367
 2759 001a 1023     		movs	r3, #16
 2760 001c 2370     		strb	r3, [r4]
 2761              	.L367:
 2762 001e 9DF80430 		ldrb	r3, [sp, #4]	@ zero_extendqisi2
 2763 0022 C3F34113 		ubfx	r3, r3, #5, #2
 2764 0026 032B     		cmp	r3, #3
 2765 0028 10D8     		bhi	.L368
 2766 002a DFE803F0 		tbb	[pc, r3]
 2767              	.L370:
 2768 002e 02       		.byte	(.L373-.L370)/2
 2769 002f 06       		.byte	(.L372-.L370)/2
 2770 0030 09       		.byte	(.L371-.L370)/2
 2771 0031 0C       		.byte	(.L369-.L370)/2
 2772              		.p2align 1
 2773              	.L373:
 2774 0032 0023     		movs	r3, #0
 2775 0034 2370     		strb	r3, [r4]
 2776              	.L366:
 2777 0036 02B0     		add	sp, sp, #8
 2778              		@ sp needed
 2779 0038 10BD     		pop	{r4, pc}
ARM GAS  C:\Users\Nathan\AppData\Local\Temp\ccnGQm3b.s 			page 47


 2780              	.L372:
 2781 003a 0123     		movs	r3, #1
 2782 003c 2370     		strb	r3, [r4]
 2783 003e FAE7     		b	.L366
 2784              	.L371:
 2785 0040 0223     		movs	r3, #2
 2786 0042 2370     		strb	r3, [r4]
 2787 0044 F7E7     		b	.L366
 2788              	.L369:
 2789 0046 0323     		movs	r3, #3
 2790 0048 2370     		strb	r3, [r4]
 2791 004a F4E7     		b	.L366
 2792              	.L368:
 2793 004c 0023     		movs	r3, #0
 2794 004e 2370     		strb	r3, [r4]
 2795 0050 F1E7     		b	.L366
 2797              		.section	.text.lsm6dsm_xl_ui_lp1_bandwidth_set,"ax",%progbits
 2798              		.align	1
 2799              		.global	lsm6dsm_xl_ui_lp1_bandwidth_set
 2800              		.syntax unified
 2801              		.thumb
 2802              		.thumb_func
 2804              	lsm6dsm_xl_ui_lp1_bandwidth_set:
 2805              		@ args = 0, pretend = 0, frame = 8
 2806              		@ frame_needed = 0, uses_anonymous_args = 0
 2807 0000 30B5     		push	{r4, r5, lr}
 2808 0002 83B0     		sub	sp, sp, #12
 2809 0004 0546     		mov	r5, r0
 2810 0006 0C46     		mov	r4, r1
 2811 0008 0123     		movs	r3, #1
 2812 000a 01AA     		add	r2, sp, #4
 2813 000c 1021     		movs	r1, #16
 2814 000e FFF7FEFF 		bl	lsm6dsm_read_reg
 2815 0012 0346     		mov	r3, r0
 2816 0014 18B1     		cbz	r0, .L380
 2817              	.L377:
 2818 0016 CBB1     		cbz	r3, .L381
 2819              	.L376:
 2820 0018 1846     		mov	r0, r3
 2821 001a 03B0     		add	sp, sp, #12
 2822              		@ sp needed
 2823 001c 30BD     		pop	{r4, r5, pc}
 2824              	.L380:
 2825 001e 9DF80430 		ldrb	r3, [sp, #4]	@ zero_extendqisi2
 2826 0022 64F34103 		bfi	r3, r4, #1, #1
 2827 0026 8DF80430 		strb	r3, [sp, #4]
 2828 002a 0123     		movs	r3, #1
 2829 002c 01AA     		add	r2, sp, #4
 2830 002e 1021     		movs	r1, #16
 2831 0030 2846     		mov	r0, r5
 2832 0032 FFF7FEFF 		bl	lsm6dsm_write_reg
 2833 0036 0346     		mov	r3, r0
 2834 0038 0028     		cmp	r0, #0
 2835 003a EDD1     		bne	.L376
 2836 003c 0123     		movs	r3, #1
 2837 003e 6A46     		mov	r2, sp
 2838 0040 1721     		movs	r1, #23
ARM GAS  C:\Users\Nathan\AppData\Local\Temp\ccnGQm3b.s 			page 48


 2839 0042 2846     		mov	r0, r5
 2840 0044 FFF7FEFF 		bl	lsm6dsm_read_reg
 2841 0048 0346     		mov	r3, r0
 2842 004a E4E7     		b	.L377
 2843              	.L381:
 2844 004c 9DF80030 		ldrb	r3, [sp]	@ zero_extendqisi2
 2845 0050 23F00403 		bic	r3, r3, #4
 2846 0054 8DF80030 		strb	r3, [sp]
 2847 0058 0123     		movs	r3, #1
 2848 005a 6A46     		mov	r2, sp
 2849 005c 1721     		movs	r1, #23
 2850 005e 2846     		mov	r0, r5
 2851 0060 FFF7FEFF 		bl	lsm6dsm_write_reg
 2852 0064 0346     		mov	r3, r0
 2853 0066 D7E7     		b	.L376
 2855              		.section	.text.lsm6dsm_xl_ui_lp1_bandwidth_get,"ax",%progbits
 2856              		.align	1
 2857              		.global	lsm6dsm_xl_ui_lp1_bandwidth_get
 2858              		.syntax unified
 2859              		.thumb
 2860              		.thumb_func
 2862              	lsm6dsm_xl_ui_lp1_bandwidth_get:
 2863              		@ args = 0, pretend = 0, frame = 8
 2864              		@ frame_needed = 0, uses_anonymous_args = 0
 2865 0000 30B5     		push	{r4, r5, lr}
 2866 0002 83B0     		sub	sp, sp, #12
 2867 0004 0446     		mov	r4, r0
 2868 0006 0D46     		mov	r5, r1
 2869 0008 0123     		movs	r3, #1
 2870 000a 6A46     		mov	r2, sp
 2871 000c 1721     		movs	r1, #23
 2872 000e FFF7FEFF 		bl	lsm6dsm_read_reg
 2873 0012 30B9     		cbnz	r0, .L382
 2874 0014 9DF80030 		ldrb	r3, [sp]	@ zero_extendqisi2
 2875 0018 13F0040F 		tst	r3, #4
 2876 001c 03D0     		beq	.L384
 2877 001e 0223     		movs	r3, #2
 2878 0020 2B70     		strb	r3, [r5]
 2879              	.L382:
 2880 0022 03B0     		add	sp, sp, #12
 2881              		@ sp needed
 2882 0024 30BD     		pop	{r4, r5, pc}
 2883              	.L384:
 2884 0026 0123     		movs	r3, #1
 2885 0028 01AA     		add	r2, sp, #4
 2886 002a 1021     		movs	r1, #16
 2887 002c 2046     		mov	r0, r4
 2888 002e FFF7FEFF 		bl	lsm6dsm_read_reg
 2889 0032 9DF80430 		ldrb	r3, [sp, #4]	@ zero_extendqisi2
 2890 0036 C3F34002 		ubfx	r2, r3, #1, #1
 2891 003a 13F0020F 		tst	r3, #2
 2892 003e 03D0     		beq	.L385
 2893 0040 2AB9     		cbnz	r2, .L386
 2894 0042 0023     		movs	r3, #0
 2895 0044 2B70     		strb	r3, [r5]
 2896 0046 ECE7     		b	.L382
 2897              	.L385:
ARM GAS  C:\Users\Nathan\AppData\Local\Temp\ccnGQm3b.s 			page 49


 2898 0048 0023     		movs	r3, #0
 2899 004a 2B70     		strb	r3, [r5]
 2900 004c E9E7     		b	.L382
 2901              	.L386:
 2902 004e 0123     		movs	r3, #1
 2903 0050 2B70     		strb	r3, [r5]
 2904 0052 E6E7     		b	.L382
 2906              		.section	.text.lsm6dsm_xl_ui_slope_set,"ax",%progbits
 2907              		.align	1
 2908              		.global	lsm6dsm_xl_ui_slope_set
 2909              		.syntax unified
 2910              		.thumb
 2911              		.thumb_func
 2913              	lsm6dsm_xl_ui_slope_set:
 2914              		@ args = 0, pretend = 0, frame = 8
 2915              		@ frame_needed = 0, uses_anonymous_args = 0
 2916 0000 30B5     		push	{r4, r5, lr}
 2917 0002 83B0     		sub	sp, sp, #12
 2918 0004 0446     		mov	r4, r0
 2919 0006 0D46     		mov	r5, r1
 2920 0008 0123     		movs	r3, #1
 2921 000a 01AA     		add	r2, sp, #4
 2922 000c 1721     		movs	r1, #23
 2923 000e FFF7FEFF 		bl	lsm6dsm_read_reg
 2924 0012 08B1     		cbz	r0, .L393
 2925              	.L390:
 2926 0014 03B0     		add	sp, sp, #12
 2927              		@ sp needed
 2928 0016 30BD     		pop	{r4, r5, pc}
 2929              	.L393:
 2930 0018 9DF80430 		ldrb	r3, [sp, #4]	@ zero_extendqisi2
 2931 001c 65F38203 		bfi	r3, r5, #2, #1
 2932 0020 8DF80430 		strb	r3, [sp, #4]
 2933 0024 0123     		movs	r3, #1
 2934 0026 01AA     		add	r2, sp, #4
 2935 0028 1721     		movs	r1, #23
 2936 002a 2046     		mov	r0, r4
 2937 002c FFF7FEFF 		bl	lsm6dsm_write_reg
 2938 0030 F0E7     		b	.L390
 2940              		.section	.text.lsm6dsm_xl_ui_slope_get,"ax",%progbits
 2941              		.align	1
 2942              		.global	lsm6dsm_xl_ui_slope_get
 2943              		.syntax unified
 2944              		.thumb
 2945              		.thumb_func
 2947              	lsm6dsm_xl_ui_slope_get:
 2948              		@ args = 0, pretend = 0, frame = 8
 2949              		@ frame_needed = 0, uses_anonymous_args = 0
 2950 0000 10B5     		push	{r4, lr}
 2951 0002 82B0     		sub	sp, sp, #8
 2952 0004 0C46     		mov	r4, r1
 2953 0006 0123     		movs	r3, #1
 2954 0008 01AA     		add	r2, sp, #4
 2955 000a 1721     		movs	r1, #23
 2956 000c FFF7FEFF 		bl	lsm6dsm_read_reg
 2957 0010 9DF80430 		ldrb	r3, [sp, #4]	@ zero_extendqisi2
 2958 0014 C3F38003 		ubfx	r3, r3, #2, #1
ARM GAS  C:\Users\Nathan\AppData\Local\Temp\ccnGQm3b.s 			page 50


 2959 0018 2370     		strb	r3, [r4]
 2960 001a 02B0     		add	sp, sp, #8
 2961              		@ sp needed
 2962 001c 10BD     		pop	{r4, pc}
 2964              		.section	.text.lsm6dsm_xl_aux_lp_bandwidth_set,"ax",%progbits
 2965              		.align	1
 2966              		.global	lsm6dsm_xl_aux_lp_bandwidth_set
 2967              		.syntax unified
 2968              		.thumb
 2969              		.thumb_func
 2971              	lsm6dsm_xl_aux_lp_bandwidth_set:
 2972              		@ args = 0, pretend = 0, frame = 8
 2973              		@ frame_needed = 0, uses_anonymous_args = 0
 2974 0000 30B5     		push	{r4, r5, lr}
 2975 0002 83B0     		sub	sp, sp, #12
 2976 0004 0446     		mov	r4, r0
 2977 0006 0D46     		mov	r5, r1
 2978 0008 0123     		movs	r3, #1
 2979 000a 01AA     		add	r2, sp, #4
 2980 000c 7221     		movs	r1, #114
 2981 000e FFF7FEFF 		bl	lsm6dsm_read_reg
 2982 0012 08B1     		cbz	r0, .L399
 2983              	.L396:
 2984 0014 03B0     		add	sp, sp, #12
 2985              		@ sp needed
 2986 0016 30BD     		pop	{r4, r5, pc}
 2987              	.L399:
 2988 0018 9DF80430 		ldrb	r3, [sp, #4]	@ zero_extendqisi2
 2989 001c 65F3C403 		bfi	r3, r5, #3, #2
 2990 0020 8DF80430 		strb	r3, [sp, #4]
 2991 0024 0123     		movs	r3, #1
 2992 0026 01AA     		add	r2, sp, #4
 2993 0028 7221     		movs	r1, #114
 2994 002a 2046     		mov	r0, r4
 2995 002c FFF7FEFF 		bl	lsm6dsm_write_reg
 2996 0030 F0E7     		b	.L396
 2998              		.section	.text.lsm6dsm_xl_aux_lp_bandwidth_get,"ax",%progbits
 2999              		.align	1
 3000              		.global	lsm6dsm_xl_aux_lp_bandwidth_get
 3001              		.syntax unified
 3002              		.thumb
 3003              		.thumb_func
 3005              	lsm6dsm_xl_aux_lp_bandwidth_get:
 3006              		@ args = 0, pretend = 0, frame = 8
 3007              		@ frame_needed = 0, uses_anonymous_args = 0
 3008 0000 10B5     		push	{r4, lr}
 3009 0002 82B0     		sub	sp, sp, #8
 3010 0004 0C46     		mov	r4, r1
 3011 0006 0123     		movs	r3, #1
 3012 0008 01AA     		add	r2, sp, #4
 3013 000a 7221     		movs	r1, #114
 3014 000c FFF7FEFF 		bl	lsm6dsm_read_reg
 3015 0010 9DF80430 		ldrb	r3, [sp, #4]	@ zero_extendqisi2
 3016 0014 C3F3C103 		ubfx	r3, r3, #3, #2
 3017 0018 032B     		cmp	r3, #3
 3018 001a 10D8     		bhi	.L401
 3019 001c DFE803F0 		tbb	[pc, r3]
ARM GAS  C:\Users\Nathan\AppData\Local\Temp\ccnGQm3b.s 			page 51


 3020              	.L403:
 3021 0020 09       		.byte	(.L406-.L403)/2
 3022 0021 0C       		.byte	(.L405-.L403)/2
 3023 0022 02       		.byte	(.L404-.L403)/2
 3024 0023 06       		.byte	(.L402-.L403)/2
 3025              		.p2align 1
 3026              	.L404:
 3027 0024 0223     		movs	r3, #2
 3028 0026 2370     		strb	r3, [r4]
 3029              	.L400:
 3030 0028 02B0     		add	sp, sp, #8
 3031              		@ sp needed
 3032 002a 10BD     		pop	{r4, pc}
 3033              	.L402:
 3034 002c 0323     		movs	r3, #3
 3035 002e 2370     		strb	r3, [r4]
 3036 0030 FAE7     		b	.L400
 3037              	.L406:
 3038 0032 0023     		movs	r3, #0
 3039 0034 2370     		strb	r3, [r4]
 3040 0036 F7E7     		b	.L400
 3041              	.L405:
 3042 0038 0123     		movs	r3, #1
 3043 003a 2370     		strb	r3, [r4]
 3044 003c F4E7     		b	.L400
 3045              	.L401:
 3046 003e 0223     		movs	r3, #2
 3047 0040 2370     		strb	r3, [r4]
 3048 0042 F1E7     		b	.L400
 3050              		.section	.text.lsm6dsm_gy_band_pass_set,"ax",%progbits
 3051              		.align	1
 3052              		.global	lsm6dsm_gy_band_pass_set
 3053              		.syntax unified
 3054              		.thumb
 3055              		.thumb_func
 3057              	lsm6dsm_gy_band_pass_set:
 3058              		@ args = 0, pretend = 0, frame = 16
 3059              		@ frame_needed = 0, uses_anonymous_args = 0
 3060 0000 30B5     		push	{r4, r5, lr}
 3061 0002 85B0     		sub	sp, sp, #20
 3062 0004 0546     		mov	r5, r0
 3063 0006 0C46     		mov	r4, r1
 3064 0008 0123     		movs	r3, #1
 3065 000a 01AA     		add	r2, sp, #4
 3066 000c 1621     		movs	r1, #22
 3067 000e FFF7FEFF 		bl	lsm6dsm_read_reg
 3068 0012 08B1     		cbz	r0, .L412
 3069              	.L409:
 3070 0014 05B0     		add	sp, sp, #20
 3071              		@ sp needed
 3072 0016 30BD     		pop	{r4, r5, pc}
 3073              	.L412:
 3074 0018 C4F30113 		ubfx	r3, r4, #4, #2
 3075 001c 9DF80420 		ldrb	r2, [sp, #4]	@ zero_extendqisi2
 3076 0020 63F30512 		bfi	r2, r3, #4, #2
 3077 0024 8DF80420 		strb	r2, [sp, #4]
 3078 0028 E309     		lsrs	r3, r4, #7
ARM GAS  C:\Users\Nathan\AppData\Local\Temp\ccnGQm3b.s 			page 52


 3079 002a D2B2     		uxtb	r2, r2
 3080 002c 63F38612 		bfi	r2, r3, #6, #1
 3081 0030 8DF80420 		strb	r2, [sp, #4]
 3082 0034 0123     		movs	r3, #1
 3083 0036 01AA     		add	r2, sp, #4
 3084 0038 1621     		movs	r1, #22
 3085 003a 2846     		mov	r0, r5
 3086 003c FFF7FEFF 		bl	lsm6dsm_write_reg
 3087 0040 0028     		cmp	r0, #0
 3088 0042 E7D1     		bne	.L409
 3089 0044 0123     		movs	r3, #1
 3090 0046 02AA     		add	r2, sp, #8
 3091 0048 1521     		movs	r1, #21
 3092 004a 2846     		mov	r0, r5
 3093 004c FFF7FEFF 		bl	lsm6dsm_read_reg
 3094 0050 0028     		cmp	r0, #0
 3095 0052 DFD1     		bne	.L409
 3096 0054 9DF80830 		ldrb	r3, [sp, #8]	@ zero_extendqisi2
 3097 0058 64F30103 		bfi	r3, r4, #0, #2
 3098 005c 8DF80830 		strb	r3, [sp, #8]
 3099 0060 0123     		movs	r3, #1
 3100 0062 02AA     		add	r2, sp, #8
 3101 0064 1521     		movs	r1, #21
 3102 0066 2846     		mov	r0, r5
 3103 0068 FFF7FEFF 		bl	lsm6dsm_write_reg
 3104 006c 0028     		cmp	r0, #0
 3105 006e D1D1     		bne	.L409
 3106 0070 0123     		movs	r3, #1
 3107 0072 03AA     		add	r2, sp, #12
 3108 0074 1321     		movs	r1, #19
 3109 0076 2846     		mov	r0, r5
 3110 0078 FFF7FEFF 		bl	lsm6dsm_read_reg
 3111 007c 0028     		cmp	r0, #0
 3112 007e C9D1     		bne	.L409
 3113 0080 C4F3C001 		ubfx	r1, r4, #3, #1
 3114 0084 9DF80C30 		ldrb	r3, [sp, #12]	@ zero_extendqisi2
 3115 0088 61F34103 		bfi	r3, r1, #1, #1
 3116 008c 8DF80C30 		strb	r3, [sp, #12]
 3117 0090 0123     		movs	r3, #1
 3118 0092 03AA     		add	r2, sp, #12
 3119 0094 1321     		movs	r1, #19
 3120 0096 2846     		mov	r0, r5
 3121 0098 FFF7FEFF 		bl	lsm6dsm_write_reg
 3122 009c BAE7     		b	.L409
 3124              		.section	.text.lsm6dsm_gy_band_pass_get,"ax",%progbits
 3125              		.align	1
 3126              		.global	lsm6dsm_gy_band_pass_get
 3127              		.syntax unified
 3128              		.thumb
 3129              		.thumb_func
 3131              	lsm6dsm_gy_band_pass_get:
 3132              		@ args = 0, pretend = 0, frame = 16
 3133              		@ frame_needed = 0, uses_anonymous_args = 0
 3134 0000 30B5     		push	{r4, r5, lr}
 3135 0002 85B0     		sub	sp, sp, #20
 3136 0004 0446     		mov	r4, r0
 3137 0006 0D46     		mov	r5, r1
ARM GAS  C:\Users\Nathan\AppData\Local\Temp\ccnGQm3b.s 			page 53


 3138 0008 0123     		movs	r3, #1
 3139 000a 02AA     		add	r2, sp, #8
 3140 000c 1521     		movs	r1, #21
 3141 000e FFF7FEFF 		bl	lsm6dsm_read_reg
 3142 0012 08B1     		cbz	r0, .L436
 3143              	.L413:
 3144 0014 05B0     		add	sp, sp, #20
 3145              		@ sp needed
 3146 0016 30BD     		pop	{r4, r5, pc}
 3147              	.L436:
 3148 0018 0123     		movs	r3, #1
 3149 001a 03AA     		add	r2, sp, #12
 3150 001c 1321     		movs	r1, #19
 3151 001e 2046     		mov	r0, r4
 3152 0020 FFF7FEFF 		bl	lsm6dsm_read_reg
 3153 0024 0028     		cmp	r0, #0
 3154 0026 F5D1     		bne	.L413
 3155 0028 0123     		movs	r3, #1
 3156 002a 01AA     		add	r2, sp, #4
 3157 002c 1621     		movs	r1, #22
 3158 002e 2046     		mov	r0, r4
 3159 0030 FFF7FEFF 		bl	lsm6dsm_read_reg
 3160 0034 9DF80430 		ldrb	r3, [sp, #4]	@ zero_extendqisi2
 3161 0038 C3F38012 		ubfx	r2, r3, #6, #1
 3162 003c 03F03003 		and	r3, r3, #48
 3163 0040 03EBC213 		add	r3, r3, r2, lsl #7
 3164 0044 9DF80C20 		ldrb	r2, [sp, #12]	@ zero_extendqisi2
 3165 0048 C2F34002 		ubfx	r2, r2, #1, #1
 3166 004c 03EBC203 		add	r3, r3, r2, lsl #3
 3167 0050 9DF80820 		ldrb	r2, [sp, #8]	@ zero_extendqisi2
 3168 0054 02F00302 		and	r2, r2, #3
 3169 0058 1344     		add	r3, r3, r2
 3170 005a 0B2B     		cmp	r3, #11
 3171 005c 26DD     		ble	.L437
 3172 005e BB2B     		cmp	r3, #187
 3173 0060 51DC     		bgt	.L417
 3174 0062 802B     		cmp	r3, #128
 3175 0064 4FDB     		blt	.L417
 3176 0066 803B     		subs	r3, r3, #128
 3177 0068 3B2B     		cmp	r3, #59
 3178 006a 4CD8     		bhi	.L417
 3179 006c DFE803F0 		tbb	[pc, r3]
 3180              	.L419:
 3181 0070 27       		.byte	(.L426-.L419)/2
 3182 0071 4B       		.byte	(.L417-.L419)/2
 3183 0072 4B       		.byte	(.L417-.L419)/2
 3184 0073 4B       		.byte	(.L417-.L419)/2
 3185 0074 4B       		.byte	(.L417-.L419)/2
 3186 0075 4B       		.byte	(.L417-.L419)/2
 3187 0076 4B       		.byte	(.L417-.L419)/2
 3188 0077 4B       		.byte	(.L417-.L419)/2
 3189 0078 4B       		.byte	(.L417-.L419)/2
 3190 0079 4B       		.byte	(.L417-.L419)/2
 3191 007a 3F       		.byte	(.L425-.L419)/2
 3192 007b 4B       		.byte	(.L417-.L419)/2
 3193 007c 4B       		.byte	(.L417-.L419)/2
 3194 007d 4B       		.byte	(.L417-.L419)/2
ARM GAS  C:\Users\Nathan\AppData\Local\Temp\ccnGQm3b.s 			page 54


 3195 007e 4B       		.byte	(.L417-.L419)/2
 3196 007f 4B       		.byte	(.L417-.L419)/2
 3197 0080 2A       		.byte	(.L424-.L419)/2
 3198 0081 4B       		.byte	(.L417-.L419)/2
 3199 0082 4B       		.byte	(.L417-.L419)/2
 3200 0083 4B       		.byte	(.L417-.L419)/2
 3201 0084 4B       		.byte	(.L417-.L419)/2
 3202 0085 4B       		.byte	(.L417-.L419)/2
 3203 0086 4B       		.byte	(.L417-.L419)/2
 3204 0087 4B       		.byte	(.L417-.L419)/2
 3205 0088 4B       		.byte	(.L417-.L419)/2
 3206 0089 42       		.byte	(.L423-.L419)/2
 3207 008a 4B       		.byte	(.L417-.L419)/2
 3208 008b 4B       		.byte	(.L417-.L419)/2
 3209 008c 4B       		.byte	(.L417-.L419)/2
 3210 008d 4B       		.byte	(.L417-.L419)/2
 3211 008e 4B       		.byte	(.L417-.L419)/2
 3212 008f 4B       		.byte	(.L417-.L419)/2
 3213 0090 2D       		.byte	(.L422-.L419)/2
 3214 0091 4B       		.byte	(.L417-.L419)/2
 3215 0092 4B       		.byte	(.L417-.L419)/2
 3216 0093 4B       		.byte	(.L417-.L419)/2
 3217 0094 4B       		.byte	(.L417-.L419)/2
 3218 0095 4B       		.byte	(.L417-.L419)/2
 3219 0096 4B       		.byte	(.L417-.L419)/2
 3220 0097 4B       		.byte	(.L417-.L419)/2
 3221 0098 45       		.byte	(.L421-.L419)/2
 3222 0099 4B       		.byte	(.L417-.L419)/2
 3223 009a 4B       		.byte	(.L417-.L419)/2
 3224 009b 4B       		.byte	(.L417-.L419)/2
 3225 009c 4B       		.byte	(.L417-.L419)/2
 3226 009d 4B       		.byte	(.L417-.L419)/2
 3227 009e 4B       		.byte	(.L417-.L419)/2
 3228 009f 4B       		.byte	(.L417-.L419)/2
 3229 00a0 30       		.byte	(.L420-.L419)/2
 3230 00a1 4B       		.byte	(.L417-.L419)/2
 3231 00a2 4B       		.byte	(.L417-.L419)/2
 3232 00a3 4B       		.byte	(.L417-.L419)/2
 3233 00a4 4B       		.byte	(.L417-.L419)/2
 3234 00a5 4B       		.byte	(.L417-.L419)/2
 3235 00a6 4B       		.byte	(.L417-.L419)/2
 3236 00a7 4B       		.byte	(.L417-.L419)/2
 3237 00a8 4B       		.byte	(.L417-.L419)/2
 3238 00a9 4B       		.byte	(.L417-.L419)/2
 3239 00aa 4B       		.byte	(.L417-.L419)/2
 3240 00ab 48       		.byte	(.L418-.L419)/2
 3241              		.p2align 1
 3242              	.L437:
 3243 00ac 082B     		cmp	r3, #8
 3244 00ae 2ADB     		blt	.L417
 3245 00b0 083B     		subs	r3, r3, #8
 3246 00b2 032B     		cmp	r3, #3
 3247 00b4 27D8     		bhi	.L417
 3248 00b6 DFE803F0 		tbb	[pc, r3]
 3249              	.L428:
 3250 00ba 14       		.byte	(.L431-.L428)/2
 3251 00bb 11       		.byte	(.L430-.L428)/2
ARM GAS  C:\Users\Nathan\AppData\Local\Temp\ccnGQm3b.s 			page 55


 3252 00bc 0E       		.byte	(.L429-.L428)/2
 3253 00bd 17       		.byte	(.L427-.L428)/2
 3254              		.p2align 1
 3255              	.L426:
 3256 00be 8023     		movs	r3, #128
 3257 00c0 2B70     		strb	r3, [r5]
 3258 00c2 A7E7     		b	.L413
 3259              	.L424:
 3260 00c4 9023     		movs	r3, #144
 3261 00c6 2B70     		strb	r3, [r5]
 3262 00c8 A4E7     		b	.L413
 3263              	.L422:
 3264 00ca A023     		movs	r3, #160
 3265 00cc 2B70     		strb	r3, [r5]
 3266 00ce A1E7     		b	.L413
 3267              	.L420:
 3268 00d0 B023     		movs	r3, #176
 3269 00d2 2B70     		strb	r3, [r5]
 3270 00d4 9EE7     		b	.L413
 3271              	.L429:
 3272 00d6 0A23     		movs	r3, #10
 3273 00d8 2B70     		strb	r3, [r5]
 3274 00da 9BE7     		b	.L413
 3275              	.L430:
 3276 00dc 0923     		movs	r3, #9
 3277 00de 2B70     		strb	r3, [r5]
 3278 00e0 98E7     		b	.L413
 3279              	.L431:
 3280 00e2 0823     		movs	r3, #8
 3281 00e4 2B70     		strb	r3, [r5]
 3282 00e6 95E7     		b	.L413
 3283              	.L427:
 3284 00e8 0B23     		movs	r3, #11
 3285 00ea 2B70     		strb	r3, [r5]
 3286 00ec 92E7     		b	.L413
 3287              	.L425:
 3288 00ee 8A23     		movs	r3, #138
 3289 00f0 2B70     		strb	r3, [r5]
 3290 00f2 8FE7     		b	.L413
 3291              	.L423:
 3292 00f4 9923     		movs	r3, #153
 3293 00f6 2B70     		strb	r3, [r5]
 3294 00f8 8CE7     		b	.L413
 3295              	.L421:
 3296 00fa A823     		movs	r3, #168
 3297 00fc 2B70     		strb	r3, [r5]
 3298 00fe 89E7     		b	.L413
 3299              	.L418:
 3300 0100 BB23     		movs	r3, #187
 3301 0102 2B70     		strb	r3, [r5]
 3302 0104 86E7     		b	.L413
 3303              	.L417:
 3304 0106 9023     		movs	r3, #144
 3305 0108 2B70     		strb	r3, [r5]
 3306 010a 83E7     		b	.L413
 3308              		.section	.text.lsm6dsm_gy_ui_high_pass_set,"ax",%progbits
 3309              		.align	1
ARM GAS  C:\Users\Nathan\AppData\Local\Temp\ccnGQm3b.s 			page 56


 3310              		.global	lsm6dsm_gy_ui_high_pass_set
 3311              		.syntax unified
 3312              		.thumb
 3313              		.thumb_func
 3315              	lsm6dsm_gy_ui_high_pass_set:
 3316              		@ args = 0, pretend = 0, frame = 8
 3317              		@ frame_needed = 0, uses_anonymous_args = 0
 3318 0000 30B5     		push	{r4, r5, lr}
 3319 0002 83B0     		sub	sp, sp, #12
 3320 0004 0446     		mov	r4, r0
 3321 0006 0D46     		mov	r5, r1
 3322 0008 0123     		movs	r3, #1
 3323 000a 01AA     		add	r2, sp, #4
 3324 000c 1621     		movs	r1, #22
 3325 000e FFF7FEFF 		bl	lsm6dsm_read_reg
 3326 0012 08B1     		cbz	r0, .L441
 3327              	.L438:
 3328 0014 03B0     		add	sp, sp, #12
 3329              		@ sp needed
 3330 0016 30BD     		pop	{r4, r5, pc}
 3331              	.L441:
 3332 0018 9DF80430 		ldrb	r3, [sp, #4]	@ zero_extendqisi2
 3333 001c 65F38613 		bfi	r3, r5, #6, #1
 3334 0020 8DF80430 		strb	r3, [sp, #4]
 3335 0024 0123     		movs	r3, #1
 3336 0026 01AA     		add	r2, sp, #4
 3337 0028 1621     		movs	r1, #22
 3338 002a 2046     		mov	r0, r4
 3339 002c FFF7FEFF 		bl	lsm6dsm_write_reg
 3340 0030 F0E7     		b	.L438
 3342              		.section	.text.lsm6dsm_gy_ui_high_pass_get,"ax",%progbits
 3343              		.align	1
 3344              		.global	lsm6dsm_gy_ui_high_pass_get
 3345              		.syntax unified
 3346              		.thumb
 3347              		.thumb_func
 3349              	lsm6dsm_gy_ui_high_pass_get:
 3350              		@ args = 0, pretend = 0, frame = 8
 3351              		@ frame_needed = 0, uses_anonymous_args = 0
 3352 0000 10B5     		push	{r4, lr}
 3353 0002 82B0     		sub	sp, sp, #8
 3354 0004 0C46     		mov	r4, r1
 3355 0006 0123     		movs	r3, #1
 3356 0008 01AA     		add	r2, sp, #4
 3357 000a 1621     		movs	r1, #22
 3358 000c FFF7FEFF 		bl	lsm6dsm_read_reg
 3359 0010 9DF80430 		ldrb	r3, [sp, #4]	@ zero_extendqisi2
 3360 0014 C3F38013 		ubfx	r3, r3, #6, #1
 3361 0018 2370     		strb	r3, [r4]
 3362 001a 02B0     		add	sp, sp, #8
 3363              		@ sp needed
 3364 001c 10BD     		pop	{r4, pc}
 3366              		.section	.text.lsm6dsm_gy_aux_bandwidth_set,"ax",%progbits
 3367              		.align	1
 3368              		.global	lsm6dsm_gy_aux_bandwidth_set
 3369              		.syntax unified
 3370              		.thumb
ARM GAS  C:\Users\Nathan\AppData\Local\Temp\ccnGQm3b.s 			page 57


 3371              		.thumb_func
 3373              	lsm6dsm_gy_aux_bandwidth_set:
 3374              		@ args = 0, pretend = 0, frame = 8
 3375              		@ frame_needed = 0, uses_anonymous_args = 0
 3376 0000 30B5     		push	{r4, r5, lr}
 3377 0002 83B0     		sub	sp, sp, #12
 3378 0004 0546     		mov	r5, r0
 3379 0006 0C46     		mov	r4, r1
 3380 0008 0123     		movs	r3, #1
 3381 000a 01AA     		add	r2, sp, #4
 3382 000c 1621     		movs	r1, #22
 3383 000e FFF7FEFF 		bl	lsm6dsm_read_reg
 3384 0012 0346     		mov	r3, r0
 3385 0014 18B1     		cbz	r0, .L448
 3386              	.L445:
 3387 0016 CBB1     		cbz	r3, .L449
 3388              	.L444:
 3389 0018 1846     		mov	r0, r3
 3390 001a 03B0     		add	sp, sp, #12
 3391              		@ sp needed
 3392 001c 30BD     		pop	{r4, r5, pc}
 3393              	.L448:
 3394 001e 9DF80430 		ldrb	r3, [sp, #4]	@ zero_extendqisi2
 3395 0022 23F04003 		bic	r3, r3, #64
 3396 0026 8DF80430 		strb	r3, [sp, #4]
 3397 002a 0123     		movs	r3, #1
 3398 002c 01AA     		add	r2, sp, #4
 3399 002e 1621     		movs	r1, #22
 3400 0030 2846     		mov	r0, r5
 3401 0032 FFF7FEFF 		bl	lsm6dsm_write_reg
 3402 0036 0346     		mov	r3, r0
 3403 0038 0028     		cmp	r0, #0
 3404 003a EDD1     		bne	.L444
 3405 003c 0123     		movs	r3, #1
 3406 003e 6A46     		mov	r2, sp
 3407 0040 7121     		movs	r1, #113
 3408 0042 2846     		mov	r0, r5
 3409 0044 FFF7FEFF 		bl	lsm6dsm_read_reg
 3410 0048 0346     		mov	r3, r0
 3411 004a E4E7     		b	.L445
 3412              	.L449:
 3413 004c 9DF80030 		ldrb	r3, [sp]	@ zero_extendqisi2
 3414 0050 64F34203 		bfi	r3, r4, #1, #2
 3415 0054 8DF80030 		strb	r3, [sp]
 3416 0058 E209     		lsrs	r2, r4, #7
 3417 005a DBB2     		uxtb	r3, r3
 3418 005c 62F30003 		bfi	r3, r2, #0, #1
 3419 0060 8DF80030 		strb	r3, [sp]
 3420 0064 C4F30111 		ubfx	r1, r4, #4, #2
 3421 0068 DBB2     		uxtb	r3, r3
 3422 006a 61F30513 		bfi	r3, r1, #4, #2
 3423 006e 8DF80030 		strb	r3, [sp]
 3424 0072 0123     		movs	r3, #1
 3425 0074 6A46     		mov	r2, sp
 3426 0076 7121     		movs	r1, #113
 3427 0078 2846     		mov	r0, r5
 3428 007a FFF7FEFF 		bl	lsm6dsm_write_reg
ARM GAS  C:\Users\Nathan\AppData\Local\Temp\ccnGQm3b.s 			page 58


 3429 007e 0346     		mov	r3, r0
 3430 0080 CAE7     		b	.L444
 3432              		.section	.text.lsm6dsm_gy_aux_bandwidth_get,"ax",%progbits
 3433              		.align	1
 3434              		.global	lsm6dsm_gy_aux_bandwidth_get
 3435              		.syntax unified
 3436              		.thumb
 3437              		.thumb_func
 3439              	lsm6dsm_gy_aux_bandwidth_get:
 3440              		@ args = 0, pretend = 0, frame = 8
 3441              		@ frame_needed = 0, uses_anonymous_args = 0
 3442 0000 10B5     		push	{r4, lr}
 3443 0002 82B0     		sub	sp, sp, #8
 3444 0004 0C46     		mov	r4, r1
 3445 0006 0123     		movs	r3, #1
 3446 0008 01AA     		add	r2, sp, #4
 3447 000a 7121     		movs	r1, #113
 3448 000c FFF7FEFF 		bl	lsm6dsm_read_reg
 3449 0010 9DF80420 		ldrb	r2, [sp, #4]	@ zero_extendqisi2
 3450 0014 02F00101 		and	r1, r2, #1
 3451 0018 02F03003 		and	r3, r2, #48
 3452 001c 03EBC113 		add	r3, r3, r1, lsl #7
 3453 0020 C2F34102 		ubfx	r2, r2, #1, #2
 3454 0024 1344     		add	r3, r3, r2
 3455 0026 822B     		cmp	r3, #130
 3456 0028 20D0     		beq	.L451
 3457 002a 09DC     		bgt	.L452
 3458 002c 032B     		cmp	r3, #3
 3459 002e 26DC     		bgt	.L453
 3460 0030 002B     		cmp	r3, #0
 3461 0032 24DB     		blt	.L453
 3462 0034 032B     		cmp	r3, #3
 3463 0036 22D8     		bhi	.L453
 3464 0038 DFE803F0 		tbb	[pc, r3]
 3465              	.L455:
 3466 003c 12       		.byte	(.L458-.L455)/2
 3467 003d 0F       		.byte	(.L457-.L455)/2
 3468 003e 0B       		.byte	(.L456-.L455)/2
 3469 003f 15       		.byte	(.L454-.L455)/2
 3470              		.p2align 1
 3471              	.L452:
 3472 0040 A02B     		cmp	r3, #160
 3473 0042 16D0     		beq	.L459
 3474 0044 B32B     		cmp	r3, #179
 3475 0046 17D0     		beq	.L460
 3476 0048 912B     		cmp	r3, #145
 3477 004a 18D1     		bne	.L453
 3478 004c 9123     		movs	r3, #145
 3479 004e 2370     		strb	r3, [r4]
 3480 0050 01E0     		b	.L450
 3481              	.L456:
 3482 0052 0223     		movs	r3, #2
 3483 0054 2370     		strb	r3, [r4]
 3484              	.L450:
 3485 0056 02B0     		add	sp, sp, #8
 3486              		@ sp needed
 3487 0058 10BD     		pop	{r4, pc}
ARM GAS  C:\Users\Nathan\AppData\Local\Temp\ccnGQm3b.s 			page 59


 3488              	.L457:
 3489 005a 0123     		movs	r3, #1
 3490 005c 2370     		strb	r3, [r4]
 3491 005e FAE7     		b	.L450
 3492              	.L458:
 3493 0060 0023     		movs	r3, #0
 3494 0062 2370     		strb	r3, [r4]
 3495 0064 F7E7     		b	.L450
 3496              	.L454:
 3497 0066 0323     		movs	r3, #3
 3498 0068 2370     		strb	r3, [r4]
 3499 006a F4E7     		b	.L450
 3500              	.L451:
 3501 006c 8223     		movs	r3, #130
 3502 006e 2370     		strb	r3, [r4]
 3503 0070 F1E7     		b	.L450
 3504              	.L459:
 3505 0072 A023     		movs	r3, #160
 3506 0074 2370     		strb	r3, [r4]
 3507 0076 EEE7     		b	.L450
 3508              	.L460:
 3509 0078 B323     		movs	r3, #179
 3510 007a 2370     		strb	r3, [r4]
 3511 007c EBE7     		b	.L450
 3512              	.L453:
 3513 007e 0223     		movs	r3, #2
 3514 0080 2370     		strb	r3, [r4]
 3515 0082 E8E7     		b	.L450
 3517              		.section	.text.lsm6dsm_aux_status_reg_get,"ax",%progbits
 3518              		.align	1
 3519              		.global	lsm6dsm_aux_status_reg_get
 3520              		.syntax unified
 3521              		.thumb
 3522              		.thumb_func
 3524              	lsm6dsm_aux_status_reg_get:
 3525              		@ args = 0, pretend = 0, frame = 0
 3526              		@ frame_needed = 0, uses_anonymous_args = 0
 3527 0000 08B5     		push	{r3, lr}
 3528 0002 0A46     		mov	r2, r1
 3529 0004 0123     		movs	r3, #1
 3530 0006 1E21     		movs	r1, #30
 3531 0008 FFF7FEFF 		bl	lsm6dsm_read_reg
 3532 000c 08BD     		pop	{r3, pc}
 3534              		.section	.text.lsm6dsm_aux_xl_flag_data_ready_get,"ax",%progbits
 3535              		.align	1
 3536              		.global	lsm6dsm_aux_xl_flag_data_ready_get
 3537              		.syntax unified
 3538              		.thumb
 3539              		.thumb_func
 3541              	lsm6dsm_aux_xl_flag_data_ready_get:
 3542              		@ args = 0, pretend = 0, frame = 8
 3543              		@ frame_needed = 0, uses_anonymous_args = 0
 3544 0000 10B5     		push	{r4, lr}
 3545 0002 82B0     		sub	sp, sp, #8
 3546 0004 0C46     		mov	r4, r1
 3547 0006 0123     		movs	r3, #1
 3548 0008 01AA     		add	r2, sp, #4
ARM GAS  C:\Users\Nathan\AppData\Local\Temp\ccnGQm3b.s 			page 60


 3549 000a 1E21     		movs	r1, #30
 3550 000c FFF7FEFF 		bl	lsm6dsm_read_reg
 3551 0010 9DF80430 		ldrb	r3, [sp, #4]	@ zero_extendqisi2
 3552 0014 C3F30003 		ubfx	r3, r3, #0, #1
 3553 0018 2370     		strb	r3, [r4]
 3554 001a 02B0     		add	sp, sp, #8
 3555              		@ sp needed
 3556 001c 10BD     		pop	{r4, pc}
 3558              		.section	.text.lsm6dsm_aux_gy_flag_data_ready_get,"ax",%progbits
 3559              		.align	1
 3560              		.global	lsm6dsm_aux_gy_flag_data_ready_get
 3561              		.syntax unified
 3562              		.thumb
 3563              		.thumb_func
 3565              	lsm6dsm_aux_gy_flag_data_ready_get:
 3566              		@ args = 0, pretend = 0, frame = 8
 3567              		@ frame_needed = 0, uses_anonymous_args = 0
 3568 0000 10B5     		push	{r4, lr}
 3569 0002 82B0     		sub	sp, sp, #8
 3570 0004 0C46     		mov	r4, r1
 3571 0006 0123     		movs	r3, #1
 3572 0008 01AA     		add	r2, sp, #4
 3573 000a 1E21     		movs	r1, #30
 3574 000c FFF7FEFF 		bl	lsm6dsm_read_reg
 3575 0010 9DF80430 		ldrb	r3, [sp, #4]	@ zero_extendqisi2
 3576 0014 C3F34003 		ubfx	r3, r3, #1, #1
 3577 0018 2370     		strb	r3, [r4]
 3578 001a 02B0     		add	sp, sp, #8
 3579              		@ sp needed
 3580 001c 10BD     		pop	{r4, pc}
 3582              		.section	.text.lsm6dsm_aux_gy_flag_settling_get,"ax",%progbits
 3583              		.align	1
 3584              		.global	lsm6dsm_aux_gy_flag_settling_get
 3585              		.syntax unified
 3586              		.thumb
 3587              		.thumb_func
 3589              	lsm6dsm_aux_gy_flag_settling_get:
 3590              		@ args = 0, pretend = 0, frame = 8
 3591              		@ frame_needed = 0, uses_anonymous_args = 0
 3592 0000 10B5     		push	{r4, lr}
 3593 0002 82B0     		sub	sp, sp, #8
 3594 0004 0C46     		mov	r4, r1
 3595 0006 0123     		movs	r3, #1
 3596 0008 01AA     		add	r2, sp, #4
 3597 000a 1E21     		movs	r1, #30
 3598 000c FFF7FEFF 		bl	lsm6dsm_read_reg
 3599 0010 9DF80430 		ldrb	r3, [sp, #4]	@ zero_extendqisi2
 3600 0014 C3F38003 		ubfx	r3, r3, #2, #1
 3601 0018 2370     		strb	r3, [r4]
 3602 001a 02B0     		add	sp, sp, #8
 3603              		@ sp needed
 3604 001c 10BD     		pop	{r4, pc}
 3606              		.section	.text.lsm6dsm_aux_den_mode_set,"ax",%progbits
 3607              		.align	1
 3608              		.global	lsm6dsm_aux_den_mode_set
 3609              		.syntax unified
 3610              		.thumb
ARM GAS  C:\Users\Nathan\AppData\Local\Temp\ccnGQm3b.s 			page 61


 3611              		.thumb_func
 3613              	lsm6dsm_aux_den_mode_set:
 3614              		@ args = 0, pretend = 0, frame = 8
 3615              		@ frame_needed = 0, uses_anonymous_args = 0
 3616 0000 30B5     		push	{r4, r5, lr}
 3617 0002 83B0     		sub	sp, sp, #12
 3618 0004 0546     		mov	r5, r0
 3619 0006 0C46     		mov	r4, r1
 3620 0008 0123     		movs	r3, #1
 3621 000a 01AA     		add	r2, sp, #4
 3622 000c 6F21     		movs	r1, #111
 3623 000e FFF7FEFF 		bl	lsm6dsm_read_reg
 3624 0012 0346     		mov	r3, r0
 3625 0014 18B1     		cbz	r0, .L477
 3626              	.L474:
 3627 0016 0BB3     		cbz	r3, .L478
 3628              	.L473:
 3629 0018 1846     		mov	r0, r3
 3630 001a 03B0     		add	sp, sp, #12
 3631              		@ sp needed
 3632 001c 30BD     		pop	{r4, r5, pc}
 3633              	.L477:
 3634 001e 9DF80430 		ldrb	r3, [sp, #4]	@ zero_extendqisi2
 3635 0022 64F38613 		bfi	r3, r4, #6, #1
 3636 0026 8DF80430 		strb	r3, [sp, #4]
 3637 002a 0123     		movs	r3, #1
 3638 002c 01AA     		add	r2, sp, #4
 3639 002e 6F21     		movs	r1, #111
 3640 0030 2846     		mov	r0, r5
 3641 0032 FFF7FEFF 		bl	lsm6dsm_write_reg
 3642 0036 0346     		mov	r3, r0
 3643 0038 0028     		cmp	r0, #0
 3644 003a EDD1     		bne	.L473
 3645 003c 0123     		movs	r3, #1
 3646 003e 6A46     		mov	r2, sp
 3647 0040 7021     		movs	r1, #112
 3648 0042 2846     		mov	r0, r5
 3649 0044 FFF7FEFF 		bl	lsm6dsm_read_reg
 3650 0048 0346     		mov	r3, r0
 3651 004a C4F34001 		ubfx	r1, r4, #1, #1
 3652 004e 9DF80020 		ldrb	r2, [sp]	@ zero_extendqisi2
 3653 0052 61F38612 		bfi	r2, r1, #6, #1
 3654 0056 8DF80020 		strb	r2, [sp]
 3655 005a DCE7     		b	.L474
 3656              	.L478:
 3657 005c 0123     		movs	r3, #1
 3658 005e 6A46     		mov	r2, sp
 3659 0060 7021     		movs	r1, #112
 3660 0062 2846     		mov	r0, r5
 3661 0064 FFF7FEFF 		bl	lsm6dsm_write_reg
 3662 0068 0346     		mov	r3, r0
 3663 006a D5E7     		b	.L473
 3665              		.section	.text.lsm6dsm_aux_den_mode_get,"ax",%progbits
 3666              		.align	1
 3667              		.global	lsm6dsm_aux_den_mode_get
 3668              		.syntax unified
 3669              		.thumb
ARM GAS  C:\Users\Nathan\AppData\Local\Temp\ccnGQm3b.s 			page 62


 3670              		.thumb_func
 3672              	lsm6dsm_aux_den_mode_get:
 3673              		@ args = 0, pretend = 0, frame = 8
 3674              		@ frame_needed = 0, uses_anonymous_args = 0
 3675 0000 30B5     		push	{r4, r5, lr}
 3676 0002 83B0     		sub	sp, sp, #12
 3677 0004 0446     		mov	r4, r0
 3678 0006 0D46     		mov	r5, r1
 3679 0008 0123     		movs	r3, #1
 3680 000a 01AA     		add	r2, sp, #4
 3681 000c 6F21     		movs	r1, #111
 3682 000e FFF7FEFF 		bl	lsm6dsm_read_reg
 3683 0012 08B1     		cbz	r0, .L485
 3684              	.L479:
 3685 0014 03B0     		add	sp, sp, #12
 3686              		@ sp needed
 3687 0016 30BD     		pop	{r4, r5, pc}
 3688              	.L485:
 3689 0018 0123     		movs	r3, #1
 3690 001a 6A46     		mov	r2, sp
 3691 001c 7021     		movs	r1, #112
 3692 001e 2046     		mov	r0, r4
 3693 0020 FFF7FEFF 		bl	lsm6dsm_read_reg
 3694 0024 9DF80020 		ldrb	r2, [sp]	@ zero_extendqisi2
 3695 0028 C2F38012 		ubfx	r2, r2, #6, #1
 3696 002c 9DF80430 		ldrb	r3, [sp, #4]	@ zero_extendqisi2
 3697 0030 C3F38013 		ubfx	r3, r3, #6, #1
 3698 0034 03EB4203 		add	r3, r3, r2, lsl #1
 3699 0038 022B     		cmp	r3, #2
 3700 003a 07D0     		beq	.L481
 3701 003c 032B     		cmp	r3, #3
 3702 003e 02D0     		beq	.L482
 3703 0040 3BB9     		cbnz	r3, .L483
 3704 0042 2B70     		strb	r3, [r5]
 3705 0044 E6E7     		b	.L479
 3706              	.L482:
 3707 0046 0323     		movs	r3, #3
 3708 0048 2B70     		strb	r3, [r5]
 3709 004a E3E7     		b	.L479
 3710              	.L481:
 3711 004c 0223     		movs	r3, #2
 3712 004e 2B70     		strb	r3, [r5]
 3713 0050 E0E7     		b	.L479
 3714              	.L483:
 3715 0052 0023     		movs	r3, #0
 3716 0054 2B70     		strb	r3, [r5]
 3717 0056 DDE7     		b	.L479
 3719              		.section	.text.lsm6dsm_aux_drdy_on_int2_set,"ax",%progbits
 3720              		.align	1
 3721              		.global	lsm6dsm_aux_drdy_on_int2_set
 3722              		.syntax unified
 3723              		.thumb
 3724              		.thumb_func
 3726              	lsm6dsm_aux_drdy_on_int2_set:
 3727              		@ args = 0, pretend = 0, frame = 8
 3728              		@ frame_needed = 0, uses_anonymous_args = 0
 3729 0000 30B5     		push	{r4, r5, lr}
ARM GAS  C:\Users\Nathan\AppData\Local\Temp\ccnGQm3b.s 			page 63


 3730 0002 83B0     		sub	sp, sp, #12
 3731 0004 0446     		mov	r4, r0
 3732 0006 0D46     		mov	r5, r1
 3733 0008 0123     		movs	r3, #1
 3734 000a 01AA     		add	r2, sp, #4
 3735 000c 6F21     		movs	r1, #111
 3736 000e FFF7FEFF 		bl	lsm6dsm_read_reg
 3737 0012 08B1     		cbz	r0, .L489
 3738              	.L486:
 3739 0014 03B0     		add	sp, sp, #12
 3740              		@ sp needed
 3741 0016 30BD     		pop	{r4, r5, pc}
 3742              	.L489:
 3743 0018 9DF80430 		ldrb	r3, [sp, #4]	@ zero_extendqisi2
 3744 001c 65F3C713 		bfi	r3, r5, #7, #1
 3745 0020 8DF80430 		strb	r3, [sp, #4]
 3746 0024 0123     		movs	r3, #1
 3747 0026 01AA     		add	r2, sp, #4
 3748 0028 6F21     		movs	r1, #111
 3749 002a 2046     		mov	r0, r4
 3750 002c FFF7FEFF 		bl	lsm6dsm_write_reg
 3751 0030 F0E7     		b	.L486
 3753              		.section	.text.lsm6dsm_aux_drdy_on_int2_get,"ax",%progbits
 3754              		.align	1
 3755              		.global	lsm6dsm_aux_drdy_on_int2_get
 3756              		.syntax unified
 3757              		.thumb
 3758              		.thumb_func
 3760              	lsm6dsm_aux_drdy_on_int2_get:
 3761              		@ args = 0, pretend = 0, frame = 8
 3762              		@ frame_needed = 0, uses_anonymous_args = 0
 3763 0000 10B5     		push	{r4, lr}
 3764 0002 82B0     		sub	sp, sp, #8
 3765 0004 0C46     		mov	r4, r1
 3766 0006 0123     		movs	r3, #1
 3767 0008 01AA     		add	r2, sp, #4
 3768 000a 6F21     		movs	r1, #111
 3769 000c FFF7FEFF 		bl	lsm6dsm_read_reg
 3770 0010 9DF80430 		ldrb	r3, [sp, #4]	@ zero_extendqisi2
 3771 0014 C3F3C013 		ubfx	r3, r3, #7, #1
 3772 0018 2370     		strb	r3, [r4]
 3773 001a 02B0     		add	sp, sp, #8
 3774              		@ sp needed
 3775 001c 10BD     		pop	{r4, pc}
 3777              		.section	.text.lsm6dsm_aux_mode_set,"ax",%progbits
 3778              		.align	1
 3779              		.global	lsm6dsm_aux_mode_set
 3780              		.syntax unified
 3781              		.thumb
 3782              		.thumb_func
 3784              	lsm6dsm_aux_mode_set:
 3785              		@ args = 0, pretend = 0, frame = 8
 3786              		@ frame_needed = 0, uses_anonymous_args = 0
 3787 0000 30B5     		push	{r4, r5, lr}
 3788 0002 83B0     		sub	sp, sp, #12
 3789 0004 0546     		mov	r5, r0
 3790 0006 0C46     		mov	r4, r1
ARM GAS  C:\Users\Nathan\AppData\Local\Temp\ccnGQm3b.s 			page 64


 3791 0008 0123     		movs	r3, #1
 3792 000a 01AA     		add	r2, sp, #4
 3793 000c 7021     		movs	r1, #112
 3794 000e FFF7FEFF 		bl	lsm6dsm_read_reg
 3795 0012 08B1     		cbz	r0, .L495
 3796              	.L492:
 3797 0014 03B0     		add	sp, sp, #12
 3798              		@ sp needed
 3799 0016 30BD     		pop	{r4, r5, pc}
 3800              	.L495:
 3801 0018 9DF80430 		ldrb	r3, [sp, #4]	@ zero_extendqisi2
 3802 001c 64F30003 		bfi	r3, r4, #0, #1
 3803 0020 8DF80430 		strb	r3, [sp, #4]
 3804 0024 C4F34001 		ubfx	r1, r4, #1, #1
 3805 0028 DBB2     		uxtb	r3, r3
 3806 002a 61F30413 		bfi	r3, r1, #4, #1
 3807 002e 8DF80430 		strb	r3, [sp, #4]
 3808 0032 0123     		movs	r3, #1
 3809 0034 01AA     		add	r2, sp, #4
 3810 0036 7021     		movs	r1, #112
 3811 0038 2846     		mov	r0, r5
 3812 003a FFF7FEFF 		bl	lsm6dsm_write_reg
 3813 003e E9E7     		b	.L492
 3815              		.section	.text.lsm6dsm_aux_mode_get,"ax",%progbits
 3816              		.align	1
 3817              		.global	lsm6dsm_aux_mode_get
 3818              		.syntax unified
 3819              		.thumb
 3820              		.thumb_func
 3822              	lsm6dsm_aux_mode_get:
 3823              		@ args = 0, pretend = 0, frame = 8
 3824              		@ frame_needed = 0, uses_anonymous_args = 0
 3825 0000 10B5     		push	{r4, lr}
 3826 0002 82B0     		sub	sp, sp, #8
 3827 0004 0C46     		mov	r4, r1
 3828 0006 0123     		movs	r3, #1
 3829 0008 01AA     		add	r2, sp, #4
 3830 000a 7021     		movs	r1, #112
 3831 000c FFF7FEFF 		bl	lsm6dsm_read_reg
 3832 0010 9DF80430 		ldrb	r3, [sp, #4]	@ zero_extendqisi2
 3833 0014 C3F30012 		ubfx	r2, r3, #4, #1
 3834 0018 03F00103 		and	r3, r3, #1
 3835 001c 03EB4203 		add	r3, r3, r2, lsl #1
 3836 0020 012B     		cmp	r3, #1
 3837 0022 05D0     		beq	.L497
 3838 0024 032B     		cmp	r3, #3
 3839 0026 06D0     		beq	.L498
 3840 0028 43B9     		cbnz	r3, .L499
 3841 002a 2370     		strb	r3, [r4]
 3842              	.L496:
 3843 002c 02B0     		add	sp, sp, #8
 3844              		@ sp needed
 3845 002e 10BD     		pop	{r4, pc}
 3846              	.L497:
 3847 0030 0123     		movs	r3, #1
 3848 0032 2370     		strb	r3, [r4]
 3849 0034 FAE7     		b	.L496
ARM GAS  C:\Users\Nathan\AppData\Local\Temp\ccnGQm3b.s 			page 65


 3850              	.L498:
 3851 0036 0323     		movs	r3, #3
 3852 0038 2370     		strb	r3, [r4]
 3853 003a F7E7     		b	.L496
 3854              	.L499:
 3855 003c 0023     		movs	r3, #0
 3856 003e 2370     		strb	r3, [r4]
 3857 0040 F4E7     		b	.L496
 3859              		.section	.text.lsm6dsm_aux_gy_full_scale_set,"ax",%progbits
 3860              		.align	1
 3861              		.global	lsm6dsm_aux_gy_full_scale_set
 3862              		.syntax unified
 3863              		.thumb
 3864              		.thumb_func
 3866              	lsm6dsm_aux_gy_full_scale_set:
 3867              		@ args = 0, pretend = 0, frame = 8
 3868              		@ frame_needed = 0, uses_anonymous_args = 0
 3869 0000 30B5     		push	{r4, r5, lr}
 3870 0002 83B0     		sub	sp, sp, #12
 3871 0004 0446     		mov	r4, r0
 3872 0006 0D46     		mov	r5, r1
 3873 0008 0123     		movs	r3, #1
 3874 000a 01AA     		add	r2, sp, #4
 3875 000c 7021     		movs	r1, #112
 3876 000e FFF7FEFF 		bl	lsm6dsm_read_reg
 3877 0012 08B1     		cbz	r0, .L505
 3878              	.L502:
 3879 0014 03B0     		add	sp, sp, #12
 3880              		@ sp needed
 3881 0016 30BD     		pop	{r4, r5, pc}
 3882              	.L505:
 3883 0018 9DF80430 		ldrb	r3, [sp, #4]	@ zero_extendqisi2
 3884 001c 65F34303 		bfi	r3, r5, #1, #3
 3885 0020 8DF80430 		strb	r3, [sp, #4]
 3886 0024 0123     		movs	r3, #1
 3887 0026 01AA     		add	r2, sp, #4
 3888 0028 7021     		movs	r1, #112
 3889 002a 2046     		mov	r0, r4
 3890 002c FFF7FEFF 		bl	lsm6dsm_write_reg
 3891 0030 F0E7     		b	.L502
 3893              		.section	.text.lsm6dsm_aux_gy_full_scale_get,"ax",%progbits
 3894              		.align	1
 3895              		.global	lsm6dsm_aux_gy_full_scale_get
 3896              		.syntax unified
 3897              		.thumb
 3898              		.thumb_func
 3900              	lsm6dsm_aux_gy_full_scale_get:
 3901              		@ args = 0, pretend = 0, frame = 8
 3902              		@ frame_needed = 0, uses_anonymous_args = 0
 3903 0000 10B5     		push	{r4, lr}
 3904 0002 82B0     		sub	sp, sp, #8
 3905 0004 0C46     		mov	r4, r1
 3906 0006 0123     		movs	r3, #1
 3907 0008 01AA     		add	r2, sp, #4
 3908 000a 7021     		movs	r1, #112
 3909 000c FFF7FEFF 		bl	lsm6dsm_read_reg
 3910 0010 9DF80430 		ldrb	r3, [sp, #4]	@ zero_extendqisi2
ARM GAS  C:\Users\Nathan\AppData\Local\Temp\ccnGQm3b.s 			page 66


 3911 0014 C3F34203 		ubfx	r3, r3, #1, #3
 3912 0018 062B     		cmp	r3, #6
 3913 001a 15D8     		bhi	.L507
 3914 001c DFE803F0 		tbb	[pc, r3]
 3915              	.L509:
 3916 0020 04       		.byte	(.L513-.L509)/2
 3917 0021 08       		.byte	(.L512-.L509)/2
 3918 0022 0B       		.byte	(.L511-.L509)/2
 3919 0023 14       		.byte	(.L507-.L509)/2
 3920 0024 0E       		.byte	(.L510-.L509)/2
 3921 0025 14       		.byte	(.L507-.L509)/2
 3922 0026 11       		.byte	(.L508-.L509)/2
 3923 0027 00       		.p2align 1
 3924              	.L513:
 3925 0028 0023     		movs	r3, #0
 3926 002a 2370     		strb	r3, [r4]
 3927              	.L506:
 3928 002c 02B0     		add	sp, sp, #8
 3929              		@ sp needed
 3930 002e 10BD     		pop	{r4, pc}
 3931              	.L512:
 3932 0030 0123     		movs	r3, #1
 3933 0032 2370     		strb	r3, [r4]
 3934 0034 FAE7     		b	.L506
 3935              	.L511:
 3936 0036 0223     		movs	r3, #2
 3937 0038 2370     		strb	r3, [r4]
 3938 003a F7E7     		b	.L506
 3939              	.L510:
 3940 003c 0423     		movs	r3, #4
 3941 003e 2370     		strb	r3, [r4]
 3942 0040 F4E7     		b	.L506
 3943              	.L508:
 3944 0042 0623     		movs	r3, #6
 3945 0044 2370     		strb	r3, [r4]
 3946 0046 F1E7     		b	.L506
 3947              	.L507:
 3948 0048 0023     		movs	r3, #0
 3949 004a 2370     		strb	r3, [r4]
 3950 004c EEE7     		b	.L506
 3952              		.section	.text.lsm6dsm_aux_spi_mode_set,"ax",%progbits
 3953              		.align	1
 3954              		.global	lsm6dsm_aux_spi_mode_set
 3955              		.syntax unified
 3956              		.thumb
 3957              		.thumb_func
 3959              	lsm6dsm_aux_spi_mode_set:
 3960              		@ args = 0, pretend = 0, frame = 8
 3961              		@ frame_needed = 0, uses_anonymous_args = 0
 3962 0000 30B5     		push	{r4, r5, lr}
 3963 0002 83B0     		sub	sp, sp, #12
 3964 0004 0446     		mov	r4, r0
 3965 0006 0D46     		mov	r5, r1
 3966 0008 0123     		movs	r3, #1
 3967 000a 01AA     		add	r2, sp, #4
 3968 000c 7021     		movs	r1, #112
 3969 000e FFF7FEFF 		bl	lsm6dsm_read_reg
ARM GAS  C:\Users\Nathan\AppData\Local\Temp\ccnGQm3b.s 			page 67


 3970 0012 08B1     		cbz	r0, .L519
 3971              	.L516:
 3972 0014 03B0     		add	sp, sp, #12
 3973              		@ sp needed
 3974 0016 30BD     		pop	{r4, r5, pc}
 3975              	.L519:
 3976 0018 9DF80430 		ldrb	r3, [sp, #4]	@ zero_extendqisi2
 3977 001c 65F34513 		bfi	r3, r5, #5, #1
 3978 0020 8DF80430 		strb	r3, [sp, #4]
 3979 0024 0123     		movs	r3, #1
 3980 0026 01AA     		add	r2, sp, #4
 3981 0028 7021     		movs	r1, #112
 3982 002a 2046     		mov	r0, r4
 3983 002c FFF7FEFF 		bl	lsm6dsm_write_reg
 3984 0030 F0E7     		b	.L516
 3986              		.section	.text.lsm6dsm_aux_spi_mode_get,"ax",%progbits
 3987              		.align	1
 3988              		.global	lsm6dsm_aux_spi_mode_get
 3989              		.syntax unified
 3990              		.thumb
 3991              		.thumb_func
 3993              	lsm6dsm_aux_spi_mode_get:
 3994              		@ args = 0, pretend = 0, frame = 8
 3995              		@ frame_needed = 0, uses_anonymous_args = 0
 3996 0000 10B5     		push	{r4, lr}
 3997 0002 82B0     		sub	sp, sp, #8
 3998 0004 0C46     		mov	r4, r1
 3999 0006 0123     		movs	r3, #1
 4000 0008 01AA     		add	r2, sp, #4
 4001 000a 7021     		movs	r1, #112
 4002 000c FFF7FEFF 		bl	lsm6dsm_read_reg
 4003 0010 9DF80430 		ldrb	r3, [sp, #4]	@ zero_extendqisi2
 4004 0014 C3F34012 		ubfx	r2, r3, #5, #1
 4005 0018 13F0200F 		tst	r3, #32
 4006 001c 03D0     		beq	.L521
 4007 001e 32B9     		cbnz	r2, .L522
 4008 0020 0023     		movs	r3, #0
 4009 0022 2370     		strb	r3, [r4]
 4010 0024 01E0     		b	.L520
 4011              	.L521:
 4012 0026 0023     		movs	r3, #0
 4013 0028 2370     		strb	r3, [r4]
 4014              	.L520:
 4015 002a 02B0     		add	sp, sp, #8
 4016              		@ sp needed
 4017 002c 10BD     		pop	{r4, pc}
 4018              	.L522:
 4019 002e 0123     		movs	r3, #1
 4020 0030 2370     		strb	r3, [r4]
 4021 0032 FAE7     		b	.L520
 4023              		.section	.text.lsm6dsm_aux_data_format_set,"ax",%progbits
 4024              		.align	1
 4025              		.global	lsm6dsm_aux_data_format_set
 4026              		.syntax unified
 4027              		.thumb
 4028              		.thumb_func
 4030              	lsm6dsm_aux_data_format_set:
ARM GAS  C:\Users\Nathan\AppData\Local\Temp\ccnGQm3b.s 			page 68


 4031              		@ args = 0, pretend = 0, frame = 8
 4032              		@ frame_needed = 0, uses_anonymous_args = 0
 4033 0000 30B5     		push	{r4, r5, lr}
 4034 0002 83B0     		sub	sp, sp, #12
 4035 0004 0446     		mov	r4, r0
 4036 0006 0D46     		mov	r5, r1
 4037 0008 0123     		movs	r3, #1
 4038 000a 01AA     		add	r2, sp, #4
 4039 000c 7021     		movs	r1, #112
 4040 000e FFF7FEFF 		bl	lsm6dsm_read_reg
 4041 0012 08B1     		cbz	r0, .L530
 4042              	.L527:
 4043 0014 03B0     		add	sp, sp, #12
 4044              		@ sp needed
 4045 0016 30BD     		pop	{r4, r5, pc}
 4046              	.L530:
 4047 0018 9DF80430 		ldrb	r3, [sp, #4]	@ zero_extendqisi2
 4048 001c 65F3C713 		bfi	r3, r5, #7, #1
 4049 0020 8DF80430 		strb	r3, [sp, #4]
 4050 0024 0123     		movs	r3, #1
 4051 0026 01AA     		add	r2, sp, #4
 4052 0028 7021     		movs	r1, #112
 4053 002a 2046     		mov	r0, r4
 4054 002c FFF7FEFF 		bl	lsm6dsm_write_reg
 4055 0030 F0E7     		b	.L527
 4057              		.section	.text.lsm6dsm_aux_data_format_get,"ax",%progbits
 4058              		.align	1
 4059              		.global	lsm6dsm_aux_data_format_get
 4060              		.syntax unified
 4061              		.thumb
 4062              		.thumb_func
 4064              	lsm6dsm_aux_data_format_get:
 4065              		@ args = 0, pretend = 0, frame = 8
 4066              		@ frame_needed = 0, uses_anonymous_args = 0
 4067 0000 10B5     		push	{r4, lr}
 4068 0002 82B0     		sub	sp, sp, #8
 4069 0004 0C46     		mov	r4, r1
 4070 0006 0123     		movs	r3, #1
 4071 0008 01AA     		add	r2, sp, #4
 4072 000a 7021     		movs	r1, #112
 4073 000c FFF7FEFF 		bl	lsm6dsm_read_reg
 4074 0010 9DF80430 		ldrb	r3, [sp, #4]	@ zero_extendqisi2
 4075 0014 DB09     		lsrs	r3, r3, #7
 4076 0016 03D0     		beq	.L532
 4077 0018 33B9     		cbnz	r3, .L533
 4078 001a 0023     		movs	r3, #0
 4079 001c 2370     		strb	r3, [r4]
 4080 001e 01E0     		b	.L531
 4081              	.L532:
 4082 0020 0023     		movs	r3, #0
 4083 0022 2370     		strb	r3, [r4]
 4084              	.L531:
 4085 0024 02B0     		add	sp, sp, #8
 4086              		@ sp needed
 4087 0026 10BD     		pop	{r4, pc}
 4088              	.L533:
 4089 0028 0123     		movs	r3, #1
ARM GAS  C:\Users\Nathan\AppData\Local\Temp\ccnGQm3b.s 			page 69


 4090 002a 2370     		strb	r3, [r4]
 4091 002c FAE7     		b	.L531
 4093              		.section	.text.lsm6dsm_aux_gy_clamp_set,"ax",%progbits
 4094              		.align	1
 4095              		.global	lsm6dsm_aux_gy_clamp_set
 4096              		.syntax unified
 4097              		.thumb
 4098              		.thumb_func
 4100              	lsm6dsm_aux_gy_clamp_set:
 4101              		@ args = 0, pretend = 0, frame = 8
 4102              		@ frame_needed = 0, uses_anonymous_args = 0
 4103 0000 30B5     		push	{r4, r5, lr}
 4104 0002 83B0     		sub	sp, sp, #12
 4105 0004 0446     		mov	r4, r0
 4106 0006 0D46     		mov	r5, r1
 4107 0008 0123     		movs	r3, #1
 4108 000a 01AA     		add	r2, sp, #4
 4109 000c 7221     		movs	r1, #114
 4110 000e FFF7FEFF 		bl	lsm6dsm_read_reg
 4111 0012 08B1     		cbz	r0, .L541
 4112              	.L538:
 4113 0014 03B0     		add	sp, sp, #12
 4114              		@ sp needed
 4115 0016 30BD     		pop	{r4, r5, pc}
 4116              	.L541:
 4117 0018 9DF80430 		ldrb	r3, [sp, #4]	@ zero_extendqisi2
 4118 001c 65F30003 		bfi	r3, r5, #0, #1
 4119 0020 8DF80430 		strb	r3, [sp, #4]
 4120 0024 0123     		movs	r3, #1
 4121 0026 01AA     		add	r2, sp, #4
 4122 0028 7221     		movs	r1, #114
 4123 002a 2046     		mov	r0, r4
 4124 002c FFF7FEFF 		bl	lsm6dsm_write_reg
 4125 0030 F0E7     		b	.L538
 4127              		.section	.text.lsm6dsm_aux_gy_clamp_get,"ax",%progbits
 4128              		.align	1
 4129              		.global	lsm6dsm_aux_gy_clamp_get
 4130              		.syntax unified
 4131              		.thumb
 4132              		.thumb_func
 4134              	lsm6dsm_aux_gy_clamp_get:
 4135              		@ args = 0, pretend = 0, frame = 8
 4136              		@ frame_needed = 0, uses_anonymous_args = 0
 4137 0000 10B5     		push	{r4, lr}
 4138 0002 82B0     		sub	sp, sp, #8
 4139 0004 0C46     		mov	r4, r1
 4140 0006 0123     		movs	r3, #1
 4141 0008 01AA     		add	r2, sp, #4
 4142 000a 7221     		movs	r1, #114
 4143 000c FFF7FEFF 		bl	lsm6dsm_read_reg
 4144 0010 9DF80430 		ldrb	r3, [sp, #4]	@ zero_extendqisi2
 4145 0014 13F00103 		ands	r3, r3, #1
 4146 0018 03D0     		beq	.L543
 4147 001a 33B9     		cbnz	r3, .L544
 4148 001c 0023     		movs	r3, #0
 4149 001e 2370     		strb	r3, [r4]
 4150 0020 01E0     		b	.L542
ARM GAS  C:\Users\Nathan\AppData\Local\Temp\ccnGQm3b.s 			page 70


 4151              	.L543:
 4152 0022 0023     		movs	r3, #0
 4153 0024 2370     		strb	r3, [r4]
 4154              	.L542:
 4155 0026 02B0     		add	sp, sp, #8
 4156              		@ sp needed
 4157 0028 10BD     		pop	{r4, pc}
 4158              	.L544:
 4159 002a 0123     		movs	r3, #1
 4160 002c 2370     		strb	r3, [r4]
 4161 002e FAE7     		b	.L542
 4163              		.section	.text.lsm6dsm_aux_gy_self_test_set,"ax",%progbits
 4164              		.align	1
 4165              		.global	lsm6dsm_aux_gy_self_test_set
 4166              		.syntax unified
 4167              		.thumb
 4168              		.thumb_func
 4170              	lsm6dsm_aux_gy_self_test_set:
 4171              		@ args = 0, pretend = 0, frame = 8
 4172              		@ frame_needed = 0, uses_anonymous_args = 0
 4173 0000 30B5     		push	{r4, r5, lr}
 4174 0002 83B0     		sub	sp, sp, #12
 4175 0004 0446     		mov	r4, r0
 4176 0006 0D46     		mov	r5, r1
 4177 0008 0123     		movs	r3, #1
 4178 000a 01AA     		add	r2, sp, #4
 4179 000c 7221     		movs	r1, #114
 4180 000e FFF7FEFF 		bl	lsm6dsm_read_reg
 4181 0012 08B1     		cbz	r0, .L552
 4182              	.L549:
 4183 0014 03B0     		add	sp, sp, #12
 4184              		@ sp needed
 4185 0016 30BD     		pop	{r4, r5, pc}
 4186              	.L552:
 4187 0018 9DF80430 		ldrb	r3, [sp, #4]	@ zero_extendqisi2
 4188 001c 65F34203 		bfi	r3, r5, #1, #2
 4189 0020 8DF80430 		strb	r3, [sp, #4]
 4190 0024 0123     		movs	r3, #1
 4191 0026 01AA     		add	r2, sp, #4
 4192 0028 7221     		movs	r1, #114
 4193 002a 2046     		mov	r0, r4
 4194 002c FFF7FEFF 		bl	lsm6dsm_write_reg
 4195 0030 F0E7     		b	.L549
 4197              		.section	.text.lsm6dsm_aux_gy_self_test_get,"ax",%progbits
 4198              		.align	1
 4199              		.global	lsm6dsm_aux_gy_self_test_get
 4200              		.syntax unified
 4201              		.thumb
 4202              		.thumb_func
 4204              	lsm6dsm_aux_gy_self_test_get:
 4205              		@ args = 0, pretend = 0, frame = 8
 4206              		@ frame_needed = 0, uses_anonymous_args = 0
 4207 0000 10B5     		push	{r4, lr}
 4208 0002 82B0     		sub	sp, sp, #8
 4209 0004 0C46     		mov	r4, r1
 4210 0006 0123     		movs	r3, #1
 4211 0008 01AA     		add	r2, sp, #4
ARM GAS  C:\Users\Nathan\AppData\Local\Temp\ccnGQm3b.s 			page 71


 4212 000a 7221     		movs	r1, #114
 4213 000c FFF7FEFF 		bl	lsm6dsm_read_reg
 4214 0010 9DF80430 		ldrb	r3, [sp, #4]	@ zero_extendqisi2
 4215 0014 C3F34103 		ubfx	r3, r3, #1, #2
 4216 0018 012B     		cmp	r3, #1
 4217 001a 05D0     		beq	.L554
 4218 001c 032B     		cmp	r3, #3
 4219 001e 06D0     		beq	.L555
 4220 0020 43B9     		cbnz	r3, .L556
 4221 0022 2370     		strb	r3, [r4]
 4222              	.L553:
 4223 0024 02B0     		add	sp, sp, #8
 4224              		@ sp needed
 4225 0026 10BD     		pop	{r4, pc}
 4226              	.L554:
 4227 0028 0123     		movs	r3, #1
 4228 002a 2370     		strb	r3, [r4]
 4229 002c FAE7     		b	.L553
 4230              	.L555:
 4231 002e 0323     		movs	r3, #3
 4232 0030 2370     		strb	r3, [r4]
 4233 0032 F7E7     		b	.L553
 4234              	.L556:
 4235 0034 0023     		movs	r3, #0
 4236 0036 2370     		strb	r3, [r4]
 4237 0038 F4E7     		b	.L553
 4239              		.section	.text.lsm6dsm_aux_xl_full_scale_set,"ax",%progbits
 4240              		.align	1
 4241              		.global	lsm6dsm_aux_xl_full_scale_set
 4242              		.syntax unified
 4243              		.thumb
 4244              		.thumb_func
 4246              	lsm6dsm_aux_xl_full_scale_set:
 4247              		@ args = 0, pretend = 0, frame = 8
 4248              		@ frame_needed = 0, uses_anonymous_args = 0
 4249 0000 30B5     		push	{r4, r5, lr}
 4250 0002 83B0     		sub	sp, sp, #12
 4251 0004 0446     		mov	r4, r0
 4252 0006 0D46     		mov	r5, r1
 4253 0008 0123     		movs	r3, #1
 4254 000a 01AA     		add	r2, sp, #4
 4255 000c 7221     		movs	r1, #114
 4256 000e FFF7FEFF 		bl	lsm6dsm_read_reg
 4257 0012 08B1     		cbz	r0, .L562
 4258              	.L559:
 4259 0014 03B0     		add	sp, sp, #12
 4260              		@ sp needed
 4261 0016 30BD     		pop	{r4, r5, pc}
 4262              	.L562:
 4263 0018 9DF80430 		ldrb	r3, [sp, #4]	@ zero_extendqisi2
 4264 001c 65F34613 		bfi	r3, r5, #5, #2
 4265 0020 8DF80430 		strb	r3, [sp, #4]
 4266 0024 0123     		movs	r3, #1
 4267 0026 01AA     		add	r2, sp, #4
 4268 0028 7221     		movs	r1, #114
 4269 002a 2046     		mov	r0, r4
 4270 002c FFF7FEFF 		bl	lsm6dsm_write_reg
ARM GAS  C:\Users\Nathan\AppData\Local\Temp\ccnGQm3b.s 			page 72


 4271 0030 F0E7     		b	.L559
 4273              		.section	.text.lsm6dsm_aux_xl_full_scale_get,"ax",%progbits
 4274              		.align	1
 4275              		.global	lsm6dsm_aux_xl_full_scale_get
 4276              		.syntax unified
 4277              		.thumb
 4278              		.thumb_func
 4280              	lsm6dsm_aux_xl_full_scale_get:
 4281              		@ args = 0, pretend = 0, frame = 8
 4282              		@ frame_needed = 0, uses_anonymous_args = 0
 4283 0000 10B5     		push	{r4, lr}
 4284 0002 82B0     		sub	sp, sp, #8
 4285 0004 0C46     		mov	r4, r1
 4286 0006 0123     		movs	r3, #1
 4287 0008 01AA     		add	r2, sp, #4
 4288 000a 7221     		movs	r1, #114
 4289 000c FFF7FEFF 		bl	lsm6dsm_read_reg
 4290 0010 9DF80430 		ldrb	r3, [sp, #4]	@ zero_extendqisi2
 4291 0014 C3F34113 		ubfx	r3, r3, #5, #2
 4292 0018 032B     		cmp	r3, #3
 4293 001a 10D8     		bhi	.L564
 4294 001c DFE803F0 		tbb	[pc, r3]
 4295              	.L566:
 4296 0020 02       		.byte	(.L569-.L566)/2
 4297 0021 06       		.byte	(.L568-.L566)/2
 4298 0022 09       		.byte	(.L567-.L566)/2
 4299 0023 0C       		.byte	(.L565-.L566)/2
 4300              		.p2align 1
 4301              	.L569:
 4302 0024 0023     		movs	r3, #0
 4303 0026 2370     		strb	r3, [r4]
 4304              	.L563:
 4305 0028 02B0     		add	sp, sp, #8
 4306              		@ sp needed
 4307 002a 10BD     		pop	{r4, pc}
 4308              	.L568:
 4309 002c 0123     		movs	r3, #1
 4310 002e 2370     		strb	r3, [r4]
 4311 0030 FAE7     		b	.L563
 4312              	.L567:
 4313 0032 0223     		movs	r3, #2
 4314 0034 2370     		strb	r3, [r4]
 4315 0036 F7E7     		b	.L563
 4316              	.L565:
 4317 0038 0323     		movs	r3, #3
 4318 003a 2370     		strb	r3, [r4]
 4319 003c F4E7     		b	.L563
 4320              	.L564:
 4321 003e 0023     		movs	r3, #0
 4322 0040 2370     		strb	r3, [r4]
 4323 0042 F1E7     		b	.L563
 4325              		.section	.text.lsm6dsm_aux_den_polarity_set,"ax",%progbits
 4326              		.align	1
 4327              		.global	lsm6dsm_aux_den_polarity_set
 4328              		.syntax unified
 4329              		.thumb
 4330              		.thumb_func
ARM GAS  C:\Users\Nathan\AppData\Local\Temp\ccnGQm3b.s 			page 73


 4332              	lsm6dsm_aux_den_polarity_set:
 4333              		@ args = 0, pretend = 0, frame = 8
 4334              		@ frame_needed = 0, uses_anonymous_args = 0
 4335 0000 30B5     		push	{r4, r5, lr}
 4336 0002 83B0     		sub	sp, sp, #12
 4337 0004 0446     		mov	r4, r0
 4338 0006 0D46     		mov	r5, r1
 4339 0008 0123     		movs	r3, #1
 4340 000a 01AA     		add	r2, sp, #4
 4341 000c 7221     		movs	r1, #114
 4342 000e FFF7FEFF 		bl	lsm6dsm_read_reg
 4343 0012 08B1     		cbz	r0, .L575
 4344              	.L572:
 4345 0014 03B0     		add	sp, sp, #12
 4346              		@ sp needed
 4347 0016 30BD     		pop	{r4, r5, pc}
 4348              	.L575:
 4349 0018 9DF80430 		ldrb	r3, [sp, #4]	@ zero_extendqisi2
 4350 001c 65F3C713 		bfi	r3, r5, #7, #1
 4351 0020 8DF80430 		strb	r3, [sp, #4]
 4352 0024 0123     		movs	r3, #1
 4353 0026 01AA     		add	r2, sp, #4
 4354 0028 7221     		movs	r1, #114
 4355 002a 2046     		mov	r0, r4
 4356 002c FFF7FEFF 		bl	lsm6dsm_write_reg
 4357 0030 F0E7     		b	.L572
 4359              		.section	.text.lsm6dsm_aux_den_polarity_get,"ax",%progbits
 4360              		.align	1
 4361              		.global	lsm6dsm_aux_den_polarity_get
 4362              		.syntax unified
 4363              		.thumb
 4364              		.thumb_func
 4366              	lsm6dsm_aux_den_polarity_get:
 4367              		@ args = 0, pretend = 0, frame = 8
 4368              		@ frame_needed = 0, uses_anonymous_args = 0
 4369 0000 10B5     		push	{r4, lr}
 4370 0002 82B0     		sub	sp, sp, #8
 4371 0004 0C46     		mov	r4, r1
 4372 0006 0123     		movs	r3, #1
 4373 0008 01AA     		add	r2, sp, #4
 4374 000a 7221     		movs	r1, #114
 4375 000c FFF7FEFF 		bl	lsm6dsm_read_reg
 4376 0010 9DF80430 		ldrb	r3, [sp, #4]	@ zero_extendqisi2
 4377 0014 DB09     		lsrs	r3, r3, #7
 4378 0016 03D0     		beq	.L577
 4379 0018 33B9     		cbnz	r3, .L578
 4380 001a 0023     		movs	r3, #0
 4381 001c 2370     		strb	r3, [r4]
 4382 001e 01E0     		b	.L576
 4383              	.L577:
 4384 0020 0023     		movs	r3, #0
 4385 0022 2370     		strb	r3, [r4]
 4386              	.L576:
 4387 0024 02B0     		add	sp, sp, #8
 4388              		@ sp needed
 4389 0026 10BD     		pop	{r4, pc}
 4390              	.L578:
ARM GAS  C:\Users\Nathan\AppData\Local\Temp\ccnGQm3b.s 			page 74


 4391 0028 0123     		movs	r3, #1
 4392 002a 2370     		strb	r3, [r4]
 4393 002c FAE7     		b	.L576
 4395              		.section	.text.lsm6dsm_spi_mode_set,"ax",%progbits
 4396              		.align	1
 4397              		.global	lsm6dsm_spi_mode_set
 4398              		.syntax unified
 4399              		.thumb
 4400              		.thumb_func
 4402              	lsm6dsm_spi_mode_set:
 4403              		@ args = 0, pretend = 0, frame = 8
 4404              		@ frame_needed = 0, uses_anonymous_args = 0
 4405 0000 30B5     		push	{r4, r5, lr}
 4406 0002 83B0     		sub	sp, sp, #12
 4407 0004 0446     		mov	r4, r0
 4408 0006 0D46     		mov	r5, r1
 4409 0008 0123     		movs	r3, #1
 4410 000a 01AA     		add	r2, sp, #4
 4411 000c 1221     		movs	r1, #18
 4412 000e FFF7FEFF 		bl	lsm6dsm_read_reg
 4413 0012 08B1     		cbz	r0, .L586
 4414              	.L583:
 4415 0014 03B0     		add	sp, sp, #12
 4416              		@ sp needed
 4417 0016 30BD     		pop	{r4, r5, pc}
 4418              	.L586:
 4419 0018 9DF80430 		ldrb	r3, [sp, #4]	@ zero_extendqisi2
 4420 001c 65F3C303 		bfi	r3, r5, #3, #1
 4421 0020 8DF80430 		strb	r3, [sp, #4]
 4422 0024 0123     		movs	r3, #1
 4423 0026 01AA     		add	r2, sp, #4
 4424 0028 1221     		movs	r1, #18
 4425 002a 2046     		mov	r0, r4
 4426 002c FFF7FEFF 		bl	lsm6dsm_write_reg
 4427 0030 F0E7     		b	.L583
 4429              		.section	.text.lsm6dsm_spi_mode_get,"ax",%progbits
 4430              		.align	1
 4431              		.global	lsm6dsm_spi_mode_get
 4432              		.syntax unified
 4433              		.thumb
 4434              		.thumb_func
 4436              	lsm6dsm_spi_mode_get:
 4437              		@ args = 0, pretend = 0, frame = 8
 4438              		@ frame_needed = 0, uses_anonymous_args = 0
 4439 0000 10B5     		push	{r4, lr}
 4440 0002 82B0     		sub	sp, sp, #8
 4441 0004 0C46     		mov	r4, r1
 4442 0006 0123     		movs	r3, #1
 4443 0008 01AA     		add	r2, sp, #4
 4444 000a 1221     		movs	r1, #18
 4445 000c FFF7FEFF 		bl	lsm6dsm_read_reg
 4446 0010 9DF80430 		ldrb	r3, [sp, #4]	@ zero_extendqisi2
 4447 0014 C3F3C002 		ubfx	r2, r3, #3, #1
 4448 0018 13F0080F 		tst	r3, #8
 4449 001c 03D0     		beq	.L588
 4450 001e 32B9     		cbnz	r2, .L589
 4451 0020 0023     		movs	r3, #0
ARM GAS  C:\Users\Nathan\AppData\Local\Temp\ccnGQm3b.s 			page 75


 4452 0022 2370     		strb	r3, [r4]
 4453 0024 01E0     		b	.L587
 4454              	.L588:
 4455 0026 0023     		movs	r3, #0
 4456 0028 2370     		strb	r3, [r4]
 4457              	.L587:
 4458 002a 02B0     		add	sp, sp, #8
 4459              		@ sp needed
 4460 002c 10BD     		pop	{r4, pc}
 4461              	.L589:
 4462 002e 0123     		movs	r3, #1
 4463 0030 2370     		strb	r3, [r4]
 4464 0032 FAE7     		b	.L587
 4466              		.section	.text.lsm6dsm_i2c_interface_set,"ax",%progbits
 4467              		.align	1
 4468              		.global	lsm6dsm_i2c_interface_set
 4469              		.syntax unified
 4470              		.thumb
 4471              		.thumb_func
 4473              	lsm6dsm_i2c_interface_set:
 4474              		@ args = 0, pretend = 0, frame = 8
 4475              		@ frame_needed = 0, uses_anonymous_args = 0
 4476 0000 30B5     		push	{r4, r5, lr}
 4477 0002 83B0     		sub	sp, sp, #12
 4478 0004 0446     		mov	r4, r0
 4479 0006 0D46     		mov	r5, r1
 4480 0008 0123     		movs	r3, #1
 4481 000a 01AA     		add	r2, sp, #4
 4482 000c 1321     		movs	r1, #19
 4483 000e FFF7FEFF 		bl	lsm6dsm_read_reg
 4484 0012 08B1     		cbz	r0, .L597
 4485              	.L594:
 4486 0014 03B0     		add	sp, sp, #12
 4487              		@ sp needed
 4488 0016 30BD     		pop	{r4, r5, pc}
 4489              	.L597:
 4490 0018 9DF80430 		ldrb	r3, [sp, #4]	@ zero_extendqisi2
 4491 001c 65F38203 		bfi	r3, r5, #2, #1
 4492 0020 8DF80430 		strb	r3, [sp, #4]
 4493 0024 0123     		movs	r3, #1
 4494 0026 01AA     		add	r2, sp, #4
 4495 0028 1321     		movs	r1, #19
 4496 002a 2046     		mov	r0, r4
 4497 002c FFF7FEFF 		bl	lsm6dsm_write_reg
 4498 0030 F0E7     		b	.L594
 4500              		.section	.text.lsm6dsm_i2c_interface_get,"ax",%progbits
 4501              		.align	1
 4502              		.global	lsm6dsm_i2c_interface_get
 4503              		.syntax unified
 4504              		.thumb
 4505              		.thumb_func
 4507              	lsm6dsm_i2c_interface_get:
 4508              		@ args = 0, pretend = 0, frame = 8
 4509              		@ frame_needed = 0, uses_anonymous_args = 0
 4510 0000 10B5     		push	{r4, lr}
 4511 0002 82B0     		sub	sp, sp, #8
 4512 0004 0C46     		mov	r4, r1
ARM GAS  C:\Users\Nathan\AppData\Local\Temp\ccnGQm3b.s 			page 76


 4513 0006 0123     		movs	r3, #1
 4514 0008 01AA     		add	r2, sp, #4
 4515 000a 1321     		movs	r1, #19
 4516 000c FFF7FEFF 		bl	lsm6dsm_read_reg
 4517 0010 9DF80430 		ldrb	r3, [sp, #4]	@ zero_extendqisi2
 4518 0014 C3F38002 		ubfx	r2, r3, #2, #1
 4519 0018 13F0040F 		tst	r3, #4
 4520 001c 03D0     		beq	.L599
 4521 001e 32B9     		cbnz	r2, .L600
 4522 0020 0023     		movs	r3, #0
 4523 0022 2370     		strb	r3, [r4]
 4524 0024 01E0     		b	.L598
 4525              	.L599:
 4526 0026 0023     		movs	r3, #0
 4527 0028 2370     		strb	r3, [r4]
 4528              	.L598:
 4529 002a 02B0     		add	sp, sp, #8
 4530              		@ sp needed
 4531 002c 10BD     		pop	{r4, pc}
 4532              	.L600:
 4533 002e 0123     		movs	r3, #1
 4534 0030 2370     		strb	r3, [r4]
 4535 0032 FAE7     		b	.L598
 4537              		.section	.text.lsm6dsm_pin_int1_route_set,"ax",%progbits
 4538              		.align	1
 4539              		.global	lsm6dsm_pin_int1_route_set
 4540              		.syntax unified
 4541              		.thumb
 4542              		.thumb_func
 4544              	lsm6dsm_pin_int1_route_set:
 4545              		@ args = 0, pretend = 0, frame = 32
 4546              		@ frame_needed = 0, uses_anonymous_args = 0
 4547 0000 30B5     		push	{r4, r5, lr}
 4548 0002 89B0     		sub	sp, sp, #36
 4549 0004 0446     		mov	r4, r0
 4550 0006 0191     		str	r1, [sp, #4]
 4551 0008 0123     		movs	r3, #1
 4552 000a 06AA     		add	r2, sp, #24
 4553 000c 0D21     		movs	r1, #13
 4554 000e FFF7FEFF 		bl	lsm6dsm_read_reg
 4555 0012 0346     		mov	r3, r0
 4556 0014 20B1     		cbz	r0, .L612
 4557              	.L606:
 4558 0016 002B     		cmp	r3, #0
 4559 0018 4BD0     		beq	.L613
 4560              	.L605:
 4561 001a 1846     		mov	r0, r3
 4562 001c 09B0     		add	sp, sp, #36
 4563              		@ sp needed
 4564 001e 30BD     		pop	{r4, r5, pc}
 4565              	.L612:
 4566 0020 9DF80430 		ldrb	r3, [sp, #4]	@ zero_extendqisi2
 4567 0024 9DF81820 		ldrb	r2, [sp, #24]	@ zero_extendqisi2
 4568 0028 63F30002 		bfi	r2, r3, #0, #1
 4569 002c 8DF81820 		strb	r2, [sp, #24]
 4570 0030 C3F34001 		ubfx	r1, r3, #1, #1
 4571 0034 D2B2     		uxtb	r2, r2
ARM GAS  C:\Users\Nathan\AppData\Local\Temp\ccnGQm3b.s 			page 77


 4572 0036 61F34102 		bfi	r2, r1, #1, #1
 4573 003a 8DF81820 		strb	r2, [sp, #24]
 4574 003e C3F38001 		ubfx	r1, r3, #2, #1
 4575 0042 D2B2     		uxtb	r2, r2
 4576 0044 61F38202 		bfi	r2, r1, #2, #1
 4577 0048 8DF81820 		strb	r2, [sp, #24]
 4578 004c C3F3C001 		ubfx	r1, r3, #3, #1
 4579 0050 D2B2     		uxtb	r2, r2
 4580 0052 61F3C302 		bfi	r2, r1, #3, #1
 4581 0056 8DF81820 		strb	r2, [sp, #24]
 4582 005a C3F30011 		ubfx	r1, r3, #4, #1
 4583 005e D2B2     		uxtb	r2, r2
 4584 0060 61F30412 		bfi	r2, r1, #4, #1
 4585 0064 8DF81820 		strb	r2, [sp, #24]
 4586 0068 C3F34011 		ubfx	r1, r3, #5, #1
 4587 006c D2B2     		uxtb	r2, r2
 4588 006e 61F34512 		bfi	r2, r1, #5, #1
 4589 0072 8DF81820 		strb	r2, [sp, #24]
 4590 0076 C3F38011 		ubfx	r1, r3, #6, #1
 4591 007a D2B2     		uxtb	r2, r2
 4592 007c 61F38612 		bfi	r2, r1, #6, #1
 4593 0080 8DF81820 		strb	r2, [sp, #24]
 4594 0084 DB09     		lsrs	r3, r3, #7
 4595 0086 D2B2     		uxtb	r2, r2
 4596 0088 63F3C712 		bfi	r2, r3, #7, #1
 4597 008c 8DF81820 		strb	r2, [sp, #24]
 4598 0090 0123     		movs	r3, #1
 4599 0092 06AA     		add	r2, sp, #24
 4600 0094 0D21     		movs	r1, #13
 4601 0096 2046     		mov	r0, r4
 4602 0098 FFF7FEFF 		bl	lsm6dsm_write_reg
 4603 009c 0346     		mov	r3, r0
 4604 009e 0028     		cmp	r0, #0
 4605 00a0 BBD1     		bne	.L605
 4606 00a2 0123     		movs	r3, #1
 4607 00a4 05AA     		add	r2, sp, #20
 4608 00a6 5E21     		movs	r1, #94
 4609 00a8 2046     		mov	r0, r4
 4610 00aa FFF7FEFF 		bl	lsm6dsm_read_reg
 4611 00ae 0346     		mov	r3, r0
 4612 00b0 B1E7     		b	.L606
 4613              	.L613:
 4614 00b2 0123     		movs	r3, #1
 4615 00b4 04AA     		add	r2, sp, #16
 4616 00b6 5F21     		movs	r1, #95
 4617 00b8 2046     		mov	r0, r4
 4618 00ba FFF7FEFF 		bl	lsm6dsm_read_reg
 4619 00be 0346     		mov	r3, r0
 4620 00c0 0028     		cmp	r0, #0
 4621 00c2 AAD1     		bne	.L605
 4622 00c4 9DF80530 		ldrb	r3, [sp, #5]	@ zero_extendqisi2
 4623 00c8 9DF81420 		ldrb	r2, [sp, #20]	@ zero_extendqisi2
 4624 00cc 63F30002 		bfi	r2, r3, #0, #1
 4625 00d0 8DF81420 		strb	r2, [sp, #20]
 4626 00d4 C3F34001 		ubfx	r1, r3, #1, #1
 4627 00d8 D2B2     		uxtb	r2, r2
 4628 00da 61F34102 		bfi	r2, r1, #1, #1
ARM GAS  C:\Users\Nathan\AppData\Local\Temp\ccnGQm3b.s 			page 78


 4629 00de 8DF81420 		strb	r2, [sp, #20]
 4630 00e2 C3F38001 		ubfx	r1, r3, #2, #1
 4631 00e6 D2B2     		uxtb	r2, r2
 4632 00e8 61F38202 		bfi	r2, r1, #2, #1
 4633 00ec 8DF81420 		strb	r2, [sp, #20]
 4634 00f0 C3F3C001 		ubfx	r1, r3, #3, #1
 4635 00f4 D2B2     		uxtb	r2, r2
 4636 00f6 61F3C302 		bfi	r2, r1, #3, #1
 4637 00fa 8DF81420 		strb	r2, [sp, #20]
 4638 00fe C3F30011 		ubfx	r1, r3, #4, #1
 4639 0102 D2B2     		uxtb	r2, r2
 4640 0104 61F30412 		bfi	r2, r1, #4, #1
 4641 0108 8DF81420 		strb	r2, [sp, #20]
 4642 010c C3F34011 		ubfx	r1, r3, #5, #1
 4643 0110 D2B2     		uxtb	r2, r2
 4644 0112 61F34512 		bfi	r2, r1, #5, #1
 4645 0116 8DF81420 		strb	r2, [sp, #20]
 4646 011a C3F38011 		ubfx	r1, r3, #6, #1
 4647 011e D2B2     		uxtb	r2, r2
 4648 0120 61F38612 		bfi	r2, r1, #6, #1
 4649 0124 8DF81420 		strb	r2, [sp, #20]
 4650 0128 DB09     		lsrs	r3, r3, #7
 4651 012a D2B2     		uxtb	r2, r2
 4652 012c 63F3C712 		bfi	r2, r3, #7, #1
 4653 0130 8DF81420 		strb	r2, [sp, #20]
 4654 0134 0123     		movs	r3, #1
 4655 0136 05AA     		add	r2, sp, #20
 4656 0138 5E21     		movs	r1, #94
 4657 013a 2046     		mov	r0, r4
 4658 013c FFF7FEFF 		bl	lsm6dsm_write_reg
 4659 0140 0346     		mov	r3, r0
 4660 0142 0028     		cmp	r0, #0
 4661 0144 7FF469AF 		bne	.L605
 4662 0148 0123     		movs	r3, #1
 4663 014a 03AA     		add	r2, sp, #12
 4664 014c 1321     		movs	r1, #19
 4665 014e 2046     		mov	r0, r4
 4666 0150 FFF7FEFF 		bl	lsm6dsm_read_reg
 4667 0154 0346     		mov	r3, r0
 4668 0156 0028     		cmp	r0, #0
 4669 0158 7FF45FAF 		bne	.L605
 4670 015c 9DF80650 		ldrb	r5, [sp, #6]	@ zero_extendqisi2
 4671 0160 05F00105 		and	r5, r5, #1
 4672 0164 9DF80C30 		ldrb	r3, [sp, #12]	@ zero_extendqisi2
 4673 0168 65F30413 		bfi	r3, r5, #4, #1
 4674 016c 8DF80C30 		strb	r3, [sp, #12]
 4675 0170 0123     		movs	r3, #1
 4676 0172 03AA     		add	r2, sp, #12
 4677 0174 1321     		movs	r1, #19
 4678 0176 2046     		mov	r0, r4
 4679 0178 FFF7FEFF 		bl	lsm6dsm_write_reg
 4680 017c 0346     		mov	r3, r0
 4681 017e 0028     		cmp	r0, #0
 4682 0180 7FF44BAF 		bne	.L605
 4683 0184 0123     		movs	r3, #1
 4684 0186 07AA     		add	r2, sp, #28
 4685 0188 1A21     		movs	r1, #26
ARM GAS  C:\Users\Nathan\AppData\Local\Temp\ccnGQm3b.s 			page 79


 4686 018a 2046     		mov	r0, r4
 4687 018c FFF7FEFF 		bl	lsm6dsm_read_reg
 4688 0190 0346     		mov	r3, r0
 4689 0192 0028     		cmp	r0, #0
 4690 0194 7FF441AF 		bne	.L605
 4691 0198 9DF81C30 		ldrb	r3, [sp, #28]	@ zero_extendqisi2
 4692 019c 65F3C713 		bfi	r3, r5, #7, #1
 4693 01a0 8DF81C30 		strb	r3, [sp, #28]
 4694 01a4 0123     		movs	r3, #1
 4695 01a6 07AA     		add	r2, sp, #28
 4696 01a8 1A21     		movs	r1, #26
 4697 01aa 2046     		mov	r0, r4
 4698 01ac FFF7FEFF 		bl	lsm6dsm_write_reg
 4699 01b0 0346     		mov	r3, r0
 4700 01b2 0028     		cmp	r0, #0
 4701 01b4 7FF431AF 		bne	.L605
 4702 01b8 0123     		movs	r3, #1
 4703 01ba 02AA     		add	r2, sp, #8
 4704 01bc 5821     		movs	r1, #88
 4705 01be 2046     		mov	r0, r4
 4706 01c0 FFF7FEFF 		bl	lsm6dsm_read_reg
 4707 01c4 0346     		mov	r3, r0
 4708 01c6 9DF80520 		ldrb	r2, [sp, #5]	@ zero_extendqisi2
 4709 01ca 032A     		cmp	r2, #3
 4710 01cc 03D8     		bhi	.L608
 4711 01ce 9DF81020 		ldrb	r2, [sp, #16]	@ zero_extendqisi2
 4712 01d2 032A     		cmp	r2, #3
 4713 01d4 10D9     		bls	.L609
 4714              	.L608:
 4715 01d6 9DF80820 		ldrb	r2, [sp, #8]	@ zero_extendqisi2
 4716 01da 42F08002 		orr	r2, r2, #128
 4717 01de 8DF80820 		strb	r2, [sp, #8]
 4718              	.L610:
 4719 01e2 002B     		cmp	r3, #0
 4720 01e4 7FF419AF 		bne	.L605
 4721 01e8 0123     		movs	r3, #1
 4722 01ea 02AA     		add	r2, sp, #8
 4723 01ec 5821     		movs	r1, #88
 4724 01ee 2046     		mov	r0, r4
 4725 01f0 FFF7FEFF 		bl	lsm6dsm_write_reg
 4726 01f4 0346     		mov	r3, r0
 4727 01f6 10E7     		b	.L605
 4728              	.L609:
 4729 01f8 9DF80820 		ldrb	r2, [sp, #8]	@ zero_extendqisi2
 4730 01fc 22F08002 		bic	r2, r2, #128
 4731 0200 8DF80820 		strb	r2, [sp, #8]
 4732 0204 EDE7     		b	.L610
 4734              		.section	.text.lsm6dsm_pin_int1_route_get,"ax",%progbits
 4735              		.align	1
 4736              		.global	lsm6dsm_pin_int1_route_get
 4737              		.syntax unified
 4738              		.thumb
 4739              		.thumb_func
 4741              	lsm6dsm_pin_int1_route_get:
 4742              		@ args = 0, pretend = 0, frame = 16
 4743              		@ frame_needed = 0, uses_anonymous_args = 0
 4744 0000 30B5     		push	{r4, r5, lr}
ARM GAS  C:\Users\Nathan\AppData\Local\Temp\ccnGQm3b.s 			page 80


 4745 0002 85B0     		sub	sp, sp, #20
 4746 0004 0546     		mov	r5, r0
 4747 0006 0C46     		mov	r4, r1
 4748 0008 0123     		movs	r3, #1
 4749 000a 02AA     		add	r2, sp, #8
 4750 000c 0D21     		movs	r1, #13
 4751 000e FFF7FEFF 		bl	lsm6dsm_read_reg
 4752 0012 08B1     		cbz	r0, .L617
 4753              	.L614:
 4754 0014 05B0     		add	sp, sp, #20
 4755              		@ sp needed
 4756 0016 30BD     		pop	{r4, r5, pc}
 4757              	.L617:
 4758 0018 9DF80830 		ldrb	r3, [sp, #8]	@ zero_extendqisi2
 4759 001c 2278     		ldrb	r2, [r4]	@ zero_extendqisi2
 4760 001e 63F30002 		bfi	r2, r3, #0, #1
 4761 0022 2270     		strb	r2, [r4]
 4762 0024 C3F34001 		ubfx	r1, r3, #1, #1
 4763 0028 D2B2     		uxtb	r2, r2
 4764 002a 61F34102 		bfi	r2, r1, #1, #1
 4765 002e 2270     		strb	r2, [r4]
 4766 0030 C3F38001 		ubfx	r1, r3, #2, #1
 4767 0034 D2B2     		uxtb	r2, r2
 4768 0036 61F38202 		bfi	r2, r1, #2, #1
 4769 003a 2270     		strb	r2, [r4]
 4770 003c C3F3C001 		ubfx	r1, r3, #3, #1
 4771 0040 D2B2     		uxtb	r2, r2
 4772 0042 61F3C302 		bfi	r2, r1, #3, #1
 4773 0046 2270     		strb	r2, [r4]
 4774 0048 C3F30011 		ubfx	r1, r3, #4, #1
 4775 004c D2B2     		uxtb	r2, r2
 4776 004e 61F30412 		bfi	r2, r1, #4, #1
 4777 0052 2270     		strb	r2, [r4]
 4778 0054 C3F34011 		ubfx	r1, r3, #5, #1
 4779 0058 D2B2     		uxtb	r2, r2
 4780 005a 61F34512 		bfi	r2, r1, #5, #1
 4781 005e 2270     		strb	r2, [r4]
 4782 0060 C3F38011 		ubfx	r1, r3, #6, #1
 4783 0064 D2B2     		uxtb	r2, r2
 4784 0066 61F38612 		bfi	r2, r1, #6, #1
 4785 006a 2270     		strb	r2, [r4]
 4786 006c DB09     		lsrs	r3, r3, #7
 4787 006e D2B2     		uxtb	r2, r2
 4788 0070 63F3C712 		bfi	r2, r3, #7, #1
 4789 0074 2270     		strb	r2, [r4]
 4790 0076 0123     		movs	r3, #1
 4791 0078 01AA     		add	r2, sp, #4
 4792 007a 5E21     		movs	r1, #94
 4793 007c 2846     		mov	r0, r5
 4794 007e FFF7FEFF 		bl	lsm6dsm_read_reg
 4795 0082 0028     		cmp	r0, #0
 4796 0084 C6D1     		bne	.L614
 4797 0086 9DF80430 		ldrb	r3, [sp, #4]	@ zero_extendqisi2
 4798 008a 6278     		ldrb	r2, [r4, #1]	@ zero_extendqisi2
 4799 008c 63F30002 		bfi	r2, r3, #0, #1
 4800 0090 6270     		strb	r2, [r4, #1]
 4801 0092 C3F34001 		ubfx	r1, r3, #1, #1
ARM GAS  C:\Users\Nathan\AppData\Local\Temp\ccnGQm3b.s 			page 81


 4802 0096 D2B2     		uxtb	r2, r2
 4803 0098 61F34102 		bfi	r2, r1, #1, #1
 4804 009c 6270     		strb	r2, [r4, #1]
 4805 009e C3F38001 		ubfx	r1, r3, #2, #1
 4806 00a2 D2B2     		uxtb	r2, r2
 4807 00a4 61F38202 		bfi	r2, r1, #2, #1
 4808 00a8 6270     		strb	r2, [r4, #1]
 4809 00aa C3F3C001 		ubfx	r1, r3, #3, #1
 4810 00ae D2B2     		uxtb	r2, r2
 4811 00b0 61F3C302 		bfi	r2, r1, #3, #1
 4812 00b4 6270     		strb	r2, [r4, #1]
 4813 00b6 C3F30011 		ubfx	r1, r3, #4, #1
 4814 00ba D2B2     		uxtb	r2, r2
 4815 00bc 61F30412 		bfi	r2, r1, #4, #1
 4816 00c0 6270     		strb	r2, [r4, #1]
 4817 00c2 C3F34011 		ubfx	r1, r3, #5, #1
 4818 00c6 D2B2     		uxtb	r2, r2
 4819 00c8 61F34512 		bfi	r2, r1, #5, #1
 4820 00cc 6270     		strb	r2, [r4, #1]
 4821 00ce C3F38011 		ubfx	r1, r3, #6, #1
 4822 00d2 D2B2     		uxtb	r2, r2
 4823 00d4 61F38612 		bfi	r2, r1, #6, #1
 4824 00d8 6270     		strb	r2, [r4, #1]
 4825 00da DB09     		lsrs	r3, r3, #7
 4826 00dc D2B2     		uxtb	r2, r2
 4827 00de 63F3C712 		bfi	r2, r3, #7, #1
 4828 00e2 6270     		strb	r2, [r4, #1]
 4829 00e4 0123     		movs	r3, #1
 4830 00e6 6A46     		mov	r2, sp
 4831 00e8 1321     		movs	r1, #19
 4832 00ea 2846     		mov	r0, r5
 4833 00ec FFF7FEFF 		bl	lsm6dsm_read_reg
 4834 00f0 0028     		cmp	r0, #0
 4835 00f2 8FD1     		bne	.L614
 4836 00f4 9DF80030 		ldrb	r3, [sp]	@ zero_extendqisi2
 4837 00f8 C3F30013 		ubfx	r3, r3, #4, #1
 4838 00fc A278     		ldrb	r2, [r4, #2]	@ zero_extendqisi2
 4839 00fe 63F30002 		bfi	r2, r3, #0, #1
 4840 0102 A270     		strb	r2, [r4, #2]
 4841 0104 0123     		movs	r3, #1
 4842 0106 03AA     		add	r2, sp, #12
 4843 0108 1A21     		movs	r1, #26
 4844 010a 2846     		mov	r0, r5
 4845 010c FFF7FEFF 		bl	lsm6dsm_read_reg
 4846 0110 9DF80C30 		ldrb	r3, [sp, #12]	@ zero_extendqisi2
 4847 0114 DB09     		lsrs	r3, r3, #7
 4848 0116 A278     		ldrb	r2, [r4, #2]	@ zero_extendqisi2
 4849 0118 63F30002 		bfi	r2, r3, #0, #1
 4850 011c A270     		strb	r2, [r4, #2]
 4851 011e 79E7     		b	.L614
 4853              		.section	.text.lsm6dsm_pin_int2_route_set,"ax",%progbits
 4854              		.align	1
 4855              		.global	lsm6dsm_pin_int2_route_set
 4856              		.syntax unified
 4857              		.thumb
 4858              		.thumb_func
 4860              	lsm6dsm_pin_int2_route_set:
ARM GAS  C:\Users\Nathan\AppData\Local\Temp\ccnGQm3b.s 			page 82


 4861              		@ args = 0, pretend = 0, frame = 32
 4862              		@ frame_needed = 0, uses_anonymous_args = 0
 4863 0000 10B5     		push	{r4, lr}
 4864 0002 88B0     		sub	sp, sp, #32
 4865 0004 0446     		mov	r4, r0
 4866 0006 0191     		str	r1, [sp, #4]
 4867 0008 0123     		movs	r3, #1
 4868 000a 07AA     		add	r2, sp, #28
 4869 000c 0E21     		movs	r1, #14
 4870 000e FFF7FEFF 		bl	lsm6dsm_read_reg
 4871 0012 0346     		mov	r3, r0
 4872 0014 20B1     		cbz	r0, .L625
 4873              	.L619:
 4874 0016 002B     		cmp	r3, #0
 4875 0018 4BD0     		beq	.L626
 4876              	.L618:
 4877 001a 1846     		mov	r0, r3
 4878 001c 08B0     		add	sp, sp, #32
 4879              		@ sp needed
 4880 001e 10BD     		pop	{r4, pc}
 4881              	.L625:
 4882 0020 9DF80430 		ldrb	r3, [sp, #4]	@ zero_extendqisi2
 4883 0024 9DF81C20 		ldrb	r2, [sp, #28]	@ zero_extendqisi2
 4884 0028 63F30002 		bfi	r2, r3, #0, #1
 4885 002c 8DF81C20 		strb	r2, [sp, #28]
 4886 0030 C3F34001 		ubfx	r1, r3, #1, #1
 4887 0034 D2B2     		uxtb	r2, r2
 4888 0036 61F34102 		bfi	r2, r1, #1, #1
 4889 003a 8DF81C20 		strb	r2, [sp, #28]
 4890 003e C3F38001 		ubfx	r1, r3, #2, #1
 4891 0042 D2B2     		uxtb	r2, r2
 4892 0044 61F38202 		bfi	r2, r1, #2, #1
 4893 0048 8DF81C20 		strb	r2, [sp, #28]
 4894 004c C3F3C001 		ubfx	r1, r3, #3, #1
 4895 0050 D2B2     		uxtb	r2, r2
 4896 0052 61F3C302 		bfi	r2, r1, #3, #1
 4897 0056 8DF81C20 		strb	r2, [sp, #28]
 4898 005a C3F30011 		ubfx	r1, r3, #4, #1
 4899 005e D2B2     		uxtb	r2, r2
 4900 0060 61F30412 		bfi	r2, r1, #4, #1
 4901 0064 8DF81C20 		strb	r2, [sp, #28]
 4902 0068 C3F34011 		ubfx	r1, r3, #5, #1
 4903 006c D2B2     		uxtb	r2, r2
 4904 006e 61F34512 		bfi	r2, r1, #5, #1
 4905 0072 8DF81C20 		strb	r2, [sp, #28]
 4906 0076 C3F38011 		ubfx	r1, r3, #6, #1
 4907 007a D2B2     		uxtb	r2, r2
 4908 007c 61F38612 		bfi	r2, r1, #6, #1
 4909 0080 8DF81C20 		strb	r2, [sp, #28]
 4910 0084 DB09     		lsrs	r3, r3, #7
 4911 0086 D2B2     		uxtb	r2, r2
 4912 0088 63F3C712 		bfi	r2, r3, #7, #1
 4913 008c 8DF81C20 		strb	r2, [sp, #28]
 4914 0090 0123     		movs	r3, #1
 4915 0092 07AA     		add	r2, sp, #28
 4916 0094 0E21     		movs	r1, #14
 4917 0096 2046     		mov	r0, r4
ARM GAS  C:\Users\Nathan\AppData\Local\Temp\ccnGQm3b.s 			page 83


 4918 0098 FFF7FEFF 		bl	lsm6dsm_write_reg
 4919 009c 0346     		mov	r3, r0
 4920 009e 0028     		cmp	r0, #0
 4921 00a0 BBD1     		bne	.L618
 4922 00a2 0123     		movs	r3, #1
 4923 00a4 06AA     		add	r2, sp, #24
 4924 00a6 5E21     		movs	r1, #94
 4925 00a8 2046     		mov	r0, r4
 4926 00aa FFF7FEFF 		bl	lsm6dsm_read_reg
 4927 00ae 0346     		mov	r3, r0
 4928 00b0 B1E7     		b	.L619
 4929              	.L626:
 4930 00b2 0123     		movs	r3, #1
 4931 00b4 05AA     		add	r2, sp, #20
 4932 00b6 5F21     		movs	r1, #95
 4933 00b8 2046     		mov	r0, r4
 4934 00ba FFF7FEFF 		bl	lsm6dsm_read_reg
 4935 00be 0346     		mov	r3, r0
 4936 00c0 0028     		cmp	r0, #0
 4937 00c2 AAD1     		bne	.L618
 4938 00c4 9DF80530 		ldrb	r3, [sp, #5]	@ zero_extendqisi2
 4939 00c8 9DF81420 		ldrb	r2, [sp, #20]	@ zero_extendqisi2
 4940 00cc 63F30002 		bfi	r2, r3, #0, #1
 4941 00d0 8DF81420 		strb	r2, [sp, #20]
 4942 00d4 C3F34001 		ubfx	r1, r3, #1, #1
 4943 00d8 D2B2     		uxtb	r2, r2
 4944 00da 61F34102 		bfi	r2, r1, #1, #1
 4945 00de 8DF81420 		strb	r2, [sp, #20]
 4946 00e2 C3F38001 		ubfx	r1, r3, #2, #1
 4947 00e6 D2B2     		uxtb	r2, r2
 4948 00e8 61F38202 		bfi	r2, r1, #2, #1
 4949 00ec 8DF81420 		strb	r2, [sp, #20]
 4950 00f0 C3F3C001 		ubfx	r1, r3, #3, #1
 4951 00f4 D2B2     		uxtb	r2, r2
 4952 00f6 61F3C302 		bfi	r2, r1, #3, #1
 4953 00fa 8DF81420 		strb	r2, [sp, #20]
 4954 00fe C3F30011 		ubfx	r1, r3, #4, #1
 4955 0102 D2B2     		uxtb	r2, r2
 4956 0104 61F30412 		bfi	r2, r1, #4, #1
 4957 0108 8DF81420 		strb	r2, [sp, #20]
 4958 010c C3F34011 		ubfx	r1, r3, #5, #1
 4959 0110 D2B2     		uxtb	r2, r2
 4960 0112 61F34512 		bfi	r2, r1, #5, #1
 4961 0116 8DF81420 		strb	r2, [sp, #20]
 4962 011a C3F38011 		ubfx	r1, r3, #6, #1
 4963 011e D2B2     		uxtb	r2, r2
 4964 0120 61F38612 		bfi	r2, r1, #6, #1
 4965 0124 8DF81420 		strb	r2, [sp, #20]
 4966 0128 DB09     		lsrs	r3, r3, #7
 4967 012a D2B2     		uxtb	r2, r2
 4968 012c 63F3C712 		bfi	r2, r3, #7, #1
 4969 0130 8DF81420 		strb	r2, [sp, #20]
 4970 0134 0123     		movs	r3, #1
 4971 0136 05AA     		add	r2, sp, #20
 4972 0138 5F21     		movs	r1, #95
 4973 013a 2046     		mov	r0, r4
 4974 013c FFF7FEFF 		bl	lsm6dsm_write_reg
ARM GAS  C:\Users\Nathan\AppData\Local\Temp\ccnGQm3b.s 			page 84


 4975 0140 0346     		mov	r3, r0
 4976 0142 0028     		cmp	r0, #0
 4977 0144 7FF469AF 		bne	.L618
 4978 0148 0123     		movs	r3, #1
 4979 014a 04AA     		add	r2, sp, #16
 4980 014c 0B21     		movs	r1, #11
 4981 014e 2046     		mov	r0, r4
 4982 0150 FFF7FEFF 		bl	lsm6dsm_read_reg
 4983 0154 0346     		mov	r3, r0
 4984 0156 0028     		cmp	r0, #0
 4985 0158 7FF45FAF 		bne	.L618
 4986 015c 9DF80620 		ldrb	r2, [sp, #6]	@ zero_extendqisi2
 4987 0160 9DF81030 		ldrb	r3, [sp, #16]	@ zero_extendqisi2
 4988 0164 62F30003 		bfi	r3, r2, #0, #1
 4989 0168 8DF81030 		strb	r3, [sp, #16]
 4990 016c 0123     		movs	r3, #1
 4991 016e 04AA     		add	r2, sp, #16
 4992 0170 0B21     		movs	r1, #11
 4993 0172 2046     		mov	r0, r4
 4994 0174 FFF7FEFF 		bl	lsm6dsm_write_reg
 4995 0178 0346     		mov	r3, r0
 4996 017a 0028     		cmp	r0, #0
 4997 017c 7FF44DAF 		bne	.L618
 4998 0180 0123     		movs	r3, #1
 4999 0182 03AA     		add	r2, sp, #12
 5000 0184 5821     		movs	r1, #88
 5001 0186 2046     		mov	r0, r4
 5002 0188 FFF7FEFF 		bl	lsm6dsm_read_reg
 5003 018c 0346     		mov	r3, r0
 5004 018e 9DF81820 		ldrb	r2, [sp, #24]	@ zero_extendqisi2
 5005 0192 032A     		cmp	r2, #3
 5006 0194 03D8     		bhi	.L621
 5007 0196 9DF80520 		ldrb	r2, [sp, #5]	@ zero_extendqisi2
 5008 019a 032A     		cmp	r2, #3
 5009 019c 10D9     		bls	.L622
 5010              	.L621:
 5011 019e 9DF80C20 		ldrb	r2, [sp, #12]	@ zero_extendqisi2
 5012 01a2 42F08002 		orr	r2, r2, #128
 5013 01a6 8DF80C20 		strb	r2, [sp, #12]
 5014              	.L623:
 5015 01aa 002B     		cmp	r3, #0
 5016 01ac 7FF435AF 		bne	.L618
 5017 01b0 0123     		movs	r3, #1
 5018 01b2 03AA     		add	r2, sp, #12
 5019 01b4 5821     		movs	r1, #88
 5020 01b6 2046     		mov	r0, r4
 5021 01b8 FFF7FEFF 		bl	lsm6dsm_write_reg
 5022 01bc 0346     		mov	r3, r0
 5023 01be 2CE7     		b	.L618
 5024              	.L622:
 5025 01c0 9DF80C20 		ldrb	r2, [sp, #12]	@ zero_extendqisi2
 5026 01c4 22F08002 		bic	r2, r2, #128
 5027 01c8 8DF80C20 		strb	r2, [sp, #12]
 5028 01cc EDE7     		b	.L623
 5030              		.section	.text.lsm6dsm_pin_int2_route_get,"ax",%progbits
 5031              		.align	1
 5032              		.global	lsm6dsm_pin_int2_route_get
ARM GAS  C:\Users\Nathan\AppData\Local\Temp\ccnGQm3b.s 			page 85


 5033              		.syntax unified
 5034              		.thumb
 5035              		.thumb_func
 5037              	lsm6dsm_pin_int2_route_get:
 5038              		@ args = 0, pretend = 0, frame = 16
 5039              		@ frame_needed = 0, uses_anonymous_args = 0
 5040 0000 30B5     		push	{r4, r5, lr}
 5041 0002 85B0     		sub	sp, sp, #20
 5042 0004 0546     		mov	r5, r0
 5043 0006 0C46     		mov	r4, r1
 5044 0008 0123     		movs	r3, #1
 5045 000a 03AA     		add	r2, sp, #12
 5046 000c 0E21     		movs	r1, #14
 5047 000e FFF7FEFF 		bl	lsm6dsm_read_reg
 5048 0012 08B1     		cbz	r0, .L630
 5049              	.L627:
 5050 0014 05B0     		add	sp, sp, #20
 5051              		@ sp needed
 5052 0016 30BD     		pop	{r4, r5, pc}
 5053              	.L630:
 5054 0018 9DF80C30 		ldrb	r3, [sp, #12]	@ zero_extendqisi2
 5055 001c 2278     		ldrb	r2, [r4]	@ zero_extendqisi2
 5056 001e 63F30002 		bfi	r2, r3, #0, #1
 5057 0022 2270     		strb	r2, [r4]
 5058 0024 C3F34001 		ubfx	r1, r3, #1, #1
 5059 0028 D2B2     		uxtb	r2, r2
 5060 002a 61F34102 		bfi	r2, r1, #1, #1
 5061 002e 2270     		strb	r2, [r4]
 5062 0030 C3F38001 		ubfx	r1, r3, #2, #1
 5063 0034 D2B2     		uxtb	r2, r2
 5064 0036 61F38202 		bfi	r2, r1, #2, #1
 5065 003a 2270     		strb	r2, [r4]
 5066 003c C3F3C001 		ubfx	r1, r3, #3, #1
 5067 0040 D2B2     		uxtb	r2, r2
 5068 0042 61F3C302 		bfi	r2, r1, #3, #1
 5069 0046 2270     		strb	r2, [r4]
 5070 0048 C3F30011 		ubfx	r1, r3, #4, #1
 5071 004c D2B2     		uxtb	r2, r2
 5072 004e 61F30412 		bfi	r2, r1, #4, #1
 5073 0052 2270     		strb	r2, [r4]
 5074 0054 C3F34011 		ubfx	r1, r3, #5, #1
 5075 0058 D2B2     		uxtb	r2, r2
 5076 005a 61F34512 		bfi	r2, r1, #5, #1
 5077 005e 2270     		strb	r2, [r4]
 5078 0060 C3F38011 		ubfx	r1, r3, #6, #1
 5079 0064 D2B2     		uxtb	r2, r2
 5080 0066 61F38612 		bfi	r2, r1, #6, #1
 5081 006a 2270     		strb	r2, [r4]
 5082 006c DB09     		lsrs	r3, r3, #7
 5083 006e D2B2     		uxtb	r2, r2
 5084 0070 63F3C712 		bfi	r2, r3, #7, #1
 5085 0074 2270     		strb	r2, [r4]
 5086 0076 0123     		movs	r3, #1
 5087 0078 02AA     		add	r2, sp, #8
 5088 007a 5F21     		movs	r1, #95
 5089 007c 2846     		mov	r0, r5
 5090 007e FFF7FEFF 		bl	lsm6dsm_read_reg
ARM GAS  C:\Users\Nathan\AppData\Local\Temp\ccnGQm3b.s 			page 86


 5091 0082 0028     		cmp	r0, #0
 5092 0084 C6D1     		bne	.L627
 5093 0086 9DF80830 		ldrb	r3, [sp, #8]	@ zero_extendqisi2
 5094 008a 6278     		ldrb	r2, [r4, #1]	@ zero_extendqisi2
 5095 008c 63F30002 		bfi	r2, r3, #0, #1
 5096 0090 6270     		strb	r2, [r4, #1]
 5097 0092 C3F34001 		ubfx	r1, r3, #1, #1
 5098 0096 D2B2     		uxtb	r2, r2
 5099 0098 61F34102 		bfi	r2, r1, #1, #1
 5100 009c 6270     		strb	r2, [r4, #1]
 5101 009e C3F38001 		ubfx	r1, r3, #2, #1
 5102 00a2 D2B2     		uxtb	r2, r2
 5103 00a4 61F38202 		bfi	r2, r1, #2, #1
 5104 00a8 6270     		strb	r2, [r4, #1]
 5105 00aa C3F3C001 		ubfx	r1, r3, #3, #1
 5106 00ae D2B2     		uxtb	r2, r2
 5107 00b0 61F3C302 		bfi	r2, r1, #3, #1
 5108 00b4 6270     		strb	r2, [r4, #1]
 5109 00b6 C3F30011 		ubfx	r1, r3, #4, #1
 5110 00ba D2B2     		uxtb	r2, r2
 5111 00bc 61F30412 		bfi	r2, r1, #4, #1
 5112 00c0 6270     		strb	r2, [r4, #1]
 5113 00c2 C3F34011 		ubfx	r1, r3, #5, #1
 5114 00c6 D2B2     		uxtb	r2, r2
 5115 00c8 61F34512 		bfi	r2, r1, #5, #1
 5116 00cc 6270     		strb	r2, [r4, #1]
 5117 00ce C3F38011 		ubfx	r1, r3, #6, #1
 5118 00d2 D2B2     		uxtb	r2, r2
 5119 00d4 61F38612 		bfi	r2, r1, #6, #1
 5120 00d8 6270     		strb	r2, [r4, #1]
 5121 00da DB09     		lsrs	r3, r3, #7
 5122 00dc D2B2     		uxtb	r2, r2
 5123 00de 63F3C712 		bfi	r2, r3, #7, #1
 5124 00e2 6270     		strb	r2, [r4, #1]
 5125 00e4 0123     		movs	r3, #1
 5126 00e6 01AA     		add	r2, sp, #4
 5127 00e8 0B21     		movs	r1, #11
 5128 00ea 2846     		mov	r0, r5
 5129 00ec FFF7FEFF 		bl	lsm6dsm_read_reg
 5130 00f0 9DF80420 		ldrb	r2, [sp, #4]	@ zero_extendqisi2
 5131 00f4 A378     		ldrb	r3, [r4, #2]	@ zero_extendqisi2
 5132 00f6 62F30003 		bfi	r3, r2, #0, #1
 5133 00fa A370     		strb	r3, [r4, #2]
 5134 00fc 8AE7     		b	.L627
 5136              		.section	.text.lsm6dsm_pin_mode_set,"ax",%progbits
 5137              		.align	1
 5138              		.global	lsm6dsm_pin_mode_set
 5139              		.syntax unified
 5140              		.thumb
 5141              		.thumb_func
 5143              	lsm6dsm_pin_mode_set:
 5144              		@ args = 0, pretend = 0, frame = 8
 5145              		@ frame_needed = 0, uses_anonymous_args = 0
 5146 0000 30B5     		push	{r4, r5, lr}
 5147 0002 83B0     		sub	sp, sp, #12
 5148 0004 0446     		mov	r4, r0
 5149 0006 0D46     		mov	r5, r1
ARM GAS  C:\Users\Nathan\AppData\Local\Temp\ccnGQm3b.s 			page 87


 5150 0008 0123     		movs	r3, #1
 5151 000a 01AA     		add	r2, sp, #4
 5152 000c 1221     		movs	r1, #18
 5153 000e FFF7FEFF 		bl	lsm6dsm_read_reg
 5154 0012 08B1     		cbz	r0, .L634
 5155              	.L631:
 5156 0014 03B0     		add	sp, sp, #12
 5157              		@ sp needed
 5158 0016 30BD     		pop	{r4, r5, pc}
 5159              	.L634:
 5160 0018 9DF80430 		ldrb	r3, [sp, #4]	@ zero_extendqisi2
 5161 001c 65F30413 		bfi	r3, r5, #4, #1
 5162 0020 8DF80430 		strb	r3, [sp, #4]
 5163 0024 0123     		movs	r3, #1
 5164 0026 01AA     		add	r2, sp, #4
 5165 0028 1221     		movs	r1, #18
 5166 002a 2046     		mov	r0, r4
 5167 002c FFF7FEFF 		bl	lsm6dsm_write_reg
 5168 0030 F0E7     		b	.L631
 5170              		.section	.text.lsm6dsm_pin_mode_get,"ax",%progbits
 5171              		.align	1
 5172              		.global	lsm6dsm_pin_mode_get
 5173              		.syntax unified
 5174              		.thumb
 5175              		.thumb_func
 5177              	lsm6dsm_pin_mode_get:
 5178              		@ args = 0, pretend = 0, frame = 8
 5179              		@ frame_needed = 0, uses_anonymous_args = 0
 5180 0000 10B5     		push	{r4, lr}
 5181 0002 82B0     		sub	sp, sp, #8
 5182 0004 0C46     		mov	r4, r1
 5183 0006 0123     		movs	r3, #1
 5184 0008 01AA     		add	r2, sp, #4
 5185 000a 1221     		movs	r1, #18
 5186 000c FFF7FEFF 		bl	lsm6dsm_read_reg
 5187 0010 9DF80430 		ldrb	r3, [sp, #4]	@ zero_extendqisi2
 5188 0014 C3F30012 		ubfx	r2, r3, #4, #1
 5189 0018 13F0100F 		tst	r3, #16
 5190 001c 03D0     		beq	.L636
 5191 001e 32B9     		cbnz	r2, .L637
 5192 0020 0023     		movs	r3, #0
 5193 0022 2370     		strb	r3, [r4]
 5194 0024 01E0     		b	.L635
 5195              	.L636:
 5196 0026 0023     		movs	r3, #0
 5197 0028 2370     		strb	r3, [r4]
 5198              	.L635:
 5199 002a 02B0     		add	sp, sp, #8
 5200              		@ sp needed
 5201 002c 10BD     		pop	{r4, pc}
 5202              	.L637:
 5203 002e 0123     		movs	r3, #1
 5204 0030 2370     		strb	r3, [r4]
 5205 0032 FAE7     		b	.L635
 5207              		.section	.text.lsm6dsm_pin_polarity_set,"ax",%progbits
 5208              		.align	1
 5209              		.global	lsm6dsm_pin_polarity_set
ARM GAS  C:\Users\Nathan\AppData\Local\Temp\ccnGQm3b.s 			page 88


 5210              		.syntax unified
 5211              		.thumb
 5212              		.thumb_func
 5214              	lsm6dsm_pin_polarity_set:
 5215              		@ args = 0, pretend = 0, frame = 8
 5216              		@ frame_needed = 0, uses_anonymous_args = 0
 5217 0000 30B5     		push	{r4, r5, lr}
 5218 0002 83B0     		sub	sp, sp, #12
 5219 0004 0446     		mov	r4, r0
 5220 0006 0D46     		mov	r5, r1
 5221 0008 0123     		movs	r3, #1
 5222 000a 01AA     		add	r2, sp, #4
 5223 000c 1221     		movs	r1, #18
 5224 000e FFF7FEFF 		bl	lsm6dsm_read_reg
 5225 0012 08B1     		cbz	r0, .L645
 5226              	.L642:
 5227 0014 03B0     		add	sp, sp, #12
 5228              		@ sp needed
 5229 0016 30BD     		pop	{r4, r5, pc}
 5230              	.L645:
 5231 0018 9DF80430 		ldrb	r3, [sp, #4]	@ zero_extendqisi2
 5232 001c 65F34513 		bfi	r3, r5, #5, #1
 5233 0020 8DF80430 		strb	r3, [sp, #4]
 5234 0024 0123     		movs	r3, #1
 5235 0026 01AA     		add	r2, sp, #4
 5236 0028 1221     		movs	r1, #18
 5237 002a 2046     		mov	r0, r4
 5238 002c FFF7FEFF 		bl	lsm6dsm_write_reg
 5239 0030 F0E7     		b	.L642
 5241              		.section	.text.lsm6dsm_pin_polarity_get,"ax",%progbits
 5242              		.align	1
 5243              		.global	lsm6dsm_pin_polarity_get
 5244              		.syntax unified
 5245              		.thumb
 5246              		.thumb_func
 5248              	lsm6dsm_pin_polarity_get:
 5249              		@ args = 0, pretend = 0, frame = 8
 5250              		@ frame_needed = 0, uses_anonymous_args = 0
 5251 0000 10B5     		push	{r4, lr}
 5252 0002 82B0     		sub	sp, sp, #8
 5253 0004 0C46     		mov	r4, r1
 5254 0006 0123     		movs	r3, #1
 5255 0008 01AA     		add	r2, sp, #4
 5256 000a 1221     		movs	r1, #18
 5257 000c FFF7FEFF 		bl	lsm6dsm_read_reg
 5258 0010 9DF80430 		ldrb	r3, [sp, #4]	@ zero_extendqisi2
 5259 0014 C3F34012 		ubfx	r2, r3, #5, #1
 5260 0018 13F0200F 		tst	r3, #32
 5261 001c 03D0     		beq	.L647
 5262 001e 32B9     		cbnz	r2, .L648
 5263 0020 0023     		movs	r3, #0
 5264 0022 2370     		strb	r3, [r4]
 5265 0024 01E0     		b	.L646
 5266              	.L647:
 5267 0026 0023     		movs	r3, #0
 5268 0028 2370     		strb	r3, [r4]
 5269              	.L646:
ARM GAS  C:\Users\Nathan\AppData\Local\Temp\ccnGQm3b.s 			page 89


 5270 002a 02B0     		add	sp, sp, #8
 5271              		@ sp needed
 5272 002c 10BD     		pop	{r4, pc}
 5273              	.L648:
 5274 002e 0123     		movs	r3, #1
 5275 0030 2370     		strb	r3, [r4]
 5276 0032 FAE7     		b	.L646
 5278              		.section	.text.lsm6dsm_all_on_int1_set,"ax",%progbits
 5279              		.align	1
 5280              		.global	lsm6dsm_all_on_int1_set
 5281              		.syntax unified
 5282              		.thumb
 5283              		.thumb_func
 5285              	lsm6dsm_all_on_int1_set:
 5286              		@ args = 0, pretend = 0, frame = 8
 5287              		@ frame_needed = 0, uses_anonymous_args = 0
 5288 0000 30B5     		push	{r4, r5, lr}
 5289 0002 83B0     		sub	sp, sp, #12
 5290 0004 0446     		mov	r4, r0
 5291 0006 0D46     		mov	r5, r1
 5292 0008 0123     		movs	r3, #1
 5293 000a 01AA     		add	r2, sp, #4
 5294 000c 1321     		movs	r1, #19
 5295 000e FFF7FEFF 		bl	lsm6dsm_read_reg
 5296 0012 08B1     		cbz	r0, .L656
 5297              	.L653:
 5298 0014 03B0     		add	sp, sp, #12
 5299              		@ sp needed
 5300 0016 30BD     		pop	{r4, r5, pc}
 5301              	.L656:
 5302 0018 9DF80430 		ldrb	r3, [sp, #4]	@ zero_extendqisi2
 5303 001c 65F34513 		bfi	r3, r5, #5, #1
 5304 0020 8DF80430 		strb	r3, [sp, #4]
 5305 0024 0123     		movs	r3, #1
 5306 0026 01AA     		add	r2, sp, #4
 5307 0028 1321     		movs	r1, #19
 5308 002a 2046     		mov	r0, r4
 5309 002c FFF7FEFF 		bl	lsm6dsm_write_reg
 5310 0030 F0E7     		b	.L653
 5312              		.section	.text.lsm6dsm_all_on_int1_get,"ax",%progbits
 5313              		.align	1
 5314              		.global	lsm6dsm_all_on_int1_get
 5315              		.syntax unified
 5316              		.thumb
 5317              		.thumb_func
 5319              	lsm6dsm_all_on_int1_get:
 5320              		@ args = 0, pretend = 0, frame = 8
 5321              		@ frame_needed = 0, uses_anonymous_args = 0
 5322 0000 10B5     		push	{r4, lr}
 5323 0002 82B0     		sub	sp, sp, #8
 5324 0004 0C46     		mov	r4, r1
 5325 0006 0123     		movs	r3, #1
 5326 0008 01AA     		add	r2, sp, #4
 5327 000a 1321     		movs	r1, #19
 5328 000c FFF7FEFF 		bl	lsm6dsm_read_reg
 5329 0010 9DF80430 		ldrb	r3, [sp, #4]	@ zero_extendqisi2
 5330 0014 C3F34013 		ubfx	r3, r3, #5, #1
ARM GAS  C:\Users\Nathan\AppData\Local\Temp\ccnGQm3b.s 			page 90


 5331 0018 2370     		strb	r3, [r4]
 5332 001a 02B0     		add	sp, sp, #8
 5333              		@ sp needed
 5334 001c 10BD     		pop	{r4, pc}
 5336              		.section	.text.lsm6dsm_int_notification_set,"ax",%progbits
 5337              		.align	1
 5338              		.global	lsm6dsm_int_notification_set
 5339              		.syntax unified
 5340              		.thumb
 5341              		.thumb_func
 5343              	lsm6dsm_int_notification_set:
 5344              		@ args = 0, pretend = 0, frame = 8
 5345              		@ frame_needed = 0, uses_anonymous_args = 0
 5346 0000 30B5     		push	{r4, r5, lr}
 5347 0002 83B0     		sub	sp, sp, #12
 5348 0004 0446     		mov	r4, r0
 5349 0006 0D46     		mov	r5, r1
 5350 0008 0123     		movs	r3, #1
 5351 000a 01AA     		add	r2, sp, #4
 5352 000c 5821     		movs	r1, #88
 5353 000e FFF7FEFF 		bl	lsm6dsm_read_reg
 5354 0012 08B1     		cbz	r0, .L662
 5355              	.L659:
 5356 0014 03B0     		add	sp, sp, #12
 5357              		@ sp needed
 5358 0016 30BD     		pop	{r4, r5, pc}
 5359              	.L662:
 5360 0018 9DF80430 		ldrb	r3, [sp, #4]	@ zero_extendqisi2
 5361 001c 65F30003 		bfi	r3, r5, #0, #1
 5362 0020 8DF80430 		strb	r3, [sp, #4]
 5363 0024 0123     		movs	r3, #1
 5364 0026 01AA     		add	r2, sp, #4
 5365 0028 5821     		movs	r1, #88
 5366 002a 2046     		mov	r0, r4
 5367 002c FFF7FEFF 		bl	lsm6dsm_write_reg
 5368 0030 F0E7     		b	.L659
 5370              		.section	.text.lsm6dsm_int_notification_get,"ax",%progbits
 5371              		.align	1
 5372              		.global	lsm6dsm_int_notification_get
 5373              		.syntax unified
 5374              		.thumb
 5375              		.thumb_func
 5377              	lsm6dsm_int_notification_get:
 5378              		@ args = 0, pretend = 0, frame = 8
 5379              		@ frame_needed = 0, uses_anonymous_args = 0
 5380 0000 10B5     		push	{r4, lr}
 5381 0002 82B0     		sub	sp, sp, #8
 5382 0004 0C46     		mov	r4, r1
 5383 0006 0123     		movs	r3, #1
 5384 0008 01AA     		add	r2, sp, #4
 5385 000a 5821     		movs	r1, #88
 5386 000c FFF7FEFF 		bl	lsm6dsm_read_reg
 5387 0010 9DF80430 		ldrb	r3, [sp, #4]	@ zero_extendqisi2
 5388 0014 13F00103 		ands	r3, r3, #1
 5389 0018 03D0     		beq	.L664
 5390 001a 33B9     		cbnz	r3, .L665
 5391 001c 0023     		movs	r3, #0
ARM GAS  C:\Users\Nathan\AppData\Local\Temp\ccnGQm3b.s 			page 91


 5392 001e 2370     		strb	r3, [r4]
 5393 0020 01E0     		b	.L663
 5394              	.L664:
 5395 0022 0023     		movs	r3, #0
 5396 0024 2370     		strb	r3, [r4]
 5397              	.L663:
 5398 0026 02B0     		add	sp, sp, #8
 5399              		@ sp needed
 5400 0028 10BD     		pop	{r4, pc}
 5401              	.L665:
 5402 002a 0123     		movs	r3, #1
 5403 002c 2370     		strb	r3, [r4]
 5404 002e FAE7     		b	.L663
 5406              		.section	.text.lsm6dsm_wkup_threshold_set,"ax",%progbits
 5407              		.align	1
 5408              		.global	lsm6dsm_wkup_threshold_set
 5409              		.syntax unified
 5410              		.thumb
 5411              		.thumb_func
 5413              	lsm6dsm_wkup_threshold_set:
 5414              		@ args = 0, pretend = 0, frame = 8
 5415              		@ frame_needed = 0, uses_anonymous_args = 0
 5416 0000 30B5     		push	{r4, r5, lr}
 5417 0002 83B0     		sub	sp, sp, #12
 5418 0004 0446     		mov	r4, r0
 5419 0006 0D46     		mov	r5, r1
 5420 0008 0123     		movs	r3, #1
 5421 000a 01AA     		add	r2, sp, #4
 5422 000c 5B21     		movs	r1, #91
 5423 000e FFF7FEFF 		bl	lsm6dsm_read_reg
 5424 0012 08B1     		cbz	r0, .L673
 5425              	.L670:
 5426 0014 03B0     		add	sp, sp, #12
 5427              		@ sp needed
 5428 0016 30BD     		pop	{r4, r5, pc}
 5429              	.L673:
 5430 0018 9DF80430 		ldrb	r3, [sp, #4]	@ zero_extendqisi2
 5431 001c 65F30503 		bfi	r3, r5, #0, #6
 5432 0020 8DF80430 		strb	r3, [sp, #4]
 5433 0024 0123     		movs	r3, #1
 5434 0026 01AA     		add	r2, sp, #4
 5435 0028 5B21     		movs	r1, #91
 5436 002a 2046     		mov	r0, r4
 5437 002c FFF7FEFF 		bl	lsm6dsm_write_reg
 5438 0030 F0E7     		b	.L670
 5440              		.section	.text.lsm6dsm_wkup_threshold_get,"ax",%progbits
 5441              		.align	1
 5442              		.global	lsm6dsm_wkup_threshold_get
 5443              		.syntax unified
 5444              		.thumb
 5445              		.thumb_func
 5447              	lsm6dsm_wkup_threshold_get:
 5448              		@ args = 0, pretend = 0, frame = 8
 5449              		@ frame_needed = 0, uses_anonymous_args = 0
 5450 0000 10B5     		push	{r4, lr}
 5451 0002 82B0     		sub	sp, sp, #8
 5452 0004 0C46     		mov	r4, r1
ARM GAS  C:\Users\Nathan\AppData\Local\Temp\ccnGQm3b.s 			page 92


 5453 0006 0123     		movs	r3, #1
 5454 0008 01AA     		add	r2, sp, #4
 5455 000a 5B21     		movs	r1, #91
 5456 000c FFF7FEFF 		bl	lsm6dsm_read_reg
 5457 0010 9DF80430 		ldrb	r3, [sp, #4]	@ zero_extendqisi2
 5458 0014 C3F30503 		ubfx	r3, r3, #0, #6
 5459 0018 2370     		strb	r3, [r4]
 5460 001a 02B0     		add	sp, sp, #8
 5461              		@ sp needed
 5462 001c 10BD     		pop	{r4, pc}
 5464              		.section	.text.lsm6dsm_wkup_dur_set,"ax",%progbits
 5465              		.align	1
 5466              		.global	lsm6dsm_wkup_dur_set
 5467              		.syntax unified
 5468              		.thumb
 5469              		.thumb_func
 5471              	lsm6dsm_wkup_dur_set:
 5472              		@ args = 0, pretend = 0, frame = 8
 5473              		@ frame_needed = 0, uses_anonymous_args = 0
 5474 0000 30B5     		push	{r4, r5, lr}
 5475 0002 83B0     		sub	sp, sp, #12
 5476 0004 0446     		mov	r4, r0
 5477 0006 0D46     		mov	r5, r1
 5478 0008 0123     		movs	r3, #1
 5479 000a 01AA     		add	r2, sp, #4
 5480 000c 5C21     		movs	r1, #92
 5481 000e FFF7FEFF 		bl	lsm6dsm_read_reg
 5482 0012 08B1     		cbz	r0, .L679
 5483              	.L676:
 5484 0014 03B0     		add	sp, sp, #12
 5485              		@ sp needed
 5486 0016 30BD     		pop	{r4, r5, pc}
 5487              	.L679:
 5488 0018 9DF80430 		ldrb	r3, [sp, #4]	@ zero_extendqisi2
 5489 001c 65F34613 		bfi	r3, r5, #5, #2
 5490 0020 8DF80430 		strb	r3, [sp, #4]
 5491 0024 0123     		movs	r3, #1
 5492 0026 01AA     		add	r2, sp, #4
 5493 0028 5C21     		movs	r1, #92
 5494 002a 2046     		mov	r0, r4
 5495 002c FFF7FEFF 		bl	lsm6dsm_write_reg
 5496 0030 F0E7     		b	.L676
 5498              		.section	.text.lsm6dsm_wkup_dur_get,"ax",%progbits
 5499              		.align	1
 5500              		.global	lsm6dsm_wkup_dur_get
 5501              		.syntax unified
 5502              		.thumb
 5503              		.thumb_func
 5505              	lsm6dsm_wkup_dur_get:
 5506              		@ args = 0, pretend = 0, frame = 8
 5507              		@ frame_needed = 0, uses_anonymous_args = 0
 5508 0000 10B5     		push	{r4, lr}
 5509 0002 82B0     		sub	sp, sp, #8
 5510 0004 0C46     		mov	r4, r1
 5511 0006 0123     		movs	r3, #1
 5512 0008 01AA     		add	r2, sp, #4
 5513 000a 5C21     		movs	r1, #92
ARM GAS  C:\Users\Nathan\AppData\Local\Temp\ccnGQm3b.s 			page 93


 5514 000c FFF7FEFF 		bl	lsm6dsm_read_reg
 5515 0010 9DF80430 		ldrb	r3, [sp, #4]	@ zero_extendqisi2
 5516 0014 C3F34113 		ubfx	r3, r3, #5, #2
 5517 0018 2370     		strb	r3, [r4]
 5518 001a 02B0     		add	sp, sp, #8
 5519              		@ sp needed
 5520 001c 10BD     		pop	{r4, pc}
 5522              		.section	.text.lsm6dsm_gy_sleep_mode_set,"ax",%progbits
 5523              		.align	1
 5524              		.global	lsm6dsm_gy_sleep_mode_set
 5525              		.syntax unified
 5526              		.thumb
 5527              		.thumb_func
 5529              	lsm6dsm_gy_sleep_mode_set:
 5530              		@ args = 0, pretend = 0, frame = 8
 5531              		@ frame_needed = 0, uses_anonymous_args = 0
 5532 0000 30B5     		push	{r4, r5, lr}
 5533 0002 83B0     		sub	sp, sp, #12
 5534 0004 0446     		mov	r4, r0
 5535 0006 0D46     		mov	r5, r1
 5536 0008 0123     		movs	r3, #1
 5537 000a 01AA     		add	r2, sp, #4
 5538 000c 1321     		movs	r1, #19
 5539 000e FFF7FEFF 		bl	lsm6dsm_read_reg
 5540 0012 08B1     		cbz	r0, .L685
 5541              	.L682:
 5542 0014 03B0     		add	sp, sp, #12
 5543              		@ sp needed
 5544 0016 30BD     		pop	{r4, r5, pc}
 5545              	.L685:
 5546 0018 9DF80430 		ldrb	r3, [sp, #4]	@ zero_extendqisi2
 5547 001c 65F38613 		bfi	r3, r5, #6, #1
 5548 0020 8DF80430 		strb	r3, [sp, #4]
 5549 0024 0123     		movs	r3, #1
 5550 0026 01AA     		add	r2, sp, #4
 5551 0028 1321     		movs	r1, #19
 5552 002a 2046     		mov	r0, r4
 5553 002c FFF7FEFF 		bl	lsm6dsm_write_reg
 5554 0030 F0E7     		b	.L682
 5556              		.section	.text.lsm6dsm_gy_sleep_mode_get,"ax",%progbits
 5557              		.align	1
 5558              		.global	lsm6dsm_gy_sleep_mode_get
 5559              		.syntax unified
 5560              		.thumb
 5561              		.thumb_func
 5563              	lsm6dsm_gy_sleep_mode_get:
 5564              		@ args = 0, pretend = 0, frame = 8
 5565              		@ frame_needed = 0, uses_anonymous_args = 0
 5566 0000 10B5     		push	{r4, lr}
 5567 0002 82B0     		sub	sp, sp, #8
 5568 0004 0C46     		mov	r4, r1
 5569 0006 0123     		movs	r3, #1
 5570 0008 01AA     		add	r2, sp, #4
 5571 000a 1321     		movs	r1, #19
 5572 000c FFF7FEFF 		bl	lsm6dsm_read_reg
 5573 0010 9DF80430 		ldrb	r3, [sp, #4]	@ zero_extendqisi2
 5574 0014 C3F38013 		ubfx	r3, r3, #6, #1
ARM GAS  C:\Users\Nathan\AppData\Local\Temp\ccnGQm3b.s 			page 94


 5575 0018 2370     		strb	r3, [r4]
 5576 001a 02B0     		add	sp, sp, #8
 5577              		@ sp needed
 5578 001c 10BD     		pop	{r4, pc}
 5580              		.section	.text.lsm6dsm_act_mode_set,"ax",%progbits
 5581              		.align	1
 5582              		.global	lsm6dsm_act_mode_set
 5583              		.syntax unified
 5584              		.thumb
 5585              		.thumb_func
 5587              	lsm6dsm_act_mode_set:
 5588              		@ args = 0, pretend = 0, frame = 8
 5589              		@ frame_needed = 0, uses_anonymous_args = 0
 5590 0000 30B5     		push	{r4, r5, lr}
 5591 0002 83B0     		sub	sp, sp, #12
 5592 0004 0446     		mov	r4, r0
 5593 0006 0D46     		mov	r5, r1
 5594 0008 0123     		movs	r3, #1
 5595 000a 01AA     		add	r2, sp, #4
 5596 000c 5821     		movs	r1, #88
 5597 000e FFF7FEFF 		bl	lsm6dsm_read_reg
 5598 0012 08B1     		cbz	r0, .L691
 5599              	.L688:
 5600 0014 03B0     		add	sp, sp, #12
 5601              		@ sp needed
 5602 0016 30BD     		pop	{r4, r5, pc}
 5603              	.L691:
 5604 0018 9DF80430 		ldrb	r3, [sp, #4]	@ zero_extendqisi2
 5605 001c 65F34613 		bfi	r3, r5, #5, #2
 5606 0020 8DF80430 		strb	r3, [sp, #4]
 5607 0024 0123     		movs	r3, #1
 5608 0026 01AA     		add	r2, sp, #4
 5609 0028 5821     		movs	r1, #88
 5610 002a 2046     		mov	r0, r4
 5611 002c FFF7FEFF 		bl	lsm6dsm_write_reg
 5612 0030 F0E7     		b	.L688
 5614              		.section	.text.lsm6dsm_act_mode_get,"ax",%progbits
 5615              		.align	1
 5616              		.global	lsm6dsm_act_mode_get
 5617              		.syntax unified
 5618              		.thumb
 5619              		.thumb_func
 5621              	lsm6dsm_act_mode_get:
 5622              		@ args = 0, pretend = 0, frame = 8
 5623              		@ frame_needed = 0, uses_anonymous_args = 0
 5624 0000 10B5     		push	{r4, lr}
 5625 0002 82B0     		sub	sp, sp, #8
 5626 0004 0C46     		mov	r4, r1
 5627 0006 0123     		movs	r3, #1
 5628 0008 01AA     		add	r2, sp, #4
 5629 000a 5821     		movs	r1, #88
 5630 000c FFF7FEFF 		bl	lsm6dsm_read_reg
 5631 0010 9DF80430 		ldrb	r3, [sp, #4]	@ zero_extendqisi2
 5632 0014 C3F34113 		ubfx	r3, r3, #5, #2
 5633 0018 032B     		cmp	r3, #3
 5634 001a 10D8     		bhi	.L693
 5635 001c DFE803F0 		tbb	[pc, r3]
ARM GAS  C:\Users\Nathan\AppData\Local\Temp\ccnGQm3b.s 			page 95


 5636              	.L695:
 5637 0020 02       		.byte	(.L698-.L695)/2
 5638 0021 06       		.byte	(.L697-.L695)/2
 5639 0022 09       		.byte	(.L696-.L695)/2
 5640 0023 0C       		.byte	(.L694-.L695)/2
 5641              		.p2align 1
 5642              	.L698:
 5643 0024 0023     		movs	r3, #0
 5644 0026 2370     		strb	r3, [r4]
 5645              	.L692:
 5646 0028 02B0     		add	sp, sp, #8
 5647              		@ sp needed
 5648 002a 10BD     		pop	{r4, pc}
 5649              	.L697:
 5650 002c 0123     		movs	r3, #1
 5651 002e 2370     		strb	r3, [r4]
 5652 0030 FAE7     		b	.L692
 5653              	.L696:
 5654 0032 0223     		movs	r3, #2
 5655 0034 2370     		strb	r3, [r4]
 5656 0036 F7E7     		b	.L692
 5657              	.L694:
 5658 0038 0323     		movs	r3, #3
 5659 003a 2370     		strb	r3, [r4]
 5660 003c F4E7     		b	.L692
 5661              	.L693:
 5662 003e 0023     		movs	r3, #0
 5663 0040 2370     		strb	r3, [r4]
 5664 0042 F1E7     		b	.L692
 5666              		.section	.text.lsm6dsm_act_sleep_dur_set,"ax",%progbits
 5667              		.align	1
 5668              		.global	lsm6dsm_act_sleep_dur_set
 5669              		.syntax unified
 5670              		.thumb
 5671              		.thumb_func
 5673              	lsm6dsm_act_sleep_dur_set:
 5674              		@ args = 0, pretend = 0, frame = 8
 5675              		@ frame_needed = 0, uses_anonymous_args = 0
 5676 0000 30B5     		push	{r4, r5, lr}
 5677 0002 83B0     		sub	sp, sp, #12
 5678 0004 0446     		mov	r4, r0
 5679 0006 0D46     		mov	r5, r1
 5680 0008 0123     		movs	r3, #1
 5681 000a 01AA     		add	r2, sp, #4
 5682 000c 5C21     		movs	r1, #92
 5683 000e FFF7FEFF 		bl	lsm6dsm_read_reg
 5684 0012 08B1     		cbz	r0, .L704
 5685              	.L701:
 5686 0014 03B0     		add	sp, sp, #12
 5687              		@ sp needed
 5688 0016 30BD     		pop	{r4, r5, pc}
 5689              	.L704:
 5690 0018 9DF80430 		ldrb	r3, [sp, #4]	@ zero_extendqisi2
 5691 001c 65F30303 		bfi	r3, r5, #0, #4
 5692 0020 8DF80430 		strb	r3, [sp, #4]
 5693 0024 0123     		movs	r3, #1
 5694 0026 01AA     		add	r2, sp, #4
ARM GAS  C:\Users\Nathan\AppData\Local\Temp\ccnGQm3b.s 			page 96


 5695 0028 5C21     		movs	r1, #92
 5696 002a 2046     		mov	r0, r4
 5697 002c FFF7FEFF 		bl	lsm6dsm_write_reg
 5698 0030 F0E7     		b	.L701
 5700              		.section	.text.lsm6dsm_act_sleep_dur_get,"ax",%progbits
 5701              		.align	1
 5702              		.global	lsm6dsm_act_sleep_dur_get
 5703              		.syntax unified
 5704              		.thumb
 5705              		.thumb_func
 5707              	lsm6dsm_act_sleep_dur_get:
 5708              		@ args = 0, pretend = 0, frame = 8
 5709              		@ frame_needed = 0, uses_anonymous_args = 0
 5710 0000 10B5     		push	{r4, lr}
 5711 0002 82B0     		sub	sp, sp, #8
 5712 0004 0C46     		mov	r4, r1
 5713 0006 0123     		movs	r3, #1
 5714 0008 01AA     		add	r2, sp, #4
 5715 000a 5C21     		movs	r1, #92
 5716 000c FFF7FEFF 		bl	lsm6dsm_read_reg
 5717 0010 9DF80430 		ldrb	r3, [sp, #4]	@ zero_extendqisi2
 5718 0014 C3F30303 		ubfx	r3, r3, #0, #4
 5719 0018 2370     		strb	r3, [r4]
 5720 001a 02B0     		add	sp, sp, #8
 5721              		@ sp needed
 5722 001c 10BD     		pop	{r4, pc}
 5724              		.section	.text.lsm6dsm_tap_src_get,"ax",%progbits
 5725              		.align	1
 5726              		.global	lsm6dsm_tap_src_get
 5727              		.syntax unified
 5728              		.thumb
 5729              		.thumb_func
 5731              	lsm6dsm_tap_src_get:
 5732              		@ args = 0, pretend = 0, frame = 0
 5733              		@ frame_needed = 0, uses_anonymous_args = 0
 5734 0000 08B5     		push	{r3, lr}
 5735 0002 0A46     		mov	r2, r1
 5736 0004 0123     		movs	r3, #1
 5737 0006 1C21     		movs	r1, #28
 5738 0008 FFF7FEFF 		bl	lsm6dsm_read_reg
 5739 000c 08BD     		pop	{r3, pc}
 5741              		.section	.text.lsm6dsm_tap_detection_on_z_set,"ax",%progbits
 5742              		.align	1
 5743              		.global	lsm6dsm_tap_detection_on_z_set
 5744              		.syntax unified
 5745              		.thumb
 5746              		.thumb_func
 5748              	lsm6dsm_tap_detection_on_z_set:
 5749              		@ args = 0, pretend = 0, frame = 8
 5750              		@ frame_needed = 0, uses_anonymous_args = 0
 5751 0000 30B5     		push	{r4, r5, lr}
 5752 0002 83B0     		sub	sp, sp, #12
 5753 0004 0446     		mov	r4, r0
 5754 0006 0D46     		mov	r5, r1
 5755 0008 0123     		movs	r3, #1
 5756 000a 01AA     		add	r2, sp, #4
 5757 000c 5821     		movs	r1, #88
ARM GAS  C:\Users\Nathan\AppData\Local\Temp\ccnGQm3b.s 			page 97


 5758 000e FFF7FEFF 		bl	lsm6dsm_read_reg
 5759 0012 08B1     		cbz	r0, .L712
 5760              	.L709:
 5761 0014 03B0     		add	sp, sp, #12
 5762              		@ sp needed
 5763 0016 30BD     		pop	{r4, r5, pc}
 5764              	.L712:
 5765 0018 9DF80430 		ldrb	r3, [sp, #4]	@ zero_extendqisi2
 5766 001c 65F34103 		bfi	r3, r5, #1, #1
 5767 0020 8DF80430 		strb	r3, [sp, #4]
 5768 0024 0123     		movs	r3, #1
 5769 0026 01AA     		add	r2, sp, #4
 5770 0028 5821     		movs	r1, #88
 5771 002a 2046     		mov	r0, r4
 5772 002c FFF7FEFF 		bl	lsm6dsm_write_reg
 5773 0030 F0E7     		b	.L709
 5775              		.section	.text.lsm6dsm_tap_detection_on_z_get,"ax",%progbits
 5776              		.align	1
 5777              		.global	lsm6dsm_tap_detection_on_z_get
 5778              		.syntax unified
 5779              		.thumb
 5780              		.thumb_func
 5782              	lsm6dsm_tap_detection_on_z_get:
 5783              		@ args = 0, pretend = 0, frame = 8
 5784              		@ frame_needed = 0, uses_anonymous_args = 0
 5785 0000 10B5     		push	{r4, lr}
 5786 0002 82B0     		sub	sp, sp, #8
 5787 0004 0C46     		mov	r4, r1
 5788 0006 0123     		movs	r3, #1
 5789 0008 01AA     		add	r2, sp, #4
 5790 000a 5821     		movs	r1, #88
 5791 000c FFF7FEFF 		bl	lsm6dsm_read_reg
 5792 0010 9DF80430 		ldrb	r3, [sp, #4]	@ zero_extendqisi2
 5793 0014 C3F34003 		ubfx	r3, r3, #1, #1
 5794 0018 2370     		strb	r3, [r4]
 5795 001a 02B0     		add	sp, sp, #8
 5796              		@ sp needed
 5797 001c 10BD     		pop	{r4, pc}
 5799              		.section	.text.lsm6dsm_tap_detection_on_y_set,"ax",%progbits
 5800              		.align	1
 5801              		.global	lsm6dsm_tap_detection_on_y_set
 5802              		.syntax unified
 5803              		.thumb
 5804              		.thumb_func
 5806              	lsm6dsm_tap_detection_on_y_set:
 5807              		@ args = 0, pretend = 0, frame = 8
 5808              		@ frame_needed = 0, uses_anonymous_args = 0
 5809 0000 30B5     		push	{r4, r5, lr}
 5810 0002 83B0     		sub	sp, sp, #12
 5811 0004 0446     		mov	r4, r0
 5812 0006 0D46     		mov	r5, r1
 5813 0008 0123     		movs	r3, #1
 5814 000a 01AA     		add	r2, sp, #4
 5815 000c 5821     		movs	r1, #88
 5816 000e FFF7FEFF 		bl	lsm6dsm_read_reg
 5817 0012 08B1     		cbz	r0, .L718
 5818              	.L715:
ARM GAS  C:\Users\Nathan\AppData\Local\Temp\ccnGQm3b.s 			page 98


 5819 0014 03B0     		add	sp, sp, #12
 5820              		@ sp needed
 5821 0016 30BD     		pop	{r4, r5, pc}
 5822              	.L718:
 5823 0018 9DF80430 		ldrb	r3, [sp, #4]	@ zero_extendqisi2
 5824 001c 65F38203 		bfi	r3, r5, #2, #1
 5825 0020 8DF80430 		strb	r3, [sp, #4]
 5826 0024 0123     		movs	r3, #1
 5827 0026 01AA     		add	r2, sp, #4
 5828 0028 5821     		movs	r1, #88
 5829 002a 2046     		mov	r0, r4
 5830 002c FFF7FEFF 		bl	lsm6dsm_write_reg
 5831 0030 F0E7     		b	.L715
 5833              		.section	.text.lsm6dsm_tap_detection_on_y_get,"ax",%progbits
 5834              		.align	1
 5835              		.global	lsm6dsm_tap_detection_on_y_get
 5836              		.syntax unified
 5837              		.thumb
 5838              		.thumb_func
 5840              	lsm6dsm_tap_detection_on_y_get:
 5841              		@ args = 0, pretend = 0, frame = 8
 5842              		@ frame_needed = 0, uses_anonymous_args = 0
 5843 0000 10B5     		push	{r4, lr}
 5844 0002 82B0     		sub	sp, sp, #8
 5845 0004 0C46     		mov	r4, r1
 5846 0006 0123     		movs	r3, #1
 5847 0008 01AA     		add	r2, sp, #4
 5848 000a 5821     		movs	r1, #88
 5849 000c FFF7FEFF 		bl	lsm6dsm_read_reg
 5850 0010 9DF80430 		ldrb	r3, [sp, #4]	@ zero_extendqisi2
 5851 0014 C3F38003 		ubfx	r3, r3, #2, #1
 5852 0018 2370     		strb	r3, [r4]
 5853 001a 02B0     		add	sp, sp, #8
 5854              		@ sp needed
 5855 001c 10BD     		pop	{r4, pc}
 5857              		.section	.text.lsm6dsm_tap_detection_on_x_set,"ax",%progbits
 5858              		.align	1
 5859              		.global	lsm6dsm_tap_detection_on_x_set
 5860              		.syntax unified
 5861              		.thumb
 5862              		.thumb_func
 5864              	lsm6dsm_tap_detection_on_x_set:
 5865              		@ args = 0, pretend = 0, frame = 8
 5866              		@ frame_needed = 0, uses_anonymous_args = 0
 5867 0000 30B5     		push	{r4, r5, lr}
 5868 0002 83B0     		sub	sp, sp, #12
 5869 0004 0446     		mov	r4, r0
 5870 0006 0D46     		mov	r5, r1
 5871 0008 0123     		movs	r3, #1
 5872 000a 01AA     		add	r2, sp, #4
 5873 000c 5821     		movs	r1, #88
 5874 000e FFF7FEFF 		bl	lsm6dsm_read_reg
 5875 0012 08B1     		cbz	r0, .L724
 5876              	.L721:
 5877 0014 03B0     		add	sp, sp, #12
 5878              		@ sp needed
 5879 0016 30BD     		pop	{r4, r5, pc}
ARM GAS  C:\Users\Nathan\AppData\Local\Temp\ccnGQm3b.s 			page 99


 5880              	.L724:
 5881 0018 9DF80430 		ldrb	r3, [sp, #4]	@ zero_extendqisi2
 5882 001c 65F3C303 		bfi	r3, r5, #3, #1
 5883 0020 8DF80430 		strb	r3, [sp, #4]
 5884 0024 0123     		movs	r3, #1
 5885 0026 01AA     		add	r2, sp, #4
 5886 0028 5821     		movs	r1, #88
 5887 002a 2046     		mov	r0, r4
 5888 002c FFF7FEFF 		bl	lsm6dsm_write_reg
 5889 0030 F0E7     		b	.L721
 5891              		.section	.text.lsm6dsm_tap_detection_on_x_get,"ax",%progbits
 5892              		.align	1
 5893              		.global	lsm6dsm_tap_detection_on_x_get
 5894              		.syntax unified
 5895              		.thumb
 5896              		.thumb_func
 5898              	lsm6dsm_tap_detection_on_x_get:
 5899              		@ args = 0, pretend = 0, frame = 8
 5900              		@ frame_needed = 0, uses_anonymous_args = 0
 5901 0000 10B5     		push	{r4, lr}
 5902 0002 82B0     		sub	sp, sp, #8
 5903 0004 0C46     		mov	r4, r1
 5904 0006 0123     		movs	r3, #1
 5905 0008 01AA     		add	r2, sp, #4
 5906 000a 5821     		movs	r1, #88
 5907 000c FFF7FEFF 		bl	lsm6dsm_read_reg
 5908 0010 9DF80430 		ldrb	r3, [sp, #4]	@ zero_extendqisi2
 5909 0014 C3F3C003 		ubfx	r3, r3, #3, #1
 5910 0018 2370     		strb	r3, [r4]
 5911 001a 02B0     		add	sp, sp, #8
 5912              		@ sp needed
 5913 001c 10BD     		pop	{r4, pc}
 5915              		.section	.text.lsm6dsm_tap_threshold_x_set,"ax",%progbits
 5916              		.align	1
 5917              		.global	lsm6dsm_tap_threshold_x_set
 5918              		.syntax unified
 5919              		.thumb
 5920              		.thumb_func
 5922              	lsm6dsm_tap_threshold_x_set:
 5923              		@ args = 0, pretend = 0, frame = 8
 5924              		@ frame_needed = 0, uses_anonymous_args = 0
 5925 0000 30B5     		push	{r4, r5, lr}
 5926 0002 83B0     		sub	sp, sp, #12
 5927 0004 0446     		mov	r4, r0
 5928 0006 0D46     		mov	r5, r1
 5929 0008 0123     		movs	r3, #1
 5930 000a 01AA     		add	r2, sp, #4
 5931 000c 5921     		movs	r1, #89
 5932 000e FFF7FEFF 		bl	lsm6dsm_read_reg
 5933 0012 08B1     		cbz	r0, .L730
 5934              	.L727:
 5935 0014 03B0     		add	sp, sp, #12
 5936              		@ sp needed
 5937 0016 30BD     		pop	{r4, r5, pc}
 5938              	.L730:
 5939 0018 9DF80430 		ldrb	r3, [sp, #4]	@ zero_extendqisi2
 5940 001c 65F30403 		bfi	r3, r5, #0, #5
ARM GAS  C:\Users\Nathan\AppData\Local\Temp\ccnGQm3b.s 			page 100


 5941 0020 8DF80430 		strb	r3, [sp, #4]
 5942 0024 0123     		movs	r3, #1
 5943 0026 01AA     		add	r2, sp, #4
 5944 0028 5921     		movs	r1, #89
 5945 002a 2046     		mov	r0, r4
 5946 002c FFF7FEFF 		bl	lsm6dsm_write_reg
 5947 0030 F0E7     		b	.L727
 5949              		.section	.text.lsm6dsm_tap_threshold_x_get,"ax",%progbits
 5950              		.align	1
 5951              		.global	lsm6dsm_tap_threshold_x_get
 5952              		.syntax unified
 5953              		.thumb
 5954              		.thumb_func
 5956              	lsm6dsm_tap_threshold_x_get:
 5957              		@ args = 0, pretend = 0, frame = 8
 5958              		@ frame_needed = 0, uses_anonymous_args = 0
 5959 0000 10B5     		push	{r4, lr}
 5960 0002 82B0     		sub	sp, sp, #8
 5961 0004 0C46     		mov	r4, r1
 5962 0006 0123     		movs	r3, #1
 5963 0008 01AA     		add	r2, sp, #4
 5964 000a 5921     		movs	r1, #89
 5965 000c FFF7FEFF 		bl	lsm6dsm_read_reg
 5966 0010 9DF80430 		ldrb	r3, [sp, #4]	@ zero_extendqisi2
 5967 0014 C3F30403 		ubfx	r3, r3, #0, #5
 5968 0018 2370     		strb	r3, [r4]
 5969 001a 02B0     		add	sp, sp, #8
 5970              		@ sp needed
 5971 001c 10BD     		pop	{r4, pc}
 5973              		.section	.text.lsm6dsm_tap_shock_set,"ax",%progbits
 5974              		.align	1
 5975              		.global	lsm6dsm_tap_shock_set
 5976              		.syntax unified
 5977              		.thumb
 5978              		.thumb_func
 5980              	lsm6dsm_tap_shock_set:
 5981              		@ args = 0, pretend = 0, frame = 8
 5982              		@ frame_needed = 0, uses_anonymous_args = 0
 5983 0000 30B5     		push	{r4, r5, lr}
 5984 0002 83B0     		sub	sp, sp, #12
 5985 0004 0446     		mov	r4, r0
 5986 0006 0D46     		mov	r5, r1
 5987 0008 0123     		movs	r3, #1
 5988 000a 01AA     		add	r2, sp, #4
 5989 000c 5A21     		movs	r1, #90
 5990 000e FFF7FEFF 		bl	lsm6dsm_read_reg
 5991 0012 08B1     		cbz	r0, .L736
 5992              	.L733:
 5993 0014 03B0     		add	sp, sp, #12
 5994              		@ sp needed
 5995 0016 30BD     		pop	{r4, r5, pc}
 5996              	.L736:
 5997 0018 9DF80430 		ldrb	r3, [sp, #4]	@ zero_extendqisi2
 5998 001c 65F30103 		bfi	r3, r5, #0, #2
 5999 0020 8DF80430 		strb	r3, [sp, #4]
 6000 0024 0123     		movs	r3, #1
 6001 0026 01AA     		add	r2, sp, #4
ARM GAS  C:\Users\Nathan\AppData\Local\Temp\ccnGQm3b.s 			page 101


 6002 0028 5A21     		movs	r1, #90
 6003 002a 2046     		mov	r0, r4
 6004 002c FFF7FEFF 		bl	lsm6dsm_write_reg
 6005 0030 F0E7     		b	.L733
 6007              		.section	.text.lsm6dsm_tap_shock_get,"ax",%progbits
 6008              		.align	1
 6009              		.global	lsm6dsm_tap_shock_get
 6010              		.syntax unified
 6011              		.thumb
 6012              		.thumb_func
 6014              	lsm6dsm_tap_shock_get:
 6015              		@ args = 0, pretend = 0, frame = 8
 6016              		@ frame_needed = 0, uses_anonymous_args = 0
 6017 0000 10B5     		push	{r4, lr}
 6018 0002 82B0     		sub	sp, sp, #8
 6019 0004 0C46     		mov	r4, r1
 6020 0006 0123     		movs	r3, #1
 6021 0008 01AA     		add	r2, sp, #4
 6022 000a 5A21     		movs	r1, #90
 6023 000c FFF7FEFF 		bl	lsm6dsm_read_reg
 6024 0010 9DF80430 		ldrb	r3, [sp, #4]	@ zero_extendqisi2
 6025 0014 C3F30103 		ubfx	r3, r3, #0, #2
 6026 0018 2370     		strb	r3, [r4]
 6027 001a 02B0     		add	sp, sp, #8
 6028              		@ sp needed
 6029 001c 10BD     		pop	{r4, pc}
 6031              		.section	.text.lsm6dsm_tap_quiet_set,"ax",%progbits
 6032              		.align	1
 6033              		.global	lsm6dsm_tap_quiet_set
 6034              		.syntax unified
 6035              		.thumb
 6036              		.thumb_func
 6038              	lsm6dsm_tap_quiet_set:
 6039              		@ args = 0, pretend = 0, frame = 8
 6040              		@ frame_needed = 0, uses_anonymous_args = 0
 6041 0000 30B5     		push	{r4, r5, lr}
 6042 0002 83B0     		sub	sp, sp, #12
 6043 0004 0446     		mov	r4, r0
 6044 0006 0D46     		mov	r5, r1
 6045 0008 0123     		movs	r3, #1
 6046 000a 01AA     		add	r2, sp, #4
 6047 000c 5A21     		movs	r1, #90
 6048 000e FFF7FEFF 		bl	lsm6dsm_read_reg
 6049 0012 08B1     		cbz	r0, .L742
 6050              	.L739:
 6051 0014 03B0     		add	sp, sp, #12
 6052              		@ sp needed
 6053 0016 30BD     		pop	{r4, r5, pc}
 6054              	.L742:
 6055 0018 9DF80430 		ldrb	r3, [sp, #4]	@ zero_extendqisi2
 6056 001c 65F38303 		bfi	r3, r5, #2, #2
 6057 0020 8DF80430 		strb	r3, [sp, #4]
 6058 0024 0123     		movs	r3, #1
 6059 0026 01AA     		add	r2, sp, #4
 6060 0028 5A21     		movs	r1, #90
 6061 002a 2046     		mov	r0, r4
 6062 002c FFF7FEFF 		bl	lsm6dsm_write_reg
ARM GAS  C:\Users\Nathan\AppData\Local\Temp\ccnGQm3b.s 			page 102


 6063 0030 F0E7     		b	.L739
 6065              		.section	.text.lsm6dsm_tap_quiet_get,"ax",%progbits
 6066              		.align	1
 6067              		.global	lsm6dsm_tap_quiet_get
 6068              		.syntax unified
 6069              		.thumb
 6070              		.thumb_func
 6072              	lsm6dsm_tap_quiet_get:
 6073              		@ args = 0, pretend = 0, frame = 8
 6074              		@ frame_needed = 0, uses_anonymous_args = 0
 6075 0000 10B5     		push	{r4, lr}
 6076 0002 82B0     		sub	sp, sp, #8
 6077 0004 0C46     		mov	r4, r1
 6078 0006 0123     		movs	r3, #1
 6079 0008 01AA     		add	r2, sp, #4
 6080 000a 5A21     		movs	r1, #90
 6081 000c FFF7FEFF 		bl	lsm6dsm_read_reg
 6082 0010 9DF80430 		ldrb	r3, [sp, #4]	@ zero_extendqisi2
 6083 0014 C3F38103 		ubfx	r3, r3, #2, #2
 6084 0018 2370     		strb	r3, [r4]
 6085 001a 02B0     		add	sp, sp, #8
 6086              		@ sp needed
 6087 001c 10BD     		pop	{r4, pc}
 6089              		.section	.text.lsm6dsm_tap_dur_set,"ax",%progbits
 6090              		.align	1
 6091              		.global	lsm6dsm_tap_dur_set
 6092              		.syntax unified
 6093              		.thumb
 6094              		.thumb_func
 6096              	lsm6dsm_tap_dur_set:
 6097              		@ args = 0, pretend = 0, frame = 8
 6098              		@ frame_needed = 0, uses_anonymous_args = 0
 6099 0000 30B5     		push	{r4, r5, lr}
 6100 0002 83B0     		sub	sp, sp, #12
 6101 0004 0446     		mov	r4, r0
 6102 0006 0D46     		mov	r5, r1
 6103 0008 0123     		movs	r3, #1
 6104 000a 01AA     		add	r2, sp, #4
 6105 000c 5A21     		movs	r1, #90
 6106 000e FFF7FEFF 		bl	lsm6dsm_read_reg
 6107 0012 08B1     		cbz	r0, .L748
 6108              	.L745:
 6109 0014 03B0     		add	sp, sp, #12
 6110              		@ sp needed
 6111 0016 30BD     		pop	{r4, r5, pc}
 6112              	.L748:
 6113 0018 9DF80430 		ldrb	r3, [sp, #4]	@ zero_extendqisi2
 6114 001c 65F30713 		bfi	r3, r5, #4, #4
 6115 0020 8DF80430 		strb	r3, [sp, #4]
 6116 0024 0123     		movs	r3, #1
 6117 0026 01AA     		add	r2, sp, #4
 6118 0028 5A21     		movs	r1, #90
 6119 002a 2046     		mov	r0, r4
 6120 002c FFF7FEFF 		bl	lsm6dsm_write_reg
 6121 0030 F0E7     		b	.L745
 6123              		.section	.text.lsm6dsm_tap_dur_get,"ax",%progbits
 6124              		.align	1
ARM GAS  C:\Users\Nathan\AppData\Local\Temp\ccnGQm3b.s 			page 103


 6125              		.global	lsm6dsm_tap_dur_get
 6126              		.syntax unified
 6127              		.thumb
 6128              		.thumb_func
 6130              	lsm6dsm_tap_dur_get:
 6131              		@ args = 0, pretend = 0, frame = 8
 6132              		@ frame_needed = 0, uses_anonymous_args = 0
 6133 0000 10B5     		push	{r4, lr}
 6134 0002 82B0     		sub	sp, sp, #8
 6135 0004 0C46     		mov	r4, r1
 6136 0006 0123     		movs	r3, #1
 6137 0008 01AA     		add	r2, sp, #4
 6138 000a 5A21     		movs	r1, #90
 6139 000c FFF7FEFF 		bl	lsm6dsm_read_reg
 6140 0010 9DF80430 		ldrb	r3, [sp, #4]	@ zero_extendqisi2
 6141 0014 C3F30313 		ubfx	r3, r3, #4, #4
 6142 0018 2370     		strb	r3, [r4]
 6143 001a 02B0     		add	sp, sp, #8
 6144              		@ sp needed
 6145 001c 10BD     		pop	{r4, pc}
 6147              		.section	.text.lsm6dsm_tap_mode_set,"ax",%progbits
 6148              		.align	1
 6149              		.global	lsm6dsm_tap_mode_set
 6150              		.syntax unified
 6151              		.thumb
 6152              		.thumb_func
 6154              	lsm6dsm_tap_mode_set:
 6155              		@ args = 0, pretend = 0, frame = 8
 6156              		@ frame_needed = 0, uses_anonymous_args = 0
 6157 0000 30B5     		push	{r4, r5, lr}
 6158 0002 83B0     		sub	sp, sp, #12
 6159 0004 0446     		mov	r4, r0
 6160 0006 0D46     		mov	r5, r1
 6161 0008 0123     		movs	r3, #1
 6162 000a 01AA     		add	r2, sp, #4
 6163 000c 5B21     		movs	r1, #91
 6164 000e FFF7FEFF 		bl	lsm6dsm_read_reg
 6165 0012 08B1     		cbz	r0, .L754
 6166              	.L751:
 6167 0014 03B0     		add	sp, sp, #12
 6168              		@ sp needed
 6169 0016 30BD     		pop	{r4, r5, pc}
 6170              	.L754:
 6171 0018 9DF80430 		ldrb	r3, [sp, #4]	@ zero_extendqisi2
 6172 001c 65F3C713 		bfi	r3, r5, #7, #1
 6173 0020 8DF80430 		strb	r3, [sp, #4]
 6174 0024 0123     		movs	r3, #1
 6175 0026 01AA     		add	r2, sp, #4
 6176 0028 5B21     		movs	r1, #91
 6177 002a 2046     		mov	r0, r4
 6178 002c FFF7FEFF 		bl	lsm6dsm_write_reg
 6179 0030 F0E7     		b	.L751
 6181              		.section	.text.lsm6dsm_tap_mode_get,"ax",%progbits
 6182              		.align	1
 6183              		.global	lsm6dsm_tap_mode_get
 6184              		.syntax unified
 6185              		.thumb
ARM GAS  C:\Users\Nathan\AppData\Local\Temp\ccnGQm3b.s 			page 104


 6186              		.thumb_func
 6188              	lsm6dsm_tap_mode_get:
 6189              		@ args = 0, pretend = 0, frame = 8
 6190              		@ frame_needed = 0, uses_anonymous_args = 0
 6191 0000 10B5     		push	{r4, lr}
 6192 0002 82B0     		sub	sp, sp, #8
 6193 0004 0C46     		mov	r4, r1
 6194 0006 0123     		movs	r3, #1
 6195 0008 01AA     		add	r2, sp, #4
 6196 000a 5B21     		movs	r1, #91
 6197 000c FFF7FEFF 		bl	lsm6dsm_read_reg
 6198 0010 9DF80430 		ldrb	r3, [sp, #4]	@ zero_extendqisi2
 6199 0014 DB09     		lsrs	r3, r3, #7
 6200 0016 03D0     		beq	.L756
 6201 0018 33B9     		cbnz	r3, .L757
 6202 001a 0023     		movs	r3, #0
 6203 001c 2370     		strb	r3, [r4]
 6204 001e 01E0     		b	.L755
 6205              	.L756:
 6206 0020 0023     		movs	r3, #0
 6207 0022 2370     		strb	r3, [r4]
 6208              	.L755:
 6209 0024 02B0     		add	sp, sp, #8
 6210              		@ sp needed
 6211 0026 10BD     		pop	{r4, pc}
 6212              	.L757:
 6213 0028 0123     		movs	r3, #1
 6214 002a 2370     		strb	r3, [r4]
 6215 002c FAE7     		b	.L755
 6217              		.section	.text.lsm6dsm_6d_feed_data_set,"ax",%progbits
 6218              		.align	1
 6219              		.global	lsm6dsm_6d_feed_data_set
 6220              		.syntax unified
 6221              		.thumb
 6222              		.thumb_func
 6224              	lsm6dsm_6d_feed_data_set:
 6225              		@ args = 0, pretend = 0, frame = 8
 6226              		@ frame_needed = 0, uses_anonymous_args = 0
 6227 0000 30B5     		push	{r4, r5, lr}
 6228 0002 83B0     		sub	sp, sp, #12
 6229 0004 0446     		mov	r4, r0
 6230 0006 0D46     		mov	r5, r1
 6231 0008 0123     		movs	r3, #1
 6232 000a 01AA     		add	r2, sp, #4
 6233 000c 1721     		movs	r1, #23
 6234 000e FFF7FEFF 		bl	lsm6dsm_read_reg
 6235 0012 08B1     		cbz	r0, .L765
 6236              	.L762:
 6237 0014 03B0     		add	sp, sp, #12
 6238              		@ sp needed
 6239 0016 30BD     		pop	{r4, r5, pc}
 6240              	.L765:
 6241 0018 9DF80430 		ldrb	r3, [sp, #4]	@ zero_extendqisi2
 6242 001c 65F30003 		bfi	r3, r5, #0, #1
 6243 0020 8DF80430 		strb	r3, [sp, #4]
 6244 0024 0123     		movs	r3, #1
 6245 0026 01AA     		add	r2, sp, #4
ARM GAS  C:\Users\Nathan\AppData\Local\Temp\ccnGQm3b.s 			page 105


 6246 0028 1721     		movs	r1, #23
 6247 002a 2046     		mov	r0, r4
 6248 002c FFF7FEFF 		bl	lsm6dsm_write_reg
 6249 0030 F0E7     		b	.L762
 6251              		.section	.text.lsm6dsm_6d_feed_data_get,"ax",%progbits
 6252              		.align	1
 6253              		.global	lsm6dsm_6d_feed_data_get
 6254              		.syntax unified
 6255              		.thumb
 6256              		.thumb_func
 6258              	lsm6dsm_6d_feed_data_get:
 6259              		@ args = 0, pretend = 0, frame = 8
 6260              		@ frame_needed = 0, uses_anonymous_args = 0
 6261 0000 10B5     		push	{r4, lr}
 6262 0002 82B0     		sub	sp, sp, #8
 6263 0004 0C46     		mov	r4, r1
 6264 0006 0123     		movs	r3, #1
 6265 0008 01AA     		add	r2, sp, #4
 6266 000a 1721     		movs	r1, #23
 6267 000c FFF7FEFF 		bl	lsm6dsm_read_reg
 6268 0010 9DF80430 		ldrb	r3, [sp, #4]	@ zero_extendqisi2
 6269 0014 13F00103 		ands	r3, r3, #1
 6270 0018 03D0     		beq	.L767
 6271 001a 33B9     		cbnz	r3, .L768
 6272 001c 0023     		movs	r3, #0
 6273 001e 2370     		strb	r3, [r4]
 6274 0020 01E0     		b	.L766
 6275              	.L767:
 6276 0022 0023     		movs	r3, #0
 6277 0024 2370     		strb	r3, [r4]
 6278              	.L766:
 6279 0026 02B0     		add	sp, sp, #8
 6280              		@ sp needed
 6281 0028 10BD     		pop	{r4, pc}
 6282              	.L768:
 6283 002a 0123     		movs	r3, #1
 6284 002c 2370     		strb	r3, [r4]
 6285 002e FAE7     		b	.L766
 6287              		.section	.text.lsm6dsm_6d_threshold_set,"ax",%progbits
 6288              		.align	1
 6289              		.global	lsm6dsm_6d_threshold_set
 6290              		.syntax unified
 6291              		.thumb
 6292              		.thumb_func
 6294              	lsm6dsm_6d_threshold_set:
 6295              		@ args = 0, pretend = 0, frame = 8
 6296              		@ frame_needed = 0, uses_anonymous_args = 0
 6297 0000 30B5     		push	{r4, r5, lr}
 6298 0002 83B0     		sub	sp, sp, #12
 6299 0004 0446     		mov	r4, r0
 6300 0006 0D46     		mov	r5, r1
 6301 0008 0123     		movs	r3, #1
 6302 000a 01AA     		add	r2, sp, #4
 6303 000c 5921     		movs	r1, #89
 6304 000e FFF7FEFF 		bl	lsm6dsm_read_reg
 6305 0012 08B1     		cbz	r0, .L776
 6306              	.L773:
ARM GAS  C:\Users\Nathan\AppData\Local\Temp\ccnGQm3b.s 			page 106


 6307 0014 03B0     		add	sp, sp, #12
 6308              		@ sp needed
 6309 0016 30BD     		pop	{r4, r5, pc}
 6310              	.L776:
 6311 0018 9DF80430 		ldrb	r3, [sp, #4]	@ zero_extendqisi2
 6312 001c 65F34613 		bfi	r3, r5, #5, #2
 6313 0020 8DF80430 		strb	r3, [sp, #4]
 6314 0024 0123     		movs	r3, #1
 6315 0026 01AA     		add	r2, sp, #4
 6316 0028 5921     		movs	r1, #89
 6317 002a 2046     		mov	r0, r4
 6318 002c FFF7FEFF 		bl	lsm6dsm_write_reg
 6319 0030 F0E7     		b	.L773
 6321              		.section	.text.lsm6dsm_6d_threshold_get,"ax",%progbits
 6322              		.align	1
 6323              		.global	lsm6dsm_6d_threshold_get
 6324              		.syntax unified
 6325              		.thumb
 6326              		.thumb_func
 6328              	lsm6dsm_6d_threshold_get:
 6329              		@ args = 0, pretend = 0, frame = 8
 6330              		@ frame_needed = 0, uses_anonymous_args = 0
 6331 0000 10B5     		push	{r4, lr}
 6332 0002 82B0     		sub	sp, sp, #8
 6333 0004 0C46     		mov	r4, r1
 6334 0006 0123     		movs	r3, #1
 6335 0008 01AA     		add	r2, sp, #4
 6336 000a 5921     		movs	r1, #89
 6337 000c FFF7FEFF 		bl	lsm6dsm_read_reg
 6338 0010 9DF80430 		ldrb	r3, [sp, #4]	@ zero_extendqisi2
 6339 0014 C3F34113 		ubfx	r3, r3, #5, #2
 6340 0018 032B     		cmp	r3, #3
 6341 001a 10D8     		bhi	.L778
 6342 001c DFE803F0 		tbb	[pc, r3]
 6343              	.L780:
 6344 0020 02       		.byte	(.L783-.L780)/2
 6345 0021 06       		.byte	(.L782-.L780)/2
 6346 0022 09       		.byte	(.L781-.L780)/2
 6347 0023 0C       		.byte	(.L779-.L780)/2
 6348              		.p2align 1
 6349              	.L783:
 6350 0024 0023     		movs	r3, #0
 6351 0026 2370     		strb	r3, [r4]
 6352              	.L777:
 6353 0028 02B0     		add	sp, sp, #8
 6354              		@ sp needed
 6355 002a 10BD     		pop	{r4, pc}
 6356              	.L782:
 6357 002c 0123     		movs	r3, #1
 6358 002e 2370     		strb	r3, [r4]
 6359 0030 FAE7     		b	.L777
 6360              	.L781:
 6361 0032 0223     		movs	r3, #2
 6362 0034 2370     		strb	r3, [r4]
 6363 0036 F7E7     		b	.L777
 6364              	.L779:
 6365 0038 0323     		movs	r3, #3
ARM GAS  C:\Users\Nathan\AppData\Local\Temp\ccnGQm3b.s 			page 107


 6366 003a 2370     		strb	r3, [r4]
 6367 003c F4E7     		b	.L777
 6368              	.L778:
 6369 003e 0023     		movs	r3, #0
 6370 0040 2370     		strb	r3, [r4]
 6371 0042 F1E7     		b	.L777
 6373              		.section	.text.lsm6dsm_4d_mode_set,"ax",%progbits
 6374              		.align	1
 6375              		.global	lsm6dsm_4d_mode_set
 6376              		.syntax unified
 6377              		.thumb
 6378              		.thumb_func
 6380              	lsm6dsm_4d_mode_set:
 6381              		@ args = 0, pretend = 0, frame = 8
 6382              		@ frame_needed = 0, uses_anonymous_args = 0
 6383 0000 30B5     		push	{r4, r5, lr}
 6384 0002 83B0     		sub	sp, sp, #12
 6385 0004 0446     		mov	r4, r0
 6386 0006 0D46     		mov	r5, r1
 6387 0008 0123     		movs	r3, #1
 6388 000a 01AA     		add	r2, sp, #4
 6389 000c 5921     		movs	r1, #89
 6390 000e FFF7FEFF 		bl	lsm6dsm_read_reg
 6391 0012 08B1     		cbz	r0, .L789
 6392              	.L786:
 6393 0014 03B0     		add	sp, sp, #12
 6394              		@ sp needed
 6395 0016 30BD     		pop	{r4, r5, pc}
 6396              	.L789:
 6397 0018 9DF80430 		ldrb	r3, [sp, #4]	@ zero_extendqisi2
 6398 001c 65F3C713 		bfi	r3, r5, #7, #1
 6399 0020 8DF80430 		strb	r3, [sp, #4]
 6400 0024 0123     		movs	r3, #1
 6401 0026 01AA     		add	r2, sp, #4
 6402 0028 5921     		movs	r1, #89
 6403 002a 2046     		mov	r0, r4
 6404 002c FFF7FEFF 		bl	lsm6dsm_write_reg
 6405 0030 F0E7     		b	.L786
 6407              		.section	.text.lsm6dsm_4d_mode_get,"ax",%progbits
 6408              		.align	1
 6409              		.global	lsm6dsm_4d_mode_get
 6410              		.syntax unified
 6411              		.thumb
 6412              		.thumb_func
 6414              	lsm6dsm_4d_mode_get:
 6415              		@ args = 0, pretend = 0, frame = 8
 6416              		@ frame_needed = 0, uses_anonymous_args = 0
 6417 0000 10B5     		push	{r4, lr}
 6418 0002 82B0     		sub	sp, sp, #8
 6419 0004 0C46     		mov	r4, r1
 6420 0006 0123     		movs	r3, #1
 6421 0008 01AA     		add	r2, sp, #4
 6422 000a 5921     		movs	r1, #89
 6423 000c FFF7FEFF 		bl	lsm6dsm_read_reg
 6424 0010 9DF80430 		ldrb	r3, [sp, #4]	@ zero_extendqisi2
 6425 0014 C3F3C013 		ubfx	r3, r3, #7, #1
 6426 0018 2370     		strb	r3, [r4]
ARM GAS  C:\Users\Nathan\AppData\Local\Temp\ccnGQm3b.s 			page 108


 6427 001a 02B0     		add	sp, sp, #8
 6428              		@ sp needed
 6429 001c 10BD     		pop	{r4, pc}
 6431              		.section	.text.lsm6dsm_ff_dur_set,"ax",%progbits
 6432              		.align	1
 6433              		.global	lsm6dsm_ff_dur_set
 6434              		.syntax unified
 6435              		.thumb
 6436              		.thumb_func
 6438              	lsm6dsm_ff_dur_set:
 6439              		@ args = 0, pretend = 0, frame = 8
 6440              		@ frame_needed = 0, uses_anonymous_args = 0
 6441 0000 30B5     		push	{r4, r5, lr}
 6442 0002 83B0     		sub	sp, sp, #12
 6443 0004 0546     		mov	r5, r0
 6444 0006 0C46     		mov	r4, r1
 6445 0008 0123     		movs	r3, #1
 6446 000a 6A46     		mov	r2, sp
 6447 000c 5D21     		movs	r1, #93
 6448 000e FFF7FEFF 		bl	lsm6dsm_read_reg
 6449 0012 08B1     		cbz	r0, .L795
 6450              	.L792:
 6451 0014 03B0     		add	sp, sp, #12
 6452              		@ sp needed
 6453 0016 30BD     		pop	{r4, r5, pc}
 6454              	.L795:
 6455 0018 9DF80030 		ldrb	r3, [sp]	@ zero_extendqisi2
 6456 001c 64F3C703 		bfi	r3, r4, #3, #5
 6457 0020 8DF80030 		strb	r3, [sp]
 6458 0024 0123     		movs	r3, #1
 6459 0026 6A46     		mov	r2, sp
 6460 0028 5D21     		movs	r1, #93
 6461 002a 2846     		mov	r0, r5
 6462 002c FFF7FEFF 		bl	lsm6dsm_write_reg
 6463 0030 0028     		cmp	r0, #0
 6464 0032 EFD1     		bne	.L792
 6465 0034 0123     		movs	r3, #1
 6466 0036 01AA     		add	r2, sp, #4
 6467 0038 5C21     		movs	r1, #92
 6468 003a 2846     		mov	r0, r5
 6469 003c FFF7FEFF 		bl	lsm6dsm_read_reg
 6470 0040 0028     		cmp	r0, #0
 6471 0042 E7D1     		bne	.L792
 6472 0044 C4F34011 		ubfx	r1, r4, #5, #1
 6473 0048 9DF80430 		ldrb	r3, [sp, #4]	@ zero_extendqisi2
 6474 004c 61F3C713 		bfi	r3, r1, #7, #1
 6475 0050 8DF80430 		strb	r3, [sp, #4]
 6476 0054 0123     		movs	r3, #1
 6477 0056 01AA     		add	r2, sp, #4
 6478 0058 5C21     		movs	r1, #92
 6479 005a 2846     		mov	r0, r5
 6480 005c FFF7FEFF 		bl	lsm6dsm_write_reg
 6481 0060 D8E7     		b	.L792
 6483              		.section	.text.lsm6dsm_ff_dur_get,"ax",%progbits
 6484              		.align	1
 6485              		.global	lsm6dsm_ff_dur_get
 6486              		.syntax unified
ARM GAS  C:\Users\Nathan\AppData\Local\Temp\ccnGQm3b.s 			page 109


 6487              		.thumb
 6488              		.thumb_func
 6490              	lsm6dsm_ff_dur_get:
 6491              		@ args = 0, pretend = 0, frame = 8
 6492              		@ frame_needed = 0, uses_anonymous_args = 0
 6493 0000 30B5     		push	{r4, r5, lr}
 6494 0002 83B0     		sub	sp, sp, #12
 6495 0004 0546     		mov	r5, r0
 6496 0006 0C46     		mov	r4, r1
 6497 0008 0123     		movs	r3, #1
 6498 000a 01AA     		add	r2, sp, #4
 6499 000c 5C21     		movs	r1, #92
 6500 000e FFF7FEFF 		bl	lsm6dsm_read_reg
 6501 0012 50B1     		cbz	r0, .L799
 6502              	.L797:
 6503 0014 9DF80420 		ldrb	r2, [sp, #4]	@ zero_extendqisi2
 6504 0018 D209     		lsrs	r2, r2, #7
 6505 001a 9DF80030 		ldrb	r3, [sp]	@ zero_extendqisi2
 6506 001e DB08     		lsrs	r3, r3, #3
 6507 0020 03EB4213 		add	r3, r3, r2, lsl #5
 6508 0024 2370     		strb	r3, [r4]
 6509 0026 03B0     		add	sp, sp, #12
 6510              		@ sp needed
 6511 0028 30BD     		pop	{r4, r5, pc}
 6512              	.L799:
 6513 002a 0123     		movs	r3, #1
 6514 002c 6A46     		mov	r2, sp
 6515 002e 5D21     		movs	r1, #93
 6516 0030 2846     		mov	r0, r5
 6517 0032 FFF7FEFF 		bl	lsm6dsm_read_reg
 6518 0036 EDE7     		b	.L797
 6520              		.section	.text.lsm6dsm_ff_threshold_set,"ax",%progbits
 6521              		.align	1
 6522              		.global	lsm6dsm_ff_threshold_set
 6523              		.syntax unified
 6524              		.thumb
 6525              		.thumb_func
 6527              	lsm6dsm_ff_threshold_set:
 6528              		@ args = 0, pretend = 0, frame = 8
 6529              		@ frame_needed = 0, uses_anonymous_args = 0
 6530 0000 30B5     		push	{r4, r5, lr}
 6531 0002 83B0     		sub	sp, sp, #12
 6532 0004 0446     		mov	r4, r0
